libbotan-1.10.so.1 libbotan-1.10-1 #MINVER#
 _ZN5Botan10BER_Object11assert_is_aENS_8ASN1_TagES1_@Base 1.10.10
 _ZN5Botan10DataSource12discard_nextEm@Base 1.10.12
 _ZN5Botan10DataSource9read_byteERh@Base 1.10.10
 _ZN5Botan10Data_Store3addERKNSt7__cxx1112basic_stringIcSt11char_traitsIcESaIcEEERKNS_12MemoryRegionIhEE@Base 1.10.10
 _ZN5Botan10Data_Store3addERKNSt7__cxx1112basic_stringIcSt11char_traitsIcESaIcEEES8_@Base 1.10.10
 _ZN5Botan10Data_Store3addERKNSt7__cxx1112basic_stringIcSt11char_traitsIcESaIcEEEj@Base 1.10.10
 _ZN5Botan10Data_Store3addERKSt8multimapINSt7__cxx1112basic_stringIcSt11char_traitsIcESaIcEEES7_St4lessIS7_ESaISt4pairIKS7_S7_EEE@Base 1.10.10
 _ZN5Botan10Extensions11decode_fromERNS_11BER_DecoderE@Base 1.10.10
 _ZN5Botan10Extensions13get_extensionERKNS_3OIDE@Base 1.10.10
 _ZN5Botan10Extensions3addEPNS_21Certificate_ExtensionEb@Base 1.10.10
 _ZN5Botan10ExtensionsC1ERKS0_@Base 1.10.10
 _ZN5Botan10ExtensionsC2ERKS0_@Base 1.10.10
 _ZN5Botan10ExtensionsD0Ev@Base 1.10.10
 _ZN5Botan10ExtensionsD1Ev@Base 1.10.10
 _ZN5Botan10ExtensionsD2Ev@Base 1.10.10
 _ZN5Botan10ExtensionsaSERKS0_@Base 1.10.10
 _ZN5Botan10GOST_34_1110compress_nEPKhm@Base 1.10.12
 _ZN5Botan10GOST_34_1112final_resultEPh@Base 1.10.10
 _ZN5Botan10GOST_34_115clearEv@Base 1.10.10
 _ZN5Botan10GOST_34_118add_dataEPKhm@Base 1.10.12
 _ZN5Botan10GOST_34_11C1Ev@Base 1.10.10
 _ZN5Botan10GOST_34_11C2Ev@Base 1.10.10
 _ZN5Botan10GOST_34_11D0Ev@Base 1.10.10
 _ZN5Botan10GOST_34_11D1Ev@Base 1.10.10
 _ZN5Botan10GOST_34_11D2Ev@Base 1.10.10
 _ZN5Botan10MAC_Filter5writeEPKhm@Base 1.10.12
 _ZN5Botan10MAC_Filter7end_msgEv@Base 1.10.10
 _ZN5Botan10MAC_Filter7set_keyERKNS_11OctetStringE@Base 1.10.10
 _ZN5Botan10MAC_FilterC1ERKNSt7__cxx1112basic_stringIcSt11char_traitsIcESaIcEEERKNS_11OctetStringEm@Base 1.10.12
 _ZN5Botan10MAC_FilterC1ERKNSt7__cxx1112basic_stringIcSt11char_traitsIcESaIcEEEm@Base 1.10.12
 _ZN5Botan10MAC_FilterC2ERKNSt7__cxx1112basic_stringIcSt11char_traitsIcESaIcEEERKNS_11OctetStringEm@Base 1.10.12
 _ZN5Botan10MAC_FilterC2ERKNSt7__cxx1112basic_stringIcSt11char_traitsIcESaIcEEEm@Base 1.10.12
 _ZN5Botan10MAC_FilterD0Ev@Base 1.10.10
 _ZN5Botan10MAC_FilterD1Ev@Base 1.10.10
 _ZN5Botan10MAC_FilterD2Ev@Base 1.10.10
 _ZN5Botan10PGP_decodeERNS_10DataSourceERNSt7__cxx1112basic_stringIcSt11char_traitsIcESaIcEEE@Base 1.10.10
 _ZN5Botan10PGP_decodeERNS_10DataSourceERNSt7__cxx1112basic_stringIcSt11char_traitsIcESaIcEEERSt3mapIS7_S7_St4lessIS7_ESaISt4pairIKS7_S7_EEE@Base 1.10.10
 _ZN5Botan10PGP_encodeEPKhmRKNSt7__cxx1112basic_stringIcSt11char_traitsIcESaIcEEE@Base 1.10.12
 _ZN5Botan10PGP_encodeEPKhmRKNSt7__cxx1112basic_stringIcSt11char_traitsIcESaIcEEERKSt3mapIS7_S7_St4lessIS7_ESaISt4pairIS8_S7_EEE@Base 1.10.12
 _ZN5Botan10RIPEMD_12810compress_nEPKhm@Base 1.10.12
 _ZN5Botan10RIPEMD_1285clearEv@Base 1.10.10
 _ZN5Botan10RIPEMD_1288copy_outEPh@Base 1.10.10
 _ZN5Botan10RIPEMD_128C1Ev@Base 1.10.10
 _ZN5Botan10RIPEMD_128C2Ev@Base 1.10.10
 _ZN5Botan10RIPEMD_128D0Ev@Base 1.10.10
 _ZN5Botan10RIPEMD_128D1Ev@Base 1.10.10
 _ZN5Botan10RIPEMD_128D2Ev@Base 1.10.10
 _ZN5Botan10RIPEMD_16010compress_nEPKhm@Base 1.10.12
 _ZN5Botan10RIPEMD_1605clearEv@Base 1.10.10
 _ZN5Botan10RIPEMD_1608copy_outEPh@Base 1.10.10
 _ZN5Botan10RIPEMD_160C1Ev@Base 1.10.10
 _ZN5Botan10RIPEMD_160C2Ev@Base 1.10.10
 _ZN5Botan10RIPEMD_160D0Ev@Base 1.10.10
 _ZN5Botan10RIPEMD_160D1Ev@Base 1.10.10
 _ZN5Botan10RIPEMD_160D2Ev@Base 1.10.10
 _ZN5Botan10RTSS_Share11reconstructERKSt6vectorIS0_SaIS0_EE@Base 1.10.10
 _ZN5Botan10RTSS_Share5splitEhhPKhtS2_RNS_21RandomNumberGeneratorE@Base 1.10.10
 _ZN5Botan10RTSS_ShareC1ERKNSt7__cxx1112basic_stringIcSt11char_traitsIcESaIcEEE@Base 1.10.10
 _ZN5Botan10RTSS_ShareC2ERKNSt7__cxx1112basic_stringIcSt11char_traitsIcESaIcEEE@Base 1.10.10
 _ZN5Botan10TLS_12_PRFC1EPNS_25MessageAuthenticationCodeE@Base 1.10.10
 _ZN5Botan10TLS_12_PRFC2EPNS_25MessageAuthenticationCodeE@Base 1.10.10
 _ZN5Botan10TLS_12_PRFD0Ev@Base 1.10.10
 _ZN5Botan10TLS_12_PRFD1Ev@Base 1.10.10
 _ZN5Botan10TLS_12_PRFD2Ev@Base 1.10.10
 _ZN5Botan10TLS_Client10initializeEv@Base 1.10.10
 _ZN5Botan10TLS_Client12do_handshakeEv@Base 1.10.10
 _ZN5Botan10TLS_Client13state_machineEv@Base 1.10.10
 _ZN5Botan10TLS_Client14read_handshakeEhRKNS_12MemoryRegionIhEE@Base 1.10.10
 _ZN5Botan10TLS_Client15add_client_certERKNS_16X509_CertificateEPNS_11Private_KeyE@Base 1.10.10
 _ZN5Botan10TLS_Client21process_handshake_msgENS_14Handshake_TypeERKNS_12MemoryRegionIhEE@Base 1.10.10
 _ZN5Botan10TLS_Client4readEPhm@Base 1.10.12
 _ZN5Botan10TLS_Client5closeENS_11Alert_LevelENS_10Alert_TypeE@Base 1.10.10
 _ZN5Botan10TLS_Client5closeEv@Base 1.10.10
 _ZN5Botan10TLS_Client5writeEPKhm@Base 1.10.12
 _ZN5Botan10TLS_ClientC1ENSt3tr18functionIFmPhmEEENS2_IFvPKhmEEERKNS_10TLS_PolicyERNS_21RandomNumberGeneratorE@Base 1.10.10
 _ZN5Botan10TLS_ClientC2ENSt3tr18functionIFmPhmEEENS2_IFvPKhmEEERKNS_10TLS_PolicyERNS_21RandomNumberGeneratorE@Base 1.10.10
 _ZN5Botan10TLS_ClientD0Ev@Base 1.10.10
 _ZN5Botan10TLS_ClientD1Ev@Base 1.10.10
 _ZN5Botan10TLS_ClientD2Ev@Base 1.10.10
 _ZN5Botan10TLS_Server12do_handshakeEv@Base 1.10.10
 _ZN5Botan10TLS_Server13state_machineEv@Base 1.10.10
 _ZN5Botan10TLS_Server14read_handshakeEhRKNS_12MemoryRegionIhEE@Base 1.10.10
 _ZN5Botan10TLS_Server21process_handshake_msgENS_14Handshake_TypeERKNS_12MemoryRegionIhEE@Base 1.10.10
 _ZN5Botan10TLS_Server4readEPhm@Base 1.10.12
 _ZN5Botan10TLS_Server5closeENS_11Alert_LevelENS_10Alert_TypeE@Base 1.10.10
 _ZN5Botan10TLS_Server5closeEv@Base 1.10.10
 _ZN5Botan10TLS_Server5writeEPKhm@Base 1.10.12
 _ZN5Botan10TLS_ServerC1ENSt3tr18functionIFmPhmEEENS2_IFvPKhmEEERKNS_10TLS_PolicyERNS_21RandomNumberGeneratorERKNS_16X509_CertificateERKNS_11Private_KeyE@Base 1.10.10
 _ZN5Botan10TLS_ServerC2ENSt3tr18functionIFmPhmEEENS2_IFvPKhmEEERKNS_10TLS_PolicyERNS_21RandomNumberGeneratorERKNS_16X509_CertificateERKNS_11Private_KeyE@Base 1.10.10
 _ZN5Botan10TLS_ServerD0Ev@Base 1.10.10
 _ZN5Botan10TLS_ServerD1Ev@Base 1.10.10
 _ZN5Botan10TLS_ServerD2Ev@Base 1.10.10
 _ZN5Botan10X509_Store12do_add_certsERNS_10DataSourceEb@Base 1.10.10
 _ZN5Botan10X509_Store13validate_certERKNS_16X509_CertificateENS0_10Cert_UsageE@Base 1.10.10
 _ZN5Botan10X509_Store14find_parent_ofERKNS_16X509_CertificateE@Base 1.10.10
 _ZN5Botan10X509_Store14get_cert_chainERKNS_16X509_CertificateE@Base 1.10.10
 _ZN5Botan10X509_Store17add_new_certstoreEPNS_17Certificate_StoreE@Base 1.10.10
 _ZN5Botan10X509_Store17add_trusted_certsERNS_10DataSourceE@Base 1.10.10
 _ZN5Botan10X509_Store20construct_cert_chainERKNS_16X509_CertificateERSt6vectorImSaImEEb@Base 1.10.12
 _ZN5Botan10X509_Store7add_crlERKNS_8X509_CRLE@Base 1.10.10
 _ZN5Botan10X509_Store8CRL_DataC1ERKS1_@Base 1.10.10
 _ZN5Botan10X509_Store8CRL_DataC2ERKS1_@Base 1.10.10
 _ZN5Botan10X509_Store8CRL_DataD1Ev@Base 1.10.10
 _ZN5Botan10X509_Store8CRL_DataD2Ev@Base 1.10.10
 _ZN5Botan10X509_Store8CRL_DataaSERKS1_@Base 1.10.10
 _ZN5Botan10X509_Store8add_certERKNS_16X509_CertificateEb@Base 1.10.10
 _ZN5Botan10X509_Store9Cert_InfoC1ERKNS_16X509_CertificateEb@Base 1.10.10
 _ZN5Botan10X509_Store9Cert_InfoC2ERKNS_16X509_CertificateEb@Base 1.10.10
 _ZN5Botan10X509_Store9add_certsERNS_10DataSourceE@Base 1.10.10
 _ZN5Botan10X509_Store9check_sigERKNS_11X509_ObjectEPNS_10Public_KeyE@Base 1.10.10
 _ZN5Botan10X509_StoreC1ERKS0_@Base 1.10.10
 _ZN5Botan10X509_StoreC1Ejj@Base 1.10.10
 _ZN5Botan10X509_StoreC2ERKS0_@Base 1.10.10
 _ZN5Botan10X509_StoreC2Ejj@Base 1.10.10
 _ZN5Botan10X509_StoreD1Ev@Base 1.10.10
 _ZN5Botan10X509_StoreD2Ev@Base 1.10.10
 _ZN5Botan10get_cipherERKNSt7__cxx1112basic_stringIcSt11char_traitsIcESaIcEEENS_10Cipher_DirE@Base 1.10.10
 _ZN5Botan10get_cipherERKNSt7__cxx1112basic_stringIcSt11char_traitsIcESaIcEEERKNS_11OctetStringENS_10Cipher_DirE@Base 1.10.10
 _ZN5Botan10get_cipherERKNSt7__cxx1112basic_stringIcSt11char_traitsIcESaIcEEERKNS_11OctetStringESA_NS_10Cipher_DirE@Base 1.10.10
 _ZN5Botan10hex_decodeEPKcmb@Base 1.10.12
 _ZN5Botan10hex_decodeEPhPKcmRmb@Base 1.10.12
 _ZN5Botan10hex_decodeEPhPKcmb@Base 1.10.12
 _ZN5Botan10hex_decodeEPhRKNSt7__cxx1112basic_stringIcSt11char_traitsIcESaIcEEEb@Base 1.10.10
 _ZN5Botan10hex_decodeERKNSt7__cxx1112basic_stringIcSt11char_traitsIcESaIcEEEb@Base 1.10.10
 _ZN5Botan10hex_encodeB5cxx11EPKhmb@Base 1.10.12
 _ZN5Botan10hex_encodeB5cxx11ERKNS_12MemoryRegionIhEEb@Base 1.10.10
 _ZN5Botan10hex_encodeEPcPKhmb@Base 1.10.12
 _ZN5Botan11ASN1_String11decode_fromERNS_11BER_DecoderE@Base 1.10.10
 _ZN5Botan11ASN1_StringC1ERKNSt7__cxx1112basic_stringIcSt11char_traitsIcESaIcEEE@Base 1.10.10
 _ZN5Botan11ASN1_StringC1ERKNSt7__cxx1112basic_stringIcSt11char_traitsIcESaIcEEENS_8ASN1_TagE@Base 1.10.10
 _ZN5Botan11ASN1_StringC2ERKNSt7__cxx1112basic_stringIcSt11char_traitsIcESaIcEEE@Base 1.10.10
 _ZN5Botan11ASN1_StringC2ERKNSt7__cxx1112basic_stringIcSt11char_traitsIcESaIcEEENS_8ASN1_TagE@Base 1.10.10
 _ZN5Botan11ASN1_StringD0Ev@Base 1.10.10
 _ZN5Botan11ASN1_StringD1Ev@Base 1.10.10
 _ZN5Botan11ASN1_StringD2Ev@Base 1.10.10
 _ZN5Botan11BER_Bad_TagC1ERKNSt7__cxx1112basic_stringIcSt11char_traitsIcESaIcEEENS_8ASN1_TagE@Base 1.10.10
 _ZN5Botan11BER_Bad_TagC1ERKNSt7__cxx1112basic_stringIcSt11char_traitsIcESaIcEEENS_8ASN1_TagES9_@Base 1.10.10
 _ZN5Botan11BER_Bad_TagC2ERKNSt7__cxx1112basic_stringIcSt11char_traitsIcESaIcEEENS_8ASN1_TagE@Base 1.10.10
 _ZN5Botan11BER_Bad_TagC2ERKNSt7__cxx1112basic_stringIcSt11char_traitsIcESaIcEEENS_8ASN1_TagES9_@Base 1.10.10
 _ZN5Botan11BER_Bad_TagD0Ev@Base 1.10.10
 _ZN5Botan11BER_Bad_TagD1Ev@Base 1.10.10
 _ZN5Botan11BER_Bad_TagD2Ev@Base 1.10.10
 _ZN5Botan11BER_Decoder10start_consENS_8ASN1_TagES1_@Base 1.10.10
 _ZN5Botan11BER_Decoder10verify_endEv@Base 1.10.10
 _ZN5Botan11BER_Decoder11decode_listINS_3OIDEEERS0_RSt6vectorIT_SaIS5_EEb@Base 1.10.10
 _ZN5Botan11BER_Decoder11decode_nullEv@Base 1.10.10
 _ZN5Botan11BER_Decoder15get_next_objectEv@Base 1.10.10
 _ZN5Botan11BER_Decoder17discard_remainingEv@Base 1.10.10
 _ZN5Botan11BER_Decoder22decode_optional_stringERNS_12MemoryRegionIhEENS_8ASN1_TagEt@Base 1.10.10
 _ZN5Botan11BER_Decoder26decode_octet_string_bigintERNS_6BigIntE@Base 1.10.10
 _ZN5Botan11BER_Decoder6decodeERNS_11ASN1_ObjectE@Base 1.10.10
 _ZN5Botan11BER_Decoder6decodeERNS_12MemoryRegionIhEENS_8ASN1_TagE@Base 1.10.10
 _ZN5Botan11BER_Decoder6decodeERNS_12MemoryRegionIhEENS_8ASN1_TagES4_S4_@Base 1.10.10
 _ZN5Botan11BER_Decoder6decodeERNS_6BigIntE@Base 1.10.10
 _ZN5Botan11BER_Decoder6decodeERNS_6BigIntENS_8ASN1_TagES3_@Base 1.10.10
 _ZN5Botan11BER_Decoder6decodeERb@Base 1.10.10
 _ZN5Botan11BER_Decoder6decodeERbNS_8ASN1_TagES2_@Base 1.10.10
 _ZN5Botan11BER_Decoder6decodeERm@Base 1.10.12
 _ZN5Botan11BER_Decoder6decodeERmNS_8ASN1_TagES2_@Base 1.10.12
 _ZN5Botan11BER_Decoder8end_consEv@Base 1.10.10
 _ZN5Botan11BER_Decoder9push_backERKNS_10BER_ObjectE@Base 1.10.10
 _ZN5Botan11BER_Decoder9raw_bytesERNS_12MemoryRegionIhEE@Base 1.10.10
 _ZN5Botan11BER_DecoderC1EPKhm@Base 1.10.12
 _ZN5Botan11BER_DecoderC1ERKNS_12MemoryRegionIhEE@Base 1.10.10
 _ZN5Botan11BER_DecoderC1ERKS0_@Base 1.10.10
 _ZN5Botan11BER_DecoderC1ERNS_10DataSourceE@Base 1.10.10
 _ZN5Botan11BER_DecoderC2EPKhm@Base 1.10.12
 _ZN5Botan11BER_DecoderC2ERKNS_12MemoryRegionIhEE@Base 1.10.10
 _ZN5Botan11BER_DecoderC2ERKS0_@Base 1.10.10
 _ZN5Botan11BER_DecoderC2ERNS_10DataSourceE@Base 1.10.10
 _ZN5Botan11BER_DecoderD1Ev@Base 1.10.10
 _ZN5Botan11BER_DecoderD2Ev@Base 1.10.10
 _ZN5Botan11CipherSuite18lookup_ciphersuiteEt@Base 1.10.10
 _ZN5Botan11CipherSuiteC1Et@Base 1.10.10
 _ZN5Botan11CipherSuiteC2Et@Base 1.10.10
 _ZN5Botan11CipherSuiteD1Ev@Base 1.10.10
 _ZN5Botan11CipherSuiteD2Ev@Base 1.10.10
 _ZN5Botan11DER_Encoder10add_objectENS_8ASN1_TagES1_PKhm@Base 1.10.12
 _ZN5Botan11DER_Encoder10add_objectENS_8ASN1_TagES1_RKNS_12MemoryRegionIhEE@Base 1.10.10
 _ZN5Botan11DER_Encoder10add_objectENS_8ASN1_TagES1_RKNSt7__cxx1112basic_stringIcSt11char_traitsIcESaIcEEE@Base 1.10.10
 _ZN5Botan11DER_Encoder10add_objectENS_8ASN1_TagES1_h@Base 1.10.10
 _ZN5Botan11DER_Encoder10start_consENS_8ASN1_TagES1_@Base 1.10.10
 _ZN5Botan11DER_Encoder11encode_nullEv@Base 1.10.10
 _ZN5Botan11DER_Encoder12DER_Sequence12get_contentsEv@Base 1.10.10
 _ZN5Botan11DER_Encoder12DER_Sequence9add_bytesEPKhm@Base 1.10.12
 _ZN5Botan11DER_Encoder12DER_SequenceC1ENS_8ASN1_TagES2_@Base 1.10.10
 _ZN5Botan11DER_Encoder12DER_SequenceC2ENS_8ASN1_TagES2_@Base 1.10.10
 _ZN5Botan11DER_Encoder12DER_SequenceD1Ev@Base 1.10.10
 _ZN5Botan11DER_Encoder12DER_SequenceD2Ev@Base 1.10.10
 _ZN5Botan11DER_Encoder12end_explicitEv@Base 1.10.10
 _ZN5Botan11DER_Encoder12get_contentsEv@Base 1.10.10
 _ZN5Botan11DER_Encoder14start_explicitEt@Base 1.10.10
 _ZN5Botan11DER_Encoder6encodeEPKhmNS_8ASN1_TagE@Base 1.10.12
 _ZN5Botan11DER_Encoder6encodeEPKhmNS_8ASN1_TagES3_S3_@Base 1.10.12
 _ZN5Botan11DER_Encoder6encodeERKNS_11ASN1_ObjectE@Base 1.10.10
 _ZN5Botan11DER_Encoder6encodeERKNS_12MemoryRegionIhEENS_8ASN1_TagE@Base 1.10.10
 _ZN5Botan11DER_Encoder6encodeERKNS_12MemoryRegionIhEENS_8ASN1_TagES5_S5_@Base 1.10.10
 _ZN5Botan11DER_Encoder6encodeERKNS_6BigIntE@Base 1.10.10
 _ZN5Botan11DER_Encoder6encodeERKNS_6BigIntENS_8ASN1_TagES4_@Base 1.10.10
 _ZN5Botan11DER_Encoder6encodeEb@Base 1.10.10
 _ZN5Botan11DER_Encoder6encodeEbNS_8ASN1_TagES1_@Base 1.10.10
 _ZN5Botan11DER_Encoder6encodeEm@Base 1.10.12
 _ZN5Botan11DER_Encoder6encodeEmNS_8ASN1_TagES1_@Base 1.10.12
 _ZN5Botan11DER_Encoder8end_consEv@Base 1.10.10
 _ZN5Botan11DER_Encoder9encode_ifEbRS0_@Base 1.10.10
 _ZN5Botan11DER_Encoder9raw_bytesEPKhm@Base 1.10.12
 _ZN5Botan11DER_Encoder9raw_bytesERKNS_12MemoryRegionIhEE@Base 1.10.10
 _ZN5Botan11DER_EncoderD1Ev@Base 1.10.10
 _ZN5Botan11DER_EncoderD2Ev@Base 1.10.10
 _ZN5Botan11Hash_Filter5writeEPKhm@Base 1.10.12
 _ZN5Botan11Hash_Filter7end_msgEv@Base 1.10.10
 _ZN5Botan11Hash_FilterC1ERKNSt7__cxx1112basic_stringIcSt11char_traitsIcESaIcEEEm@Base 1.10.12
 _ZN5Botan11Hash_FilterC2ERKNSt7__cxx1112basic_stringIcSt11char_traitsIcESaIcEEEm@Base 1.10.12
 _ZN5Botan11Hash_FilterD0Ev@Base 1.10.10
 _ZN5Botan11Hash_FilterD1Ev@Base 1.10.10
 _ZN5Botan11Hash_FilterD2Ev@Base 1.10.10
 _ZN5Botan11Hex_Decoder5writeEPKhm@Base 1.10.12
 _ZN5Botan11Hex_Decoder7end_msgEv@Base 1.10.10
 _ZN5Botan11Hex_DecoderC1ENS_16Decoder_CheckingE@Base 1.10.10
 _ZN5Botan11Hex_DecoderC2ENS_16Decoder_CheckingE@Base 1.10.10
 _ZN5Botan11Hex_DecoderD0Ev@Base 1.10.10
 _ZN5Botan11Hex_DecoderD1Ev@Base 1.10.10
 _ZN5Botan11Hex_DecoderD2Ev@Base 1.10.10
 _ZN5Botan11Hex_Encoder15encode_and_sendEPKhm@Base 1.10.12
 _ZN5Botan11Hex_Encoder5writeEPKhm@Base 1.10.12
 _ZN5Botan11Hex_Encoder7end_msgEv@Base 1.10.10
 _ZN5Botan11Hex_EncoderC1ENS0_4CaseE@Base 1.10.10
 _ZN5Botan11Hex_EncoderC1EbmNS0_4CaseE@Base 1.10.12
 _ZN5Botan11Hex_EncoderC2ENS0_4CaseE@Base 1.10.10
 _ZN5Botan11Hex_EncoderC2EbmNS0_4CaseE@Base 1.10.12
 _ZN5Botan11Hex_EncoderD0Ev@Base 1.10.10
 _ZN5Botan11Hex_EncoderD1Ev@Base 1.10.10
 _ZN5Botan11Hex_EncoderD2Ev@Base 1.10.10
 _ZN5Botan11Invalid_OIDC1ERKNSt7__cxx1112basic_stringIcSt11char_traitsIcESaIcEEE@Base 1.10.10
 _ZN5Botan11Invalid_OIDC2ERKNSt7__cxx1112basic_stringIcSt11char_traitsIcESaIcEEE@Base 1.10.10
 _ZN5Botan11Invalid_OIDD0Ev@Base 1.10.10
 _ZN5Botan11Invalid_OIDD1Ev@Base 1.10.10
 _ZN5Botan11Invalid_OIDD2Ev@Base 1.10.10
 _ZN5Botan11Keccak_160012final_resultEPh@Base 1.10.10
 _ZN5Botan11Keccak_16005clearEv@Base 1.10.10
 _ZN5Botan11Keccak_16008add_dataEPKhm@Base 1.10.12
 _ZN5Botan11Keccak_1600C1Em@Base 1.10.12
 _ZN5Botan11Keccak_1600C2Em@Base 1.10.12
 _ZN5Botan11Keccak_1600D0Ev@Base 1.10.10
 _ZN5Botan11Keccak_1600D1Ev@Base 1.10.10
 _ZN5Botan11Keccak_1600D2Ev@Base 1.10.10
 _ZN5Botan11LubyRackoff12key_scheduleEPKhm@Base 1.10.12
 _ZN5Botan11LubyRackoff5clearEv@Base 1.10.10
 _ZN5Botan11LubyRackoffC1EPNS_12HashFunctionE@Base 1.10.10
 _ZN5Botan11LubyRackoffC2EPNS_12HashFunctionE@Base 1.10.10
 _ZN5Botan11LubyRackoffD0Ev@Base 1.10.10
 _ZN5Botan11LubyRackoffD1Ev@Base 1.10.10
 _ZN5Botan11LubyRackoffD2Ev@Base 1.10.10
 _ZN5Botan11OctetString14set_odd_parityEv@Base 1.10.10
 _ZN5Botan11OctetString6changeEPKhm@Base 1.10.12
 _ZN5Botan11OctetString6changeERKNSt7__cxx1112basic_stringIcSt11char_traitsIcESaIcEEE@Base 1.10.10
 _ZN5Botan11OctetStringC1ERNS_21RandomNumberGeneratorEm@Base 1.10.12
 _ZN5Botan11OctetStringC2ERNS_21RandomNumberGeneratorEm@Base 1.10.12
 _ZN5Botan11OctetStringeOERKS0_@Base 1.10.10
 _ZN5Botan11OpenPGP_S2KD0Ev@Base 1.10.10
 _ZN5Botan11OpenPGP_S2KD1Ev@Base 1.10.10
 _ZN5Botan11OpenPGP_S2KD2Ev@Base 1.10.10
 _ZN5Botan11PK_Verifier14verify_messageEPKhmS2_m@Base 1.10.12
 _ZN5Botan11PK_Verifier15check_signatureEPKhm@Base 1.10.12
 _ZN5Botan11PK_Verifier16set_input_formatENS_16Signature_FormatE@Base 1.10.10
 _ZN5Botan11PK_Verifier18validate_signatureERKNS_12MemoryRegionIhEEPKhm@Base 1.10.12
 _ZN5Botan11PK_Verifier6updateEPKhm@Base 1.10.12
 _ZN5Botan11PK_VerifierC1ERKNS_10Public_KeyERKNSt7__cxx1112basic_stringIcSt11char_traitsIcESaIcEEENS_16Signature_FormatE@Base 1.10.10
 _ZN5Botan11PK_VerifierC2ERKNS_10Public_KeyERKNSt7__cxx1112basic_stringIcSt11char_traitsIcESaIcEEENS_16Signature_FormatE@Base 1.10.10
 _ZN5Botan11SecureQueue10attachableEv@Base 1.10.10
 _ZN5Botan11SecureQueue15check_availableEm@Base 1.10.12
 _ZN5Botan11SecureQueue4readEPhm@Base 1.10.12
 _ZN5Botan11SecureQueue5writeEPKhm@Base 1.10.12
 _ZN5Botan11SecureQueue7destroyEv@Base 1.10.10
 _ZN5Botan11SecureQueueC1ERKS0_@Base 1.10.10
 _ZN5Botan11SecureQueueC1Ev@Base 1.10.10
 _ZN5Botan11SecureQueueC2ERKS0_@Base 1.10.10
 _ZN5Botan11SecureQueueC2Ev@Base 1.10.10
 _ZN5Botan11SecureQueueD0Ev@Base 1.10.10
 _ZN5Botan11SecureQueueD1Ev@Base 1.10.10
 _ZN5Botan11SecureQueueD2Ev@Base 1.10.10
 _ZN5Botan11SecureQueueaSERKS0_@Base 1.10.10
 _ZN5Botan11SessionKeys11ssl3_keygenEmRKNS_12MemoryRegionIhEES4_S4_@Base 1.10.12
 _ZN5Botan11SessionKeys11tls1_keygenEmRKNS_12MemoryRegionIhEES4_S4_@Base 1.10.12
 _ZN5Botan11SessionKeysC1ERKNS_11CipherSuiteENS_12Version_CodeERKNS_12MemoryRegionIhEES8_S8_@Base 1.10.10
 _ZN5Botan11SessionKeysC1Ev@Base 1.10.10
 _ZN5Botan11SessionKeysC2ERKNS_11CipherSuiteENS_12Version_CodeERKNS_12MemoryRegionIhEES8_S8_@Base 1.10.10
 _ZN5Botan11SessionKeysC2Ev@Base 1.10.10
 _ZN5Botan11SessionKeysD1Ev@Base 1.10.10
 _ZN5Botan11SessionKeysD2Ev@Base 1.10.10
 _ZN5Botan11X509_Object11decode_infoERNS_10DataSourceE@Base 1.10.10
 _ZN5Botan11X509_Object11make_signedEPNS_9PK_SignerERNS_21RandomNumberGeneratorERKNS_19AlgorithmIdentifierERKNS_12MemoryRegionIhEE@Base 1.10.10
 _ZN5Botan11X509_Object4initERNS_10DataSourceERKNSt7__cxx1112basic_stringIcSt11char_traitsIcESaIcEEE@Base 1.10.10
 _ZN5Botan11X509_Object9do_decodeEv@Base 1.10.10
 _ZN5Botan11X509_ObjectC1ERKNSt7__cxx1112basic_stringIcSt11char_traitsIcESaIcEEES8_@Base 1.10.10
 _ZN5Botan11X509_ObjectC1ERNS_10DataSourceERKNSt7__cxx1112basic_stringIcSt11char_traitsIcESaIcEEE@Base 1.10.10
 _ZN5Botan11X509_ObjectC2ERKNSt7__cxx1112basic_stringIcSt11char_traitsIcESaIcEEES8_@Base 1.10.10
 _ZN5Botan11X509_ObjectC2ERNS_10DataSourceERKNSt7__cxx1112basic_stringIcSt11char_traitsIcESaIcEEE@Base 1.10.10
 _ZN5Botan11X509_ObjectD0Ev@Base 1.10.10
 _ZN5Botan11X509_ObjectD1Ev@Base 1.10.10
 _ZN5Botan11X509_ObjectD2Ev@Base 1.10.10
 _ZN5Botan11inverse_modERKNS_6BigIntES2_@Base 1.10.10
 _ZN5Botan11system_timeEv@Base 1.10.10
 _ZN5Botan12Camellia_12812key_scheduleEPKhm@Base 1.10.12
 _ZN5Botan12Camellia_1285clearEv@Base 1.10.10
 _ZN5Botan12Camellia_128D0Ev@Base 1.10.10
 _ZN5Botan12Camellia_128D1Ev@Base 1.10.10
 _ZN5Botan12Camellia_128D2Ev@Base 1.10.10
 _ZN5Botan12Camellia_19212key_scheduleEPKhm@Base 1.10.12
 _ZN5Botan12Camellia_1925clearEv@Base 1.10.10
 _ZN5Botan12Camellia_192D0Ev@Base 1.10.10
 _ZN5Botan12Camellia_192D1Ev@Base 1.10.10
 _ZN5Botan12Camellia_192D2Ev@Base 1.10.10
 _ZN5Botan12Camellia_25612key_scheduleEPKhm@Base 1.10.12
 _ZN5Botan12Camellia_2565clearEv@Base 1.10.10
 _ZN5Botan12Camellia_256D0Ev@Base 1.10.10
 _ZN5Botan12Camellia_256D1Ev@Base 1.10.10
 _ZN5Botan12Camellia_256D2Ev@Base 1.10.10
 _ZN5Botan12DH_PublicKeyC1ERKNS_8DL_GroupERKNS_6BigIntE@Base 1.10.10
 _ZN5Botan12DH_PublicKeyC2ERKNS_8DL_GroupERKNS_6BigIntE@Base 1.10.10
 _ZN5Botan12DH_PublicKeyD0Ev@Base 1.10.10
 _ZN5Botan12DH_PublicKeyD1Ev@Base 1.10.10
 _ZN5Botan12EC_PublicKey22set_parameter_encodingENS_17EC_Group_EncodingE@Base 1.10.10
 _ZN5Botan12EC_PublicKeyC1ERKNS_19AlgorithmIdentifierERKNS_12MemoryRegionIhEE@Base 1.10.10
 _ZN5Botan12EC_PublicKeyC1ERKNS_8EC_GroupERKNS_8PointGFpE@Base 1.10.10
 _ZN5Botan12EC_PublicKeyC2ERKNS_19AlgorithmIdentifierERKNS_12MemoryRegionIhEE@Base 1.10.10
 _ZN5Botan12EC_PublicKeyC2ERKNS_8EC_GroupERKNS_8PointGFpE@Base 1.10.10
 _ZN5Botan12EC_PublicKeyC2Ev@Base 1.10.10
 _ZN5Botan12EC_PublicKeyD2Ev@Base 1.10.10
 _ZN5Botan12EME_PKCS1v15D0Ev@Base 1.10.10
 _ZN5Botan12EME_PKCS1v15D1Ev@Base 1.10.10
 _ZN5Botan12EME_PKCS1v15D2Ev@Base 1.10.10
 _ZN5Botan12Keyed_Filter6set_ivERKNS_11OctetStringE@Base 1.10.10
 _ZN5Botan12Lookup_ErrorD0Ev@Base 1.10.10
 _ZN5Botan12Lookup_ErrorD1Ev@Base 1.10.10
 _ZN5Botan12Lookup_ErrorD2Ev@Base 1.10.10
 _ZN5Botan12NR_PublicKeyC1ERKNS_19AlgorithmIdentifierERKNS_12MemoryRegionIhEE@Base 1.10.10
 _ZN5Botan12NR_PublicKeyC1ERKNS_8DL_GroupERKNS_6BigIntE@Base 1.10.10
 _ZN5Botan12NR_PublicKeyC2ERKNS_19AlgorithmIdentifierERKNS_12MemoryRegionIhEE@Base 1.10.10
 _ZN5Botan12NR_PublicKeyC2ERKNS_8DL_GroupERKNS_6BigIntE@Base 1.10.10
 _ZN5Botan12NR_PublicKeyD0Ev@Base 1.10.10
 _ZN5Botan12NR_PublicKeyD1Ev@Base 1.10.10
 _ZN5Botan12Noekeon_SIMDD0Ev@Base 1.10.10
 _ZN5Botan12Noekeon_SIMDD1Ev@Base 1.10.10
 _ZN5Botan12Noekeon_SIMDD2Ev@Base 1.10.10
 _ZN5Botan12Null_PaddingD0Ev@Base 1.10.10
 _ZN5Botan12Null_PaddingD1Ev@Base 1.10.10
 _ZN5Botan12Null_PaddingD2Ev@Base 1.10.10
 _ZN5Botan12PBE_PKCS5v1510flush_pipeEb@Base 1.10.10
 _ZN5Botan12PBE_PKCS5v1510new_paramsERNS_21RandomNumberGeneratorE@Base 1.10.10
 _ZN5Botan12PBE_PKCS5v1513decode_paramsERNS_10DataSourceE@Base 1.10.10
 _ZN5Botan12PBE_PKCS5v155writeEPKhm@Base 1.10.12
 _ZN5Botan12PBE_PKCS5v157end_msgEv@Base 1.10.10
 _ZN5Botan12PBE_PKCS5v157set_keyERKNSt7__cxx1112basic_stringIcSt11char_traitsIcESaIcEEE@Base 1.10.10
 _ZN5Botan12PBE_PKCS5v159start_msgEv@Base 1.10.10
 _ZN5Botan12PBE_PKCS5v15C1EPNS_11BlockCipherEPNS_12HashFunctionENS_10Cipher_DirE@Base 1.10.10
 _ZN5Botan12PBE_PKCS5v15C2EPNS_11BlockCipherEPNS_12HashFunctionENS_10Cipher_DirE@Base 1.10.10
 _ZN5Botan12PBE_PKCS5v15D0Ev@Base 1.10.10
 _ZN5Botan12PBE_PKCS5v15D1Ev@Base 1.10.10
 _ZN5Botan12PBE_PKCS5v15D2Ev@Base 1.10.10
 _ZN5Botan12PBE_PKCS5v2010flush_pipeEb@Base 1.10.10
 _ZN5Botan12PBE_PKCS5v2010new_paramsERNS_21RandomNumberGeneratorE@Base 1.10.10
 _ZN5Botan12PBE_PKCS5v2012known_cipherERKNSt7__cxx1112basic_stringIcSt11char_traitsIcESaIcEEE@Base 1.10.10
 _ZN5Botan12PBE_PKCS5v2013decode_paramsERNS_10DataSourceE@Base 1.10.10
 _ZN5Botan12PBE_PKCS5v205writeEPKhm@Base 1.10.12
 _ZN5Botan12PBE_PKCS5v207end_msgEv@Base 1.10.10
 _ZN5Botan12PBE_PKCS5v207set_keyERKNSt7__cxx1112basic_stringIcSt11char_traitsIcESaIcEEE@Base 1.10.10
 _ZN5Botan12PBE_PKCS5v209start_msgEv@Base 1.10.10
 _ZN5Botan12PBE_PKCS5v20C1EPNS_11BlockCipherEPNS_12HashFunctionE@Base 1.10.10
 _ZN5Botan12PBE_PKCS5v20C1ERNS_10DataSourceE@Base 1.10.10
 _ZN5Botan12PBE_PKCS5v20C2EPNS_11BlockCipherEPNS_12HashFunctionE@Base 1.10.10
 _ZN5Botan12PBE_PKCS5v20C2ERNS_10DataSourceE@Base 1.10.10
 _ZN5Botan12PBE_PKCS5v20D0Ev@Base 1.10.10
 _ZN5Botan12PBE_PKCS5v20D1Ev@Base 1.10.10
 _ZN5Botan12PBE_PKCS5v20D2Ev@Base 1.10.10
 _ZN5Botan12PKCS5_PBKDF1D0Ev@Base 1.10.10
 _ZN5Botan12PKCS5_PBKDF1D1Ev@Base 1.10.10
 _ZN5Botan12PKCS5_PBKDF1D2Ev@Base 1.10.10
 _ZN5Botan12PKCS5_PBKDF2D0Ev@Base 1.10.10
 _ZN5Botan12PKCS5_PBKDF2D1Ev@Base 1.10.10
 _ZN5Botan12PKCS5_PBKDF2D2Ev@Base 1.10.10
 _ZN5Botan12RW_PublicKeyD0Ev@Base 1.10.10
 _ZN5Botan12RW_PublicKeyD1Ev@Base 1.10.10
 _ZN5Botan12SHA_160_SSE210compress_nEPKhm@Base 1.10.10
 _ZN5Botan12SHA_160_SSE2D0Ev@Base 1.10.10
 _ZN5Botan12SHA_160_SSE2D1Ev@Base 1.10.10
 _ZN5Botan12SHA_160_SSE2D2Ev@Base 1.10.10
 _ZN5Botan12Serpent_SIMDD0Ev@Base 1.10.10
 _ZN5Botan12Serpent_SIMDD1Ev@Base 1.10.10
 _ZN5Botan12Serpent_SIMDD2Ev@Base 1.10.10
 _ZN5Botan12StreamCipher6set_ivEPKhm@Base 1.10.12
 _ZN5Botan12aont_packageERNS_21RandomNumberGeneratorEPNS_11BlockCipherEPKhmPh@Base 1.10.12
 _ZN5Botan12check_bcryptERKNSt7__cxx1112basic_stringIcSt11char_traitsIcESaIcEEES7_@Base 1.10.10
 _ZN5Botan12pkcs_hash_idERKNSt7__cxx1112basic_stringIcSt11char_traitsIcESaIcEEE@Base 1.10.10
 _ZN5Botan12random_primeERNS_21RandomNumberGeneratorEmRKNS_6BigIntEmm@Base 1.10.12
 _ZN5Botan13ANSI_X919_MAC12final_resultEPh@Base 1.10.10
 _ZN5Botan13ANSI_X919_MAC12key_scheduleEPKhm@Base 1.10.12
 _ZN5Botan13ANSI_X919_MAC5clearEv@Base 1.10.10
 _ZN5Botan13ANSI_X919_MAC8add_dataEPKhm@Base 1.10.12
 _ZN5Botan13ANSI_X919_MACC1EPNS_11BlockCipherE@Base 1.10.10
 _ZN5Botan13ANSI_X919_MACC2EPNS_11BlockCipherE@Base 1.10.10
 _ZN5Botan13ANSI_X919_MACD0Ev@Base 1.10.10
 _ZN5Botan13ANSI_X919_MACD1Ev@Base 1.10.10
 _ZN5Botan13ANSI_X919_MACD2Ev@Base 1.10.10
 _ZN5Botan13ANSI_X931_RNG11add_entropyEPKhm@Base 1.10.12
 _ZN5Botan13ANSI_X931_RNG13update_bufferEv@Base 1.10.10
 _ZN5Botan13ANSI_X931_RNG18add_entropy_sourceEPNS_13EntropySourceE@Base 1.10.10
 _ZN5Botan13ANSI_X931_RNG5clearEv@Base 1.10.10
 _ZN5Botan13ANSI_X931_RNG5rekeyEv@Base 1.10.10
 _ZN5Botan13ANSI_X931_RNG6reseedEm@Base 1.10.12
 _ZN5Botan13ANSI_X931_RNG9randomizeEPhm@Base 1.10.12
 _ZN5Botan13ANSI_X931_RNGC1EPNS_11BlockCipherEPNS_21RandomNumberGeneratorE@Base 1.10.10
 _ZN5Botan13ANSI_X931_RNGC2EPNS_11BlockCipherEPNS_21RandomNumberGeneratorE@Base 1.10.10
 _ZN5Botan13ANSI_X931_RNGD0Ev@Base 1.10.10
 _ZN5Botan13ANSI_X931_RNGD1Ev@Base 1.10.10
 _ZN5Botan13ANSI_X931_RNGD2Ev@Base 1.10.10
 _ZN5Botan13DH_PrivateKeyC1ERKNS_19AlgorithmIdentifierERKNS_12MemoryRegionIhEERNS_21RandomNumberGeneratorE@Base 1.10.10
 _ZN5Botan13DH_PrivateKeyC1ERNS_21RandomNumberGeneratorERKNS_8DL_GroupERKNS_6BigIntE@Base 1.10.10
 _ZN5Botan13DH_PrivateKeyC2ERKNS_19AlgorithmIdentifierERKNS_12MemoryRegionIhEERNS_21RandomNumberGeneratorE@Base 1.10.10
 _ZN5Botan13DH_PrivateKeyC2ERNS_21RandomNumberGeneratorERKNS_8DL_GroupERKNS_6BigIntE@Base 1.10.10
 _ZN5Botan13DH_PrivateKeyD0Ev@Base 1.10.10
 _ZN5Botan13DH_PrivateKeyD1Ev@Base 1.10.10
 _ZN5Botan13DSA_PublicKeyC1ERKNS_8DL_GroupERKNS_6BigIntE@Base 1.10.10
 _ZN5Botan13DSA_PublicKeyC2ERKNS_8DL_GroupERKNS_6BigIntE@Base 1.10.10
 _ZN5Botan13DSA_PublicKeyD0Ev@Base 1.10.10
 _ZN5Botan13DSA_PublicKeyD1Ev@Base 1.10.10
 _ZN5Botan13EC_PrivateKeyC1ERKNS_19AlgorithmIdentifierERKNS_12MemoryRegionIhEE@Base 1.10.10
 _ZN5Botan13EC_PrivateKeyC1ERNS_21RandomNumberGeneratorERKNS_8EC_GroupERKNS_6BigIntE@Base 1.10.10
 _ZN5Botan13EC_PrivateKeyC2ERKNS_19AlgorithmIdentifierERKNS_12MemoryRegionIhEE@Base 1.10.10
 _ZN5Botan13EC_PrivateKeyC2ERNS_21RandomNumberGeneratorERKNS_8EC_GroupERKNS_6BigIntE@Base 1.10.10
 _ZN5Botan13GOST_28147_8912key_scheduleEPKhm@Base 1.10.12
 _ZN5Botan13GOST_28147_895clearEv@Base 1.10.10
 _ZN5Botan13GOST_28147_89C1ERKNS_20GOST_28147_89_ParamsE@Base 1.10.10
 _ZN5Botan13GOST_28147_89C2ERKNS_20GOST_28147_89_ParamsE@Base 1.10.10
 _ZN5Botan13GOST_28147_89D0Ev@Base 1.10.10
 _ZN5Botan13GOST_28147_89D1Ev@Base 1.10.10
 _ZN5Botan13GOST_28147_89D2Ev@Base 1.10.10
 _ZN5Botan13Illegal_PointD0Ev@Base 1.10.10
 _ZN5Botan13Illegal_PointD1Ev@Base 1.10.10
 _ZN5Botan13Illegal_PointD2Ev@Base 1.10.10
 _ZN5Botan13Invalid_StateD0Ev@Base 1.10.10
 _ZN5Botan13Invalid_StateD1Ev@Base 1.10.10
 _ZN5Botan13Invalid_StateD2Ev@Base 1.10.10
 _ZN5Botan13Library_State10global_rngEv@Base 1.10.10
 _ZN5Botan13Library_State10initializeEb@Base 1.10.10
 _ZN5Botan13Library_State13add_allocatorEPNS_9AllocatorE@Base 1.10.10
 _ZN5Botan13Library_State15make_global_rngERNS_17Algorithm_FactoryEPNS_5MutexE@Base 1.10.10
 _ZN5Botan13Library_State19load_default_configEv@Base 1.10.10
 _ZN5Botan13Library_State21set_default_allocatorERKNSt7__cxx1112basic_stringIcSt11char_traitsIcESaIcEEE@Base 1.10.10
 _ZN5Botan13Library_State3setERKNSt7__cxx1112basic_stringIcSt11char_traitsIcESaIcEEES8_S8_b@Base 1.10.10
 _ZN5Botan13Library_State9add_aliasERKNSt7__cxx1112basic_stringIcSt11char_traitsIcESaIcEEES8_@Base 1.10.10
 _ZN5Botan13Library_StateC1Ev@Base 1.10.10
 _ZN5Botan13Library_StateC2Ev@Base 1.10.10
 _ZN5Botan13Library_StateD1Ev@Base 1.10.10
 _ZN5Botan13Library_StateD2Ev@Base 1.10.10
 _ZN5Botan13NR_PrivateKeyC1ERKNS_19AlgorithmIdentifierERKNS_12MemoryRegionIhEERNS_21RandomNumberGeneratorE@Base 1.10.10
 _ZN5Botan13NR_PrivateKeyC1ERNS_21RandomNumberGeneratorERKNS_8DL_GroupERKNS_6BigIntE@Base 1.10.10
 _ZN5Botan13NR_PrivateKeyC2ERKNS_19AlgorithmIdentifierERKNS_12MemoryRegionIhEERNS_21RandomNumberGeneratorE@Base 1.10.10
 _ZN5Botan13NR_PrivateKeyC2ERNS_21RandomNumberGeneratorERKNS_8DL_GroupERKNS_6BigIntE@Base 1.10.10
 _ZN5Botan13NR_PrivateKeyD0Ev@Base 1.10.10
 _ZN5Botan13NR_PrivateKeyD1Ev@Base 1.10.10
 _ZN5Botan13PKCS7_PaddingD0Ev@Base 1.10.10
 _ZN5Botan13PKCS7_PaddingD1Ev@Base 1.10.10
 _ZN5Botan13PKCS7_PaddingD2Ev@Base 1.10.10
 _ZN5Botan13PRNG_UnseededC1ERKNSt7__cxx1112basic_stringIcSt11char_traitsIcESaIcEEE@Base 1.10.10
 _ZN5Botan13PRNG_UnseededC2ERKNSt7__cxx1112basic_stringIcSt11char_traitsIcESaIcEEE@Base 1.10.10
 _ZN5Botan13PRNG_UnseededD0Ev@Base 1.10.10
 _ZN5Botan13PRNG_UnseededD1Ev@Base 1.10.10
 _ZN5Botan13PRNG_UnseededD2Ev@Base 1.10.10
 _ZN5Botan13RSA_PublicKeyD0Ev@Base 1.10.10
 _ZN5Botan13RSA_PublicKeyD1Ev@Base 1.10.10
 _ZN5Botan13RW_PrivateKeyC1ERNS_21RandomNumberGeneratorEmm@Base 1.10.12
 _ZN5Botan13RW_PrivateKeyC2ERNS_21RandomNumberGeneratorEmm@Base 1.10.12
 _ZN5Botan13RW_PrivateKeyD0Ev@Base 1.10.10
 _ZN5Botan13RW_PrivateKeyD1Ev@Base 1.10.10
 _ZN5Botan13Record_Reader10get_recordERhRNS_12MemoryRegionIhEE@Base 1.10.10
 _ZN5Botan13Record_Reader11set_versionENS_12Version_CodeE@Base 1.10.10
 _ZN5Botan13Record_Reader5resetEv@Base 1.10.10
 _ZN5Botan13Record_Reader8set_keysERKNS_11CipherSuiteERKNS_11SessionKeysENS_15Connection_SideE@Base 1.10.10
 _ZN5Botan13Record_Reader9add_inputEPKhm@Base 1.10.12
 _ZN5Botan13Record_ReaderD1Ev@Base 1.10.10
 _ZN5Botan13Record_ReaderD2Ev@Base 1.10.10
 _ZN5Botan13Record_Writer11send_recordEhPKhm@Base 1.10.12
 _ZN5Botan13Record_Writer11send_recordEhhhPKhm@Base 1.10.12
 _ZN5Botan13Record_Writer11set_versionENS_12Version_CodeE@Base 1.10.10
 _ZN5Botan13Record_Writer4sendEhPKhm@Base 1.10.12
 _ZN5Botan13Record_Writer5alertENS_11Alert_LevelENS_10Alert_TypeE@Base 1.10.10
 _ZN5Botan13Record_Writer5flushEv@Base 1.10.10
 _ZN5Botan13Record_Writer5resetEv@Base 1.10.10
 _ZN5Botan13Record_Writer8set_keysERKNS_11CipherSuiteERKNS_11SessionKeysENS_15Connection_SideE@Base 1.10.10
 _ZN5Botan13Record_WriterC1ENSt3tr18functionIFvPKhmEEE@Base 1.10.12
 _ZN5Botan13Record_WriterC2ENSt3tr18functionIFvPKhmEEE@Base 1.10.12
 _ZN5Botan13Record_WriterD1Ev@Base 1.10.10
 _ZN5Botan13Record_WriterD2Ev@Base 1.10.10
 _ZN5Botan13TLS_ExceptionD0Ev@Base 1.10.10
 _ZN5Botan13TLS_ExceptionD1Ev@Base 1.10.10
 _ZN5Botan13TLS_ExceptionD2Ev@Base 1.10.10
 _ZN5Botan13algorithm_katERKNS_9SCAN_NameERKSt3mapINSt7__cxx1112basic_stringIcSt11char_traitsIcESaIcEEES9_St4lessIS9_ESaISt4pairIKS9_S9_EEERNS_17Algorithm_FactoryE@Base 1.10.10
 _ZN5Botan13base64_decodeEPKcmb@Base 1.10.12
 _ZN5Botan13base64_decodeEPhPKcmRmbb@Base 1.10.12
 _ZN5Botan13base64_decodeEPhPKcmb@Base 1.10.12
 _ZN5Botan13base64_decodeEPhRKNSt7__cxx1112basic_stringIcSt11char_traitsIcESaIcEEEb@Base 1.10.10
 _ZN5Botan13base64_decodeERKNSt7__cxx1112basic_stringIcSt11char_traitsIcESaIcEEEb@Base 1.10.10
 _ZN5Botan13base64_encodeB5cxx11EPKhm@Base 1.10.12
 _ZN5Botan13base64_encodeB5cxx11ERKNS_12MemoryRegionIhEE@Base 1.10.10
 _ZN5Botan13base64_encodeEPcPKhmRmb@Base 1.10.12
 _ZN5Botan13block_size_ofERKNSt7__cxx1112basic_stringIcSt11char_traitsIcESaIcEEE@Base 1.10.10
 _ZN5Botan13low_zero_bitsERKNS_6BigIntE@Base 1.10.10
 _ZN5Botan13version_majorEv@Base 1.10.10
 _ZN5Botan13version_minorEv@Base 1.10.10
 _ZN5Botan13version_patchEv@Base 1.10.10
 _ZN5Botan13x500_name_cmpERKNSt7__cxx1112basic_stringIcSt11char_traitsIcESaIcEEES7_@Base 1.10.10
 _ZN5Botan14AutoSeeded_RNG11add_entropyEPKhm@Base 1.10.12
 _ZN5Botan14AutoSeeded_RNG18add_entropy_sourceEPNS_13EntropySourceE@Base 1.10.10
 _ZN5Botan14AutoSeeded_RNG5clearEv@Base 1.10.10
 _ZN5Botan14AutoSeeded_RNG6reseedEm@Base 1.10.12
 _ZN5Botan14AutoSeeded_RNG9randomizeEPhm@Base 1.10.12
 _ZN5Botan14AutoSeeded_RNGD0Ev@Base 1.10.10
 _ZN5Botan14AutoSeeded_RNGD1Ev@Base 1.10.10
 _ZN5Botan14AutoSeeded_RNGD2Ev@Base 1.10.10
 _ZN5Botan14Base64_Decoder5writeEPKhm@Base 1.10.12
 _ZN5Botan14Base64_Decoder7end_msgEv@Base 1.10.10
 _ZN5Botan14Base64_DecoderC1ENS_16Decoder_CheckingE@Base 1.10.10
 _ZN5Botan14Base64_DecoderC2ENS_16Decoder_CheckingE@Base 1.10.10
 _ZN5Botan14Base64_DecoderD0Ev@Base 1.10.10
 _ZN5Botan14Base64_DecoderD1Ev@Base 1.10.10
 _ZN5Botan14Base64_DecoderD2Ev@Base 1.10.10
 _ZN5Botan14Base64_Encoder15encode_and_sendEPKhmb@Base 1.10.12
 _ZN5Botan14Base64_Encoder5writeEPKhm@Base 1.10.12
 _ZN5Botan14Base64_Encoder7end_msgEv@Base 1.10.10
 _ZN5Botan14Base64_Encoder9do_outputEPKhm@Base 1.10.12
 _ZN5Botan14Base64_EncoderC1Ebmb@Base 1.10.12
 _ZN5Botan14Base64_EncoderC2Ebmb@Base 1.10.12
 _ZN5Botan14Base64_EncoderD0Ev@Base 1.10.10
 _ZN5Botan14Base64_EncoderD1Ev@Base 1.10.10
 _ZN5Botan14Base64_EncoderD2Ev@Base 1.10.10
 _ZN5Botan14CBC_Decryption14buffered_blockEPKhm@Base 1.10.12
 _ZN5Botan14CBC_Decryption14buffered_finalEPKhm@Base 1.10.12
 _ZN5Botan14CBC_Decryption5writeEPKhm@Base 1.10.12
 _ZN5Botan14CBC_Decryption6set_ivERKNS_11OctetStringE@Base 1.10.10
 _ZN5Botan14CBC_Decryption7end_msgEv@Base 1.10.10
 _ZN5Botan14CBC_Decryption7set_keyERKNS_11OctetStringE@Base 1.10.10
 _ZN5Botan14CBC_DecryptionC1EPNS_11BlockCipherEPNS_28BlockCipherModePaddingMethodE@Base 1.10.10
 _ZN5Botan14CBC_DecryptionC1EPNS_11BlockCipherEPNS_28BlockCipherModePaddingMethodERKNS_11OctetStringES7_@Base 1.10.10
 _ZN5Botan14CBC_DecryptionC2EPNS_11BlockCipherEPNS_28BlockCipherModePaddingMethodE@Base 1.10.10
 _ZN5Botan14CBC_DecryptionC2EPNS_11BlockCipherEPNS_28BlockCipherModePaddingMethodERKNS_11OctetStringES7_@Base 1.10.10
 _ZN5Botan14CBC_DecryptionD0Ev@Base 1.10.10
 _ZN5Botan14CBC_DecryptionD1Ev@Base 1.10.10
 _ZN5Botan14CBC_DecryptionD2Ev@Base 1.10.10
 _ZN5Botan14CBC_Encryption14buffered_blockEPKhm@Base 1.10.12
 _ZN5Botan14CBC_Encryption14buffered_finalEPKhm@Base 1.10.12
 _ZN5Botan14CBC_Encryption5writeEPKhm@Base 1.10.12
 _ZN5Botan14CBC_Encryption6set_ivERKNS_11OctetStringE@Base 1.10.10
 _ZN5Botan14CBC_Encryption7end_msgEv@Base 1.10.10
 _ZN5Botan14CBC_Encryption7set_keyERKNS_11OctetStringE@Base 1.10.10
 _ZN5Botan14CBC_EncryptionC1EPNS_11BlockCipherEPNS_28BlockCipherModePaddingMethodE@Base 1.10.10
 _ZN5Botan14CBC_EncryptionC1EPNS_11BlockCipherEPNS_28BlockCipherModePaddingMethodERKNS_11OctetStringES7_@Base 1.10.10
 _ZN5Botan14CBC_EncryptionC2EPNS_11BlockCipherEPNS_28BlockCipherModePaddingMethodE@Base 1.10.10
 _ZN5Botan14CBC_EncryptionC2EPNS_11BlockCipherEPNS_28BlockCipherModePaddingMethodERKNS_11OctetStringES7_@Base 1.10.10
 _ZN5Botan14CBC_EncryptionD0Ev@Base 1.10.10
 _ZN5Botan14CBC_EncryptionD1Ev@Base 1.10.10
 _ZN5Botan14CBC_EncryptionD2Ev@Base 1.10.10
 _ZN5Botan14CFB_Decryption5writeEPKhm@Base 1.10.12
 _ZN5Botan14CFB_Decryption6set_ivERKNS_11OctetStringE@Base 1.10.10
 _ZN5Botan14CFB_Decryption7set_keyERKNS_11OctetStringE@Base 1.10.10
 _ZN5Botan14CFB_DecryptionC1EPNS_11BlockCipherERKNS_11OctetStringES5_m@Base 1.10.12
 _ZN5Botan14CFB_DecryptionC1EPNS_11BlockCipherEm@Base 1.10.12
 _ZN5Botan14CFB_DecryptionC2EPNS_11BlockCipherERKNS_11OctetStringES5_m@Base 1.10.12
 _ZN5Botan14CFB_DecryptionC2EPNS_11BlockCipherEm@Base 1.10.12
 _ZN5Botan14CFB_DecryptionD0Ev@Base 1.10.10
 _ZN5Botan14CFB_DecryptionD1Ev@Base 1.10.10
 _ZN5Botan14CFB_DecryptionD2Ev@Base 1.10.10
 _ZN5Botan14CFB_Encryption5writeEPKhm@Base 1.10.12
 _ZN5Botan14CFB_Encryption6set_ivERKNS_11OctetStringE@Base 1.10.10
 _ZN5Botan14CFB_Encryption7set_keyERKNS_11OctetStringE@Base 1.10.10
 _ZN5Botan14CFB_EncryptionC1EPNS_11BlockCipherERKNS_11OctetStringES5_m@Base 1.10.12
 _ZN5Botan14CFB_EncryptionC1EPNS_11BlockCipherEm@Base 1.10.12
 _ZN5Botan14CFB_EncryptionC2EPNS_11BlockCipherERKNS_11OctetStringES5_m@Base 1.10.12
 _ZN5Botan14CFB_EncryptionC2EPNS_11BlockCipherEm@Base 1.10.12
 _ZN5Botan14CFB_EncryptionD0Ev@Base 1.10.10
 _ZN5Botan14CFB_EncryptionD1Ev@Base 1.10.10
 _ZN5Botan14CFB_EncryptionD2Ev@Base 1.10.10
 _ZN5Botan14CTS_Decryption5writeEPKhm@Base 1.10.12
 _ZN5Botan14CTS_Decryption6set_ivERKNS_11OctetStringE@Base 1.10.10
 _ZN5Botan14CTS_Decryption7decryptEPKh@Base 1.10.10
 _ZN5Botan14CTS_Decryption7end_msgEv@Base 1.10.10
 _ZN5Botan14CTS_Decryption7set_keyERKNS_11OctetStringE@Base 1.10.10
 _ZN5Botan14CTS_DecryptionC1EPNS_11BlockCipherE@Base 1.10.10
 _ZN5Botan14CTS_DecryptionC1EPNS_11BlockCipherERKNS_11OctetStringES5_@Base 1.10.10
 _ZN5Botan14CTS_DecryptionC2EPNS_11BlockCipherE@Base 1.10.10
 _ZN5Botan14CTS_DecryptionC2EPNS_11BlockCipherERKNS_11OctetStringES5_@Base 1.10.10
 _ZN5Botan14CTS_DecryptionD0Ev@Base 1.10.10
 _ZN5Botan14CTS_DecryptionD1Ev@Base 1.10.10
 _ZN5Botan14CTS_DecryptionD2Ev@Base 1.10.10
 _ZN5Botan14CTS_Encryption5writeEPKhm@Base 1.10.12
 _ZN5Botan14CTS_Encryption6set_ivERKNS_11OctetStringE@Base 1.10.10
 _ZN5Botan14CTS_Encryption7encryptEPKh@Base 1.10.10
 _ZN5Botan14CTS_Encryption7end_msgEv@Base 1.10.10
 _ZN5Botan14CTS_Encryption7set_keyERKNS_11OctetStringE@Base 1.10.10
 _ZN5Botan14CTS_EncryptionC1EPNS_11BlockCipherE@Base 1.10.10
 _ZN5Botan14CTS_EncryptionC1EPNS_11BlockCipherERKNS_11OctetStringES5_@Base 1.10.10
 _ZN5Botan14CTS_EncryptionC2EPNS_11BlockCipherE@Base 1.10.10
 _ZN5Botan14CTS_EncryptionC2EPNS_11BlockCipherERKNS_11OctetStringES5_@Base 1.10.10
 _ZN5Botan14CTS_EncryptionD0Ev@Base 1.10.10
 _ZN5Botan14CTS_EncryptionD1Ev@Base 1.10.10
 _ZN5Botan14CTS_EncryptionD2Ev@Base 1.10.10
 _ZN5Botan14Cascade_Cipher12key_scheduleEPKhm@Base 1.10.12
 _ZN5Botan14Cascade_Cipher5clearEv@Base 1.10.10
 _ZN5Botan14Cascade_CipherC1EPNS_11BlockCipherES2_@Base 1.10.10
 _ZN5Botan14Cascade_CipherC2EPNS_11BlockCipherES2_@Base 1.10.10
 _ZN5Botan14Cascade_CipherD0Ev@Base 1.10.10
 _ZN5Botan14Cascade_CipherD1Ev@Base 1.10.10
 _ZN5Botan14Cascade_CipherD2Ev@Base 1.10.10
 _ZN5Botan14Cert_Extension10CRL_Number12decode_innerERKNS_12MemoryRegionIhEE@Base 1.10.10
 _ZN5Botan14Cert_Extension10CRL_NumberD0Ev@Base 1.10.10
 _ZN5Botan14Cert_Extension10CRL_NumberD1Ev@Base 1.10.10
 _ZN5Botan14Cert_Extension10CRL_NumberD2Ev@Base 1.10.10
 _ZN5Botan14Cert_Extension14CRL_ReasonCode12decode_innerERKNS_12MemoryRegionIhEE@Base 1.10.10
 _ZN5Botan14Cert_Extension14CRL_ReasonCodeD0Ev@Base 1.10.10
 _ZN5Botan14Cert_Extension14CRL_ReasonCodeD1Ev@Base 1.10.10
 _ZN5Botan14Cert_Extension14CRL_ReasonCodeD2Ev@Base 1.10.10
 _ZN5Botan14Cert_Extension14Subject_Key_ID12decode_innerERKNS_12MemoryRegionIhEE@Base 1.10.10
 _ZN5Botan14Cert_Extension14Subject_Key_IDC1ERKNS_12MemoryRegionIhEE@Base 1.10.10
 _ZN5Botan14Cert_Extension14Subject_Key_IDC2ERKNS_12MemoryRegionIhEE@Base 1.10.10
 _ZN5Botan14Cert_Extension14Subject_Key_IDD0Ev@Base 1.10.10
 _ZN5Botan14Cert_Extension14Subject_Key_IDD1Ev@Base 1.10.10
 _ZN5Botan14Cert_Extension14Subject_Key_IDD2Ev@Base 1.10.10
 _ZN5Botan14Cert_Extension16Alternative_Name12decode_innerERKNS_12MemoryRegionIhEE@Base 1.10.10
 _ZN5Botan14Cert_Extension16Alternative_NameC1ERKNS_15AlternativeNameERKNSt7__cxx1112basic_stringIcSt11char_traitsIcESaIcEEESC_@Base 1.10.10
 _ZN5Botan14Cert_Extension16Alternative_NameC2ERKNS_15AlternativeNameERKNSt7__cxx1112basic_stringIcSt11char_traitsIcESaIcEEESC_@Base 1.10.10
 _ZN5Botan14Cert_Extension16Authority_Key_ID12decode_innerERKNS_12MemoryRegionIhEE@Base 1.10.10
 _ZN5Botan14Cert_Extension16Authority_Key_IDD0Ev@Base 1.10.10
 _ZN5Botan14Cert_Extension16Authority_Key_IDD1Ev@Base 1.10.10
 _ZN5Botan14Cert_Extension16Authority_Key_IDD2Ev@Base 1.10.10
 _ZN5Botan14Cert_Extension17Basic_Constraints12decode_innerERKNS_12MemoryRegionIhEE@Base 1.10.10
 _ZN5Botan14Cert_Extension17Basic_ConstraintsD0Ev@Base 1.10.10
 _ZN5Botan14Cert_Extension17Basic_ConstraintsD1Ev@Base 1.10.10
 _ZN5Botan14Cert_Extension17Basic_ConstraintsD2Ev@Base 1.10.10
 _ZN5Botan14Cert_Extension18Extended_Key_Usage12decode_innerERKNS_12MemoryRegionIhEE@Base 1.10.10
 _ZN5Botan14Cert_Extension18Extended_Key_UsageD0Ev@Base 1.10.10
 _ZN5Botan14Cert_Extension18Extended_Key_UsageD1Ev@Base 1.10.10
 _ZN5Botan14Cert_Extension18Extended_Key_UsageD2Ev@Base 1.10.10
 _ZN5Botan14Cert_Extension20Certificate_Policies12decode_innerERKNS_12MemoryRegionIhEE@Base 1.10.10
 _ZN5Botan14Cert_Extension20Certificate_PoliciesD0Ev@Base 1.10.10
 _ZN5Botan14Cert_Extension20Certificate_PoliciesD1Ev@Base 1.10.10
 _ZN5Botan14Cert_Extension20Certificate_PoliciesD2Ev@Base 1.10.10
 _ZN5Botan14Cert_Extension23Issuer_Alternative_NameC1ERKNS_15AlternativeNameE@Base 1.10.10
 _ZN5Botan14Cert_Extension23Issuer_Alternative_NameC2ERKNS_15AlternativeNameE@Base 1.10.10
 _ZN5Botan14Cert_Extension23Issuer_Alternative_NameD0Ev@Base 1.10.10
 _ZN5Botan14Cert_Extension23Issuer_Alternative_NameD1Ev@Base 1.10.10
 _ZN5Botan14Cert_Extension23Issuer_Alternative_NameD2Ev@Base 1.10.10
 _ZN5Botan14Cert_Extension24Subject_Alternative_NameC1ERKNS_15AlternativeNameE@Base 1.10.10
 _ZN5Botan14Cert_Extension24Subject_Alternative_NameC2ERKNS_15AlternativeNameE@Base 1.10.10
 _ZN5Botan14Cert_Extension24Subject_Alternative_NameD0Ev@Base 1.10.10
 _ZN5Botan14Cert_Extension24Subject_Alternative_NameD1Ev@Base 1.10.10
 _ZN5Botan14Cert_Extension24Subject_Alternative_NameD2Ev@Base 1.10.10
 _ZN5Botan14Cert_Extension9Key_Usage12decode_innerERKNS_12MemoryRegionIhEE@Base 1.10.10
 _ZN5Botan14Cert_Extension9Key_UsageD0Ev@Base 1.10.10
 _ZN5Botan14Cert_Extension9Key_UsageD1Ev@Base 1.10.10
 _ZN5Botan14Cert_Extension9Key_UsageD2Ev@Base 1.10.10
 _ZN5Botan14DSA_PrivateKeyC1ERKNS_19AlgorithmIdentifierERKNS_12MemoryRegionIhEERNS_21RandomNumberGeneratorE@Base 1.10.10
 _ZN5Botan14DSA_PrivateKeyC1ERNS_21RandomNumberGeneratorERKNS_8DL_GroupERKNS_6BigIntE@Base 1.10.10
 _ZN5Botan14DSA_PrivateKeyC2ERKNS_19AlgorithmIdentifierERKNS_12MemoryRegionIhEERNS_21RandomNumberGeneratorE@Base 1.10.10
 _ZN5Botan14DSA_PrivateKeyC2ERNS_21RandomNumberGeneratorERKNS_8DL_GroupERKNS_6BigIntE@Base 1.10.10
 _ZN5Botan14DSA_PrivateKeyD0Ev@Base 1.10.10
 _ZN5Botan14DSA_PrivateKeyD1Ev@Base 1.10.10
 _ZN5Botan14Decoding_ErrorC1ERKNSt7__cxx1112basic_stringIcSt11char_traitsIcESaIcEEE@Base 1.10.10
 _ZN5Botan14Decoding_ErrorC2ERKNSt7__cxx1112basic_stringIcSt11char_traitsIcESaIcEEE@Base 1.10.10
 _ZN5Botan14Decoding_ErrorD0Ev@Base 1.10.10
 _ZN5Botan14Decoding_ErrorD1Ev@Base 1.10.10
 _ZN5Botan14Decoding_ErrorD2Ev@Base 1.10.10
 _ZN5Botan14EAX_Decryption5writeEPKhm@Base 1.10.12
 _ZN5Botan14EAX_Decryption7end_msgEv@Base 1.10.10
 _ZN5Botan14EAX_Decryption8do_writeEPKhm@Base 1.10.12
 _ZN5Botan14EAX_DecryptionC1EPNS_11BlockCipherERKNS_11OctetStringES5_m@Base 1.10.12
 _ZN5Botan14EAX_DecryptionC1EPNS_11BlockCipherEm@Base 1.10.12
 _ZN5Botan14EAX_DecryptionC2EPNS_11BlockCipherERKNS_11OctetStringES5_m@Base 1.10.12
 _ZN5Botan14EAX_DecryptionC2EPNS_11BlockCipherEm@Base 1.10.12
 _ZN5Botan14EAX_DecryptionD0Ev@Base 1.10.10
 _ZN5Botan14EAX_DecryptionD1Ev@Base 1.10.10
 _ZN5Botan14EAX_DecryptionD2Ev@Base 1.10.10
 _ZN5Botan14EAX_Encryption5writeEPKhm@Base 1.10.12
 _ZN5Botan14EAX_Encryption7end_msgEv@Base 1.10.10
 _ZN5Botan14EAX_EncryptionD0Ev@Base 1.10.10
 _ZN5Botan14EAX_EncryptionD1Ev@Base 1.10.10
 _ZN5Botan14EAX_EncryptionD2Ev@Base 1.10.10
 _ZN5Botan14ECB_Decryption14buffered_blockEPKhm@Base 1.10.12
 _ZN5Botan14ECB_Decryption14buffered_finalEPKhm@Base 1.10.12
 _ZN5Botan14ECB_Decryption5writeEPKhm@Base 1.10.12
 _ZN5Botan14ECB_Decryption7end_msgEv@Base 1.10.10
 _ZN5Botan14ECB_Decryption7set_keyERKNS_11OctetStringE@Base 1.10.10
 _ZN5Botan14ECB_DecryptionC1EPNS_11BlockCipherEPNS_28BlockCipherModePaddingMethodE@Base 1.10.10
 _ZN5Botan14ECB_DecryptionC1EPNS_11BlockCipherEPNS_28BlockCipherModePaddingMethodERKNS_11OctetStringE@Base 1.10.10
 _ZN5Botan14ECB_DecryptionC2EPNS_11BlockCipherEPNS_28BlockCipherModePaddingMethodE@Base 1.10.10
 _ZN5Botan14ECB_DecryptionC2EPNS_11BlockCipherEPNS_28BlockCipherModePaddingMethodERKNS_11OctetStringE@Base 1.10.10
 _ZN5Botan14ECB_DecryptionD0Ev@Base 1.10.10
 _ZN5Botan14ECB_DecryptionD1Ev@Base 1.10.10
 _ZN5Botan14ECB_DecryptionD2Ev@Base 1.10.10
 _ZN5Botan14ECB_Encryption14buffered_blockEPKhm@Base 1.10.12
 _ZN5Botan14ECB_Encryption14buffered_finalEPKhm@Base 1.10.12
 _ZN5Botan14ECB_Encryption5writeEPKhm@Base 1.10.12
 _ZN5Botan14ECB_Encryption7end_msgEv@Base 1.10.10
 _ZN5Botan14ECB_Encryption7set_keyERKNS_11OctetStringE@Base 1.10.10
 _ZN5Botan14ECB_EncryptionC1EPNS_11BlockCipherEPNS_28BlockCipherModePaddingMethodE@Base 1.10.10
 _ZN5Botan14ECB_EncryptionC1EPNS_11BlockCipherEPNS_28BlockCipherModePaddingMethodERKNS_11OctetStringE@Base 1.10.10
 _ZN5Botan14ECB_EncryptionC2EPNS_11BlockCipherEPNS_28BlockCipherModePaddingMethodE@Base 1.10.10
 _ZN5Botan14ECB_EncryptionC2EPNS_11BlockCipherEPNS_28BlockCipherModePaddingMethodERKNS_11OctetStringE@Base 1.10.10
 _ZN5Botan14ECB_EncryptionD0Ev@Base 1.10.10
 _ZN5Botan14ECB_EncryptionD1Ev@Base 1.10.10
 _ZN5Botan14ECB_EncryptionD2Ev@Base 1.10.10
 _ZN5Botan14ECDH_PublicKeyD0Ev@Base 1.10.10
 _ZN5Botan14ECDH_PublicKeyD1Ev@Base 1.10.10
 _ZN5Botan14Encoding_ErrorC1ERKNSt7__cxx1112basic_stringIcSt11char_traitsIcESaIcEEE@Base 1.10.10
 _ZN5Botan14Encoding_ErrorC2ERKNSt7__cxx1112basic_stringIcSt11char_traitsIcESaIcEEE@Base 1.10.10
 _ZN5Botan14Encoding_ErrorD0Ev@Base 1.10.10
 _ZN5Botan14Encoding_ErrorD1Ev@Base 1.10.10
 _ZN5Botan14Encoding_ErrorD2Ev@Base 1.10.10
 _ZN5Botan14Internal_ErrorC1ERKNSt7__cxx1112basic_stringIcSt11char_traitsIcESaIcEEE@Base 1.10.10
 _ZN5Botan14Internal_ErrorC2ERKNSt7__cxx1112basic_stringIcSt11char_traitsIcESaIcEEE@Base 1.10.10
 _ZN5Botan14Internal_ErrorD0Ev@Base 1.10.10
 _ZN5Botan14Internal_ErrorD1Ev@Base 1.10.10
 _ZN5Botan14Internal_ErrorD2Ev@Base 1.10.10
 _ZN5Botan14PKCS10_Request12force_decodeEv@Base 1.10.10
 _ZN5Botan14PKCS10_Request16handle_attributeERKNS_9AttributeE@Base 1.10.10
 _ZN5Botan14PKCS10_RequestC1ERKNSt7__cxx1112basic_stringIcSt11char_traitsIcESaIcEEE@Base 1.10.10
 _ZN5Botan14PKCS10_RequestC1ERNS_10DataSourceE@Base 1.10.10
 _ZN5Botan14PKCS10_RequestC2ERKNSt7__cxx1112basic_stringIcSt11char_traitsIcESaIcEEE@Base 1.10.10
 _ZN5Botan14PKCS10_RequestC2ERNS_10DataSourceE@Base 1.10.10
 _ZN5Botan14PKCS10_RequestD0Ev@Base 1.10.10
 _ZN5Botan14PKCS10_RequestD1Ev@Base 1.10.10
 _ZN5Botan14PKCS10_RequestD2Ev@Base 1.10.10
 _ZN5Botan14RSA_PrivateKeyC1ERNS_21RandomNumberGeneratorEmm@Base 1.10.12
 _ZN5Botan14RSA_PrivateKeyC2ERNS_21RandomNumberGeneratorEmm@Base 1.10.12
 _ZN5Botan14RSA_PrivateKeyD0Ev@Base 1.10.10
 _ZN5Botan14RSA_PrivateKeyD1Ev@Base 1.10.10
 _ZN5Botan14SHA_160_X86_6410compress_nEPKhm@Base 1.10.10
 _ZN5Botan14SHA_160_X86_64D0Ev@Base 1.10.10
 _ZN5Botan14SHA_160_X86_64D1Ev@Base 1.10.10
 _ZN5Botan14SHA_160_X86_64D2Ev@Base 1.10.10
 _ZN5Botan14User_InterfaceC1ERKNSt7__cxx1112basic_stringIcSt11char_traitsIcESaIcEEE@Base 1.10.10
 _ZN5Botan14User_InterfaceC2ERKNSt7__cxx1112basic_stringIcSt11char_traitsIcESaIcEEE@Base 1.10.10
 _ZN5Botan14User_InterfaceD0Ev@Base 1.10.10
 _ZN5Botan14User_InterfaceD1Ev@Base 1.10.10
 _ZN5Botan14User_InterfaceD2Ev@Base 1.10.10
 _ZN5Botan14XTS_Decryption14buffered_blockEPKhm@Base 1.10.12
 _ZN5Botan14XTS_Decryption14buffered_finalEPKhm@Base 1.10.12
 _ZN5Botan14XTS_Decryption5writeEPKhm@Base 1.10.12
 _ZN5Botan14XTS_Decryption6set_ivERKNS_11OctetStringE@Base 1.10.10
 _ZN5Botan14XTS_Decryption7end_msgEv@Base 1.10.10
 _ZN5Botan14XTS_Decryption7set_keyERKNS_11OctetStringE@Base 1.10.10
 _ZN5Botan14XTS_DecryptionC1EPNS_11BlockCipherE@Base 1.10.10
 _ZN5Botan14XTS_DecryptionC1EPNS_11BlockCipherERKNS_11OctetStringES5_@Base 1.10.10
 _ZN5Botan14XTS_DecryptionC2EPNS_11BlockCipherE@Base 1.10.10
 _ZN5Botan14XTS_DecryptionC2EPNS_11BlockCipherERKNS_11OctetStringES5_@Base 1.10.10
 _ZN5Botan14XTS_DecryptionD0Ev@Base 1.10.10
 _ZN5Botan14XTS_DecryptionD1Ev@Base 1.10.10
 _ZN5Botan14XTS_DecryptionD2Ev@Base 1.10.10
 _ZN5Botan14XTS_Encryption14buffered_blockEPKhm@Base 1.10.12
 _ZN5Botan14XTS_Encryption14buffered_finalEPKhm@Base 1.10.12
 _ZN5Botan14XTS_Encryption5writeEPKhm@Base 1.10.12
 _ZN5Botan14XTS_Encryption6set_ivERKNS_11OctetStringE@Base 1.10.10
 _ZN5Botan14XTS_Encryption7end_msgEv@Base 1.10.10
 _ZN5Botan14XTS_Encryption7set_keyERKNS_11OctetStringE@Base 1.10.10
 _ZN5Botan14XTS_EncryptionC1EPNS_11BlockCipherE@Base 1.10.10
 _ZN5Botan14XTS_EncryptionC1EPNS_11BlockCipherERKNS_11OctetStringES5_@Base 1.10.10
 _ZN5Botan14XTS_EncryptionC2EPNS_11BlockCipherE@Base 1.10.10
 _ZN5Botan14XTS_EncryptionC2EPNS_11BlockCipherERKNS_11OctetStringES5_@Base 1.10.10
 _ZN5Botan14XTS_EncryptionD0Ev@Base 1.10.10
 _ZN5Botan14XTS_EncryptionD1Ev@Base 1.10.10
 _ZN5Botan14XTS_EncryptionD2Ev@Base 1.10.10
 _ZN5Botan14aont_unpackageEPNS_11BlockCipherEPKhmPh@Base 1.10.12
 _ZN5Botan14calendar_valueEy@Base 1.10.10
 _ZN5Botan14have_algorithmERKNSt7__cxx1112basic_stringIcSt11char_traitsIcESaIcEEE@Base 1.10.10
 _ZN5Botan14ipv4_to_stringB5cxx11Ej@Base 1.10.10
 _ZN5Botan14parse_asn1_oidERKNSt7__cxx1112basic_stringIcSt11char_traitsIcESaIcEEE@Base 1.10.10
 _ZN5Botan14primality_testERKNS_6BigIntERNS_21RandomNumberGeneratorEm@Base 1.10.12
 _ZN5Botan14string_to_ipv4ERKNSt7__cxx1112basic_stringIcSt11char_traitsIcESaIcEEE@Base 1.10.10
 _ZN5Botan14version_stringB5cxx11Ev@Base 1.10.10
 _ZN5Botan15AlternativeName11decode_fromERNS_11BER_DecoderE@Base 1.10.10
 _ZN5Botan15AlternativeName13add_attributeERKNSt7__cxx1112basic_stringIcSt11char_traitsIcESaIcEEES8_@Base 1.10.10
 _ZN5Botan15AlternativeName13add_othernameERKNS_3OIDERKNSt7__cxx1112basic_stringIcSt11char_traitsIcESaIcEEENS_8ASN1_TagE@Base 1.10.10
 _ZN5Botan15AlternativeNameC1ERKNSt7__cxx1112basic_stringIcSt11char_traitsIcESaIcEEES8_S8_S8_@Base 1.10.10
 _ZN5Botan15AlternativeNameC2ERKNSt7__cxx1112basic_stringIcSt11char_traitsIcESaIcEEES8_S8_S8_@Base 1.10.10
 _ZN5Botan15AlternativeNameD0Ev@Base 1.10.10
 _ZN5Botan15AlternativeNameD1Ev@Base 1.10.10
 _ZN5Botan15AlternativeNameD2Ev@Base 1.10.10
 _ZN5Botan15Buffered_Filter5writeEPKhm@Base 1.10.12
 _ZN5Botan15Buffered_Filter7end_msgEv@Base 1.10.10
 _ZN5Botan15Buffered_FilterC1Emm@Base 1.10.12
 _ZN5Botan15Buffered_FilterC2Emm@Base 1.10.12
 _ZN5Botan15DH_KA_Operation5agreeEPKhm@Base 1.10.12
 _ZN5Botan15DH_KA_OperationC1ERKNS_13DH_PrivateKeyE@Base 1.10.10
 _ZN5Botan15DH_KA_OperationC2ERKNS_13DH_PrivateKeyE@Base 1.10.10
 _ZN5Botan15DH_KA_OperationD0Ev@Base 1.10.10
 _ZN5Botan15DH_KA_OperationD1Ev@Base 1.10.10
 _ZN5Botan15DH_KA_OperationD2Ev@Base 1.10.10
 _ZN5Botan15DLIES_DecryptorC1ERKNS_20PK_Key_Agreement_KeyEPNS_3KDFEPNS_25MessageAuthenticationCodeEm@Base 1.10.12
 _ZN5Botan15DLIES_DecryptorC2ERKNS_20PK_Key_Agreement_KeyEPNS_3KDFEPNS_25MessageAuthenticationCodeEm@Base 1.10.12
 _ZN5Botan15DLIES_DecryptorD0Ev@Base 1.10.10
 _ZN5Botan15DLIES_DecryptorD1Ev@Base 1.10.10
 _ZN5Botan15DLIES_DecryptorD2Ev@Base 1.10.10
 _ZN5Botan15DLIES_Encryptor13set_other_keyERKNS_12MemoryRegionIhEE@Base 1.10.10
 _ZN5Botan15DLIES_EncryptorC1ERKNS_20PK_Key_Agreement_KeyEPNS_3KDFEPNS_25MessageAuthenticationCodeEm@Base 1.10.12
 _ZN5Botan15DLIES_EncryptorC2ERKNS_20PK_Key_Agreement_KeyEPNS_3KDFEPNS_25MessageAuthenticationCodeEm@Base 1.10.12
 _ZN5Botan15DLIES_EncryptorD0Ev@Base 1.10.10
 _ZN5Botan15DLIES_EncryptorD1Ev@Base 1.10.10
 _ZN5Botan15DLIES_EncryptorD2Ev@Base 1.10.10
 _ZN5Botan15DataSink_Stream5writeEPKhm@Base 1.10.12
 _ZN5Botan15DataSink_StreamC1ERKNSt7__cxx1112basic_stringIcSt11char_traitsIcESaIcEEEb@Base 1.10.10
 _ZN5Botan15DataSink_StreamC1ERSoRKNSt7__cxx1112basic_stringIcSt11char_traitsIcESaIcEEE@Base 1.10.10
 _ZN5Botan15DataSink_StreamC2ERKNSt7__cxx1112basic_stringIcSt11char_traitsIcESaIcEEEb@Base 1.10.10
 _ZN5Botan15DataSink_StreamC2ERSoRKNSt7__cxx1112basic_stringIcSt11char_traitsIcESaIcEEE@Base 1.10.10
 _ZN5Botan15DataSink_StreamD0Ev@Base 1.10.10
 _ZN5Botan15DataSink_StreamD1Ev@Base 1.10.10
 _ZN5Botan15DataSink_StreamD2Ev@Base 1.10.10
 _ZN5Botan15ECDH_PrivateKeyD0Ev@Base 1.10.10
 _ZN5Botan15ECDH_PrivateKeyD1Ev@Base 1.10.10
 _ZN5Botan15ECDSA_PublicKeyD0Ev@Base 1.10.10
 _ZN5Botan15ECDSA_PublicKeyD1Ev@Base 1.10.10
 _ZN5Botan15Modular_ReducerC1ERKNS_6BigIntE@Base 1.10.10
 _ZN5Botan15Modular_ReducerC2ERKNS_6BigIntE@Base 1.10.10
 _ZN5Botan15Modular_ReducerD1Ev@Base 1.10.10
 _ZN5Botan15Modular_ReducerD2Ev@Base 1.10.10
 _ZN5Botan15PKCS8_ExceptionC1ERKNSt7__cxx1112basic_stringIcSt11char_traitsIcESaIcEEE@Base 1.10.10
 _ZN5Botan15PKCS8_ExceptionC2ERKNSt7__cxx1112basic_stringIcSt11char_traitsIcESaIcEEE@Base 1.10.10
 _ZN5Botan15PKCS8_ExceptionD0Ev@Base 1.10.10
 _ZN5Botan15PKCS8_ExceptionD1Ev@Base 1.10.10
 _ZN5Botan15PKCS8_ExceptionD2Ev@Base 1.10.10
 _ZN5Botan15Stream_IO_ErrorC1ERKNSt7__cxx1112basic_stringIcSt11char_traitsIcESaIcEEE@Base 1.10.10
 _ZN5Botan15Stream_IO_ErrorC2ERKNSt7__cxx1112basic_stringIcSt11char_traitsIcESaIcEEE@Base 1.10.10
 _ZN5Botan15Stream_IO_ErrorD0Ev@Base 1.10.10
 _ZN5Botan15Stream_IO_ErrorD1Ev@Base 1.10.10
 _ZN5Botan15Stream_IO_ErrorD2Ev@Base 1.10.10
 _ZN5Botan15WiderWake_41_BE12key_scheduleEPKhm@Base 1.10.12
 _ZN5Botan15WiderWake_41_BE5clearEv@Base 1.10.10
 _ZN5Botan15WiderWake_41_BE6cipherEPKhPhm@Base 1.10.12
 _ZN5Botan15WiderWake_41_BE6set_ivEPKhm@Base 1.10.12
 _ZN5Botan15WiderWake_41_BE8generateEm@Base 1.10.12
 _ZN5Botan15WiderWake_41_BED0Ev@Base 1.10.10
 _ZN5Botan15WiderWake_41_BED1Ev@Base 1.10.10
 _ZN5Botan15WiderWake_41_BED2Ev@Base 1.10.10
 _ZN5Botan15check_passhash9ERKNSt7__cxx1112basic_stringIcSt11char_traitsIcESaIcEEES7_@Base 1.10.10
 _ZN5Botan15create_alt_nameERKNS_10Data_StoreE@Base 1.10.10
 _ZN5Botan15generate_bcryptERKNSt7__cxx1112basic_stringIcSt11char_traitsIcESaIcEEERNS_21RandomNumberGeneratorEt@Base 1.10.10
 _ZN5Botan15rfc3394_keywrapERKNS_12MemoryRegionIhEERKNS_11OctetStringERNS_17Algorithm_FactoryE@Base 1.10.10
 _ZN5Botan16Bzip_Compression5clearEv@Base 1.10.10
 _ZN5Botan16Bzip_Compression5flushEv@Base 1.10.10
 _ZN5Botan16Bzip_Compression5writeEPKhm@Base 1.10.12
 _ZN5Botan16Bzip_Compression7end_msgEv@Base 1.10.10
 _ZN5Botan16Bzip_Compression9start_msgEv@Base 1.10.10
 _ZN5Botan16Bzip_CompressionC1Em@Base 1.10.12
 _ZN5Botan16Bzip_CompressionC2Em@Base 1.10.12
 _ZN5Botan16Bzip_CompressionD0Ev@Base 1.10.10
 _ZN5Botan16Bzip_CompressionD1Ev@Base 1.10.10
 _ZN5Botan16Bzip_CompressionD2Ev@Base 1.10.10
 _ZN5Botan16ECDSA_PrivateKeyD0Ev@Base 1.10.10
 _ZN5Botan16ECDSA_PrivateKeyD1Ev@Base 1.10.10
 _ZN5Botan16MDx_HashFunction11write_countEPh@Base 1.10.10
 _ZN5Botan16MDx_HashFunction12final_resultEPh@Base 1.10.10
 _ZN5Botan16MDx_HashFunction5clearEv@Base 1.10.10
 _ZN5Botan16MDx_HashFunction8add_dataEPKhm@Base 1.10.12
 _ZN5Botan16MDx_HashFunctionC1Embbm@Base 1.10.12
 _ZN5Botan16MDx_HashFunctionC2Embbm@Base 1.10.12
 _ZN5Botan16PK_Decryptor_EMEC1ERKNS_11Private_KeyERKNSt7__cxx1112basic_stringIcSt11char_traitsIcESaIcEEE@Base 1.10.10
 _ZN5Botan16PK_Decryptor_EMEC2ERKNS_11Private_KeyERKNSt7__cxx1112basic_stringIcSt11char_traitsIcESaIcEEE@Base 1.10.10
 _ZN5Botan16PK_Decryptor_EMED0Ev@Base 1.10.10
 _ZN5Botan16PK_Decryptor_EMED1Ev@Base 1.10.10
 _ZN5Botan16PK_Decryptor_EMED2Ev@Base 1.10.10
 _ZN5Botan16PK_Encryptor_EMEC1ERKNS_10Public_KeyERKNSt7__cxx1112basic_stringIcSt11char_traitsIcESaIcEEE@Base 1.10.10
 _ZN5Botan16PK_Encryptor_EMEC2ERKNS_10Public_KeyERKNSt7__cxx1112basic_stringIcSt11char_traitsIcESaIcEEE@Base 1.10.10
 _ZN5Botan16PK_Encryptor_EMED0Ev@Base 1.10.10
 _ZN5Botan16PK_Encryptor_EMED1Ev@Base 1.10.10
 _ZN5Botan16PK_Encryptor_EMED2Ev@Base 1.10.10
 _ZN5Botan16PK_Key_AgreementC1ERKNS_20PK_Key_Agreement_KeyERKNSt7__cxx1112basic_stringIcSt11char_traitsIcESaIcEEE@Base 1.10.10
 _ZN5Botan16PK_Key_AgreementC2ERKNS_20PK_Key_Agreement_KeyERKNSt7__cxx1112basic_stringIcSt11char_traitsIcESaIcEEE@Base 1.10.10
 _ZN5Botan16PK_Key_AgreementD1Ev@Base 1.10.10
 _ZN5Botan16PK_Key_AgreementD2Ev@Base 1.10.10
 _ZN5Botan16PK_Signer_Filter5writeEPKhm@Base 1.10.12
 _ZN5Botan16PK_Signer_Filter7end_msgEv@Base 1.10.10
 _ZN5Botan16PK_Signer_FilterD0Ev@Base 1.10.10
 _ZN5Botan16PK_Signer_FilterD1Ev@Base 1.10.10
 _ZN5Botan16PK_Signer_FilterD2Ev@Base 1.10.10
 _ZN5Botan16X509_Certificate12force_decodeEv@Base 1.10.10
 _ZN5Botan16X509_CertificateC1ERKNSt7__cxx1112basic_stringIcSt11char_traitsIcESaIcEEE@Base 1.10.10
 _ZN5Botan16X509_CertificateC1ERKS0_@Base 1.10.10
 _ZN5Botan16X509_CertificateC1ERNS_10DataSourceE@Base 1.10.10
 _ZN5Botan16X509_CertificateC2ERKNSt7__cxx1112basic_stringIcSt11char_traitsIcESaIcEEE@Base 1.10.10
 _ZN5Botan16X509_CertificateC2ERKS0_@Base 1.10.10
 _ZN5Botan16X509_CertificateC2ERNS_10DataSourceE@Base 1.10.10
 _ZN5Botan16X509_CertificateD0Ev@Base 1.10.10
 _ZN5Botan16X509_CertificateD1Ev@Base 1.10.10
 _ZN5Botan16X509_CertificateD2Ev@Base 1.10.10
 _ZN5Botan16Zlib_Compression5clearEv@Base 1.10.10
 _ZN5Botan16Zlib_Compression5flushEv@Base 1.10.10
 _ZN5Botan16Zlib_Compression5writeEPKhm@Base 1.10.12
 _ZN5Botan16Zlib_Compression7end_msgEv@Base 1.10.10
 _ZN5Botan16Zlib_Compression9start_msgEv@Base 1.10.10
 _ZN5Botan16Zlib_CompressionC1Em@Base 1.10.12
 _ZN5Botan16Zlib_CompressionC2Em@Base 1.10.12
 _ZN5Botan16Zlib_CompressionD0Ev@Base 1.10.10
 _ZN5Botan16Zlib_CompressionD1Ev@Base 1.10.10
 _ZN5Botan16Zlib_CompressionD2Ev@Base 1.10.10
 _ZN5Botan16ieee1363_hash_idERKNSt7__cxx1112basic_stringIcSt11char_traitsIcESaIcEEE@Base 1.10.10
 _ZN5Botan16max_keylength_ofERKNSt7__cxx1112basic_stringIcSt11char_traitsIcESaIcEEE@Base 1.10.10
 _ZN5Botan16min_keylength_ofERKNSt7__cxx1112basic_stringIcSt11char_traitsIcESaIcEEE@Base 1.10.10
 _ZN5Botan16output_length_ofERKNSt7__cxx1112basic_stringIcSt11char_traitsIcESaIcEEE@Base 1.10.10
 _ZN5Botan17ANSI_X923_PaddingD0Ev@Base 1.10.10
 _ZN5Botan17ANSI_X923_PaddingD1Ev@Base 1.10.10
 _ZN5Botan17ANSI_X923_PaddingD2Ev@Base 1.10.10
 _ZN5Botan17Algorithm_Factory10add_engineEPNS_6EngineE@Base 1.10.10
 _ZN5Botan17Algorithm_Factory10make_pbkdfERKNSt7__cxx1112basic_stringIcSt11char_traitsIcESaIcEEES8_@Base 1.10.10
 _ZN5Botan17Algorithm_Factory12clear_cachesEv@Base 1.10.10
 _ZN5Botan17Algorithm_Factory12providers_ofERKNSt7__cxx1112basic_stringIcSt11char_traitsIcESaIcEEE@Base 1.10.10
 _ZN5Botan17Algorithm_Factory13prototype_macERKNSt7__cxx1112basic_stringIcSt11char_traitsIcESaIcEEES8_@Base 1.10.10
 _ZN5Botan17Algorithm_Factory15prototype_pbkdfERKNSt7__cxx1112basic_stringIcSt11char_traitsIcESaIcEEES8_@Base 1.10.10
 _ZN5Botan17Algorithm_Factory16add_block_cipherEPNS_11BlockCipherERKNSt7__cxx1112basic_stringIcSt11char_traitsIcESaIcEEE@Base 1.10.10
 _ZN5Botan17Algorithm_Factory17add_hash_functionEPNS_12HashFunctionERKNSt7__cxx1112basic_stringIcSt11char_traitsIcESaIcEEE@Base 1.10.10
 _ZN5Botan17Algorithm_Factory17add_stream_cipherEPNS_12StreamCipherERKNSt7__cxx1112basic_stringIcSt11char_traitsIcESaIcEEE@Base 1.10.10
 _ZN5Botan17Algorithm_Factory17make_block_cipherERKNSt7__cxx1112basic_stringIcSt11char_traitsIcESaIcEEES8_@Base 1.10.10
 _ZN5Botan17Algorithm_Factory18make_hash_functionERKNSt7__cxx1112basic_stringIcSt11char_traitsIcESaIcEEES8_@Base 1.10.10
 _ZN5Botan17Algorithm_Factory18make_stream_cipherERKNSt7__cxx1112basic_stringIcSt11char_traitsIcESaIcEEES8_@Base 1.10.10
 _ZN5Botan17Algorithm_Factory22prototype_block_cipherERKNSt7__cxx1112basic_stringIcSt11char_traitsIcESaIcEEES8_@Base 1.10.10
 _ZN5Botan17Algorithm_Factory22set_preferred_providerERKNSt7__cxx1112basic_stringIcSt11char_traitsIcESaIcEEES8_@Base 1.10.10
 _ZN5Botan17Algorithm_Factory23prototype_hash_functionERKNSt7__cxx1112basic_stringIcSt11char_traitsIcESaIcEEES8_@Base 1.10.10
 _ZN5Botan17Algorithm_Factory23prototype_stream_cipherERKNSt7__cxx1112basic_stringIcSt11char_traitsIcESaIcEEES8_@Base 1.10.10
 _ZN5Botan17Algorithm_Factory7add_macEPNS_25MessageAuthenticationCodeERKNSt7__cxx1112basic_stringIcSt11char_traitsIcESaIcEEE@Base 1.10.10
 _ZN5Botan17Algorithm_Factory8make_macERKNSt7__cxx1112basic_stringIcSt11char_traitsIcESaIcEEES8_@Base 1.10.10
 _ZN5Botan17Algorithm_Factory9add_pbkdfEPNS_5PBKDFERKNSt7__cxx1112basic_stringIcSt11char_traitsIcESaIcEEE@Base 1.10.10
 _ZN5Botan17Algorithm_FactoryC1ERNS_13Mutex_FactoryE@Base 1.10.10
 _ZN5Botan17Algorithm_FactoryC2ERNS_13Mutex_FactoryE@Base 1.10.10
 _ZN5Botan17Algorithm_FactoryD1Ev@Base 1.10.10
 _ZN5Botan17Algorithm_FactoryD2Ev@Base 1.10.10
 _ZN5Botan17DataSource_Memory15check_availableEm@Base 1.10.12
 _ZN5Botan17DataSource_Memory4readEPhm@Base 1.10.12
 _ZN5Botan17DataSource_MemoryC1EPKhm@Base 1.10.12
 _ZN5Botan17DataSource_MemoryC1ERKNS_12MemoryRegionIhEE@Base 1.10.10
 _ZN5Botan17DataSource_MemoryC1ERKNSt7__cxx1112basic_stringIcSt11char_traitsIcESaIcEEE@Base 1.10.10
 _ZN5Botan17DataSource_MemoryC2EPKhm@Base 1.10.12
 _ZN5Botan17DataSource_MemoryC2ERKNS_12MemoryRegionIhEE@Base 1.10.10
 _ZN5Botan17DataSource_MemoryC2ERKNSt7__cxx1112basic_stringIcSt11char_traitsIcESaIcEEE@Base 1.10.10
 _ZN5Botan17DataSource_MemoryD0Ev@Base 1.10.10
 _ZN5Botan17DataSource_MemoryD1Ev@Base 1.10.10
 _ZN5Botan17DataSource_MemoryD2Ev@Base 1.10.10
 _ZN5Botan17DataSource_Stream15check_availableEm@Base 1.10.12
 _ZN5Botan17DataSource_Stream4readEPhm@Base 1.10.12
 _ZN5Botan17DataSource_StreamC1ERKNSt7__cxx1112basic_stringIcSt11char_traitsIcESaIcEEEb@Base 1.10.10
 _ZN5Botan17DataSource_StreamC1ERSiRKNSt7__cxx1112basic_stringIcSt11char_traitsIcESaIcEEE@Base 1.10.10
 _ZN5Botan17DataSource_StreamC2ERKNSt7__cxx1112basic_stringIcSt11char_traitsIcESaIcEEEb@Base 1.10.10
 _ZN5Botan17DataSource_StreamC2ERSiRKNSt7__cxx1112basic_stringIcSt11char_traitsIcESaIcEEE@Base 1.10.10
 _ZN5Botan17DataSource_StreamD0Ev@Base 1.10.10
 _ZN5Botan17DataSource_StreamD1Ev@Base 1.10.10
 _ZN5Botan17DataSource_StreamD2Ev@Base 1.10.10
 _ZN5Botan17ECDH_KA_Operation5agreeEPKhm@Base 1.10.12
 _ZN5Botan17ECDH_KA_OperationC1ERKNS_15ECDH_PrivateKeyE@Base 1.10.10
 _ZN5Botan17ECDH_KA_OperationC2ERKNS_15ECDH_PrivateKeyE@Base 1.10.10
 _ZN5Botan17ECDH_KA_OperationD0Ev@Base 1.10.10
 _ZN5Botan17ECDH_KA_OperationD1Ev@Base 1.10.10
 _ZN5Botan17ECDH_KA_OperationD2Ev@Base 1.10.10
 _ZN5Botan17ElGamal_PublicKeyC1ERKNS_8DL_GroupERKNS_6BigIntE@Base 1.10.10
 _ZN5Botan17ElGamal_PublicKeyC2ERKNS_8DL_GroupERKNS_6BigIntE@Base 1.10.10
 _ZN5Botan17ElGamal_PublicKeyD0Ev@Base 1.10.10
 _ZN5Botan17ElGamal_PublicKeyD1Ev@Base 1.10.10
 _ZN5Botan17Integrity_FailureC1ERKNSt7__cxx1112basic_stringIcSt11char_traitsIcESaIcEEE@Base 1.10.10
 _ZN5Botan17Integrity_FailureC2ERKNSt7__cxx1112basic_stringIcSt11char_traitsIcESaIcEEE@Base 1.10.10
 _ZN5Botan17Integrity_FailureD0Ev@Base 1.10.10
 _ZN5Botan17Integrity_FailureD1Ev@Base 1.10.10
 _ZN5Botan17Integrity_FailureD2Ev@Base 1.10.10
 _ZN5Botan17Invalid_IV_LengthC1ERKNSt7__cxx1112basic_stringIcSt11char_traitsIcESaIcEEEm@Base 1.10.12
 _ZN5Botan17Invalid_IV_LengthC2ERKNSt7__cxx1112basic_stringIcSt11char_traitsIcESaIcEEEm@Base 1.10.12
 _ZN5Botan17Invalid_IV_LengthD0Ev@Base 1.10.10
 _ZN5Botan17Invalid_IV_LengthD1Ev@Base 1.10.10
 _ZN5Botan17Invalid_IV_LengthD2Ev@Base 1.10.10
 _ZN5Botan17Memory_ExhaustionD0Ev@Base 1.10.10
 _ZN5Botan17Memory_ExhaustionD1Ev@Base 1.10.10
 _ZN5Botan17Memory_ExhaustionD2Ev@Base 1.10.10
 _ZN5Botan17Self_Test_FailureC1ERKNSt7__cxx1112basic_stringIcSt11char_traitsIcESaIcEEE@Base 1.10.10
 _ZN5Botan17Self_Test_FailureC2ERKNSt7__cxx1112basic_stringIcSt11char_traitsIcESaIcEEE@Base 1.10.10
 _ZN5Botan17Self_Test_FailureD0Ev@Base 1.10.10
 _ZN5Botan17Self_Test_FailureD1Ev@Base 1.10.10
 _ZN5Botan17Self_Test_FailureD2Ev@Base 1.10.10
 _ZN5Botan17X509_Cert_Options10not_beforeERKNSt7__cxx1112basic_stringIcSt11char_traitsIcESaIcEEE@Base 1.10.10
 _ZN5Botan17X509_Cert_Options15add_constraintsENS_15Key_ConstraintsE@Base 1.10.10
 _ZN5Botan17X509_Cert_Options17add_ex_constraintERKNS_3OIDE@Base 1.10.10
 _ZN5Botan17X509_Cert_Options17add_ex_constraintERKNSt7__cxx1112basic_stringIcSt11char_traitsIcESaIcEEE@Base 1.10.10
 _ZN5Botan17X509_Cert_Options6CA_keyEm@Base 1.10.12
 _ZN5Botan17X509_Cert_Options9not_afterERKNSt7__cxx1112basic_stringIcSt11char_traitsIcESaIcEEE@Base 1.10.10
 _ZN5Botan17X509_Cert_OptionsC1ERKNSt7__cxx1112basic_stringIcSt11char_traitsIcESaIcEEEj@Base 1.10.10
 _ZN5Botan17X509_Cert_OptionsC2ERKNSt7__cxx1112basic_stringIcSt11char_traitsIcESaIcEEEj@Base 1.10.10
 _ZN5Botan17choose_sig_formatERKNS_11Private_KeyERKNSt7__cxx1112basic_stringIcSt11char_traitsIcESaIcEEERNS_19AlgorithmIdentifierE@Base 1.10.10
 _ZN5Botan17passes_self_testsERNS_17Algorithm_FactoryE@Base 1.10.10
 _ZN5Botan17random_safe_primeERNS_21RandomNumberGeneratorEm@Base 1.10.12
 _ZN5Botan17rfc3394_keyunwrapERKNS_12MemoryRegionIhEERKNS_11OctetStringERNS_17Algorithm_FactoryE@Base 1.10.10
 _ZN5Botan17srp6_client_agreeERKNSt7__cxx1112basic_stringIcSt11char_traitsIcESaIcEEES7_S7_S7_RKNS_12MemoryRegionIhEERKNS_6BigIntERNS_21RandomNumberGeneratorE@Base 1.10.10
 _ZN5Botan17version_datestampEv@Base 1.10.10
 _ZN5Botan18BER_Decoding_ErrorC1ERKNSt7__cxx1112basic_stringIcSt11char_traitsIcESaIcEEE@Base 1.10.10
 _ZN5Botan18BER_Decoding_ErrorC2ERKNSt7__cxx1112basic_stringIcSt11char_traitsIcESaIcEEE@Base 1.10.10
 _ZN5Botan18BER_Decoding_ErrorD0Ev@Base 1.10.10
 _ZN5Botan18BER_Decoding_ErrorD1Ev@Base 1.10.10
 _ZN5Botan18BER_Decoding_ErrorD2Ev@Base 1.10.10
 _ZN5Botan18Bzip_Decompression5clearEv@Base 1.10.10
 _ZN5Botan18Bzip_Decompression5writeEPKhm@Base 1.10.12
 _ZN5Botan18Bzip_Decompression7end_msgEv@Base 1.10.10
 _ZN5Botan18Bzip_Decompression9start_msgEv@Base 1.10.10
 _ZN5Botan18Bzip_DecompressionC1Eb@Base 1.10.10
 _ZN5Botan18Bzip_DecompressionC2Eb@Base 1.10.10
 _ZN5Botan18Bzip_DecompressionD0Ev@Base 1.10.10
 _ZN5Botan18Bzip_DecompressionD1Ev@Base 1.10.10
 _ZN5Botan18Bzip_DecompressionD2Ev@Base 1.10.10
 _ZN5Botan18ElGamal_PrivateKeyC1ERKNS_19AlgorithmIdentifierERKNS_12MemoryRegionIhEERNS_21RandomNumberGeneratorE@Base 1.10.10
 _ZN5Botan18ElGamal_PrivateKeyC1ERNS_21RandomNumberGeneratorERKNS_8DL_GroupERKNS_6BigIntE@Base 1.10.10
 _ZN5Botan18ElGamal_PrivateKeyC2ERKNS_19AlgorithmIdentifierERKNS_12MemoryRegionIhEERNS_21RandomNumberGeneratorE@Base 1.10.10
 _ZN5Botan18ElGamal_PrivateKeyC2ERNS_21RandomNumberGeneratorERKNS_8DL_GroupERKNS_6BigIntE@Base 1.10.10
 _ZN5Botan18ElGamal_PrivateKeyD0Ev@Base 1.10.10
 _ZN5Botan18ElGamal_PrivateKeyD1Ev@Base 1.10.10
 _ZN5Botan18Invalid_Block_SizeC1ERKNSt7__cxx1112basic_stringIcSt11char_traitsIcESaIcEEES8_@Base 1.10.10
 _ZN5Botan18Invalid_Block_SizeC2ERKNSt7__cxx1112basic_stringIcSt11char_traitsIcESaIcEEES8_@Base 1.10.10
 _ZN5Botan18Invalid_Block_SizeD0Ev@Base 1.10.10
 _ZN5Botan18Invalid_Block_SizeD1Ev@Base 1.10.10
 _ZN5Botan18Invalid_Block_SizeD2Ev@Base 1.10.10
 _ZN5Botan18Invalid_Key_LengthC1ERKNSt7__cxx1112basic_stringIcSt11char_traitsIcESaIcEEEm@Base 1.10.12
 _ZN5Botan18Invalid_Key_LengthC2ERKNSt7__cxx1112basic_stringIcSt11char_traitsIcESaIcEEEm@Base 1.10.12
 _ZN5Botan18Invalid_Key_LengthD0Ev@Base 1.10.10
 _ZN5Botan18Invalid_Key_LengthD1Ev@Base 1.10.10
 _ZN5Botan18Invalid_Key_LengthD2Ev@Base 1.10.10
 _ZN5Botan18LibraryInitializer10initializeERKNSt7__cxx1112basic_stringIcSt11char_traitsIcESaIcEEE@Base 1.10.10
 _ZN5Botan18LibraryInitializer12deinitializeEv@Base 1.10.10
 _ZN5Botan18PK_Verifier_Filter13set_signatureEPKhm@Base 1.10.12
 _ZN5Botan18PK_Verifier_Filter13set_signatureERKNS_12MemoryRegionIhEE@Base 1.10.10
 _ZN5Botan18PK_Verifier_Filter5writeEPKhm@Base 1.10.12
 _ZN5Botan18PK_Verifier_Filter7end_msgEv@Base 1.10.10
 _ZN5Botan18PK_Verifier_FilterC1EPNS_11PK_VerifierEPKhm@Base 1.10.12
 _ZN5Botan18PK_Verifier_FilterC1EPNS_11PK_VerifierERKNS_12MemoryRegionIhEE@Base 1.10.10
 _ZN5Botan18PK_Verifier_FilterC2EPNS_11PK_VerifierEPKhm@Base 1.10.12
 _ZN5Botan18PK_Verifier_FilterC2EPNS_11PK_VerifierERKNS_12MemoryRegionIhEE@Base 1.10.10
 _ZN5Botan18PK_Verifier_FilterD0Ev@Base 1.10.10
 _ZN5Botan18PK_Verifier_FilterD1Ev@Base 1.10.10
 _ZN5Botan18PK_Verifier_FilterD2Ev@Base 1.10.10
 _ZN5Botan18SymmetricAlgorithm7set_keyEPKhm@Base 1.10.12
 _ZN5Botan18Unexpected_MessageD0Ev@Base 1.10.10
 _ZN5Botan18Unexpected_MessageD1Ev@Base 1.10.10
 _ZN5Botan18Unexpected_MessageD2Ev@Base 1.10.10
 _ZN5Botan18Zlib_Decompression5clearEv@Base 1.10.10
 _ZN5Botan18Zlib_Decompression5writeEPKhm@Base 1.10.12
 _ZN5Botan18Zlib_Decompression7end_msgEv@Base 1.10.10
 _ZN5Botan18Zlib_Decompression9start_msgEv@Base 1.10.10
 _ZN5Botan18Zlib_DecompressionC1Ev@Base 1.10.10
 _ZN5Botan18Zlib_DecompressionC2Ev@Base 1.10.10
 _ZN5Botan18Zlib_DecompressionD0Ev@Base 1.10.10
 _ZN5Botan18Zlib_DecompressionD1Ev@Base 1.10.10
 _ZN5Botan18Zlib_DecompressionD2Ev@Base 1.10.10
 _ZN5Botan18generate_passhash9ERKNSt7__cxx1112basic_stringIcSt11char_traitsIcESaIcEEERNS_21RandomNumberGeneratorEth@Base 1.10.10
 _ZN5Botan18multi_exponentiateERKNS_8PointGFpERKNS_6BigIntES2_S5_@Base 1.10.10
 _ZN5Botan18timespec_to_u32bitERKNSt7__cxx1112basic_stringIcSt11char_traitsIcESaIcEEE@Base 1.10.10
 _ZN5Botan19AlgorithmIdentifier11decode_fromERNS_11BER_DecoderE@Base 1.10.10
 _ZN5Botan19AlgorithmIdentifierC1ERKNS_3OIDENS0_15Encoding_OptionE@Base 1.10.10
 _ZN5Botan19AlgorithmIdentifierC1ERKNS_3OIDERKNS_12MemoryRegionIhEE@Base 1.10.10
 _ZN5Botan19AlgorithmIdentifierC1ERKNSt7__cxx1112basic_stringIcSt11char_traitsIcESaIcEEENS0_15Encoding_OptionE@Base 1.10.10
 _ZN5Botan19AlgorithmIdentifierC1ERKNSt7__cxx1112basic_stringIcSt11char_traitsIcESaIcEEERKNS_12MemoryRegionIhEE@Base 1.10.10
 _ZN5Botan19AlgorithmIdentifierC2ERKNS_3OIDENS0_15Encoding_OptionE@Base 1.10.10
 _ZN5Botan19AlgorithmIdentifierC2ERKNS_3OIDERKNS_12MemoryRegionIhEE@Base 1.10.10
 _ZN5Botan19AlgorithmIdentifierC2ERKNSt7__cxx1112basic_stringIcSt11char_traitsIcESaIcEEENS0_15Encoding_OptionE@Base 1.10.10
 _ZN5Botan19AlgorithmIdentifierC2ERKNSt7__cxx1112basic_stringIcSt11char_traitsIcESaIcEEERKNS_12MemoryRegionIhEE@Base 1.10.10
 _ZN5Botan19AlgorithmIdentifierD0Ev@Base 1.10.10
 _ZN5Botan19AlgorithmIdentifierD1Ev@Base 1.10.10
 _ZN5Botan19AlgorithmIdentifierD2Ev@Base 1.10.10
 _ZN5Botan19Algorithm_Not_FoundC1ERKNSt7__cxx1112basic_stringIcSt11char_traitsIcESaIcEEE@Base 1.10.10
 _ZN5Botan19Algorithm_Not_FoundC2ERKNSt7__cxx1112basic_stringIcSt11char_traitsIcESaIcEEE@Base 1.10.10
 _ZN5Botan19Algorithm_Not_FoundD0Ev@Base 1.10.10
 _ZN5Botan19Algorithm_Not_FoundD1Ev@Base 1.10.10
 _ZN5Botan19Algorithm_Not_FoundD2Ev@Base 1.10.10
 _ZN5Botan19DL_Scheme_PublicKeyC1ERKNS_19AlgorithmIdentifierERKNS_12MemoryRegionIhEENS_8DL_Group6FormatE@Base 1.10.10
 _ZN5Botan19DL_Scheme_PublicKeyC2ERKNS_19AlgorithmIdentifierERKNS_12MemoryRegionIhEENS_8DL_Group6FormatE@Base 1.10.10
 _ZN5Botan19DL_Scheme_PublicKeyD2Ev@Base 1.10.10
 _ZN5Botan19GOST_3410_PublicKeyC1ERKNS_19AlgorithmIdentifierERKNS_12MemoryRegionIhEE@Base 1.10.10
 _ZN5Botan19GOST_3410_PublicKeyC2ERKNS_19AlgorithmIdentifierERKNS_12MemoryRegionIhEE@Base 1.10.10
 _ZN5Botan19GOST_3410_PublicKeyD0Ev@Base 1.10.10
 _ZN5Botan19GOST_3410_PublicKeyD1Ev@Base 1.10.10
 _ZN5Botan19IF_Scheme_PublicKeyC1ERKNS_19AlgorithmIdentifierERKNS_12MemoryRegionIhEE@Base 1.10.10
 _ZN5Botan19IF_Scheme_PublicKeyC2ERKNS_19AlgorithmIdentifierERKNS_12MemoryRegionIhEE@Base 1.10.10
 _ZN5Botan19IF_Scheme_PublicKeyD2Ev@Base 1.10.10
 _ZN5Botan19OneAndZeros_PaddingD0Ev@Base 1.10.10
 _ZN5Botan19OneAndZeros_PaddingD1Ev@Base 1.10.10
 _ZN5Botan19OneAndZeros_PaddingD2Ev@Base 1.10.10
 _ZN5Botan19PK_Decryptor_Filter5writeEPKhm@Base 1.10.12
 _ZN5Botan19PK_Decryptor_Filter7end_msgEv@Base 1.10.10
 _ZN5Botan19PK_Decryptor_FilterD0Ev@Base 1.10.10
 _ZN5Botan19PK_Decryptor_FilterD1Ev@Base 1.10.10
 _ZN5Botan19PK_Decryptor_FilterD2Ev@Base 1.10.10
 _ZN5Botan19PK_Encryptor_Filter5writeEPKhm@Base 1.10.12
 _ZN5Botan19PK_Encryptor_Filter7end_msgEv@Base 1.10.10
 _ZN5Botan19PK_Encryptor_FilterD0Ev@Base 1.10.10
 _ZN5Botan19PK_Encryptor_FilterD1Ev@Base 1.10.10
 _ZN5Botan19PK_Encryptor_FilterD2Ev@Base 1.10.10
 _ZN5Botan19SRP6_Server_Session5step1ERKNS_6BigIntERKNSt7__cxx1112basic_stringIcSt11char_traitsIcESaIcEEESB_RNS_21RandomNumberGeneratorE@Base 1.10.10
 _ZN5Botan19SRP6_Server_Session5step2ERKNS_6BigIntE@Base 1.10.10
 _ZN5Botan19StreamCipher_Filter5writeEPKhm@Base 1.10.12
 _ZN5Botan19StreamCipher_Filter6set_ivERKNS_11OctetStringE@Base 1.10.10
 _ZN5Botan19StreamCipher_Filter7set_keyERKNS_11OctetStringE@Base 1.10.10
 _ZN5Botan19StreamCipher_FilterC1EPNS_12StreamCipherE@Base 1.10.10
 _ZN5Botan19StreamCipher_FilterC1EPNS_12StreamCipherERKNS_11OctetStringE@Base 1.10.10
 _ZN5Botan19StreamCipher_FilterC1ERKNSt7__cxx1112basic_stringIcSt11char_traitsIcESaIcEEE@Base 1.10.10
 _ZN5Botan19StreamCipher_FilterC1ERKNSt7__cxx1112basic_stringIcSt11char_traitsIcESaIcEEERKNS_11OctetStringE@Base 1.10.10
 _ZN5Botan19StreamCipher_FilterC2EPNS_12StreamCipherE@Base 1.10.10
 _ZN5Botan19StreamCipher_FilterC2EPNS_12StreamCipherERKNS_11OctetStringE@Base 1.10.10
 _ZN5Botan19StreamCipher_FilterC2ERKNSt7__cxx1112basic_stringIcSt11char_traitsIcESaIcEEE@Base 1.10.10
 _ZN5Botan19StreamCipher_FilterC2ERKNSt7__cxx1112basic_stringIcSt11char_traitsIcESaIcEEERKNS_11OctetStringE@Base 1.10.10
 _ZN5Botan19StreamCipher_FilterD0Ev@Base 1.10.10
 _ZN5Botan19StreamCipher_FilterD1Ev@Base 1.10.10
 _ZN5Botan19StreamCipher_FilterD2Ev@Base 1.10.10
 _ZN5Botan19algorithm_benchmarkERKNSt7__cxx1112basic_stringIcSt11char_traitsIcESaIcEEERNS_17Algorithm_FactoryERNS_21RandomNumberGeneratorEjm@Base 1.10.12
 _ZN5Botan19generate_dsa_primesERNS_21RandomNumberGeneratorERNS_17Algorithm_FactoryERNS_6BigIntES5_mm@Base 1.10.12
 _ZN5Botan19generate_dsa_primesERNS_21RandomNumberGeneratorERNS_17Algorithm_FactoryERNS_6BigIntES5_mmRKNS_12MemoryRegionIhEE@Base 1.10.12
 _ZN5Botan20DL_Scheme_PrivateKeyC1ERKNS_19AlgorithmIdentifierERKNS_12MemoryRegionIhEENS_8DL_Group6FormatE@Base 1.10.10
 _ZN5Botan20DL_Scheme_PrivateKeyC2ERKNS_19AlgorithmIdentifierERKNS_12MemoryRegionIhEENS_8DL_Group6FormatE@Base 1.10.10
 _ZN5Botan20DL_Scheme_PrivateKeyD2Ev@Base 1.10.10
 _ZN5Botan20Fixed_Base_Power_ModC1ERKNS_6BigIntES3_NS_9Power_Mod11Usage_HintsE@Base 1.10.10
 _ZN5Botan20Fixed_Base_Power_ModC2ERKNS_6BigIntES3_NS_9Power_Mod11Usage_HintsE@Base 1.10.10
 _ZN5Botan20Fixed_Base_Power_ModD0Ev@Base 1.10.10
 _ZN5Botan20Fixed_Base_Power_ModD1Ev@Base 1.10.10
 _ZN5Botan20Fixed_Base_Power_ModD2Ev@Base 1.10.10
 _ZN5Botan20GOST_28147_89_ParamsC1ERKNSt7__cxx1112basic_stringIcSt11char_traitsIcESaIcEEE@Base 1.10.10
 _ZN5Botan20GOST_28147_89_ParamsC2ERKNSt7__cxx1112basic_stringIcSt11char_traitsIcESaIcEEE@Base 1.10.10
 _ZN5Botan20GOST_3410_PrivateKeyD0Ev@Base 1.10.10
 _ZN5Botan20GOST_3410_PrivateKeyD1Ev@Base 1.10.10
 _ZN5Botan20IF_Scheme_PrivateKeyC1ERNS_21RandomNumberGeneratorERKNS_19AlgorithmIdentifierERKNS_12MemoryRegionIhEE@Base 1.10.10
 _ZN5Botan20IF_Scheme_PrivateKeyC1ERNS_21RandomNumberGeneratorERKNS_6BigIntES5_S5_S5_S5_@Base 1.10.10
 _ZN5Botan20IF_Scheme_PrivateKeyC2ERNS_21RandomNumberGeneratorERKNS_19AlgorithmIdentifierERKNS_12MemoryRegionIhEE@Base 1.10.10
 _ZN5Botan20IF_Scheme_PrivateKeyC2ERNS_21RandomNumberGeneratorERKNS_6BigIntES5_S5_S5_S5_@Base 1.10.10
 _ZN5Botan20IF_Scheme_PrivateKeyD2Ev@Base 1.10.10
 _ZN5Botan20RSA_Public_Operation7encryptEPKhmRNS_21RandomNumberGeneratorE@Base 1.10.12
 _ZN5Botan20RSA_Public_Operation9verify_mrEPKhm@Base 1.10.12
 _ZN5Botan20RSA_Public_OperationD0Ev@Base 1.10.10
 _ZN5Botan20RSA_Public_OperationD1Ev@Base 1.10.10
 _ZN5Botan20RSA_Public_OperationD2Ev@Base 1.10.10
 _ZN5Botan20parse_algorithm_nameERKNSt7__cxx1112basic_stringIcSt11char_traitsIcESaIcEEE@Base 1.10.10
 _ZN5Botan21RSA_Private_Operation4signEPKhmRNS_21RandomNumberGeneratorE@Base 1.10.12
 _ZN5Botan21RSA_Private_Operation7decryptEPKhm@Base 1.10.12
 _ZN5Botan21RSA_Private_OperationC1ERKNS_14RSA_PrivateKeyE@Base 1.10.10
 _ZN5Botan21RSA_Private_OperationC2ERKNS_14RSA_PrivateKeyE@Base 1.10.10
 _ZN5Botan21RSA_Private_OperationD0Ev@Base 1.10.10
 _ZN5Botan21RSA_Private_OperationD1Ev@Base 1.10.10
 _ZN5Botan21RSA_Private_OperationD2Ev@Base 1.10.10
 _ZN5Botan21RandomNumberGenerator10random_vecEm@Base 1.10.12
 _ZN5Botan21RandomNumberGenerator8make_rngEv@Base 1.10.10
 _ZN5Botan21RandomNumberGenerator9next_byteEv@Base 1.10.10
 _ZN5Botan21get_nanoseconds_clockEv@Base 1.10.10
 _ZN5Botan21keylength_multiple_ofERKNSt7__cxx1112basic_stringIcSt11char_traitsIcESaIcEEE@Base 1.10.10
 _ZN5Botan21srp6_group_identifierB5cxx11ERKNS_6BigIntES2_@Base 1.10.10
 _ZN5Botan22Illegal_TransformationD0Ev@Base 1.10.10
 _ZN5Botan22Illegal_TransformationD1Ev@Base 1.10.10
 _ZN5Botan22Illegal_TransformationD2Ev@Base 1.10.10
 _ZN5Botan22Invalid_Algorithm_NameC1ERKNSt7__cxx1112basic_stringIcSt11char_traitsIcESaIcEEE@Base 1.10.10
 _ZN5Botan22Invalid_Algorithm_NameC2ERKNSt7__cxx1112basic_stringIcSt11char_traitsIcESaIcEEE@Base 1.10.10
 _ZN5Botan22Invalid_Algorithm_NameD0Ev@Base 1.10.10
 _ZN5Botan22Invalid_Algorithm_NameD1Ev@Base 1.10.10
 _ZN5Botan22Invalid_Algorithm_NameD2Ev@Base 1.10.10
 _ZN5Botan22NR_Signature_Operation4signEPKhmRNS_21RandomNumberGeneratorE@Base 1.10.12
 _ZN5Botan22NR_Signature_OperationC1ERKNS_13NR_PrivateKeyE@Base 1.10.10
 _ZN5Botan22NR_Signature_OperationC2ERKNS_13NR_PrivateKeyE@Base 1.10.10
 _ZN5Botan22NR_Signature_OperationD0Ev@Base 1.10.10
 _ZN5Botan22NR_Signature_OperationD1Ev@Base 1.10.10
 _ZN5Botan22NR_Signature_OperationD2Ev@Base 1.10.10
 _ZN5Botan22RW_Signature_Operation4signEPKhmRNS_21RandomNumberGeneratorE@Base 1.10.12
 _ZN5Botan22RW_Signature_OperationC1ERKNS_13RW_PrivateKeyE@Base 1.10.10
 _ZN5Botan22RW_Signature_OperationC2ERKNS_13RW_PrivateKeyE@Base 1.10.10
 _ZN5Botan22RW_Signature_OperationD0Ev@Base 1.10.10
 _ZN5Botan22RW_Signature_OperationD1Ev@Base 1.10.10
 _ZN5Botan22RW_Signature_OperationD2Ev@Base 1.10.10
 _ZN5Botan22generate_srp6_verifierERKNSt7__cxx1112basic_stringIcSt11char_traitsIcESaIcEEES7_RKNS_12MemoryRegionIhEES7_S7_@Base 1.10.10
 _ZN5Botan23DSA_Signature_Operation4signEPKhmRNS_21RandomNumberGeneratorE@Base 1.10.12
 _ZN5Botan23DSA_Signature_OperationC1ERKNS_14DSA_PrivateKeyE@Base 1.10.10
 _ZN5Botan23DSA_Signature_OperationC2ERKNS_14DSA_PrivateKeyE@Base 1.10.10
 _ZN5Botan23DSA_Signature_OperationD0Ev@Base 1.10.10
 _ZN5Botan23DSA_Signature_OperationD1Ev@Base 1.10.10
 _ZN5Botan23DSA_Signature_OperationD2Ev@Base 1.10.10
 _ZN5Botan23Global_State_Management12global_stateEv@Base 1.10.10
 _ZN5Botan23Global_State_Management16set_global_stateEPNS_13Library_StateE@Base 1.10.10
 _ZN5Botan23Global_State_Management17swap_global_stateEPNS_13Library_StateE@Base 1.10.10
 _ZN5Botan23Global_State_Management19global_state_existsEv@Base 1.10.10
 _ZN5Botan23Global_State_Management27set_global_state_unless_setEPNS_13Library_StateE@Base 1.10.10
 _ZN5Botan24Certificate_Store_Memory15add_certificateERKNS_16X509_CertificateE@Base 1.10.10
 _ZN5Botan24Certificate_Store_Memory7add_crlERKNS_8X509_CRLE@Base 1.10.10
 _ZN5Botan24Certificate_Store_MemoryD0Ev@Base 1.10.10
 _ZN5Botan24Certificate_Store_MemoryD1Ev@Base 1.10.10
 _ZN5Botan24Certificate_Store_MemoryD2Ev@Base 1.10.10
 _ZN5Botan24Fixed_Exponent_Power_ModC1ERKNS_6BigIntES3_NS_9Power_Mod11Usage_HintsE@Base 1.10.10
 _ZN5Botan24Fixed_Exponent_Power_ModC2ERKNS_6BigIntES3_NS_9Power_Mod11Usage_HintsE@Base 1.10.10
 _ZN5Botan24Fixed_Exponent_Power_ModD0Ev@Base 1.10.10
 _ZN5Botan24Fixed_Exponent_Power_ModD1Ev@Base 1.10.10
 _ZN5Botan24Fixed_Exponent_Power_ModD2Ev@Base 1.10.10
 _ZN5Botan25Dynamically_Loaded_Engine10get_cipherERKNSt7__cxx1112basic_stringIcSt11char_traitsIcESaIcEEENS_10Cipher_DirERNS_17Algorithm_FactoryE@Base 1.10.10
 _ZN5Botan25Dynamically_Loaded_EngineC1ERKNSt7__cxx1112basic_stringIcSt11char_traitsIcESaIcEEE@Base 1.10.10
 _ZN5Botan25Dynamically_Loaded_EngineC2ERKNSt7__cxx1112basic_stringIcSt11char_traitsIcESaIcEEE@Base 1.10.10
 _ZN5Botan25Dynamically_Loaded_EngineD0Ev@Base 1.10.10
 _ZN5Botan25Dynamically_Loaded_EngineD1Ev@Base 1.10.10
 _ZN5Botan25Dynamically_Loaded_EngineD2Ev@Base 1.10.10
 _ZN5Botan25ECDSA_Signature_Operation4signEPKhmRNS_21RandomNumberGeneratorE@Base 1.10.12
 _ZN5Botan25ECDSA_Signature_OperationC1ERKNS_16ECDSA_PrivateKeyE@Base 1.10.10
 _ZN5Botan25ECDSA_Signature_OperationC2ERKNS_16ECDSA_PrivateKeyE@Base 1.10.10
 _ZN5Botan25ECDSA_Signature_OperationD0Ev@Base 1.10.10
 _ZN5Botan25ECDSA_Signature_OperationD1Ev@Base 1.10.10
 _ZN5Botan25ECDSA_Signature_OperationD2Ev@Base 1.10.10
 _ZN5Botan25MessageAuthenticationCode10verify_macEPKhm@Base 1.10.12
 _ZN5Botan25NR_Verification_Operation9verify_mrEPKhm@Base 1.10.12
 _ZN5Botan25NR_Verification_OperationC1ERKNS_12NR_PublicKeyE@Base 1.10.10
 _ZN5Botan25NR_Verification_OperationC2ERKNS_12NR_PublicKeyE@Base 1.10.10
 _ZN5Botan25NR_Verification_OperationD0Ev@Base 1.10.10
 _ZN5Botan25NR_Verification_OperationD1Ev@Base 1.10.10
 _ZN5Botan25NR_Verification_OperationD2Ev@Base 1.10.10
 _ZN5Botan25RW_Verification_Operation9verify_mrEPKhm@Base 1.10.12
 _ZN5Botan25RW_Verification_OperationD0Ev@Base 1.10.10
 _ZN5Botan25RW_Verification_OperationD1Ev@Base 1.10.10
 _ZN5Botan25RW_Verification_OperationD2Ev@Base 1.10.10
 _ZN5Botan26DSA_Verification_Operation6verifyEPKhmS2_m@Base 1.10.12
 _ZN5Botan26DSA_Verification_OperationC1ERKNS_13DSA_PublicKeyE@Base 1.10.10
 _ZN5Botan26DSA_Verification_OperationC2ERKNS_13DSA_PublicKeyE@Base 1.10.10
 _ZN5Botan26DSA_Verification_OperationD0Ev@Base 1.10.10
 _ZN5Botan26DSA_Verification_OperationD1Ev@Base 1.10.10
 _ZN5Botan26DSA_Verification_OperationD2Ev@Base 1.10.10
 _ZN5Botan26confirm_startup_self_testsERNS_17Algorithm_FactoryE@Base 1.10.10
 _ZN5Botan28ECDSA_Verification_Operation6verifyEPKhmS2_m@Base 1.10.12
 _ZN5Botan28ECDSA_Verification_OperationC1ERKNS_15ECDSA_PublicKeyE@Base 1.10.10
 _ZN5Botan28ECDSA_Verification_OperationC2ERKNS_15ECDSA_PublicKeyE@Base 1.10.10
 _ZN5Botan28ECDSA_Verification_OperationD0Ev@Base 1.10.10
 _ZN5Botan28ECDSA_Verification_OperationD1Ev@Base 1.10.10
 _ZN5Botan28ECDSA_Verification_OperationD2Ev@Base 1.10.10
 _ZN5Botan28ElGamal_Decryption_Operation7decryptEPKhm@Base 1.10.12
 _ZN5Botan28ElGamal_Decryption_OperationC1ERKNS_18ElGamal_PrivateKeyE@Base 1.10.10
 _ZN5Botan28ElGamal_Decryption_OperationC2ERKNS_18ElGamal_PrivateKeyE@Base 1.10.10
 _ZN5Botan28ElGamal_Decryption_OperationD0Ev@Base 1.10.10
 _ZN5Botan28ElGamal_Decryption_OperationD1Ev@Base 1.10.10
 _ZN5Botan28ElGamal_Decryption_OperationD2Ev@Base 1.10.10
 _ZN5Botan28ElGamal_Encryption_Operation7encryptEPKhmRNS_21RandomNumberGeneratorE@Base 1.10.12
 _ZN5Botan28ElGamal_Encryption_OperationC1ERKNS_17ElGamal_PublicKeyE@Base 1.10.10
 _ZN5Botan28ElGamal_Encryption_OperationC2ERKNS_17ElGamal_PublicKeyE@Base 1.10.10
 _ZN5Botan28ElGamal_Encryption_OperationD0Ev@Base 1.10.10
 _ZN5Botan28ElGamal_Encryption_OperationD1Ev@Base 1.10.10
 _ZN5Botan28ElGamal_Encryption_OperationD2Ev@Base 1.10.10
 _ZN5Botan29GOST_3410_Signature_Operation4signEPKhmRNS_21RandomNumberGeneratorE@Base 1.10.12
 _ZN5Botan29GOST_3410_Signature_OperationC1ERKNS_20GOST_3410_PrivateKeyE@Base 1.10.10
 _ZN5Botan29GOST_3410_Signature_OperationC2ERKNS_20GOST_3410_PrivateKeyE@Base 1.10.10
 _ZN5Botan29GOST_3410_Signature_OperationD0Ev@Base 1.10.10
 _ZN5Botan29GOST_3410_Signature_OperationD1Ev@Base 1.10.10
 _ZN5Botan29GOST_3410_Signature_OperationD2Ev@Base 1.10.10
 _ZN5Botan32GOST_3410_Verification_Operation6verifyEPKhmS2_m@Base 1.10.12
 _ZN5Botan32GOST_3410_Verification_OperationC1ERKNS_19GOST_3410_PublicKeyE@Base 1.10.10
 _ZN5Botan32GOST_3410_Verification_OperationC2ERKNS_19GOST_3410_PublicKeyE@Base 1.10.10
 _ZN5Botan32GOST_3410_Verification_OperationD0Ev@Base 1.10.10
 _ZN5Botan32GOST_3410_Verification_OperationD1Ev@Base 1.10.10
 _ZN5Botan32GOST_3410_Verification_OperationD2Ev@Base 1.10.10
 _ZN5Botan39Entropy_Accumulator_BufferedComputation9add_bytesEPKhm@Base 1.10.12
 _ZN5Botan39Entropy_Accumulator_BufferedComputationD0Ev@Base 1.10.10
 _ZN5Botan39Entropy_Accumulator_BufferedComputationD1Ev@Base 1.10.10
 _ZN5Botan39Entropy_Accumulator_BufferedComputationD2Ev@Base 1.10.10
 _ZN5Botan3BER6decodeERNS_11BER_DecoderERNS_15Key_ConstraintsE@Base 1.10.10
 _ZN5Botan3DES12key_scheduleEPKhm@Base 1.10.12
 _ZN5Botan3DES5clearEv@Base 1.10.10
 _ZN5Botan3DESC1Ev@Base 1.10.10
 _ZN5Botan3DESC2Ev@Base 1.10.10
 _ZN5Botan3DESD0Ev@Base 1.10.10
 _ZN5Botan3DESD1Ev@Base 1.10.10
 _ZN5Botan3DESD2Ev@Base 1.10.10
 _ZN5Botan3FPE11fe1_decryptERKNS_6BigIntES3_RKNS_11OctetStringERKNS_12MemoryRegionIhEE@Base 1.10.10
 _ZN5Botan3FPE11fe1_encryptERKNS_6BigIntES3_RKNS_11OctetStringERKNS_12MemoryRegionIhEE@Base 1.10.10
 _ZN5Botan3KDF5clearEv@Base 1.10.10
 _ZN5Botan3MD212final_resultEPh@Base 1.10.10
 _ZN5Botan3MD24hashEPKh@Base 1.10.10
 _ZN5Botan3MD25clearEv@Base 1.10.10
 _ZN5Botan3MD28add_dataEPKhm@Base 1.10.12
 _ZN5Botan3MD2D0Ev@Base 1.10.10
 _ZN5Botan3MD2D1Ev@Base 1.10.10
 _ZN5Botan3MD2D2Ev@Base 1.10.10
 _ZN5Botan3MD410compress_nEPKhm@Base 1.10.12
 _ZN5Botan3MD45clearEv@Base 1.10.10
 _ZN5Botan3MD48copy_outEPh@Base 1.10.10
 _ZN5Botan3MD4D0Ev@Base 1.10.10
 _ZN5Botan3MD4D1Ev@Base 1.10.10
 _ZN5Botan3MD4D2Ev@Base 1.10.10
 _ZN5Botan3MD510compress_nEPKhm@Base 1.10.12
 _ZN5Botan3MD55clearEv@Base 1.10.10
 _ZN5Botan3MD58copy_outEPh@Base 1.10.10
 _ZN5Botan3MD5C1Ev@Base 1.10.10
 _ZN5Botan3MD5C2Ev@Base 1.10.10
 _ZN5Botan3MD5D0Ev@Base 1.10.10
 _ZN5Botan3MD5D1Ev@Base 1.10.10
 _ZN5Botan3MD5D2Ev@Base 1.10.10
 _ZN5Botan3OFB12key_scheduleEPKhm@Base 1.10.12
 _ZN5Botan3OFB5clearEv@Base 1.10.10
 _ZN5Botan3OFB6cipherEPKhPhm@Base 1.10.12
 _ZN5Botan3OFB6set_ivEPKhm@Base 1.10.12
 _ZN5Botan3OFBC1EPNS_11BlockCipherE@Base 1.10.10
 _ZN5Botan3OFBC2EPNS_11BlockCipherE@Base 1.10.10
 _ZN5Botan3OFBD0Ev@Base 1.10.10
 _ZN5Botan3OFBD1Ev@Base 1.10.10
 _ZN5Botan3OFBD2Ev@Base 1.10.10
 _ZN5Botan3OID11decode_fromERNS_11BER_DecoderE@Base 1.10.10
 _ZN5Botan3OID5clearEv@Base 1.10.10
 _ZN5Botan3OIDC1ERKNSt7__cxx1112basic_stringIcSt11char_traitsIcESaIcEEE@Base 1.10.10
 _ZN5Botan3OIDC2ERKNSt7__cxx1112basic_stringIcSt11char_traitsIcESaIcEEE@Base 1.10.10
 _ZN5Botan3OIDD0Ev@Base 1.10.10
 _ZN5Botan3OIDD1Ev@Base 1.10.10
 _ZN5Botan3OIDD2Ev@Base 1.10.10
 _ZN5Botan3OIDpLEj@Base 1.10.10
 _ZN5Botan3RC212key_scheduleEPKhm@Base 1.10.12
 _ZN5Botan3RC25clearEv@Base 1.10.10
 _ZN5Botan3RC28EKB_codeEm@Base 1.10.12
 _ZN5Botan3RC2C1Ev@Base 1.10.10
 _ZN5Botan3RC2C2Ev@Base 1.10.10
 _ZN5Botan3RC2D0Ev@Base 1.10.10
 _ZN5Botan3RC2D1Ev@Base 1.10.10
 _ZN5Botan3RC2D2Ev@Base 1.10.10
 _ZN5Botan3RC512key_scheduleEPKhm@Base 1.10.12
 _ZN5Botan3RC55clearEv@Base 1.10.10
 _ZN5Botan3RC5C1Em@Base 1.10.12
 _ZN5Botan3RC5C2Em@Base 1.10.12
 _ZN5Botan3RC5D0Ev@Base 1.10.10
 _ZN5Botan3RC5D1Ev@Base 1.10.10
 _ZN5Botan3RC5D2Ev@Base 1.10.10
 _ZN5Botan3RC612key_scheduleEPKhm@Base 1.10.12
 _ZN5Botan3RC65clearEv@Base 1.10.10
 _ZN5Botan3RC6C1Ev@Base 1.10.10
 _ZN5Botan3RC6C2Ev@Base 1.10.10
 _ZN5Botan3RC6D0Ev@Base 1.10.10
 _ZN5Botan3RC6D1Ev@Base 1.10.10
 _ZN5Botan3RC6D2Ev@Base 1.10.10
 _ZN5Botan3TEA12key_scheduleEPKhm@Base 1.10.12
 _ZN5Botan3TEA5clearEv@Base 1.10.10
 _ZN5Botan3TEAC1Ev@Base 1.10.10
 _ZN5Botan3TEAC2Ev@Base 1.10.10
 _ZN5Botan3TEAD0Ev@Base 1.10.10
 _ZN5Botan3TEAD1Ev@Base 1.10.10
 _ZN5Botan3TEAD2Ev@Base 1.10.10
 _ZN5Botan3gcdERKNS_6BigIntES2_@Base 1.10.10
 _ZN5Botan3lcmERKNS_6BigIntES2_@Base 1.10.10
 _ZN5Botan4ARC412key_scheduleEPKhm@Base 1.10.12
 _ZN5Botan4ARC45clearEv@Base 1.10.10
 _ZN5Botan4ARC46cipherEPKhPhm@Base 1.10.12
 _ZN5Botan4ARC48generateEv@Base 1.10.10
 _ZN5Botan4ARC4C1Em@Base 1.10.12
 _ZN5Botan4ARC4C2Em@Base 1.10.12
 _ZN5Botan4ARC4D0Ev@Base 1.10.10
 _ZN5Botan4ARC4D1Ev@Base 1.10.10
 _ZN5Botan4ARC4D2Ev@Base 1.10.10
 _ZN5Botan4CMAC11poly_doubleERKNS_12MemoryRegionIhEEh@Base 1.10.10
 _ZN5Botan4CMAC12final_resultEPh@Base 1.10.10
 _ZN5Botan4CMAC12key_scheduleEPKhm@Base 1.10.12
 _ZN5Botan4CMAC5clearEv@Base 1.10.10
 _ZN5Botan4CMAC8add_dataEPKhm@Base 1.10.12
 _ZN5Botan4CMACC1EPNS_11BlockCipherE@Base 1.10.10
 _ZN5Botan4CMACC2EPNS_11BlockCipherE@Base 1.10.10
 _ZN5Botan4CMACD0Ev@Base 1.10.10
 _ZN5Botan4CMACD1Ev@Base 1.10.10
 _ZN5Botan4CMACD2Ev@Base 1.10.10
 _ZN5Botan4DESX12key_scheduleEPKhm@Base 1.10.12
 _ZN5Botan4DESX5clearEv@Base 1.10.10
 _ZN5Botan4DESXC1Ev@Base 1.10.10
 _ZN5Botan4DESXC2Ev@Base 1.10.10
 _ZN5Botan4DESXD0Ev@Base 1.10.10
 _ZN5Botan4DESXD1Ev@Base 1.10.10
 _ZN5Botan4DESXD2Ev@Base 1.10.10
 _ZN5Botan4EME1C1EPNS_12HashFunctionERKNSt7__cxx1112basic_stringIcSt11char_traitsIcESaIcEEE@Base 1.10.10
 _ZN5Botan4EME1C2EPNS_12HashFunctionERKNSt7__cxx1112basic_stringIcSt11char_traitsIcESaIcEEE@Base 1.10.10
 _ZN5Botan4EME1D0Ev@Base 1.10.10
 _ZN5Botan4EME1D1Ev@Base 1.10.10
 _ZN5Botan4EME1D2Ev@Base 1.10.10
 _ZN5Botan4Fork5writeEPKhm@Base 1.10.12
 _ZN5Botan4ForkC1EPNS_6FilterES2_S2_S2_@Base 1.10.10
 _ZN5Botan4ForkC1EPPNS_6FilterEm@Base 1.10.12
 _ZN5Botan4ForkC2EPNS_6FilterES2_S2_S2_@Base 1.10.10
 _ZN5Botan4ForkC2EPPNS_6FilterEm@Base 1.10.12
 _ZN5Botan4ForkD0Ev@Base 1.10.10
 _ZN5Botan4ForkD1Ev@Base 1.10.10
 _ZN5Botan4ForkD2Ev@Base 1.10.10
 _ZN5Botan4HMAC12final_resultEPh@Base 1.10.10
 _ZN5Botan4HMAC12key_scheduleEPKhm@Base 1.10.12
 _ZN5Botan4HMAC5clearEv@Base 1.10.10
 _ZN5Botan4HMAC8add_dataEPKhm@Base 1.10.12
 _ZN5Botan4HMACC1EPNS_12HashFunctionE@Base 1.10.10
 _ZN5Botan4HMACC2EPNS_12HashFunctionE@Base 1.10.10
 _ZN5Botan4HMACD0Ev@Base 1.10.10
 _ZN5Botan4HMACD1Ev@Base 1.10.10
 _ZN5Botan4HMACD2Ev@Base 1.10.10
 _ZN5Botan4IDEA12key_scheduleEPKhm@Base 1.10.12
 _ZN5Botan4IDEA5clearEv@Base 1.10.10
 _ZN5Botan4IDEAC1Ev@Base 1.10.10
 _ZN5Botan4IDEAC2Ev@Base 1.10.10
 _ZN5Botan4IDEAD0Ev@Base 1.10.10
 _ZN5Botan4IDEAD1Ev@Base 1.10.10
 _ZN5Botan4IDEAD2Ev@Base 1.10.10
 _ZN5Botan4KDF1D0Ev@Base 1.10.10
 _ZN5Botan4KDF1D1Ev@Base 1.10.10
 _ZN5Botan4KDF1D2Ev@Base 1.10.10
 _ZN5Botan4KDF2D0Ev@Base 1.10.10
 _ZN5Botan4KDF2D1Ev@Base 1.10.10
 _ZN5Botan4KDF2D2Ev@Base 1.10.10
 _ZN5Botan4Lion12key_scheduleEPKhm@Base 1.10.12
 _ZN5Botan4Lion5clearEv@Base 1.10.10
 _ZN5Botan4LionC1EPNS_12HashFunctionEPNS_12StreamCipherEm@Base 1.10.12
 _ZN5Botan4LionC2EPNS_12HashFunctionEPNS_12StreamCipherEm@Base 1.10.12
 _ZN5Botan4LionD0Ev@Base 1.10.10
 _ZN5Botan4LionD1Ev@Base 1.10.10
 _ZN5Botan4LionD2Ev@Base 1.10.10
 _ZN5Botan4MARS12key_scheduleEPKhm@Base 1.10.12
 _ZN5Botan4MARS5clearEv@Base 1.10.10
 _ZN5Botan4MARSC1Ev@Base 1.10.10
 _ZN5Botan4MARSC2Ev@Base 1.10.10
 _ZN5Botan4MARSD0Ev@Base 1.10.10
 _ZN5Botan4MARSD1Ev@Base 1.10.10
 _ZN5Botan4MARSD2Ev@Base 1.10.10
 _ZN5Botan4MGF1C1EPNS_12HashFunctionE@Base 1.10.10
 _ZN5Botan4MGF1C2EPNS_12HashFunctionE@Base 1.10.10
 _ZN5Botan4MGF1D0Ev@Base 1.10.10
 _ZN5Botan4MGF1D1Ev@Base 1.10.10
 _ZN5Botan4MGF1D2Ev@Base 1.10.10
 _ZN5Botan4OIDS6lookupB5cxx11ERKNS_3OIDE@Base 1.10.10
 _ZN5Botan4OIDS6lookupERKNSt7__cxx1112basic_stringIcSt11char_traitsIcESaIcEEE@Base 1.10.10
 _ZN5Botan4OIDS7add_oidERKNS_3OIDERKNSt7__cxx1112basic_stringIcSt11char_traitsIcESaIcEEE@Base 1.10.10
 _ZN5Botan4OIDS7name_ofERKNS_3OIDERKNSt7__cxx1112basic_stringIcSt11char_traitsIcESaIcEEE@Base 1.10.10
 _ZN5Botan4OIDS8have_oidERKNSt7__cxx1112basic_stringIcSt11char_traitsIcESaIcEEE@Base 1.10.10
 _ZN5Botan4Pipe11process_msgEPKhm@Base 1.10.12
 _ZN5Botan4Pipe11process_msgERKNS_12MemoryRegionIhEE@Base 1.10.10
 _ZN5Botan4Pipe11process_msgERKNSt7__cxx1112basic_stringIcSt11char_traitsIcESaIcEEE@Base 1.10.10
 _ZN5Botan4Pipe11process_msgERNS_10DataSourceE@Base 1.10.10
 _ZN5Botan4Pipe12LAST_MESSAGEE@Base 1.10.10
 _ZN5Botan4Pipe14find_endpointsEPNS_6FilterE@Base 1.10.10
 _ZN5Botan4Pipe15DEFAULT_MESSAGEE@Base 1.10.10
 _ZN5Botan4Pipe15check_availableEm@Base 1.10.12
 _ZN5Botan4Pipe15clear_endpointsEPNS_6FilterE@Base 1.10.10
 _ZN5Botan4Pipe15set_default_msgEm@Base 1.10.12
 _ZN5Botan4Pipe18read_all_as_stringB5cxx11Em@Base 1.10.12
 _ZN5Botan4Pipe19check_available_msgEmm@Base 1.10.12
 _ZN5Botan4Pipe22Invalid_Message_NumberC1ERKNSt7__cxx1112basic_stringIcSt11char_traitsIcESaIcEEEm@Base 1.10.12
 _ZN5Botan4Pipe22Invalid_Message_NumberC2ERKNSt7__cxx1112basic_stringIcSt11char_traitsIcESaIcEEEm@Base 1.10.12
 _ZN5Botan4Pipe22Invalid_Message_NumberD0Ev@Base 1.10.10
 _ZN5Botan4Pipe22Invalid_Message_NumberD1Ev@Base 1.10.10
 _ZN5Botan4Pipe22Invalid_Message_NumberD2Ev@Base 1.10.10
 _ZN5Botan4Pipe3popEv@Base 1.10.10
 _ZN5Botan4Pipe4initEv@Base 1.10.10
 _ZN5Botan4Pipe4readEPhm@Base 1.10.12
 _ZN5Botan4Pipe4readEPhmm@Base 1.10.12
 _ZN5Botan4Pipe4readERhm@Base 1.10.12
 _ZN5Botan4Pipe5resetEv@Base 1.10.10
 _ZN5Botan4Pipe5writeEPKhm@Base 1.10.12
 _ZN5Botan4Pipe5writeERKNS_12MemoryRegionIhEE@Base 1.10.10
 _ZN5Botan4Pipe5writeERKNSt7__cxx1112basic_stringIcSt11char_traitsIcESaIcEEE@Base 1.10.10
 _ZN5Botan4Pipe5writeERNS_10DataSourceE@Base 1.10.10
 _ZN5Botan4Pipe5writeEh@Base 1.10.10
 _ZN5Botan4Pipe6appendEPNS_6FilterE@Base 1.10.10
 _ZN5Botan4Pipe7end_msgEv@Base 1.10.10
 _ZN5Botan4Pipe7prependEPNS_6FilterE@Base 1.10.10
 _ZN5Botan4Pipe8destructEPNS_6FilterE@Base 1.10.10
 _ZN5Botan4Pipe8read_allEm@Base 1.10.12
 _ZN5Botan4Pipe9start_msgEv@Base 1.10.10
 _ZN5Botan4PipeC1EPNS_6FilterES2_S2_S2_@Base 1.10.10
 _ZN5Botan4PipeC1EPPNS_6FilterEm@Base 1.10.12
 _ZN5Botan4PipeC2EPNS_6FilterES2_S2_S2_@Base 1.10.10
 _ZN5Botan4PipeC2EPPNS_6FilterEm@Base 1.10.12
 _ZN5Botan4PipeD0Ev@Base 1.10.10
 _ZN5Botan4PipeD1Ev@Base 1.10.10
 _ZN5Botan4PipeD2Ev@Base 1.10.10
 _ZN5Botan4SEED12key_scheduleEPKhm@Base 1.10.12
 _ZN5Botan4SEED5clearEv@Base 1.10.10
 _ZN5Botan4SEED6G_FUNC2S0E@Base 1.10.10
 _ZN5Botan4SEED6G_FUNC2S1E@Base 1.10.10
 _ZN5Botan4SEED6G_FUNC2S2E@Base 1.10.10
 _ZN5Botan4SEED6G_FUNC2S3E@Base 1.10.10
 _ZN5Botan4SEEDC1Ev@Base 1.10.10
 _ZN5Botan4SEEDC2Ev@Base 1.10.10
 _ZN5Botan4SEEDD0Ev@Base 1.10.10
 _ZN5Botan4SEEDD1Ev@Base 1.10.10
 _ZN5Botan4SEEDD2Ev@Base 1.10.10
 _ZN5Botan4X50910BER_encodeERKNS_10Public_KeyE@Base 1.10.10
 _ZN5Botan4X50910PEM_encodeB5cxx11ERKNS_10Public_KeyE@Base 1.10.10
 _ZN5Botan4X50915create_cert_reqERKNS_17X509_Cert_OptionsERKNS_11Private_KeyERKNSt7__cxx1112basic_stringIcSt11char_traitsIcESaIcEEERNS_21RandomNumberGeneratorE@Base 1.10.10
 _ZN5Botan4X50916find_constraintsERKNS_10Public_KeyENS_15Key_ConstraintsE@Base 1.10.10
 _ZN5Botan4X50923create_self_signed_certERKNS_17X509_Cert_OptionsERKNS_11Private_KeyERKNSt7__cxx1112basic_stringIcSt11char_traitsIcESaIcEEERNS_21RandomNumberGeneratorE@Base 1.10.10
 _ZN5Botan4X5098copy_keyERKNS_10Public_KeyE@Base 1.10.10
 _ZN5Botan4X5098load_keyERKNS_12MemoryRegionIhEE@Base 1.10.10
 _ZN5Botan4X5098load_keyERKNSt7__cxx1112basic_stringIcSt11char_traitsIcESaIcEEE@Base 1.10.10
 _ZN5Botan4X5098load_keyERNS_10DataSourceE@Base 1.10.10
 _ZN5Botan4XTEA12key_scheduleEPKhm@Base 1.10.12
 _ZN5Botan4XTEA5clearEv@Base 1.10.10
 _ZN5Botan4XTEAC1Ev@Base 1.10.10
 _ZN5Botan4XTEAC2Ev@Base 1.10.10
 _ZN5Botan4XTEAD0Ev@Base 1.10.10
 _ZN5Botan4XTEAD1Ev@Base 1.10.10
 _ZN5Botan4XTEAD2Ev@Base 1.10.10
 _ZN5Botan5CPUID10cache_lineE@Base 1.10.10
 _ZN5Botan5CPUID10initializeEv@Base 1.10.10
 _ZN5Botan5CPUID15altivec_capableE@Base 1.10.10
 _ZN5Botan5CPUID19x86_processor_flagsE@Base 1.10.10
 _ZN5Botan5CRC2412final_resultEPh@Base 1.10.10
 _ZN5Botan5CRC245clearEv@Base 1.10.10
 _ZN5Botan5CRC248add_dataEPKhm@Base 1.10.12
 _ZN5Botan5CRC24D0Ev@Base 1.10.10
 _ZN5Botan5CRC24D1Ev@Base 1.10.10
 _ZN5Botan5CRC24D2Ev@Base 1.10.10
 _ZN5Botan5CRC3212final_resultEPh@Base 1.10.10
 _ZN5Botan5CRC325clearEv@Base 1.10.10
 _ZN5Botan5CRC328add_dataEPKhm@Base 1.10.12
 _ZN5Botan5CRC32D0Ev@Base 1.10.10
 _ZN5Botan5CRC32D1Ev@Base 1.10.10
 _ZN5Botan5CRC32D2Ev@Base 1.10.10
 _ZN5Botan5Chain5writeEPKhm@Base 1.10.12
 _ZN5Botan5ChainC1EPNS_6FilterES2_S2_S2_@Base 1.10.10
 _ZN5Botan5ChainC1EPPNS_6FilterEm@Base 1.10.12
 _ZN5Botan5ChainC2EPNS_6FilterES2_S2_S2_@Base 1.10.10
 _ZN5Botan5ChainC2EPPNS_6FilterEm@Base 1.10.12
 _ZN5Botan5ChainD0Ev@Base 1.10.10
 _ZN5Botan5ChainD1Ev@Base 1.10.10
 _ZN5Botan5ChainD2Ev@Base 1.10.10
 _ZN5Botan5EMSA111encoding_ofERKNS_12MemoryRegionIhEEmRNS_21RandomNumberGeneratorE@Base 1.10.12
 _ZN5Botan5EMSA16updateEPKhm@Base 1.10.12
 _ZN5Botan5EMSA16verifyERKNS_12MemoryRegionIhEES4_m@Base 1.10.12
 _ZN5Botan5EMSA18raw_dataEv@Base 1.10.10
 _ZN5Botan5EMSA1D0Ev@Base 1.10.10
 _ZN5Botan5EMSA1D1Ev@Base 1.10.10
 _ZN5Botan5EMSA1D2Ev@Base 1.10.10
 _ZN5Botan5EMSA211encoding_ofERKNS_12MemoryRegionIhEEmRNS_21RandomNumberGeneratorE@Base 1.10.12
 _ZN5Botan5EMSA26updateEPKhm@Base 1.10.12
 _ZN5Botan5EMSA26verifyERKNS_12MemoryRegionIhEES4_m@Base 1.10.12
 _ZN5Botan5EMSA28raw_dataEv@Base 1.10.10
 _ZN5Botan5EMSA2C1EPNS_12HashFunctionE@Base 1.10.10
 _ZN5Botan5EMSA2C2EPNS_12HashFunctionE@Base 1.10.10
 _ZN5Botan5EMSA2D0Ev@Base 1.10.10
 _ZN5Botan5EMSA2D1Ev@Base 1.10.10
 _ZN5Botan5EMSA2D2Ev@Base 1.10.10
 _ZN5Botan5EMSA311encoding_ofERKNS_12MemoryRegionIhEEmRNS_21RandomNumberGeneratorE@Base 1.10.12
 _ZN5Botan5EMSA36updateEPKhm@Base 1.10.12
 _ZN5Botan5EMSA36verifyERKNS_12MemoryRegionIhEES4_m@Base 1.10.12
 _ZN5Botan5EMSA38raw_dataEv@Base 1.10.10
 _ZN5Botan5EMSA3C1EPNS_12HashFunctionE@Base 1.10.10
 _ZN5Botan5EMSA3C2EPNS_12HashFunctionE@Base 1.10.10
 _ZN5Botan5EMSA3D0Ev@Base 1.10.10
 _ZN5Botan5EMSA3D1Ev@Base 1.10.10
 _ZN5Botan5EMSA3D2Ev@Base 1.10.10
 _ZN5Botan5EMSA411encoding_ofERKNS_12MemoryRegionIhEEmRNS_21RandomNumberGeneratorE@Base 1.10.12
 _ZN5Botan5EMSA46updateEPKhm@Base 1.10.12
 _ZN5Botan5EMSA46verifyERKNS_12MemoryRegionIhEES4_m@Base 1.10.12
 _ZN5Botan5EMSA48raw_dataEv@Base 1.10.10
 _ZN5Botan5EMSA4C1EPNS_12HashFunctionE@Base 1.10.10
 _ZN5Botan5EMSA4C1EPNS_12HashFunctionEm@Base 1.10.12
 _ZN5Botan5EMSA4C2EPNS_12HashFunctionE@Base 1.10.10
 _ZN5Botan5EMSA4C2EPNS_12HashFunctionEm@Base 1.10.12
 _ZN5Botan5EMSA4D0Ev@Base 1.10.10
 _ZN5Botan5EMSA4D1Ev@Base 1.10.10
 _ZN5Botan5EMSA4D2Ev@Base 1.10.10
 _ZN5Botan5PBKDF5clearEv@Base 1.10.10
 _ZN5Botan5PKCS810BER_encodeERKNS_11Private_KeyE@Base 1.10.10
 _ZN5Botan5PKCS810BER_encodeERKNS_11Private_KeyERNS_21RandomNumberGeneratorERKNSt7__cxx1112basic_stringIcSt11char_traitsIcESaIcEEESD_@Base 1.10.10
 _ZN5Botan5PKCS810PEM_encodeB5cxx11ERKNS_11Private_KeyE@Base 1.10.10
 _ZN5Botan5PKCS810PEM_encodeERKNS_11Private_KeyERNS_21RandomNumberGeneratorERKNSt7__cxx1112basic_stringIcSt11char_traitsIcESaIcEEESD_@Base 1.10.10
 _ZN5Botan5PKCS88copy_keyERKNS_11Private_KeyERNS_21RandomNumberGeneratorE@Base 1.10.10
 _ZN5Botan5PKCS88load_keyERKNSt7__cxx1112basic_stringIcSt11char_traitsIcESaIcEEERNS_21RandomNumberGeneratorERKNS_14User_InterfaceE@Base 1.10.10
 _ZN5Botan5PKCS88load_keyERKNSt7__cxx1112basic_stringIcSt11char_traitsIcESaIcEEERNS_21RandomNumberGeneratorES8_@Base 1.10.10
 _ZN5Botan5PKCS88load_keyERNS_10DataSourceERNS_21RandomNumberGeneratorERKNS_14User_InterfaceE@Base 1.10.10
 _ZN5Botan5PKCS88load_keyERNS_10DataSourceERNS_21RandomNumberGeneratorERKNSt7__cxx1112basic_stringIcSt11char_traitsIcESaIcEEE@Base 1.10.10
 _ZN5Botan5Tiger10compress_nEPKhm@Base 1.10.12
 _ZN5Botan5Tiger4passERyS1_S1_RKNS_12MemoryRegionIyEEh@Base 1.10.10
 _ZN5Botan5Tiger5SBOX1E@Base 1.10.10
 _ZN5Botan5Tiger5SBOX2E@Base 1.10.10
 _ZN5Botan5Tiger5SBOX3E@Base 1.10.10
 _ZN5Botan5Tiger5SBOX4E@Base 1.10.10
 _ZN5Botan5Tiger5clearEv@Base 1.10.10
 _ZN5Botan5Tiger8copy_outEPh@Base 1.10.10
 _ZN5Botan5TigerC1Emm@Base 1.10.12
 _ZN5Botan5TigerC2Emm@Base 1.10.12
 _ZN5Botan5TigerD0Ev@Base 1.10.10
 _ZN5Botan5TigerD1Ev@Base 1.10.10
 _ZN5Botan5TigerD2Ev@Base 1.10.10
 _ZN5Botan6BigInt11encode_1363ERKS0_m@Base 1.10.12
 _ZN5Botan6BigInt12DivideByZeroC1Ev@Base 1.10.10
 _ZN5Botan6BigInt12DivideByZeroC2Ev@Base 1.10.10
 _ZN5Botan6BigInt12DivideByZeroD0Ev@Base 1.10.10
 _ZN5Botan6BigInt12DivideByZeroD1Ev@Base 1.10.10
 _ZN5Botan6BigInt12DivideByZeroD2Ev@Base 1.10.10
 _ZN5Botan6BigInt13binary_decodeEPKhm@Base 1.10.12
 _ZN5Botan6BigInt13binary_decodeERKNS_12MemoryRegionIhEE@Base 1.10.10
 _ZN5Botan6BigInt14random_integerERNS_21RandomNumberGeneratorERKS0_S4_@Base 1.10.10
 _ZN5Botan6BigInt4swapERS0_@Base 1.10.10
 _ZN5Botan6BigInt6decodeEPKhmNS0_4BaseE@Base 1.10.12
 _ZN5Botan6BigInt6decodeERKNS_12MemoryRegionIhEENS0_4BaseE@Base 1.10.10
 _ZN5Botan6BigInt6encodeEPhRKS0_NS0_4BaseE@Base 1.10.10
 _ZN5Botan6BigInt6encodeERKS0_NS0_4BaseE@Base 1.10.10
 _ZN5Botan6BigInt7grow_toEm@Base 1.10.12
 _ZN5Botan6BigInt7set_bitEm@Base 1.10.12
 _ZN5Botan6BigInt8grow_regEm@Base 1.10.12
 _ZN5Botan6BigInt8set_signENS0_4SignE@Base 1.10.10
 _ZN5Botan6BigInt9clear_bitEm@Base 1.10.12
 _ZN5Botan6BigInt9flip_signEv@Base 1.10.10
 _ZN5Botan6BigInt9mask_bitsEm@Base 1.10.12
 _ZN5Botan6BigInt9randomizeERNS_21RandomNumberGeneratorEm@Base 1.10.12
 _ZN5Botan6BigIntC1ENS0_10NumberTypeEm@Base 1.10.12
 _ZN5Botan6BigIntC1ENS0_4SignEm@Base 1.10.12
 _ZN5Botan6BigIntC1EPKhmNS0_4BaseE@Base 1.10.12
 _ZN5Botan6BigIntC1ERKNSt7__cxx1112basic_stringIcSt11char_traitsIcESaIcEEE@Base 1.10.10
 _ZN5Botan6BigIntC1ERKS0_@Base 1.10.10
 _ZN5Botan6BigIntC1ERNS_21RandomNumberGeneratorEm@Base 1.10.12
 _ZN5Botan6BigIntC1Ey@Base 1.10.10
 _ZN5Botan6BigIntC2ENS0_10NumberTypeEm@Base 1.10.12
 _ZN5Botan6BigIntC2ENS0_4SignEm@Base 1.10.12
 _ZN5Botan6BigIntC2EPKhmNS0_4BaseE@Base 1.10.12
 _ZN5Botan6BigIntC2ERKNSt7__cxx1112basic_stringIcSt11char_traitsIcESaIcEEE@Base 1.10.10
 _ZN5Botan6BigIntC2ERKS0_@Base 1.10.10
 _ZN5Botan6BigIntC2ERNS_21RandomNumberGeneratorEm@Base 1.10.12
 _ZN5Botan6BigIntC2Ey@Base 1.10.10
 _ZN5Botan6BigIntdVERKS0_@Base 1.10.10
 _ZN5Botan6BigIntlSEm@Base 1.10.12
 _ZN5Botan6BigIntmIERKS0_@Base 1.10.10
 _ZN5Botan6BigIntmLERKS0_@Base 1.10.10
 _ZN5Botan6BigIntpLERKS0_@Base 1.10.10
 _ZN5Botan6BigIntrMERKS0_@Base 1.10.10
 _ZN5Botan6BigIntrMEy@Base 1.10.12
 _ZN5Botan6BigIntrSEm@Base 1.10.12
 _ZN5Botan6CTR_BE12key_scheduleEPKhm@Base 1.10.12
 _ZN5Botan6CTR_BE17increment_counterEv@Base 1.10.10
 _ZN5Botan6CTR_BE5clearEv@Base 1.10.10
 _ZN5Botan6CTR_BE6cipherEPKhPhm@Base 1.10.12
 _ZN5Botan6CTR_BE6set_ivEPKhm@Base 1.10.12
 _ZN5Botan6CTR_BEC1EPNS_11BlockCipherE@Base 1.10.10
 _ZN5Botan6CTR_BEC2EPNS_11BlockCipherE@Base 1.10.10
 _ZN5Botan6CTR_BED0Ev@Base 1.10.10
 _ZN5Botan6CTR_BED1Ev@Base 1.10.10
 _ZN5Botan6CTR_BED2Ev@Base 1.10.10
 _ZN5Botan6Comb4P12final_resultEPh@Base 1.10.10
 _ZN5Botan6Comb4P5clearEv@Base 1.10.10
 _ZN5Botan6Comb4P8add_dataEPKhm@Base 1.10.12
 _ZN5Botan6Comb4PC1EPNS_12HashFunctionES2_@Base 1.10.10
 _ZN5Botan6Comb4PC2EPNS_12HashFunctionES2_@Base 1.10.10
 _ZN5Botan6Comb4PD0Ev@Base 1.10.10
 _ZN5Botan6Comb4PD1Ev@Base 1.10.10
 _ZN5Botan6Comb4PD2Ev@Base 1.10.10
 _ZN5Botan6EC2OSPERKNS_8PointGFpEh@Base 1.10.10
 _ZN5Botan6Engine10get_cipherERKNSt7__cxx1112basic_stringIcSt11char_traitsIcESaIcEEENS_10Cipher_DirERNS_17Algorithm_FactoryE@Base 1.10.10
 _ZN5Botan6Filter10attachableEv@Base 1.10.10
 _ZN5Botan6Filter10finish_msgEv@Base 1.10.10
 _ZN5Botan6Filter4sendEPKhm@Base 1.10.12
 _ZN5Botan6Filter6attachEPS0_@Base 1.10.10
 _ZN5Botan6Filter7end_msgEv@Base 1.10.10
 _ZN5Botan6Filter7new_msgEv@Base 1.10.10
 _ZN5Botan6Filter8set_nextEPPS0_m@Base 1.10.12
 _ZN5Botan6Filter8set_portEm@Base 1.10.12
 _ZN5Botan6Filter9start_msgEv@Base 1.10.10
 _ZN5Botan6FilterC1Ev@Base 1.10.10
 _ZN5Botan6FilterC2Ev@Base 1.10.10
 _ZN5Botan6FilterD0Ev@Base 1.10.10
 _ZN5Botan6FilterD1Ev@Base 1.10.10
 _ZN5Botan6FilterD2Ev@Base 1.10.10
 _ZN5Botan6KASUMI12key_scheduleEPKhm@Base 1.10.12
 _ZN5Botan6KASUMI5clearEv@Base 1.10.10
 _ZN5Botan6KASUMIC1Ev@Base 1.10.10
 _ZN5Botan6KASUMIC2Ev@Base 1.10.10
 _ZN5Botan6KASUMID0Ev@Base 1.10.10
 _ZN5Botan6KASUMID1Ev@Base 1.10.10
 _ZN5Botan6KASUMID2Ev@Base 1.10.10
 _ZN5Botan6MISTY112key_scheduleEPKhm@Base 1.10.12
 _ZN5Botan6MISTY15clearEv@Base 1.10.10
 _ZN5Botan6MISTY1C1Em@Base 1.10.12
 _ZN5Botan6MISTY1C2Em@Base 1.10.12
 _ZN5Botan6MISTY1D0Ev@Base 1.10.10
 _ZN5Botan6MISTY1D1Ev@Base 1.10.10
 _ZN5Botan6MISTY1D2Ev@Base 1.10.10
 _ZN5Botan6OS2ECPEPKhmRKNS_8CurveGFpE@Base 1.10.12
 _ZN5Botan6PK_Ops12Verification6verifyEPKhmS3_m@Base 1.10.12
 _ZN5Botan6PK_Ops12Verification9verify_mrEPKhm@Base 1.10.12
 _ZN5Botan6PRIMESE@Base 1.10.10
 _ZN5Botan6Square12key_scheduleEPKhm@Base 1.10.12
 _ZN5Botan6Square2SDE@Base 1.10.10
 _ZN5Botan6Square2SEE@Base 1.10.10
 _ZN5Botan6Square3LogE@Base 1.10.10
 _ZN5Botan6Square3TD0E@Base 1.10.10
 _ZN5Botan6Square3TD1E@Base 1.10.10
 _ZN5Botan6Square3TD2E@Base 1.10.10
 _ZN5Botan6Square3TD3E@Base 1.10.10
 _ZN5Botan6Square3TE0E@Base 1.10.10
 _ZN5Botan6Square3TE1E@Base 1.10.10
 _ZN5Botan6Square3TE2E@Base 1.10.10
 _ZN5Botan6Square3TE3E@Base 1.10.10
 _ZN5Botan6Square4ALogE@Base 1.10.10
 _ZN5Botan6Square5clearEv@Base 1.10.10
 _ZN5Botan6Square9transformEPj@Base 1.10.10
 _ZN5Botan6SquareC1Ev@Base 1.10.10
 _ZN5Botan6SquareC2Ev@Base 1.10.10
 _ZN5Botan6SquareD0Ev@Base 1.10.10
 _ZN5Botan6SquareD1Ev@Base 1.10.10
 _ZN5Botan6SquareD2Ev@Base 1.10.10
 _ZN5Botan6Turing12key_scheduleEPKhm@Base 1.10.12
 _ZN5Botan6Turing4SBOXE@Base 1.10.10
 _ZN5Botan6Turing5Q_BOXE@Base 1.10.10
 _ZN5Botan6Turing5clearEv@Base 1.10.10
 _ZN5Botan6Turing6cipherEPKhPhm@Base 1.10.12
 _ZN5Botan6Turing6fixedSEj@Base 1.10.10
 _ZN5Botan6Turing6set_ivEPKhm@Base 1.10.12
 _ZN5Botan6Turing8generateEv@Base 1.10.10
 _ZN5Botan6TuringC1Ev@Base 1.10.10
 _ZN5Botan6TuringC2Ev@Base 1.10.10
 _ZN5Botan6TuringD0Ev@Base 1.10.10
 _ZN5Botan6TuringD1Ev@Base 1.10.10
 _ZN5Botan6TuringD2Ev@Base 1.10.10
 _ZN5Botan6divideERKNS_6BigIntES2_RS0_S3_@Base 1.10.10
 _ZN5Botan6jacobiERKNS_6BigIntES2_@Base 1.10.10
 _ZN5Botan6ressolERKNS_6BigIntES2_@Base 1.10.10
 _ZN5Botan6squareERKNS_6BigIntE@Base 1.10.10
 _ZN5Botan7AES_12812key_scheduleEPKhm@Base 1.10.12
 _ZN5Botan7AES_1285clearEv@Base 1.10.10
 _ZN5Botan7AES_128D0Ev@Base 1.10.10
 _ZN5Botan7AES_128D1Ev@Base 1.10.10
 _ZN5Botan7AES_128D2Ev@Base 1.10.10
 _ZN5Botan7AES_19212key_scheduleEPKhm@Base 1.10.12
 _ZN5Botan7AES_1925clearEv@Base 1.10.10
 _ZN5Botan7AES_192D0Ev@Base 1.10.10
 _ZN5Botan7AES_192D1Ev@Base 1.10.10
 _ZN5Botan7AES_192D2Ev@Base 1.10.10
 _ZN5Botan7AES_25612key_scheduleEPKhm@Base 1.10.12
 _ZN5Botan7AES_2565clearEv@Base 1.10.10
 _ZN5Botan7AES_256D0Ev@Base 1.10.10
 _ZN5Botan7AES_256D1Ev@Base 1.10.10
 _ZN5Botan7AES_256D2Ev@Base 1.10.10
 _ZN5Botan7Adler3212final_resultEPh@Base 1.10.10
 _ZN5Botan7Adler325clearEv@Base 1.10.10
 _ZN5Botan7Adler328add_dataEPKhm@Base 1.10.12
 _ZN5Botan7Adler32D0Ev@Base 1.10.10
 _ZN5Botan7Adler32D1Ev@Base 1.10.10
 _ZN5Botan7Adler32D2Ev@Base 1.10.10
 _ZN5Botan7BMW_51210compress_nEPKhm@Base 1.10.12
 _ZN5Botan7BMW_5125clearEv@Base 1.10.10
 _ZN5Botan7BMW_5128copy_outEPh@Base 1.10.10
 _ZN5Botan7BMW_512D0Ev@Base 1.10.10
 _ZN5Botan7BMW_512D1Ev@Base 1.10.10
 _ZN5Botan7BMW_512D2Ev@Base 1.10.10
 _ZN5Botan7BlinderC1ERKNS_6BigIntES3_S3_@Base 1.10.10
 _ZN5Botan7BlinderC2ERKNS_6BigIntES3_S3_@Base 1.10.10
 _ZN5Botan7BlinderD1Ev@Base 1.10.10
 _ZN5Botan7BlinderD2Ev@Base 1.10.10
 _ZN5Botan7CBC_MAC12final_resultEPh@Base 1.10.10
 _ZN5Botan7CBC_MAC12key_scheduleEPKhm@Base 1.10.12
 _ZN5Botan7CBC_MAC5clearEv@Base 1.10.10
 _ZN5Botan7CBC_MAC8add_dataEPKhm@Base 1.10.12
 _ZN5Botan7CBC_MACC1EPNS_11BlockCipherE@Base 1.10.10
 _ZN5Botan7CBC_MACC2EPNS_11BlockCipherE@Base 1.10.10
 _ZN5Botan7CBC_MACD0Ev@Base 1.10.10
 _ZN5Botan7CBC_MACD1Ev@Base 1.10.10
 _ZN5Botan7CBC_MACD2Ev@Base 1.10.10
 _ZN5Botan7Charset10char2digitEc@Base 1.10.10
 _ZN5Botan7Charset10digit2charEh@Base 1.10.10
 _ZN5Botan7Charset12caseless_cmpEcc@Base 1.10.10
 _ZN5Botan7Charset8is_digitEc@Base 1.10.10
 _ZN5Botan7Charset8is_spaceEc@Base 1.10.10
 _ZN5Botan7Charset9transcodeERKNSt7__cxx1112basic_stringIcSt11char_traitsIcESaIcEEENS_13Character_SetES9_@Base 1.10.10
 _ZN5Botan7HAS_16010compress_nEPKhm@Base 1.10.12
 _ZN5Botan7HAS_1605clearEv@Base 1.10.10
 _ZN5Botan7HAS_1608copy_outEPh@Base 1.10.10
 _ZN5Botan7HAS_160D0Ev@Base 1.10.10
 _ZN5Botan7HAS_160D1Ev@Base 1.10.10
 _ZN5Botan7HAS_160D2Ev@Base 1.10.10
 _ZN5Botan7KeyPair27signature_consistency_checkERNS_21RandomNumberGeneratorERKNS_11Private_KeyERKNSt7__cxx1112basic_stringIcSt11char_traitsIcESaIcEEE@Base 1.10.10
 _ZN5Botan7KeyPair28encryption_consistency_checkERNS_21RandomNumberGeneratorERKNS_11Private_KeyERKNSt7__cxx1112basic_stringIcSt11char_traitsIcESaIcEEE@Base 1.10.10
 _ZN5Botan7Noekeon12key_scheduleEPKhm@Base 1.10.12
 _ZN5Botan7Noekeon2RCE@Base 1.10.10
 _ZN5Botan7Noekeon5clearEv@Base 1.10.10
 _ZN5Botan7NoekeonC1Ev@Base 1.10.10
 _ZN5Botan7NoekeonC2Ev@Base 1.10.10
 _ZN5Botan7NoekeonD0Ev@Base 1.10.10
 _ZN5Botan7NoekeonD1Ev@Base 1.10.10
 _ZN5Botan7NoekeonD2Ev@Base 1.10.10
 _ZN5Botan7SHA_16010compress_nEPKhm@Base 1.10.12
 _ZN5Botan7SHA_1605clearEv@Base 1.10.10
 _ZN5Botan7SHA_1608copy_outEPh@Base 1.10.10
 _ZN5Botan7SHA_160C1Ev@Base 1.10.10
 _ZN5Botan7SHA_160C2Ev@Base 1.10.10
 _ZN5Botan7SHA_160D0Ev@Base 1.10.10
 _ZN5Botan7SHA_160D1Ev@Base 1.10.10
 _ZN5Botan7SHA_160D2Ev@Base 1.10.10
 _ZN5Botan7SHA_22410compress_nEPKhm@Base 1.10.12
 _ZN5Botan7SHA_2245clearEv@Base 1.10.10
 _ZN5Botan7SHA_2248copy_outEPh@Base 1.10.10
 _ZN5Botan7SHA_224C1Ev@Base 1.10.10
 _ZN5Botan7SHA_224C2Ev@Base 1.10.10
 _ZN5Botan7SHA_224D0Ev@Base 1.10.10
 _ZN5Botan7SHA_224D1Ev@Base 1.10.10
 _ZN5Botan7SHA_224D2Ev@Base 1.10.10
 _ZN5Botan7SHA_25610compress_nEPKhm@Base 1.10.12
 _ZN5Botan7SHA_2565clearEv@Base 1.10.10
 _ZN5Botan7SHA_2568copy_outEPh@Base 1.10.10
 _ZN5Botan7SHA_256C1Ev@Base 1.10.10
 _ZN5Botan7SHA_256C2Ev@Base 1.10.10
 _ZN5Botan7SHA_256D0Ev@Base 1.10.10
 _ZN5Botan7SHA_256D1Ev@Base 1.10.10
 _ZN5Botan7SHA_256D2Ev@Base 1.10.10
 _ZN5Botan7SHA_38410compress_nEPKhm@Base 1.10.12
 _ZN5Botan7SHA_3845clearEv@Base 1.10.10
 _ZN5Botan7SHA_3848copy_outEPh@Base 1.10.10
 _ZN5Botan7SHA_384C1Ev@Base 1.10.10
 _ZN5Botan7SHA_384C2Ev@Base 1.10.10
 _ZN5Botan7SHA_384D0Ev@Base 1.10.10
 _ZN5Botan7SHA_384D1Ev@Base 1.10.10
 _ZN5Botan7SHA_384D2Ev@Base 1.10.10
 _ZN5Botan7SHA_51210compress_nEPKhm@Base 1.10.12
 _ZN5Botan7SHA_5125clearEv@Base 1.10.10
 _ZN5Botan7SHA_5128copy_outEPh@Base 1.10.10
 _ZN5Botan7SHA_512C1Ev@Base 1.10.10
 _ZN5Botan7SHA_512C2Ev@Base 1.10.10
 _ZN5Botan7SHA_512D0Ev@Base 1.10.10
 _ZN5Botan7SHA_512D1Ev@Base 1.10.10
 _ZN5Botan7SHA_512D2Ev@Base 1.10.10
 _ZN5Botan7Salsa2012key_scheduleEPKhm@Base 1.10.12
 _ZN5Botan7Salsa205clearEv@Base 1.10.10
 _ZN5Botan7Salsa206cipherEPKhPhm@Base 1.10.12
 _ZN5Botan7Salsa206set_ivEPKhm@Base 1.10.12
 _ZN5Botan7Salsa20D0Ev@Base 1.10.10
 _ZN5Botan7Salsa20D1Ev@Base 1.10.10
 _ZN5Botan7Salsa20D2Ev@Base 1.10.10
 _ZN5Botan7Serpent12key_scheduleEPKhm@Base 1.10.12
 _ZN5Botan7Serpent5clearEv@Base 1.10.10
 _ZN5Botan7SerpentC1Ev@Base 1.10.10
 _ZN5Botan7SerpentC2Ev@Base 1.10.10
 _ZN5Botan7SerpentD0Ev@Base 1.10.10
 _ZN5Botan7SerpentD1Ev@Base 1.10.10
 _ZN5Botan7SerpentD2Ev@Base 1.10.10
 _ZN5Botan7TLS_PRFC1Ev@Base 1.10.10
 _ZN5Botan7TLS_PRFC2Ev@Base 1.10.10
 _ZN5Botan7TLS_PRFD0Ev@Base 1.10.10
 _ZN5Botan7TLS_PRFD1Ev@Base 1.10.10
 _ZN5Botan7TLS_PRFD2Ev@Base 1.10.10
 _ZN5Botan7Twofish11EXP_TO_POLYE@Base 1.10.10
 _ZN5Botan7Twofish11POLY_TO_EXPE@Base 1.10.10
 _ZN5Botan7Twofish12key_scheduleEPKhm@Base 1.10.12
 _ZN5Botan7Twofish2Q0E@Base 1.10.10
 _ZN5Botan7Twofish2Q1E@Base 1.10.10
 _ZN5Botan7Twofish2RSE@Base 1.10.10
 _ZN5Botan7Twofish4MDS0E@Base 1.10.10
 _ZN5Botan7Twofish4MDS1E@Base 1.10.10
 _ZN5Botan7Twofish4MDS2E@Base 1.10.10
 _ZN5Botan7Twofish4MDS3E@Base 1.10.10
 _ZN5Botan7Twofish5clearEv@Base 1.10.10
 _ZN5Botan7Twofish6rs_mulEPhhm@Base 1.10.12
 _ZN5Botan7TwofishC1Ev@Base 1.10.10
 _ZN5Botan7TwofishC2Ev@Base 1.10.10
 _ZN5Botan7TwofishD0Ev@Base 1.10.10
 _ZN5Botan7TwofishD1Ev@Base 1.10.10
 _ZN5Botan7TwofishD2Ev@Base 1.10.10
 _ZN5Botan7X509_CA12sign_requestERKNS_14PKCS10_RequestERNS_21RandomNumberGeneratorERKNS_9X509_TimeES8_@Base 1.10.10
 _ZN5Botan7X509_CA9make_certEPNS_9PK_SignerERNS_21RandomNumberGeneratorERKNS_19AlgorithmIdentifierERKNS_12MemoryRegionIhEERKNS_9X509_TimeESE_RKNS_7X509_DNESH_RKNS_10ExtensionsE@Base 1.10.10
 _ZN5Botan7X509_CAC1ERKNS_16X509_CertificateERKNS_11Private_KeyERKNSt7__cxx1112basic_stringIcSt11char_traitsIcESaIcEEE@Base 1.10.10
 _ZN5Botan7X509_CAC2ERKNS_16X509_CertificateERKNS_11Private_KeyERKNSt7__cxx1112basic_stringIcSt11char_traitsIcESaIcEEE@Base 1.10.10
 _ZN5Botan7X509_CAD1Ev@Base 1.10.10
 _ZN5Botan7X509_CAD2Ev@Base 1.10.10
 _ZN5Botan7X509_DN11decode_fromERNS_11BER_DecoderE@Base 1.10.10
 _ZN5Botan7X509_DN13add_attributeERKNS_3OIDERKNSt7__cxx1112basic_stringIcSt11char_traitsIcESaIcEEE@Base 1.10.10
 _ZN5Botan7X509_DN13add_attributeERKNSt7__cxx1112basic_stringIcSt11char_traitsIcESaIcEEES8_@Base 1.10.10
 _ZN5Botan7X509_DN16deref_info_fieldERKNSt7__cxx1112basic_stringIcSt11char_traitsIcESaIcEEE@Base 1.10.10
 _ZN5Botan7X509_DNC1ERKSt8multimapINS_3OIDENSt7__cxx1112basic_stringIcSt11char_traitsIcESaIcEEESt4lessIS2_ESaISt4pairIKS2_S8_EEE@Base 1.10.10
 _ZN5Botan7X509_DNC1ERKSt8multimapINSt7__cxx1112basic_stringIcSt11char_traitsIcESaIcEEES7_St4lessIS7_ESaISt4pairIKS7_S7_EEE@Base 1.10.10
 _ZN5Botan7X509_DNC1Ev@Base 1.10.10
 _ZN5Botan7X509_DNC2ERKSt8multimapINS_3OIDENSt7__cxx1112basic_stringIcSt11char_traitsIcESaIcEEESt4lessIS2_ESaISt4pairIKS2_S8_EEE@Base 1.10.10
 _ZN5Botan7X509_DNC2ERKSt8multimapINSt7__cxx1112basic_stringIcSt11char_traitsIcESaIcEEES7_St4lessIS7_ESaISt4pairIKS7_S7_EEE@Base 1.10.10
 _ZN5Botan7X509_DNC2Ev@Base 1.10.10
 _ZN5Botan7X509_DND0Ev@Base 1.10.10
 _ZN5Botan7X509_DND1Ev@Base 1.10.10
 _ZN5Botan7X509_DND2Ev@Base 1.10.10
 _ZN5Botan7get_emeERKNSt7__cxx1112basic_stringIcSt11char_traitsIcESaIcEEE@Base 1.10.10
 _ZN5Botan7get_kdfERKNSt7__cxx1112basic_stringIcSt11char_traitsIcESaIcEEE@Base 1.10.10
 _ZN5Botan7get_pbeERKNS_3OIDERNS_10DataSourceE@Base 1.10.10
 _ZN5Botan7get_pbeERKNSt7__cxx1112basic_stringIcSt11char_traitsIcESaIcEEE@Base 1.10.10
 _ZN5Botan7mul_addERKNS_6BigIntES2_S2_@Base 1.10.10
 _ZN5Botan7sub_mulERKNS_6BigIntES2_S2_@Base 1.10.10
 _ZN5Botan8Blowfish12key_scheduleEPKhm@Base 1.10.12
 _ZN5Botan8Blowfish13key_expansionEPKhmS2_@Base 1.10.12
 _ZN5Botan8Blowfish16eks_key_scheduleEPKhmS2_m@Base 1.10.12
 _ZN5Botan8Blowfish5clearEv@Base 1.10.10
 _ZN5Botan8Blowfish6P_INITE@Base 1.10.10
 _ZN5Botan8Blowfish6S_INITE@Base 1.10.10
 _ZN5Botan8BlowfishD0Ev@Base 1.10.10
 _ZN5Botan8BlowfishD1Ev@Base 1.10.10
 _ZN5Botan8BlowfishD2Ev@Base 1.10.10
 _ZN5Botan8CAST_12812key_scheduleEPKhm@Base 1.10.12
 _ZN5Botan8CAST_1282S5E@Base 1.10.10
 _ZN5Botan8CAST_1282S6E@Base 1.10.10
 _ZN5Botan8CAST_1282S7E@Base 1.10.10
 _ZN5Botan8CAST_1282S8E@Base 1.10.10
 _ZN5Botan8CAST_1285clearEv@Base 1.10.10
 _ZN5Botan8CAST_1287cast_ksERNS_12MemoryRegionIjEES3_@Base 1.10.10
 _ZN5Botan8CAST_128D0Ev@Base 1.10.10
 _ZN5Botan8CAST_128D1Ev@Base 1.10.10
 _ZN5Botan8CAST_128D2Ev@Base 1.10.10
 _ZN5Botan8CAST_25612key_scheduleEPKhm@Base 1.10.12
 _ZN5Botan8CAST_2565clearEv@Base 1.10.10
 _ZN5Botan8CAST_2567KEY_ROTE@Base 1.10.10
 _ZN5Botan8CAST_2568KEY_MASKE@Base 1.10.10
 _ZN5Botan8CAST_256D0Ev@Base 1.10.10
 _ZN5Botan8CAST_256D1Ev@Base 1.10.10
 _ZN5Botan8CAST_256D2Ev@Base 1.10.10
 _ZN5Botan8CurveGFpD1Ev@Base 1.10.10
 _ZN5Botan8CurveGFpD2Ev@Base 1.10.10
 _ZN5Botan8DL_Group10BER_decodeERNS_10DataSourceENS0_6FormatE@Base 1.10.10
 _ZN5Botan8DL_Group10PEM_decodeERNS_10DataSourceE@Base 1.10.10
 _ZN5Botan8DL_Group10initializeERKNS_6BigIntES3_S3_@Base 1.10.10
 _ZN5Botan8DL_Group18make_dsa_generatorERKNS_6BigIntES3_@Base 1.10.10
 _ZN5Botan8DL_GroupC1ERKNS_6BigIntES3_@Base 1.10.10
 _ZN5Botan8DL_GroupC1ERKNS_6BigIntES3_S3_@Base 1.10.10
 _ZN5Botan8DL_GroupC1ERKNSt7__cxx1112basic_stringIcSt11char_traitsIcESaIcEEE@Base 1.10.10
 _ZN5Botan8DL_GroupC1ERNS_21RandomNumberGeneratorENS0_9PrimeTypeEmm@Base 1.10.12
 _ZN5Botan8DL_GroupC1ERNS_21RandomNumberGeneratorERKNS_12MemoryRegionIhEEmm@Base 1.10.12
 _ZN5Botan8DL_GroupC1Ev@Base 1.10.10
 _ZN5Botan8DL_GroupC2ERKNS_6BigIntES3_@Base 1.10.10
 _ZN5Botan8DL_GroupC2ERKNS_6BigIntES3_S3_@Base 1.10.10
 _ZN5Botan8DL_GroupC2ERKNSt7__cxx1112basic_stringIcSt11char_traitsIcESaIcEEE@Base 1.10.10
 _ZN5Botan8DL_GroupC2ERNS_21RandomNumberGeneratorENS0_9PrimeTypeEmm@Base 1.10.12
 _ZN5Botan8DL_GroupC2ERNS_21RandomNumberGeneratorERKNS_12MemoryRegionIhEEmm@Base 1.10.12
 _ZN5Botan8DL_GroupC2Ev@Base 1.10.10
 _ZN5Botan8DL_GroupD1Ev@Base 1.10.10
 _ZN5Botan8DL_GroupD2Ev@Base 1.10.10
 _ZN5Botan8DataSink10attachableEv@Base 1.10.10
 _ZN5Botan8EAX_Base10set_headerEPKhm@Base 1.10.12
 _ZN5Botan8EAX_Base6set_ivERKNS_11OctetStringE@Base 1.10.10
 _ZN5Botan8EAX_Base7set_keyERKNS_11OctetStringE@Base 1.10.10
 _ZN5Botan8EAX_Base9start_msgEv@Base 1.10.10
 _ZN5Botan8EAX_BaseC1EPNS_11BlockCipherEm@Base 1.10.12
 _ZN5Botan8EAX_BaseC2EPNS_11BlockCipherEm@Base 1.10.12
 _ZN5Botan8EAX_BaseD0Ev@Base 1.10.10
 _ZN5Botan8EAX_BaseD1Ev@Base 1.10.10
 _ZN5Botan8EAX_BaseD2Ev@Base 1.10.10
 _ZN5Botan8EC_GroupC1ERKNS_12MemoryRegionIhEE@Base 1.10.10
 _ZN5Botan8EC_GroupC1ERKNS_3OIDE@Base 1.10.10
 _ZN5Botan8EC_GroupC1ERKNSt7__cxx1112basic_stringIcSt11char_traitsIcESaIcEEE@Base 1.10.10
 _ZN5Botan8EC_GroupC2ERKNS_12MemoryRegionIhEE@Base 1.10.10
 _ZN5Botan8EC_GroupC2ERKNS_3OIDE@Base 1.10.10
 _ZN5Botan8EC_GroupC2ERKNSt7__cxx1112basic_stringIcSt11char_traitsIcESaIcEEE@Base 1.10.10
 _ZN5Botan8EC_GroupD1Ev@Base 1.10.10
 _ZN5Botan8EC_GroupD2Ev@Base 1.10.10
 _ZN5Botan8EC_GroupaSERKS0_@Base 1.10.10
 _ZN5Botan8EMSA_Raw11encoding_ofERKNS_12MemoryRegionIhEEmRNS_21RandomNumberGeneratorE@Base 1.10.12
 _ZN5Botan8EMSA_Raw6updateEPKhm@Base 1.10.12
 _ZN5Botan8EMSA_Raw6verifyERKNS_12MemoryRegionIhEES4_m@Base 1.10.12
 _ZN5Botan8EMSA_Raw8raw_dataEv@Base 1.10.10
 _ZN5Botan8EMSA_RawD0Ev@Base 1.10.10
 _ZN5Botan8EMSA_RawD1Ev@Base 1.10.10
 _ZN5Botan8EMSA_RawD2Ev@Base 1.10.10
 _ZN5Botan8HMAC_RNG11add_entropyEPKhm@Base 1.10.12
 _ZN5Botan8HMAC_RNG18add_entropy_sourceEPNS_13EntropySourceE@Base 1.10.10
 _ZN5Botan8HMAC_RNG5clearEv@Base 1.10.10
 _ZN5Botan8HMAC_RNG6reseedEm@Base 1.10.12
 _ZN5Botan8HMAC_RNG9randomizeEPhm@Base 1.10.12
 _ZN5Botan8HMAC_RNGC1EPNS_25MessageAuthenticationCodeES2_@Base 1.10.10
 _ZN5Botan8HMAC_RNGC2EPNS_25MessageAuthenticationCodeES2_@Base 1.10.10
 _ZN5Botan8HMAC_RNGD0Ev@Base 1.10.10
 _ZN5Botan8HMAC_RNGD1Ev@Base 1.10.10
 _ZN5Botan8HMAC_RNGD2Ev@Base 1.10.10
 _ZN5Botan8Null_RNG11add_entropyEPKhm@Base 1.10.12
 _ZN5Botan8Null_RNG18add_entropy_sourceEPNS_13EntropySourceE@Base 1.10.10
 _ZN5Botan8Null_RNG5clearEv@Base 1.10.10
 _ZN5Botan8Null_RNG6reseedEm@Base 1.10.12
 _ZN5Botan8Null_RNG9randomizeEPhm@Base 1.10.12
 _ZN5Botan8Null_RNGD0Ev@Base 1.10.10
 _ZN5Botan8Null_RNGD1Ev@Base 1.10.10
 _ZN5Botan8Null_RNGD2Ev@Base 1.10.10
 _ZN5Botan8PEM_Code18decode_check_labelERNS_10DataSourceERKNSt7__cxx1112basic_stringIcSt11char_traitsIcESaIcEEE@Base 1.10.10
 _ZN5Botan8PEM_Code6decodeERNS_10DataSourceERNSt7__cxx1112basic_stringIcSt11char_traitsIcESaIcEEE@Base 1.10.10
 _ZN5Botan8PEM_Code6encodeEPKhmRKNSt7__cxx1112basic_stringIcSt11char_traitsIcESaIcEEEm@Base 1.10.12
 _ZN5Botan8PEM_Code6encodeERKNS_12MemoryRegionIhEERKNSt7__cxx1112basic_stringIcSt11char_traitsIcESaIcEEEm@Base 1.10.12
 _ZN5Botan8PEM_Code7matchesERNS_10DataSourceERKNSt7__cxx1112basic_stringIcSt11char_traitsIcESaIcEEEm@Base 1.10.12
 _ZN5Botan8Parallel12final_resultEPh@Base 1.10.10
 _ZN5Botan8Parallel5clearEv@Base 1.10.10
 _ZN5Botan8Parallel8add_dataEPKhm@Base 1.10.12
 _ZN5Botan8ParallelC1ERKSt6vectorIPNS_12HashFunctionESaIS3_EE@Base 1.10.10
 _ZN5Botan8ParallelC2ERKSt6vectorIPNS_12HashFunctionESaIS3_EE@Base 1.10.10
 _ZN5Botan8ParallelD0Ev@Base 1.10.10
 _ZN5Botan8ParallelD1Ev@Base 1.10.10
 _ZN5Botan8ParallelD2Ev@Base 1.10.10
 _ZN5Botan8PointGFp3addERKS0_RSt6vectorINS_6BigIntESaIS4_EE@Base 1.10.10
 _ZN5Botan8PointGFp4swapERS0_@Base 1.10.10
 _ZN5Botan8PointGFp5mult2ERSt6vectorINS_6BigIntESaIS2_EE@Base 1.10.10
 _ZN5Botan8PointGFpC1ERKNS_8CurveGFpE@Base 1.10.10
 _ZN5Botan8PointGFpC1ERKNS_8CurveGFpERKNS_6BigIntES6_@Base 1.10.10
 _ZN5Botan8PointGFpC2ERKNS_8CurveGFpE@Base 1.10.10
 _ZN5Botan8PointGFpC2ERKNS_8CurveGFpERKNS_6BigIntES6_@Base 1.10.10
 _ZN5Botan8PointGFpD1Ev@Base 1.10.10
 _ZN5Botan8PointGFpD2Ev@Base 1.10.10
 _ZN5Botan8PointGFpmIERKS0_@Base 1.10.10
 _ZN5Botan8PointGFpmLERKNS_6BigIntE@Base 1.10.10
 _ZN5Botan8PointGFppLERKS0_@Base 1.10.10
 _ZN5Botan8Randpool11add_entropyEPKhm@Base 1.10.12
 _ZN5Botan8Randpool13update_bufferEv@Base 1.10.10
 _ZN5Botan8Randpool18add_entropy_sourceEPNS_13EntropySourceE@Base 1.10.10
 _ZN5Botan8Randpool5clearEv@Base 1.10.10
 _ZN5Botan8Randpool6reseedEm@Base 1.10.12
 _ZN5Botan8Randpool8mix_poolEv@Base 1.10.10
 _ZN5Botan8Randpool9randomizeEPhm@Base 1.10.12
 _ZN5Botan8RandpoolC1EPNS_11BlockCipherEPNS_25MessageAuthenticationCodeEmm@Base 1.10.12
 _ZN5Botan8RandpoolC2EPNS_11BlockCipherEPNS_25MessageAuthenticationCodeEmm@Base 1.10.12
 _ZN5Botan8RandpoolD0Ev@Base 1.10.10
 _ZN5Botan8RandpoolD1Ev@Base 1.10.10
 _ZN5Botan8RandpoolD2Ev@Base 1.10.10
 _ZN5Botan8SAFER_SK12key_scheduleEPKhm@Base 1.10.12
 _ZN5Botan8SAFER_SK5clearEv@Base 1.10.10
 _ZN5Botan8SAFER_SKC1Em@Base 1.10.12
 _ZN5Botan8SAFER_SKC2Em@Base 1.10.12
 _ZN5Botan8SAFER_SKD0Ev@Base 1.10.10
 _ZN5Botan8SAFER_SKD1Ev@Base 1.10.10
 _ZN5Botan8SAFER_SKD2Ev@Base 1.10.10
 _ZN5Botan8SSL3_MAC12final_resultEPh@Base 1.10.10
 _ZN5Botan8SSL3_MAC12key_scheduleEPKhm@Base 1.10.12
 _ZN5Botan8SSL3_MAC5clearEv@Base 1.10.10
 _ZN5Botan8SSL3_MAC8add_dataEPKhm@Base 1.10.12
 _ZN5Botan8SSL3_MACC1EPNS_12HashFunctionE@Base 1.10.10
 _ZN5Botan8SSL3_MACC2EPNS_12HashFunctionE@Base 1.10.10
 _ZN5Botan8SSL3_MACD0Ev@Base 1.10.10
 _ZN5Botan8SSL3_MACD1Ev@Base 1.10.10
 _ZN5Botan8SSL3_MACD2Ev@Base 1.10.10
 _ZN5Botan8SSL3_PRFD0Ev@Base 1.10.10
 _ZN5Botan8SSL3_PRFD1Ev@Base 1.10.10
 _ZN5Botan8SSL3_PRFD2Ev@Base 1.10.10
 _ZN5Botan8Skipjack12key_scheduleEPKhm@Base 1.10.12
 _ZN5Botan8Skipjack5clearEv@Base 1.10.10
 _ZN5Botan8SkipjackC1Ev@Base 1.10.10
 _ZN5Botan8SkipjackC2Ev@Base 1.10.10
 _ZN5Botan8SkipjackD0Ev@Base 1.10.10
 _ZN5Botan8SkipjackD1Ev@Base 1.10.10
 _ZN5Botan8SkipjackD2Ev@Base 1.10.10
 _ZN5Botan8X509_CRL12force_decodeEv@Base 1.10.10
 _ZN5Botan8X509_CRL14X509_CRL_ErrorC1ERKNSt7__cxx1112basic_stringIcSt11char_traitsIcESaIcEEE@Base 1.10.10
 _ZN5Botan8X509_CRL14X509_CRL_ErrorC2ERKNSt7__cxx1112basic_stringIcSt11char_traitsIcESaIcEEE@Base 1.10.10
 _ZN5Botan8X509_CRL14X509_CRL_ErrorD0Ev@Base 1.10.10
 _ZN5Botan8X509_CRL14X509_CRL_ErrorD1Ev@Base 1.10.10
 _ZN5Botan8X509_CRL14X509_CRL_ErrorD2Ev@Base 1.10.10
 _ZN5Botan8X509_CRLC1ERKNSt7__cxx1112basic_stringIcSt11char_traitsIcESaIcEEEb@Base 1.10.10
 _ZN5Botan8X509_CRLC1ERKS0_@Base 1.10.10
 _ZN5Botan8X509_CRLC1ERNS_10DataSourceEb@Base 1.10.10
 _ZN5Botan8X509_CRLC2ERKNSt7__cxx1112basic_stringIcSt11char_traitsIcESaIcEEEb@Base 1.10.10
 _ZN5Botan8X509_CRLC2ERKS0_@Base 1.10.10
 _ZN5Botan8X509_CRLC2ERNS_10DataSourceEb@Base 1.10.10
 _ZN5Botan8X509_CRLD0Ev@Base 1.10.10
 _ZN5Botan8X509_CRLD1Ev@Base 1.10.10
 _ZN5Botan8X509_CRLD2Ev@Base 1.10.10
 _ZN5Botan8X942_PRFC1ERKNSt7__cxx1112basic_stringIcSt11char_traitsIcESaIcEEE@Base 1.10.10
 _ZN5Botan8X942_PRFC2ERKNSt7__cxx1112basic_stringIcSt11char_traitsIcESaIcEEE@Base 1.10.10
 _ZN5Botan8X942_PRFD0Ev@Base 1.10.10
 _ZN5Botan8X942_PRFD1Ev@Base 1.10.10
 _ZN5Botan8X942_PRFD2Ev@Base 1.10.10
 _ZN5Botan8get_emsaERKNSt7__cxx1112basic_stringIcSt11char_traitsIcESaIcEEE@Base 1.10.10
 _ZN5Botan8split_onERKNSt7__cxx1112basic_stringIcSt11char_traitsIcESaIcEEEc@Base 1.10.10
 _ZN5Botan9Allocator3getEb@Base 1.10.10
 _ZN5Botan9Allocator4initEv@Base 1.10.10
 _ZN5Botan9Allocator7destroyEv@Base 1.10.10
 _ZN5Botan9Attribute11decode_fromERNS_11BER_DecoderE@Base 1.10.10
 _ZN5Botan9AttributeC1ERKNS_3OIDERKNS_12MemoryRegionIhEE@Base 1.10.10
 _ZN5Botan9AttributeC1ERKNSt7__cxx1112basic_stringIcSt11char_traitsIcESaIcEEERKNS_12MemoryRegionIhEE@Base 1.10.10
 _ZN5Botan9AttributeC2ERKNS_3OIDERKNS_12MemoryRegionIhEE@Base 1.10.10
 _ZN5Botan9AttributeC2ERKNSt7__cxx1112basic_stringIcSt11char_traitsIcESaIcEEERKNS_12MemoryRegionIhEE@Base 1.10.10
 _ZN5Botan9AttributeD0Ev@Base 1.10.10
 _ZN5Botan9AttributeD1Ev@Base 1.10.10
 _ZN5Botan9AttributeD2Ev@Base 1.10.10
 _ZN5Botan9CRL_Entry11decode_fromERNS_11BER_DecoderE@Base 1.10.10
 _ZN5Botan9CRL_EntryC1ERKNS_16X509_CertificateENS_8CRL_CodeE@Base 1.10.10
 _ZN5Botan9CRL_EntryC1Eb@Base 1.10.10
 _ZN5Botan9CRL_EntryC2ERKNS_16X509_CertificateENS_8CRL_CodeE@Base 1.10.10
 _ZN5Botan9CRL_EntryC2Eb@Base 1.10.10
 _ZN5Botan9CRL_EntryD0Ev@Base 1.10.10
 _ZN5Botan9CRL_EntryD1Ev@Base 1.10.10
 _ZN5Botan9CRL_EntryD2Ev@Base 1.10.10
 _ZN5Botan9CryptoBox7decryptEPKhmRKNSt7__cxx1112basic_stringIcSt11char_traitsIcESaIcEEE@Base 1.10.12
 _ZN5Botan9CryptoBox7decryptERKNSt7__cxx1112basic_stringIcSt11char_traitsIcESaIcEEES8_@Base 1.10.10
 _ZN5Botan9CryptoBox7encryptEPKhmRKNSt7__cxx1112basic_stringIcSt11char_traitsIcESaIcEEERNS_21RandomNumberGeneratorE@Base 1.10.12
 _ZN5Botan9EMSA1_BSI11encoding_ofERKNS_12MemoryRegionIhEEmRNS_21RandomNumberGeneratorE@Base 1.10.12
 _ZN5Botan9EMSA1_BSID0Ev@Base 1.10.10
 _ZN5Botan9EMSA1_BSID1Ev@Base 1.10.10
 _ZN5Botan9EMSA1_BSID2Ev@Base 1.10.10
 _ZN5Botan9EMSA3_Raw11encoding_ofERKNS_12MemoryRegionIhEEmRNS_21RandomNumberGeneratorE@Base 1.10.12
 _ZN5Botan9EMSA3_Raw6updateEPKhm@Base 1.10.12
 _ZN5Botan9EMSA3_Raw6verifyERKNS_12MemoryRegionIhEES4_m@Base 1.10.12
 _ZN5Botan9EMSA3_Raw8raw_dataEv@Base 1.10.10
 _ZN5Botan9EMSA3_RawD0Ev@Base 1.10.10
 _ZN5Botan9EMSA3_RawD1Ev@Base 1.10.10
 _ZN5Botan9EMSA3_RawD2Ev@Base 1.10.10
 _ZN5Botan9IDEA_SSE2D0Ev@Base 1.10.10
 _ZN5Botan9IDEA_SSE2D1Ev@Base 1.10.10
 _ZN5Botan9IDEA_SSE2D2Ev@Base 1.10.10
 _ZN5Botan9PK_Signer12sign_messageEPKhmRNS_21RandomNumberGeneratorE@Base 1.10.12
 _ZN5Botan9PK_Signer6updateEPKhm@Base 1.10.12
 _ZN5Botan9PK_Signer9signatureERNS_21RandomNumberGeneratorE@Base 1.10.10
 _ZN5Botan9PK_SignerC1ERKNS_11Private_KeyERKNSt7__cxx1112basic_stringIcSt11char_traitsIcESaIcEEENS_16Signature_FormatENS_16Fault_ProtectionE@Base 1.10.10
 _ZN5Botan9PK_SignerC2ERKNS_11Private_KeyERKNSt7__cxx1112basic_stringIcSt11char_traitsIcESaIcEEENS_16Signature_FormatENS_16Fault_ProtectionE@Base 1.10.10
 _ZN5Botan9Power_Mod11window_bitsEmmNS0_11Usage_HintsE@Base 1.10.12
 _ZN5Botan9Power_ModC1ERKNS_6BigIntENS0_11Usage_HintsE@Base 1.10.10
 _ZN5Botan9Power_ModC1ERKS0_@Base 1.10.10
 _ZN5Botan9Power_ModC2ERKNS_6BigIntENS0_11Usage_HintsE@Base 1.10.10
 _ZN5Botan9Power_ModC2ERKS0_@Base 1.10.10
 _ZN5Botan9Power_ModD0Ev@Base 1.10.10
 _ZN5Botan9Power_ModD1Ev@Base 1.10.10
 _ZN5Botan9Power_ModD2Ev@Base 1.10.10
 _ZN5Botan9Power_ModaSERKS0_@Base 1.10.10
 _ZN5Botan9SCAN_NameC1ENSt7__cxx1112basic_stringIcSt11char_traitsIcESaIcEEE@Base 1.10.10
 _ZN5Botan9SCAN_NameC2ENSt7__cxx1112basic_stringIcSt11char_traitsIcESaIcEEE@Base 1.10.10
 _ZN5Botan9SCAN_NameD1Ev@Base 1.10.10
 _ZN5Botan9SCAN_NameD2Ev@Base 1.10.10
 _ZN5Botan9Skein_51212final_resultEPh@Base 1.10.10
 _ZN5Botan9Skein_5125clearEv@Base 1.10.10
 _ZN5Botan9Skein_5128add_dataEPKhm@Base 1.10.12
 _ZN5Botan9Skein_512C1EmRKNSt7__cxx1112basic_stringIcSt11char_traitsIcESaIcEEE@Base 1.10.12
 _ZN5Botan9Skein_512C2EmRKNSt7__cxx1112basic_stringIcSt11char_traitsIcESaIcEEE@Base 1.10.12
 _ZN5Botan9Skein_512D0Ev@Base 1.10.10
 _ZN5Botan9Skein_512D1Ev@Base 1.10.10
 _ZN5Botan9Skein_512D2Ev@Base 1.10.10
 _ZN5Botan9TripleDES12key_scheduleEPKhm@Base 1.10.12
 _ZN5Botan9TripleDES5clearEv@Base 1.10.10
 _ZN5Botan9TripleDESC1Ev@Base 1.10.10
 _ZN5Botan9TripleDESC2Ev@Base 1.10.10
 _ZN5Botan9TripleDESD0Ev@Base 1.10.10
 _ZN5Botan9TripleDESD1Ev@Base 1.10.10
 _ZN5Botan9TripleDESD2Ev@Base 1.10.10
 _ZN5Botan9Whirlpool10compress_nEPKhm@Base 1.10.12
 _ZN5Botan9Whirlpool2C0E@Base 1.10.10
 _ZN5Botan9Whirlpool2C1E@Base 1.10.10
 _ZN5Botan9Whirlpool2C2E@Base 1.10.10
 _ZN5Botan9Whirlpool2C3E@Base 1.10.10
 _ZN5Botan9Whirlpool2C4E@Base 1.10.10
 _ZN5Botan9Whirlpool2C5E@Base 1.10.10
 _ZN5Botan9Whirlpool2C6E@Base 1.10.10
 _ZN5Botan9Whirlpool2C7E@Base 1.10.10
 _ZN5Botan9Whirlpool5clearEv@Base 1.10.10
 _ZN5Botan9Whirlpool8copy_outEPh@Base 1.10.10
 _ZN5Botan9WhirlpoolC1Ev@Base 1.10.10
 _ZN5Botan9WhirlpoolC2Ev@Base 1.10.10
 _ZN5Botan9WhirlpoolD0Ev@Base 1.10.10
 _ZN5Botan9WhirlpoolD1Ev@Base 1.10.10
 _ZN5Botan9WhirlpoolD2Ev@Base 1.10.10
 _ZN5Botan9X509_Time11decode_fromERNS_11BER_DecoderE@Base 1.10.10
 _ZN5Botan9X509_Time6set_toERKNSt7__cxx1112basic_stringIcSt11char_traitsIcESaIcEEE@Base 1.10.10
 _ZN5Botan9X509_Time6set_toERKNSt7__cxx1112basic_stringIcSt11char_traitsIcESaIcEEENS_8ASN1_TagE@Base 1.10.10
 _ZN5Botan9X509_TimeC1ERKNSt7__cxx1112basic_stringIcSt11char_traitsIcESaIcEEE@Base 1.10.10
 _ZN5Botan9X509_TimeC1ERKNSt7__cxx1112basic_stringIcSt11char_traitsIcESaIcEEENS_8ASN1_TagE@Base 1.10.10
 _ZN5Botan9X509_TimeC1Ey@Base 1.10.10
 _ZN5Botan9X509_TimeC2ERKNSt7__cxx1112basic_stringIcSt11char_traitsIcESaIcEEE@Base 1.10.10
 _ZN5Botan9X509_TimeC2ERKNSt7__cxx1112basic_stringIcSt11char_traitsIcESaIcEEENS_8ASN1_TagE@Base 1.10.10
 _ZN5Botan9X509_TimeC2Ey@Base 1.10.10
 _ZN5Botan9X509_TimeD0Ev@Base 1.10.10
 _ZN5Botan9X509_TimeD1Ev@Base 1.10.10
 _ZN5Botan9X509_TimeD2Ev@Base 1.10.10
 _ZN5Botan9XTEA_SIMDD0Ev@Base 1.10.10
 _ZN5Botan9XTEA_SIMDD1Ev@Base 1.10.10
 _ZN5Botan9XTEA_SIMDD2Ev@Base 1.10.10
 _ZN5Botan9create_dnERKNS_10Data_StoreE@Base 1.10.10
 _ZN5Botan9get_pbkdfERKNSt7__cxx1112basic_stringIcSt11char_traitsIcESaIcEEE@Base 1.10.10
 _ZN5Botan9power_modERKNS_6BigIntES2_S2_@Base 1.10.10
 _ZN5Botan9to_stringB5cxx11Eym@Base 1.10.12
 _ZN5Botan9to_u32bitERKNSt7__cxx1112basic_stringIcSt11char_traitsIcESaIcEEE@Base 1.10.10
 _ZN5BotandvERKNS_6BigIntES2_@Base 1.10.10
 _ZN5BotaneoERKNS_11OctetStringES2_@Base 1.10.10
 _ZN5BotaneqERKNS_11OctetStringES2_@Base 1.10.10
 _ZN5BotaneqERKNS_19AlgorithmIdentifierES2_@Base 1.10.10
 _ZN5BotaneqERKNS_7X509_DNES2_@Base 1.10.10
 _ZN5BotaneqERKNS_9CRL_EntryES2_@Base 1.10.10
 _ZN5BotaneqERKNS_9X509_TimeES2_@Base 1.10.10
 _ZN5BotangeERKNS_9X509_TimeES2_@Base 1.10.10
 _ZN5BotangtERKNS_9X509_TimeES2_@Base 1.10.10
 _ZN5BotanleERKNS_9X509_TimeES2_@Base 1.10.10
 _ZN5BotanlsERKNS_6BigIntEm@Base 1.10.12
 _ZN5BotanlsERSoRKNS_6BigIntE@Base 1.10.10
 _ZN5BotanlsERSoRNS_4PipeE@Base 1.10.10
 _ZN5BotanlsEiRNS_4PipeE@Base 1.10.10
 _ZN5BotanltERKNS_7X509_DNES2_@Base 1.10.10
 _ZN5BotanltERKNS_9X509_TimeES2_@Base 1.10.10
 _ZN5BotanmiERKNS_6BigIntES2_@Base 1.10.10
 _ZN5BotanmlERKNS_6BigIntERKNS_8PointGFpE@Base 1.10.10
 _ZN5BotanmlERKNS_6BigIntES2_@Base 1.10.10
 _ZN5BotanneERKNS_11OctetStringES2_@Base 1.10.10
 _ZN5BotanneERKNS_16X509_CertificateES2_@Base 1.10.10
 _ZN5BotanneERKNS_19AlgorithmIdentifierES2_@Base 1.10.10
 _ZN5BotanneERKNS_7X509_DNES2_@Base 1.10.10
 _ZN5BotanneERKNS_9CRL_EntryES2_@Base 1.10.10
 _ZN5BotanneERKNS_9X509_TimeES2_@Base 1.10.10
 _ZN5BotanplERKNS_11OctetStringES2_@Base 1.10.10
 _ZN5BotanplERKNS_6BigIntES2_@Base 1.10.10
 _ZN5BotanrmERKNS_6BigIntES2_@Base 1.10.10
 _ZN5BotanrmERKNS_6BigIntEy@Base 1.10.12
 _ZN5BotanrsERKNS_6BigIntEm@Base 1.10.12
 _ZN5BotanrsERSiRNS_4PipeE@Base 1.10.10
 _ZN5BotanrsERSiRNS_6BigIntE@Base 1.10.10
 _ZN5BotanrsEiRNS_4PipeE@Base 1.10.10
 _ZNK5Botan10DataSource2idB5cxx11Ev@Base 1.10.10
 _ZNK5Botan10DataSource9peek_byteERh@Base 1.10.10
 _ZNK5Botan10Data_Store11get1_memvecERKNSt7__cxx1112basic_stringIcSt11char_traitsIcESaIcEEE@Base 1.10.10
 _ZNK5Botan10Data_Store11get1_u32bitERKNSt7__cxx1112basic_stringIcSt11char_traitsIcESaIcEEEj@Base 1.10.10
 _ZNK5Botan10Data_Store11search_withB5cxx11ERKNS0_7MatcherE@Base 1.10.10
 _ZNK5Botan10Data_Store3getERKNSt7__cxx1112basic_stringIcSt11char_traitsIcESaIcEEE@Base 1.10.10
 _ZNK5Botan10Data_Store4get1ERKNSt7__cxx1112basic_stringIcSt11char_traitsIcESaIcEEE@Base 1.10.10
 _ZNK5Botan10Data_Store7Matcher9transformERKNSt7__cxx1112basic_stringIcSt11char_traitsIcESaIcEEES9_@Base 1.10.10
 _ZNK5Botan10Data_Store9has_valueERKNSt7__cxx1112basic_stringIcSt11char_traitsIcESaIcEEE@Base 1.10.10
 _ZNK5Botan10Data_StoreeqERKS0_@Base 1.10.10
 _ZNK5Botan10Extensions11contents_toERNS_10Data_StoreES2_@Base 1.10.10
 _ZNK5Botan10Extensions11encode_intoERNS_11DER_EncoderE@Base 1.10.10
 _ZNK5Botan10GOST_34_1113output_lengthEv@Base 1.10.10
 _ZNK5Botan10GOST_34_1115hash_block_sizeEv@Base 1.10.10
 _ZNK5Botan10GOST_34_114nameB5cxx11Ev@Base 1.10.10
 _ZNK5Botan10GOST_34_115cloneEv@Base 1.10.10
 _ZNK5Botan10MAC_Filter15valid_keylengthEm@Base 1.10.12
 _ZNK5Botan10MAC_Filter4nameB5cxx11Ev@Base 1.10.10
 _ZNK5Botan10Public_Key10load_checkERNS_21RandomNumberGeneratorE@Base 1.10.10
 _ZNK5Botan10Public_Key13message_partsEv@Base 1.10.10
 _ZNK5Botan10Public_Key17message_part_sizeEv@Base 1.10.10
 _ZNK5Botan10Public_Key7get_oidEv@Base 1.10.10
 _ZNK5Botan10RIPEMD_12813output_lengthEv@Base 1.10.10
 _ZNK5Botan10RIPEMD_1284nameB5cxx11Ev@Base 1.10.10
 _ZNK5Botan10RIPEMD_1285cloneEv@Base 1.10.10
 _ZNK5Botan10RIPEMD_16013output_lengthEv@Base 1.10.10
 _ZNK5Botan10RIPEMD_1604nameB5cxx11Ev@Base 1.10.10
 _ZNK5Botan10RIPEMD_1605cloneEv@Base 1.10.10
 _ZNK5Botan10RTSS_Share8share_idEv@Base 1.10.10
 _ZNK5Botan10RTSS_Share9to_stringB5cxx11Ev@Base 1.10.10
 _ZNK5Botan10TLS_12_PRF4nameB5cxx11Ev@Base 1.10.10
 _ZNK5Botan10TLS_12_PRF5cloneEv@Base 1.10.10
 _ZNK5Botan10TLS_12_PRF6deriveEmPKhmS2_m@Base 1.10.12
 _ZNK5Botan10TLS_Client15peer_cert_chainEv@Base 1.10.10
 _ZNK5Botan10TLS_Client9is_closedEv@Base 1.10.10
 _ZNK5Botan10TLS_Policy10suite_listEbbb@Base 1.10.10
 _ZNK5Botan10TLS_Policy11compressionEv@Base 1.10.10
 _ZNK5Botan10TLS_Policy11min_versionEv@Base 1.10.10
 _ZNK5Botan10TLS_Policy12choose_suiteERKSt6vectorItSaItEEbb@Base 1.10.10
 _ZNK5Botan10TLS_Policy12ciphersuitesEv@Base 1.10.10
 _ZNK5Botan10TLS_Policy12pref_versionEv@Base 1.10.10
 _ZNK5Botan10TLS_Policy13allow_edh_dsaEv@Base 1.10.10
 _ZNK5Botan10TLS_Policy13allow_edh_rsaEv@Base 1.10.10
 _ZNK5Botan10TLS_Policy16allow_static_rsaEv@Base 1.10.10
 _ZNK5Botan10TLS_Policy18choose_compressionERKSt6vectorIhSaIhEE@Base 1.10.10
 _ZNK5Botan10TLS_Policy18rsa_export_keysizeEv@Base 1.10.10
 _ZNK5Botan10TLS_Policy19require_client_authEv@Base 1.10.10
 _ZNK5Botan10TLS_Policy8dh_groupEv@Base 1.10.10
 _ZNK5Botan10TLS_Server15peer_cert_chainEv@Base 1.10.10
 _ZNK5Botan10TLS_Server9is_closedEv@Base 1.10.10
 _ZNK5Botan10X509_Store10PEM_encodeB5cxx11Ev@Base 1.10.10
 _ZNK5Botan10X509_Store10is_revokedERKNS_16X509_CertificateE@Base 1.10.10
 _ZNK5Botan10X509_Store22recompute_revoked_infoEv@Base 1.10.10
 _ZNK5Botan10X509_Store8CRL_DataeqERKS1_@Base 1.10.10
 _ZNK5Botan10X509_Store8CRL_DataltERKS1_@Base 1.10.10
 _ZNK5Botan10X509_Store8CRL_DataneERKS1_@Base 1.10.10
 _ZNK5Botan10X509_Store9Cert_Info10is_trustedEv@Base 1.10.10
 _ZNK5Botan10X509_Store9Cert_Info10set_resultENS_9X509_CodeE@Base 1.10.10
 _ZNK5Botan10X509_Store9Cert_Info11is_verifiedEj@Base 1.10.10
 _ZNK5Botan10X509_Store9Cert_Info13verify_resultEv@Base 1.10.10
 _ZNK5Botan10X509_Store9check_sigERKNS0_9Cert_InfoES3_@Base 1.10.10
 _ZNK5Botan10X509_Store9find_certERKNS_7X509_DNERKNS_12MemoryRegionIhEE@Base 1.10.10
 _ZNK5Botan11ASN1_String11encode_intoERNS_11DER_EncoderE@Base 1.10.10
 _ZNK5Botan11ASN1_String5valueB5cxx11Ev@Base 1.10.10
 _ZNK5Botan11ASN1_String7taggingEv@Base 1.10.10
 _ZNK5Botan11ASN1_String8iso_8859B5cxx11Ev@Base 1.10.10
 _ZNK5Botan11BER_Decoder10more_itemsEv@Base 1.10.10
 _ZNK5Botan11BlockCipher11parallelismEv@Base 1.10.10
 _ZNK5Botan11DER_Encoder12DER_Sequence6tag_ofEv@Base 1.10.10
 _ZNK5Botan11Hash_Filter4nameB5cxx11Ev@Base 1.10.10
 _ZNK5Botan11Hex_Decoder4nameB5cxx11Ev@Base 1.10.10
 _ZNK5Botan11Hex_Encoder4nameB5cxx11Ev@Base 1.10.10
 _ZNK5Botan11Keccak_160013output_lengthEv@Base 1.10.10
 _ZNK5Botan11Keccak_160015hash_block_sizeEv@Base 1.10.10
 _ZNK5Botan11Keccak_16004nameB5cxx11Ev@Base 1.10.10
 _ZNK5Botan11Keccak_16005cloneEv@Base 1.10.10
 _ZNK5Botan11LubyRackoff10block_sizeEv@Base 1.10.10
 _ZNK5Botan11LubyRackoff4nameB5cxx11Ev@Base 1.10.10
 _ZNK5Botan11LubyRackoff5cloneEv@Base 1.10.10
 _ZNK5Botan11LubyRackoff8key_specEv@Base 1.10.10
 _ZNK5Botan11LubyRackoff9decrypt_nEPKhPhm@Base 1.10.12
 _ZNK5Botan11LubyRackoff9encrypt_nEPKhPhm@Base 1.10.12
 _ZNK5Botan11OctetString9as_stringB5cxx11Ev@Base 1.10.10
 _ZNK5Botan11OpenPGP_S2K10derive_keyEmRKNSt7__cxx1112basic_stringIcSt11char_traitsIcESaIcEEEPKhmm@Base 1.10.12
 _ZNK5Botan11OpenPGP_S2K4nameB5cxx11Ev@Base 1.10.10
 _ZNK5Botan11OpenPGP_S2K5cloneEv@Base 1.10.10
 _ZNK5Botan11Private_Key10load_checkERNS_21RandomNumberGeneratorE@Base 1.10.10
 _ZNK5Botan11Private_Key26pkcs8_algorithm_identifierEv@Base 1.10.10
 _ZNK5Botan11Private_Key9gen_checkERNS_21RandomNumberGeneratorE@Base 1.10.10
 _ZNK5Botan11SecureQueue11end_of_dataEv@Base 1.10.10
 _ZNK5Botan11SecureQueue4nameB5cxx11Ev@Base 1.10.10
 _ZNK5Botan11SecureQueue4peekEPhmm@Base 1.10.12
 _ZNK5Botan11SecureQueue4sizeEv@Base 1.10.10
 _ZNK5Botan11SessionKeys13master_secretEv@Base 1.10.10
 _ZNK5Botan11SessionKeys14client_mac_keyEv@Base 1.10.10
 _ZNK5Botan11SessionKeys14server_mac_keyEv@Base 1.10.10
 _ZNK5Botan11SessionKeys17client_cipher_keyEv@Base 1.10.10
 _ZNK5Botan11SessionKeys17server_cipher_keyEv@Base 1.10.10
 _ZNK5Botan11SessionKeys9client_ivEv@Base 1.10.10
 _ZNK5Botan11SessionKeys9server_ivEv@Base 1.10.10
 _ZNK5Botan11X509_Object10BER_encodeEv@Base 1.10.10
 _ZNK5Botan11X509_Object10PEM_encodeB5cxx11Ev@Base 1.10.10
 _ZNK5Botan11X509_Object15check_signatureEPNS_10Public_KeyE@Base 1.10.10
 _ZNK5Botan11X509_Object15check_signatureERNS_10Public_KeyE@Base 1.10.10
 _ZNK5Botan11X509_Object19signature_algorithmEv@Base 1.10.10
 _ZNK5Botan11X509_Object23hash_used_for_signatureB5cxx11Ev@Base 1.10.10
 _ZNK5Botan11X509_Object6encodeERNS_4PipeENS_13X509_EncodingE@Base 1.10.10
 _ZNK5Botan11X509_Object8tbs_dataEv@Base 1.10.10
 _ZNK5Botan11X509_Object9signatureEv@Base 1.10.10
 _ZNK5Botan12Camellia_1284nameB5cxx11Ev@Base 1.10.10
 _ZNK5Botan12Camellia_1285cloneEv@Base 1.10.10
 _ZNK5Botan12Camellia_1289decrypt_nEPKhPhm@Base 1.10.12
 _ZNK5Botan12Camellia_1289encrypt_nEPKhPhm@Base 1.10.12
 _ZNK5Botan12Camellia_1924nameB5cxx11Ev@Base 1.10.10
 _ZNK5Botan12Camellia_1925cloneEv@Base 1.10.10
 _ZNK5Botan12Camellia_1929decrypt_nEPKhPhm@Base 1.10.12
 _ZNK5Botan12Camellia_1929encrypt_nEPKhPhm@Base 1.10.12
 _ZNK5Botan12Camellia_2564nameB5cxx11Ev@Base 1.10.10
 _ZNK5Botan12Camellia_2565cloneEv@Base 1.10.10
 _ZNK5Botan12Camellia_2569decrypt_nEPKhPhm@Base 1.10.12
 _ZNK5Botan12Camellia_2569encrypt_nEPKhPhm@Base 1.10.12
 _ZNK5Botan12DH_PublicKey12group_formatEv@Base 1.10.10
 _ZNK5Botan12DH_PublicKey12public_valueEv@Base 1.10.10
 _ZNK5Botan12DH_PublicKey14max_input_bitsEv@Base 1.10.10
 _ZNK5Botan12DH_PublicKey9algo_nameB5cxx11Ev@Base 1.10.10
 _ZNK5Botan12EC_PublicKey20algorithm_identifierEv@Base 1.10.10
 _ZNK5Botan12EC_PublicKey23x509_subject_public_keyEv@Base 1.10.10
 _ZNK5Botan12EC_PublicKey9check_keyERNS_21RandomNumberGeneratorEb@Base 1.10.10
 _ZNK5Botan12EME_PKCS1v1518maximum_input_sizeEm@Base 1.10.12
 _ZNK5Botan12EME_PKCS1v153padEPKhmmRNS_21RandomNumberGeneratorE@Base 1.10.12
 _ZNK5Botan12EME_PKCS1v155unpadEPKhmm@Base 1.10.12
 _ZNK5Botan12HashFunction15hash_block_sizeEv@Base 1.10.10
 _ZNK5Botan12Keyed_Filter15valid_iv_lengthEm@Base 1.10.12
 _ZNK5Botan12NR_PublicKey12group_formatEv@Base 1.10.10
 _ZNK5Botan12NR_PublicKey13message_partsEv@Base 1.10.10
 _ZNK5Botan12NR_PublicKey14max_input_bitsEv@Base 1.10.10
 _ZNK5Botan12NR_PublicKey17message_part_sizeEv@Base 1.10.10
 _ZNK5Botan12NR_PublicKey9algo_nameB5cxx11Ev@Base 1.10.10
 _ZNK5Botan12Noekeon_SIMD11parallelismEv@Base 1.10.10
 _ZNK5Botan12Noekeon_SIMD5cloneEv@Base 1.10.10
 _ZNK5Botan12Noekeon_SIMD9decrypt_nEPKhPhm@Base 1.10.12
 _ZNK5Botan12Noekeon_SIMD9encrypt_nEPKhPhm@Base 1.10.12
 _ZNK5Botan12Null_Padding15valid_blocksizeEm@Base 1.10.12
 _ZNK5Botan12Null_Padding3padEPhmm@Base 1.10.12
 _ZNK5Botan12Null_Padding4nameB5cxx11Ev@Base 1.10.10
 _ZNK5Botan12Null_Padding5unpadEPKhm@Base 1.10.12
 _ZNK5Botan12Null_Padding9pad_bytesEmm@Base 1.10.12
 _ZNK5Botan12PBE_PKCS5v1513encode_paramsEv@Base 1.10.10
 _ZNK5Botan12PBE_PKCS5v154nameB5cxx11Ev@Base 1.10.10
 _ZNK5Botan12PBE_PKCS5v157get_oidEv@Base 1.10.10
 _ZNK5Botan12PBE_PKCS5v2013encode_paramsEv@Base 1.10.10
 _ZNK5Botan12PBE_PKCS5v204nameB5cxx11Ev@Base 1.10.10
 _ZNK5Botan12PBE_PKCS5v207get_oidEv@Base 1.10.10
 _ZNK5Botan12PKCS5_PBKDF110derive_keyEmRKNSt7__cxx1112basic_stringIcSt11char_traitsIcESaIcEEEPKhmm@Base 1.10.12
 _ZNK5Botan12PKCS5_PBKDF14nameB5cxx11Ev@Base 1.10.10
 _ZNK5Botan12PKCS5_PBKDF15cloneEv@Base 1.10.10
 _ZNK5Botan12PKCS5_PBKDF210derive_keyEmRKNSt7__cxx1112basic_stringIcSt11char_traitsIcESaIcEEEPKhmm@Base 1.10.12
 _ZNK5Botan12PKCS5_PBKDF24nameB5cxx11Ev@Base 1.10.10
 _ZNK5Botan12PKCS5_PBKDF25cloneEv@Base 1.10.10
 _ZNK5Botan12RW_PublicKey9algo_nameB5cxx11Ev@Base 1.10.10
 _ZNK5Botan12SHA_160_SSE25cloneEv@Base 1.10.10
 _ZNK5Botan12Serpent_SIMD11parallelismEv@Base 1.10.10
 _ZNK5Botan12Serpent_SIMD5cloneEv@Base 1.10.10
 _ZNK5Botan12Serpent_SIMD9decrypt_nEPKhPhm@Base 1.10.12
 _ZNK5Botan12Serpent_SIMD9encrypt_nEPKhPhm@Base 1.10.12
 _ZNK5Botan12StreamCipher15valid_iv_lengthEm@Base 1.10.12
 _ZNK5Botan13ANSI_X919_MAC13output_lengthEv@Base 1.10.10
 _ZNK5Botan13ANSI_X919_MAC4nameB5cxx11Ev@Base 1.10.10
 _ZNK5Botan13ANSI_X919_MAC5cloneEv@Base 1.10.10
 _ZNK5Botan13ANSI_X919_MAC8key_specEv@Base 1.10.10
 _ZNK5Botan13ANSI_X931_RNG4nameB5cxx11Ev@Base 1.10.10
 _ZNK5Botan13ANSI_X931_RNG9is_seededEv@Base 1.10.10
 _ZNK5Botan13DH_PrivateKey12public_valueEv@Base 1.10.10
 _ZNK5Botan13DSA_PublicKey12group_formatEv@Base 1.10.10
 _ZNK5Botan13DSA_PublicKey13message_partsEv@Base 1.10.10
 _ZNK5Botan13DSA_PublicKey14max_input_bitsEv@Base 1.10.10
 _ZNK5Botan13DSA_PublicKey17message_part_sizeEv@Base 1.10.10
 _ZNK5Botan13DSA_PublicKey9algo_nameB5cxx11Ev@Base 1.10.10
 _ZNK5Botan13EC_PrivateKey13private_valueEv@Base 1.10.10
 _ZNK5Botan13EC_PrivateKey17pkcs8_private_keyEv@Base 1.10.10
 _ZNK5Botan13GOST_28147_894nameB5cxx11Ev@Base 1.10.10
 _ZNK5Botan13GOST_28147_895cloneEv@Base 1.10.10
 _ZNK5Botan13GOST_28147_899decrypt_nEPKhPhm@Base 1.10.12
 _ZNK5Botan13GOST_28147_899encrypt_nEPKhPhm@Base 1.10.12
 _ZNK5Botan13Library_State11deref_aliasERKNSt7__cxx1112basic_stringIcSt11char_traitsIcESaIcEEE@Base 1.10.10
 _ZNK5Botan13Library_State13get_allocatorERKNSt7__cxx1112basic_stringIcSt11char_traitsIcESaIcEEE@Base 1.10.10
 _ZNK5Botan13Library_State17algorithm_factoryEv@Base 1.10.10
 _ZNK5Botan13Library_State3getERKNSt7__cxx1112basic_stringIcSt11char_traitsIcESaIcEEES8_@Base 1.10.10
 _ZNK5Botan13Library_State6is_setERKNSt7__cxx1112basic_stringIcSt11char_traitsIcESaIcEEES8_@Base 1.10.10
 _ZNK5Botan13Library_State9get_mutexEv@Base 1.10.10
 _ZNK5Botan13NR_PrivateKey9check_keyERNS_21RandomNumberGeneratorEb@Base 1.10.10
 _ZNK5Botan13PKCS7_Padding15valid_blocksizeEm@Base 1.10.12
 _ZNK5Botan13PKCS7_Padding3padEPhmm@Base 1.10.12
 _ZNK5Botan13PKCS7_Padding4nameB5cxx11Ev@Base 1.10.10
 _ZNK5Botan13PKCS7_Padding5unpadEPKhm@Base 1.10.12
 _ZNK5Botan13RSA_PublicKey9algo_nameB5cxx11Ev@Base 1.10.10
 _ZNK5Botan13RW_PrivateKey9check_keyERNS_21RandomNumberGeneratorEb@Base 1.10.10
 _ZNK5Botan14AutoSeeded_RNG4nameB5cxx11Ev@Base 1.10.10
 _ZNK5Botan14AutoSeeded_RNG9is_seededEv@Base 1.10.10
 _ZNK5Botan14Base64_Decoder4nameB5cxx11Ev@Base 1.10.10
 _ZNK5Botan14Base64_Encoder4nameB5cxx11Ev@Base 1.10.10
 _ZNK5Botan14CBC_Decryption15valid_iv_lengthEm@Base 1.10.12
 _ZNK5Botan14CBC_Decryption15valid_keylengthEm@Base 1.10.12
 _ZNK5Botan14CBC_Decryption4nameB5cxx11Ev@Base 1.10.10
 _ZNK5Botan14CBC_Encryption15valid_iv_lengthEm@Base 1.10.12
 _ZNK5Botan14CBC_Encryption15valid_keylengthEm@Base 1.10.12
 _ZNK5Botan14CBC_Encryption4nameB5cxx11Ev@Base 1.10.10
 _ZNK5Botan14CFB_Decryption15valid_iv_lengthEm@Base 1.10.12
 _ZNK5Botan14CFB_Decryption15valid_keylengthEm@Base 1.10.12
 _ZNK5Botan14CFB_Decryption4nameB5cxx11Ev@Base 1.10.10
 _ZNK5Botan14CFB_Encryption15valid_iv_lengthEm@Base 1.10.12
 _ZNK5Botan14CFB_Encryption15valid_keylengthEm@Base 1.10.12
 _ZNK5Botan14CFB_Encryption4nameB5cxx11Ev@Base 1.10.10
 _ZNK5Botan14CTS_Decryption15valid_iv_lengthEm@Base 1.10.12
 _ZNK5Botan14CTS_Decryption15valid_keylengthEm@Base 1.10.12
 _ZNK5Botan14CTS_Decryption4nameB5cxx11Ev@Base 1.10.10
 _ZNK5Botan14CTS_Encryption15valid_iv_lengthEm@Base 1.10.12
 _ZNK5Botan14CTS_Encryption15valid_keylengthEm@Base 1.10.12
 _ZNK5Botan14CTS_Encryption4nameB5cxx11Ev@Base 1.10.10
 _ZNK5Botan14Cascade_Cipher10block_sizeEv@Base 1.10.10
 _ZNK5Botan14Cascade_Cipher4nameB5cxx11Ev@Base 1.10.10
 _ZNK5Botan14Cascade_Cipher5cloneEv@Base 1.10.10
 _ZNK5Botan14Cascade_Cipher8key_specEv@Base 1.10.10
 _ZNK5Botan14Cascade_Cipher9decrypt_nEPKhPhm@Base 1.10.12
 _ZNK5Botan14Cascade_Cipher9encrypt_nEPKhPhm@Base 1.10.12
 _ZNK5Botan14Cert_Extension10CRL_Number11contents_toERNS_10Data_StoreES3_@Base 1.10.10
 _ZNK5Botan14Cert_Extension10CRL_Number12encode_innerEv@Base 1.10.10
 _ZNK5Botan14Cert_Extension10CRL_Number13should_encodeEv@Base 1.10.10
 _ZNK5Botan14Cert_Extension10CRL_Number14get_crl_numberEv@Base 1.10.10
 _ZNK5Botan14Cert_Extension10CRL_Number4copyEv@Base 1.10.10
 _ZNK5Botan14Cert_Extension10CRL_Number8oid_nameB5cxx11Ev@Base 1.10.10
 _ZNK5Botan14Cert_Extension10CRL_Number9config_idB5cxx11Ev@Base 1.10.10
 _ZNK5Botan14Cert_Extension14CRL_ReasonCode11contents_toERNS_10Data_StoreES3_@Base 1.10.10
 _ZNK5Botan14Cert_Extension14CRL_ReasonCode12encode_innerEv@Base 1.10.10
 _ZNK5Botan14Cert_Extension14CRL_ReasonCode13should_encodeEv@Base 1.10.10
 _ZNK5Botan14Cert_Extension14CRL_ReasonCode4copyEv@Base 1.10.10
 _ZNK5Botan14Cert_Extension14CRL_ReasonCode8oid_nameB5cxx11Ev@Base 1.10.10
 _ZNK5Botan14Cert_Extension14CRL_ReasonCode9config_idB5cxx11Ev@Base 1.10.10
 _ZNK5Botan14Cert_Extension14Subject_Key_ID11contents_toERNS_10Data_StoreES3_@Base 1.10.10
 _ZNK5Botan14Cert_Extension14Subject_Key_ID12encode_innerEv@Base 1.10.10
 _ZNK5Botan14Cert_Extension14Subject_Key_ID13should_encodeEv@Base 1.10.10
 _ZNK5Botan14Cert_Extension14Subject_Key_ID4copyEv@Base 1.10.10
 _ZNK5Botan14Cert_Extension14Subject_Key_ID8oid_nameB5cxx11Ev@Base 1.10.10
 _ZNK5Botan14Cert_Extension14Subject_Key_ID9config_idB5cxx11Ev@Base 1.10.10
 _ZNK5Botan14Cert_Extension16Alternative_Name11contents_toERNS_10Data_StoreES3_@Base 1.10.10
 _ZNK5Botan14Cert_Extension16Alternative_Name12encode_innerEv@Base 1.10.10
 _ZNK5Botan14Cert_Extension16Alternative_Name13should_encodeEv@Base 1.10.10
 _ZNK5Botan14Cert_Extension16Alternative_Name8oid_nameB5cxx11Ev@Base 1.10.10
 _ZNK5Botan14Cert_Extension16Alternative_Name9config_idB5cxx11Ev@Base 1.10.10
 _ZNK5Botan14Cert_Extension16Authority_Key_ID11contents_toERNS_10Data_StoreES3_@Base 1.10.10
 _ZNK5Botan14Cert_Extension16Authority_Key_ID12encode_innerEv@Base 1.10.10
 _ZNK5Botan14Cert_Extension16Authority_Key_ID13should_encodeEv@Base 1.10.10
 _ZNK5Botan14Cert_Extension16Authority_Key_ID4copyEv@Base 1.10.10
 _ZNK5Botan14Cert_Extension16Authority_Key_ID8oid_nameB5cxx11Ev@Base 1.10.10
 _ZNK5Botan14Cert_Extension16Authority_Key_ID9config_idB5cxx11Ev@Base 1.10.10
 _ZNK5Botan14Cert_Extension17Basic_Constraints11contents_toERNS_10Data_StoreES3_@Base 1.10.10
 _ZNK5Botan14Cert_Extension17Basic_Constraints12encode_innerEv@Base 1.10.10
 _ZNK5Botan14Cert_Extension17Basic_Constraints14get_path_limitEv@Base 1.10.10
 _ZNK5Botan14Cert_Extension17Basic_Constraints4copyEv@Base 1.10.10
 _ZNK5Botan14Cert_Extension17Basic_Constraints8oid_nameB5cxx11Ev@Base 1.10.10
 _ZNK5Botan14Cert_Extension17Basic_Constraints9config_idB5cxx11Ev@Base 1.10.10
 _ZNK5Botan14Cert_Extension18Extended_Key_Usage11contents_toERNS_10Data_StoreES3_@Base 1.10.10
 _ZNK5Botan14Cert_Extension18Extended_Key_Usage12encode_innerEv@Base 1.10.10
 _ZNK5Botan14Cert_Extension18Extended_Key_Usage13should_encodeEv@Base 1.10.10
 _ZNK5Botan14Cert_Extension18Extended_Key_Usage4copyEv@Base 1.10.10
 _ZNK5Botan14Cert_Extension18Extended_Key_Usage8oid_nameB5cxx11Ev@Base 1.10.10
 _ZNK5Botan14Cert_Extension18Extended_Key_Usage9config_idB5cxx11Ev@Base 1.10.10
 _ZNK5Botan14Cert_Extension20Certificate_Policies11contents_toERNS_10Data_StoreES3_@Base 1.10.10
 _ZNK5Botan14Cert_Extension20Certificate_Policies12encode_innerEv@Base 1.10.10
 _ZNK5Botan14Cert_Extension20Certificate_Policies13should_encodeEv@Base 1.10.10
 _ZNK5Botan14Cert_Extension20Certificate_Policies4copyEv@Base 1.10.10
 _ZNK5Botan14Cert_Extension20Certificate_Policies8oid_nameB5cxx11Ev@Base 1.10.10
 _ZNK5Botan14Cert_Extension20Certificate_Policies9config_idB5cxx11Ev@Base 1.10.10
 _ZNK5Botan14Cert_Extension23Issuer_Alternative_Name4copyEv@Base 1.10.10
 _ZNK5Botan14Cert_Extension24Subject_Alternative_Name4copyEv@Base 1.10.10
 _ZNK5Botan14Cert_Extension9Key_Usage11contents_toERNS_10Data_StoreES3_@Base 1.10.10
 _ZNK5Botan14Cert_Extension9Key_Usage12encode_innerEv@Base 1.10.10
 _ZNK5Botan14Cert_Extension9Key_Usage13should_encodeEv@Base 1.10.10
 _ZNK5Botan14Cert_Extension9Key_Usage4copyEv@Base 1.10.10
 _ZNK5Botan14Cert_Extension9Key_Usage8oid_nameB5cxx11Ev@Base 1.10.10
 _ZNK5Botan14Cert_Extension9Key_Usage9config_idB5cxx11Ev@Base 1.10.10
 _ZNK5Botan14DSA_PrivateKey9check_keyERNS_21RandomNumberGeneratorEb@Base 1.10.10
 _ZNK5Botan14ECB_Decryption15valid_keylengthEm@Base 1.10.12
 _ZNK5Botan14ECB_Decryption4nameB5cxx11Ev@Base 1.10.10
 _ZNK5Botan14ECB_Encryption15valid_keylengthEm@Base 1.10.12
 _ZNK5Botan14ECB_Encryption4nameB5cxx11Ev@Base 1.10.10
 _ZNK5Botan14ECDH_PublicKey14max_input_bitsEv@Base 1.10.10
 _ZNK5Botan14ECDH_PublicKey9algo_nameB5cxx11Ev@Base 1.10.10
 _ZNK5Botan14PKCS10_Request10path_limitEv@Base 1.10.10
 _ZNK5Botan14PKCS10_Request10subject_dnEv@Base 1.10.10
 _ZNK5Botan14PKCS10_Request11constraintsEv@Base 1.10.10
 _ZNK5Botan14PKCS10_Request14ex_constraintsEv@Base 1.10.10
 _ZNK5Botan14PKCS10_Request14raw_public_keyEv@Base 1.10.10
 _ZNK5Botan14PKCS10_Request16subject_alt_nameEv@Base 1.10.10
 _ZNK5Botan14PKCS10_Request18challenge_passwordB5cxx11Ev@Base 1.10.10
 _ZNK5Botan14PKCS10_Request18subject_public_keyEv@Base 1.10.10
 _ZNK5Botan14PKCS10_Request5is_CAEv@Base 1.10.10
 _ZNK5Botan14RSA_PrivateKey9check_keyERNS_21RandomNumberGeneratorEb@Base 1.10.10
 _ZNK5Botan14SHA_160_X86_645cloneEv@Base 1.10.10
 _ZNK5Botan14User_Interface14get_passphraseERKNSt7__cxx1112basic_stringIcSt11char_traitsIcESaIcEEES8_RNS0_9UI_ResultE@Base 1.10.10
 _ZNK5Botan14XTS_Decryption15valid_iv_lengthEm@Base 1.10.12
 _ZNK5Botan14XTS_Decryption15valid_keylengthEm@Base 1.10.12
 _ZNK5Botan14XTS_Decryption4nameB5cxx11Ev@Base 1.10.10
 _ZNK5Botan14XTS_Encryption15valid_iv_lengthEm@Base 1.10.12
 _ZNK5Botan14XTS_Encryption15valid_keylengthEm@Base 1.10.12
 _ZNK5Botan14XTS_Encryption4nameB5cxx11Ev@Base 1.10.10
 _ZNK5Botan15AlternativeName11encode_intoERNS_11DER_EncoderE@Base 1.10.10
 _ZNK5Botan15AlternativeName14get_attributesB5cxx11Ev@Base 1.10.10
 _ZNK5Botan15AlternativeName14get_othernamesEv@Base 1.10.10
 _ZNK5Botan15AlternativeName8contentsB5cxx11Ev@Base 1.10.10
 _ZNK5Botan15AlternativeName9has_itemsEv@Base 1.10.10
 _ZNK5Botan15DLIES_Decryptor3decEPKhm@Base 1.10.12
 _ZNK5Botan15DLIES_Encryptor18maximum_input_sizeEv@Base 1.10.10
 _ZNK5Botan15DLIES_Encryptor3encEPKhmRNS_21RandomNumberGeneratorE@Base 1.10.12
 _ZNK5Botan15DataSink_Stream4nameB5cxx11Ev@Base 1.10.10
 _ZNK5Botan15ECDH_PrivateKey12public_valueEv@Base 1.10.10
 _ZNK5Botan15ECDSA_PublicKey13message_partsEv@Base 1.10.10
 _ZNK5Botan15ECDSA_PublicKey14max_input_bitsEv@Base 1.10.10
 _ZNK5Botan15ECDSA_PublicKey17message_part_sizeEv@Base 1.10.10
 _ZNK5Botan15ECDSA_PublicKey9algo_nameB5cxx11Ev@Base 1.10.10
 _ZNK5Botan15Modular_Reducer6reduceERKNS_6BigIntE@Base 1.10.10
 _ZNK5Botan15WiderWake_41_BE15valid_iv_lengthEm@Base 1.10.12
 _ZNK5Botan15WiderWake_41_BE4nameB5cxx11Ev@Base 1.10.10
 _ZNK5Botan15WiderWake_41_BE5cloneEv@Base 1.10.10
 _ZNK5Botan15WiderWake_41_BE8key_specEv@Base 1.10.10
 _ZNK5Botan16Bzip_Compression4nameB5cxx11Ev@Base 1.10.10
 _ZNK5Botan16ECDSA_PrivateKey9check_keyERNS_21RandomNumberGeneratorEb@Base 1.10.10
 _ZNK5Botan16MDx_HashFunction15hash_block_sizeEv@Base 1.10.10
 _ZNK5Botan16PK_Decryptor_EME3decEPKhm@Base 1.10.12
 _ZNK5Botan16PK_Encryptor_EME18maximum_input_sizeEv@Base 1.10.10
 _ZNK5Botan16PK_Encryptor_EME3encEPKhmRNS_21RandomNumberGeneratorE@Base 1.10.12
 _ZNK5Botan16PK_Key_Agreement10derive_keyEmPKhmS2_m@Base 1.10.12
 _ZNK5Botan16PK_Signer_Filter4nameB5cxx11Ev@Base 1.10.10
 _ZNK5Botan16X509_Certificate10is_CA_certEv@Base 1.10.10
 _ZNK5Botan16X509_Certificate10path_limitEv@Base 1.10.10
 _ZNK5Botan16X509_Certificate10start_timeB5cxx11Ev@Base 1.10.10
 _ZNK5Botan16X509_Certificate10subject_dnEv@Base 1.10.10
 _ZNK5Botan16X509_Certificate11constraintsEv@Base 1.10.10
 _ZNK5Botan16X509_Certificate11issuer_infoERKNSt7__cxx1112basic_stringIcSt11char_traitsIcESaIcEEE@Base 1.10.10
 _ZNK5Botan16X509_Certificate12subject_infoERKNSt7__cxx1112basic_stringIcSt11char_traitsIcESaIcEEE@Base 1.10.10
 _ZNK5Botan16X509_Certificate12x509_versionEv@Base 1.10.10
 _ZNK5Botan16X509_Certificate13serial_numberEv@Base 1.10.10
 _ZNK5Botan16X509_Certificate14ex_constraintsB5cxx11Ev@Base 1.10.10
 _ZNK5Botan16X509_Certificate14subject_key_idEv@Base 1.10.10
 _ZNK5Botan16X509_Certificate16authority_key_idEv@Base 1.10.10
 _ZNK5Botan16X509_Certificate18subject_public_keyEv@Base 1.10.10
 _ZNK5Botan16X509_Certificate8end_timeB5cxx11Ev@Base 1.10.10
 _ZNK5Botan16X509_Certificate8policiesB5cxx11Ev@Base 1.10.10
 _ZNK5Botan16X509_Certificate9issuer_dnEv@Base 1.10.10
 _ZNK5Botan16X509_Certificate9to_stringB5cxx11Ev@Base 1.10.10
 _ZNK5Botan16X509_CertificateeqERKS0_@Base 1.10.10
 _ZNK5Botan16Zlib_Compression4nameB5cxx11Ev@Base 1.10.10
 _ZNK5Botan17ANSI_X923_Padding15valid_blocksizeEm@Base 1.10.12
 _ZNK5Botan17ANSI_X923_Padding3padEPhmm@Base 1.10.12
 _ZNK5Botan17ANSI_X923_Padding4nameB5cxx11Ev@Base 1.10.10
 _ZNK5Botan17ANSI_X923_Padding5unpadEPKhm@Base 1.10.12
 _ZNK5Botan17Algorithm_Factory12get_engine_nEm@Base 1.10.12
 _ZNK5Botan17DataSource_Memory11end_of_dataEv@Base 1.10.10
 _ZNK5Botan17DataSource_Memory4peekEPhmm@Base 1.10.12
 _ZNK5Botan17DataSource_Stream11end_of_dataEv@Base 1.10.10
 _ZNK5Botan17DataSource_Stream2idB5cxx11Ev@Base 1.10.10
 _ZNK5Botan17DataSource_Stream4peekEPhmm@Base 1.10.12
 _ZNK5Botan17ElGamal_PublicKey12group_formatEv@Base 1.10.10
 _ZNK5Botan17ElGamal_PublicKey14max_input_bitsEv@Base 1.10.10
 _ZNK5Botan17ElGamal_PublicKey9algo_nameB5cxx11Ev@Base 1.10.10
 _ZNK5Botan17Memory_Exhaustion4whatEv@Base 1.10.10
 _ZNK5Botan17X509_Cert_Options12sanity_checkEv@Base 1.10.10
 _ZNK5Botan18Bzip_Decompression4nameB5cxx11Ev@Base 1.10.10
 _ZNK5Botan18ElGamal_PrivateKey9check_keyERNS_21RandomNumberGeneratorEb@Base 1.10.10
 _ZNK5Botan18PK_Verifier_Filter4nameB5cxx11Ev@Base 1.10.10
 _ZNK5Botan18Zlib_Decompression4nameB5cxx11Ev@Base 1.10.10
 _ZNK5Botan19AlgorithmIdentifier11encode_intoERNS_11DER_EncoderE@Base 1.10.10
 _ZNK5Botan19DL_Scheme_PublicKey20algorithm_identifierEv@Base 1.10.10
 _ZNK5Botan19DL_Scheme_PublicKey23x509_subject_public_keyEv@Base 1.10.10
 _ZNK5Botan19DL_Scheme_PublicKey9check_keyERNS_21RandomNumberGeneratorEb@Base 1.10.10
 _ZNK5Botan19GOST_3410_PublicKey13message_partsEv@Base 1.10.10
 _ZNK5Botan19GOST_3410_PublicKey14max_input_bitsEv@Base 1.10.10
 _ZNK5Botan19GOST_3410_PublicKey17message_part_sizeEv@Base 1.10.10
 _ZNK5Botan19GOST_3410_PublicKey20algorithm_identifierEv@Base 1.10.10
 _ZNK5Botan19GOST_3410_PublicKey23x509_subject_public_keyEv@Base 1.10.10
 _ZNK5Botan19GOST_3410_PublicKey9algo_nameB5cxx11Ev@Base 1.10.10
 _ZNK5Botan19IF_Scheme_PublicKey14max_input_bitsEv@Base 1.10.10
 _ZNK5Botan19IF_Scheme_PublicKey20algorithm_identifierEv@Base 1.10.10
 _ZNK5Botan19IF_Scheme_PublicKey23x509_subject_public_keyEv@Base 1.10.10
 _ZNK5Botan19IF_Scheme_PublicKey9check_keyERNS_21RandomNumberGeneratorEb@Base 1.10.10
 _ZNK5Botan19OneAndZeros_Padding15valid_blocksizeEm@Base 1.10.12
 _ZNK5Botan19OneAndZeros_Padding3padEPhmm@Base 1.10.12
 _ZNK5Botan19OneAndZeros_Padding4nameB5cxx11Ev@Base 1.10.10
 _ZNK5Botan19OneAndZeros_Padding5unpadEPKhm@Base 1.10.12
 _ZNK5Botan19PK_Decryptor_Filter4nameB5cxx11Ev@Base 1.10.10
 _ZNK5Botan19PK_Encryptor_Filter4nameB5cxx11Ev@Base 1.10.10
 _ZNK5Botan19StreamCipher_Filter15valid_iv_lengthEm@Base 1.10.12
 _ZNK5Botan19StreamCipher_Filter15valid_keylengthEm@Base 1.10.12
 _ZNK5Botan19StreamCipher_Filter4nameB5cxx11Ev@Base 1.10.10
 _ZNK5Botan20DL_Scheme_PrivateKey17pkcs8_private_keyEv@Base 1.10.10
 _ZNK5Botan20DL_Scheme_PrivateKey9check_keyERNS_21RandomNumberGeneratorEb@Base 1.10.10
 _ZNK5Botan20GOST_28147_89_Params10sbox_entryEmm@Base 1.10.12
 _ZNK5Botan20GOST_3410_PrivateKey26pkcs8_algorithm_identifierEv@Base 1.10.10
 _ZNK5Botan20IF_Scheme_PrivateKey17pkcs8_private_keyEv@Base 1.10.10
 _ZNK5Botan20IF_Scheme_PrivateKey9check_keyERNS_21RandomNumberGeneratorEb@Base 1.10.10
 _ZNK5Botan20RSA_Public_Operation13with_recoveryEv@Base 1.10.10
 _ZNK5Botan20RSA_Public_Operation14max_input_bitsEv@Base 1.10.10
 _ZNK5Botan21Certificate_Extension13should_encodeEv@Base 1.10.10
 _ZNK5Botan21Certificate_Extension6oid_ofEv@Base 1.10.10
 _ZNK5Botan21RSA_Private_Operation10private_opERKNS_6BigIntE@Base 1.10.10
 _ZNK5Botan21RSA_Private_Operation14max_input_bitsEv@Base 1.10.10
 _ZNK5Botan21RandomNumberGenerator9is_seededEv@Base 1.10.10
 _ZNK5Botan22NR_Signature_Operation13message_partsEv@Base 1.10.10
 _ZNK5Botan22NR_Signature_Operation14max_input_bitsEv@Base 1.10.10
 _ZNK5Botan22NR_Signature_Operation17message_part_sizeEv@Base 1.10.10
 _ZNK5Botan22RW_Signature_Operation14max_input_bitsEv@Base 1.10.10
 _ZNK5Botan23DSA_Signature_Operation13message_partsEv@Base 1.10.10
 _ZNK5Botan23DSA_Signature_Operation14max_input_bitsEv@Base 1.10.10
 _ZNK5Botan23DSA_Signature_Operation17message_part_sizeEv@Base 1.10.10
 _ZNK5Botan24Certificate_Store_Memory30find_crl_by_subject_and_key_idERKNS_7X509_DNERKNS_12MemoryRegionIhEE@Base 1.10.10
 _ZNK5Botan24Certificate_Store_Memory31find_cert_by_subject_and_key_idERKNS_7X509_DNERKNS_12MemoryRegionIhEE@Base 1.10.10
 _ZNK5Botan24Certificate_Store_Memory5cloneEv@Base 1.10.10
 _ZNK5Botan25Dynamically_Loaded_Engine10find_pbkdfERKNS_9SCAN_NameERNS_17Algorithm_FactoryE@Base 1.10.10
 _ZNK5Botan25Dynamically_Loaded_Engine13get_verify_opERKNS_10Public_KeyE@Base 1.10.10
 _ZNK5Botan25Dynamically_Loaded_Engine13provider_nameB5cxx11Ev@Base 1.10.10
 _ZNK5Botan25Dynamically_Loaded_Engine16get_signature_opERKNS_11Private_KeyE@Base 1.10.10
 _ZNK5Botan25Dynamically_Loaded_Engine17find_block_cipherERKNS_9SCAN_NameERNS_17Algorithm_FactoryE@Base 1.10.10
 _ZNK5Botan25Dynamically_Loaded_Engine17get_decryption_opERKNS_11Private_KeyE@Base 1.10.10
 _ZNK5Botan25Dynamically_Loaded_Engine17get_encryption_opERKNS_10Public_KeyE@Base 1.10.10
 _ZNK5Botan25Dynamically_Loaded_Engine18find_stream_cipherERKNS_9SCAN_NameERNS_17Algorithm_FactoryE@Base 1.10.10
 _ZNK5Botan25Dynamically_Loaded_Engine20get_key_agreement_opERKNS_11Private_KeyE@Base 1.10.10
 _ZNK5Botan25Dynamically_Loaded_Engine7mod_expERKNS_6BigIntENS_9Power_Mod11Usage_HintsE@Base 1.10.10
 _ZNK5Botan25Dynamically_Loaded_Engine8find_macERKNS_9SCAN_NameERNS_17Algorithm_FactoryE@Base 1.10.10
 _ZNK5Botan25Dynamically_Loaded_Engine9find_hashERKNS_9SCAN_NameERNS_17Algorithm_FactoryE@Base 1.10.10
 _ZNK5Botan25ECDSA_Signature_Operation13message_partsEv@Base 1.10.10
 _ZNK5Botan25ECDSA_Signature_Operation14max_input_bitsEv@Base 1.10.10
 _ZNK5Botan25ECDSA_Signature_Operation17message_part_sizeEv@Base 1.10.10
 _ZNK5Botan25NR_Verification_Operation13message_partsEv@Base 1.10.10
 _ZNK5Botan25NR_Verification_Operation13with_recoveryEv@Base 1.10.10
 _ZNK5Botan25NR_Verification_Operation14max_input_bitsEv@Base 1.10.10
 _ZNK5Botan25NR_Verification_Operation17message_part_sizeEv@Base 1.10.10
 _ZNK5Botan25RW_Verification_Operation13with_recoveryEv@Base 1.10.10
 _ZNK5Botan25RW_Verification_Operation14max_input_bitsEv@Base 1.10.10
 _ZNK5Botan26DSA_Verification_Operation13message_partsEv@Base 1.10.10
 _ZNK5Botan26DSA_Verification_Operation13with_recoveryEv@Base 1.10.10
 _ZNK5Botan26DSA_Verification_Operation14max_input_bitsEv@Base 1.10.10
 _ZNK5Botan26DSA_Verification_Operation17message_part_sizeEv@Base 1.10.10
 _ZNK5Botan28BlockCipherModePaddingMethod9pad_bytesEmm@Base 1.10.12
 _ZNK5Botan28ECDSA_Verification_Operation13message_partsEv@Base 1.10.10
 _ZNK5Botan28ECDSA_Verification_Operation13with_recoveryEv@Base 1.10.10
 _ZNK5Botan28ECDSA_Verification_Operation14max_input_bitsEv@Base 1.10.10
 _ZNK5Botan28ECDSA_Verification_Operation17message_part_sizeEv@Base 1.10.10
 _ZNK5Botan28ElGamal_Decryption_Operation14max_input_bitsEv@Base 1.10.10
 _ZNK5Botan28ElGamal_Encryption_Operation14max_input_bitsEv@Base 1.10.10
 _ZNK5Botan29GOST_3410_Signature_Operation13message_partsEv@Base 1.10.10
 _ZNK5Botan29GOST_3410_Signature_Operation14max_input_bitsEv@Base 1.10.10
 _ZNK5Botan29GOST_3410_Signature_Operation17message_part_sizeEv@Base 1.10.10
 _ZNK5Botan32GOST_3410_Verification_Operation13message_partsEv@Base 1.10.10
 _ZNK5Botan32GOST_3410_Verification_Operation13with_recoveryEv@Base 1.10.10
 _ZNK5Botan32GOST_3410_Verification_Operation14max_input_bitsEv@Base 1.10.10
 _ZNK5Botan32GOST_3410_Verification_Operation17message_part_sizeEv@Base 1.10.10
 _ZNK5Botan3DES4nameB5cxx11Ev@Base 1.10.10
 _ZNK5Botan3DES5cloneEv@Base 1.10.10
 _ZNK5Botan3DES9decrypt_nEPKhPhm@Base 1.10.12
 _ZNK5Botan3DES9encrypt_nEPKhPhm@Base 1.10.12
 _ZNK5Botan3EME6decodeEPKhmm@Base 1.10.12
 _ZNK5Botan3EME6decodeERKNS_12MemoryRegionIhEEm@Base 1.10.12
 _ZNK5Botan3EME6encodeEPKhmmRNS_21RandomNumberGeneratorE@Base 1.10.12
 _ZNK5Botan3EME6encodeERKNS_12MemoryRegionIhEEmRNS_21RandomNumberGeneratorE@Base 1.10.12
 _ZNK5Botan3KDF10derive_keyEmPKhmRKNSt7__cxx1112basic_stringIcSt11char_traitsIcESaIcEEE@Base 1.10.12
 _ZNK5Botan3KDF10derive_keyEmPKhmS2_m@Base 1.10.12
 _ZNK5Botan3KDF10derive_keyEmRKNS_12MemoryRegionIhEEPKhm@Base 1.10.12
 _ZNK5Botan3KDF10derive_keyEmRKNS_12MemoryRegionIhEERKNSt7__cxx1112basic_stringIcSt11char_traitsIcESaIcEEE@Base 1.10.12
 _ZNK5Botan3KDF10derive_keyEmRKNS_12MemoryRegionIhEES4_@Base 1.10.12
 _ZNK5Botan3MD213output_lengthEv@Base 1.10.10
 _ZNK5Botan3MD215hash_block_sizeEv@Base 1.10.10
 _ZNK5Botan3MD24nameB5cxx11Ev@Base 1.10.10
 _ZNK5Botan3MD25cloneEv@Base 1.10.10
 _ZNK5Botan3MD413output_lengthEv@Base 1.10.10
 _ZNK5Botan3MD44nameB5cxx11Ev@Base 1.10.10
 _ZNK5Botan3MD45cloneEv@Base 1.10.10
 _ZNK5Botan3MD513output_lengthEv@Base 1.10.10
 _ZNK5Botan3MD54nameB5cxx11Ev@Base 1.10.10
 _ZNK5Botan3MD55cloneEv@Base 1.10.10
 _ZNK5Botan3OFB15valid_iv_lengthEm@Base 1.10.12
 _ZNK5Botan3OFB4nameB5cxx11Ev@Base 1.10.10
 _ZNK5Botan3OFB5cloneEv@Base 1.10.10
 _ZNK5Botan3OFB8key_specEv@Base 1.10.10
 _ZNK5Botan3OID11encode_intoERNS_11DER_EncoderE@Base 1.10.10
 _ZNK5Botan3OID9as_stringB5cxx11Ev@Base 1.10.10
 _ZNK5Botan3OIDeqERKS0_@Base 1.10.10
 _ZNK5Botan3RC24nameB5cxx11Ev@Base 1.10.10
 _ZNK5Botan3RC25cloneEv@Base 1.10.10
 _ZNK5Botan3RC29decrypt_nEPKhPhm@Base 1.10.12
 _ZNK5Botan3RC29encrypt_nEPKhPhm@Base 1.10.12
 _ZNK5Botan3RC54nameB5cxx11Ev@Base 1.10.10
 _ZNK5Botan3RC55cloneEv@Base 1.10.10
 _ZNK5Botan3RC59decrypt_nEPKhPhm@Base 1.10.12
 _ZNK5Botan3RC59encrypt_nEPKhPhm@Base 1.10.12
 _ZNK5Botan3RC64nameB5cxx11Ev@Base 1.10.10
 _ZNK5Botan3RC65cloneEv@Base 1.10.10
 _ZNK5Botan3RC69decrypt_nEPKhPhm@Base 1.10.12
 _ZNK5Botan3RC69encrypt_nEPKhPhm@Base 1.10.12
 _ZNK5Botan3TEA4nameB5cxx11Ev@Base 1.10.10
 _ZNK5Botan3TEA5cloneEv@Base 1.10.10
 _ZNK5Botan3TEA9decrypt_nEPKhPhm@Base 1.10.12
 _ZNK5Botan3TEA9encrypt_nEPKhPhm@Base 1.10.12
 _ZNK5Botan4ARC44nameB5cxx11Ev@Base 1.10.10
 _ZNK5Botan4ARC45cloneEv@Base 1.10.10
 _ZNK5Botan4ARC48key_specEv@Base 1.10.10
 _ZNK5Botan4CMAC13output_lengthEv@Base 1.10.10
 _ZNK5Botan4CMAC4nameB5cxx11Ev@Base 1.10.10
 _ZNK5Botan4CMAC5cloneEv@Base 1.10.10
 _ZNK5Botan4CMAC8key_specEv@Base 1.10.10
 _ZNK5Botan4DESX4nameB5cxx11Ev@Base 1.10.10
 _ZNK5Botan4DESX5cloneEv@Base 1.10.10
 _ZNK5Botan4DESX9decrypt_nEPKhPhm@Base 1.10.12
 _ZNK5Botan4DESX9encrypt_nEPKhPhm@Base 1.10.12
 _ZNK5Botan4EME118maximum_input_sizeEm@Base 1.10.12
 _ZNK5Botan4EME13padEPKhmmRNS_21RandomNumberGeneratorE@Base 1.10.12
 _ZNK5Botan4EME15unpadEPKhmm@Base 1.10.12
 _ZNK5Botan4Fork4nameB5cxx11Ev@Base 1.10.10
 _ZNK5Botan4HMAC13output_lengthEv@Base 1.10.10
 _ZNK5Botan4HMAC4nameB5cxx11Ev@Base 1.10.10
 _ZNK5Botan4HMAC5cloneEv@Base 1.10.10
 _ZNK5Botan4HMAC8key_specEv@Base 1.10.10
 _ZNK5Botan4IDEA4nameB5cxx11Ev@Base 1.10.10
 _ZNK5Botan4IDEA5cloneEv@Base 1.10.10
 _ZNK5Botan4IDEA9decrypt_nEPKhPhm@Base 1.10.12
 _ZNK5Botan4IDEA9encrypt_nEPKhPhm@Base 1.10.12
 _ZNK5Botan4KDF14nameB5cxx11Ev@Base 1.10.10
 _ZNK5Botan4KDF15cloneEv@Base 1.10.10
 _ZNK5Botan4KDF16deriveEmPKhmS2_m@Base 1.10.12
 _ZNK5Botan4KDF24nameB5cxx11Ev@Base 1.10.10
 _ZNK5Botan4KDF25cloneEv@Base 1.10.10
 _ZNK5Botan4KDF26deriveEmPKhmS2_m@Base 1.10.12
 _ZNK5Botan4Lion10block_sizeEv@Base 1.10.10
 _ZNK5Botan4Lion4nameB5cxx11Ev@Base 1.10.10
 _ZNK5Botan4Lion5cloneEv@Base 1.10.10
 _ZNK5Botan4Lion8key_specEv@Base 1.10.10
 _ZNK5Botan4Lion9decrypt_nEPKhPhm@Base 1.10.12
 _ZNK5Botan4Lion9encrypt_nEPKhPhm@Base 1.10.12
 _ZNK5Botan4MARS4nameB5cxx11Ev@Base 1.10.10
 _ZNK5Botan4MARS5cloneEv@Base 1.10.10
 _ZNK5Botan4MARS9decrypt_nEPKhPhm@Base 1.10.12
 _ZNK5Botan4MARS9encrypt_nEPKhPhm@Base 1.10.12
 _ZNK5Botan4MGF14maskEPKhmPhm@Base 1.10.12
 _ZNK5Botan4Pipe11end_of_dataEv@Base 1.10.10
 _ZNK5Botan4Pipe13message_countEv@Base 1.10.10
 _ZNK5Botan4Pipe14get_message_noERKNSt7__cxx1112basic_stringIcSt11char_traitsIcESaIcEEEm@Base 1.10.12
 _ZNK5Botan4Pipe4peekEPhmm@Base 1.10.12
 _ZNK5Botan4Pipe4peekEPhmmm@Base 1.10.12
 _ZNK5Botan4Pipe4peekERhmm@Base 1.10.12
 _ZNK5Botan4Pipe9remainingEm@Base 1.10.12
 _ZNK5Botan4SEED4nameB5cxx11Ev@Base 1.10.10
 _ZNK5Botan4SEED5cloneEv@Base 1.10.10
 _ZNK5Botan4SEED6G_FUNCclEj@Base 1.10.10
 _ZNK5Botan4SEED9decrypt_nEPKhPhm@Base 1.10.12
 _ZNK5Botan4SEED9encrypt_nEPKhPhm@Base 1.10.12
 _ZNK5Botan4XTEA4nameB5cxx11Ev@Base 1.10.10
 _ZNK5Botan4XTEA5cloneEv@Base 1.10.10
 _ZNK5Botan4XTEA9decrypt_nEPKhPhm@Base 1.10.12
 _ZNK5Botan4XTEA9encrypt_nEPKhPhm@Base 1.10.12
 _ZNK5Botan5CRC2413output_lengthEv@Base 1.10.10
 _ZNK5Botan5CRC244nameB5cxx11Ev@Base 1.10.10
 _ZNK5Botan5CRC245cloneEv@Base 1.10.10
 _ZNK5Botan5CRC3213output_lengthEv@Base 1.10.10
 _ZNK5Botan5CRC324nameB5cxx11Ev@Base 1.10.10
 _ZNK5Botan5CRC325cloneEv@Base 1.10.10
 _ZNK5Botan5Chain4nameB5cxx11Ev@Base 1.10.10
 _ZNK5Botan5Tiger13output_lengthEv@Base 1.10.10
 _ZNK5Botan5Tiger4nameB5cxx11Ev@Base 1.10.10
 _ZNK5Botan5Tiger5cloneEv@Base 1.10.10
 _ZNK5Botan6BigInt12encoded_sizeENS0_4BaseE@Base 1.10.10
 _ZNK5Botan6BigInt12reverse_signEv@Base 1.10.10
 _ZNK5Botan6BigInt13binary_encodeEPh@Base 1.10.10
 _ZNK5Botan6BigInt13get_substringEmm@Base 1.10.12
 _ZNK5Botan6BigInt3absEv@Base 1.10.10
 _ZNK5Botan6BigInt3cmpERKS0_b@Base 1.10.10
 _ZNK5Botan6BigInt4bitsEv@Base 1.10.10
 _ZNK5Botan6BigInt5bytesEv@Base 1.10.10
 _ZNK5Botan6BigInt7byte_atEm@Base 1.10.12
 _ZNK5Botan6BigInt7get_bitEm@Base 1.10.12
 _ZNK5Botan6BigInt9to_u32bitEv@Base 1.10.10
 _ZNK5Botan6BigIntngEv@Base 1.10.10
 _ZNK5Botan6CTR_BE15valid_iv_lengthEm@Base 1.10.12
 _ZNK5Botan6CTR_BE4nameB5cxx11Ev@Base 1.10.10
 _ZNK5Botan6CTR_BE5cloneEv@Base 1.10.10
 _ZNK5Botan6CTR_BE8key_specEv@Base 1.10.10
 _ZNK5Botan6Comb4P13output_lengthEv@Base 1.10.10
 _ZNK5Botan6Comb4P15hash_block_sizeEv@Base 1.10.10
 _ZNK5Botan6Comb4P4nameB5cxx11Ev@Base 1.10.10
 _ZNK5Botan6Comb4P5cloneEv@Base 1.10.10
 _ZNK5Botan6Engine10find_pbkdfERKNS_9SCAN_NameERNS_17Algorithm_FactoryE@Base 1.10.10
 _ZNK5Botan6Engine13get_verify_opERKNS_10Public_KeyE@Base 1.10.10
 _ZNK5Botan6Engine16get_signature_opERKNS_11Private_KeyE@Base 1.10.10
 _ZNK5Botan6Engine17find_block_cipherERKNS_9SCAN_NameERNS_17Algorithm_FactoryE@Base 1.10.10
 _ZNK5Botan6Engine17get_decryption_opERKNS_11Private_KeyE@Base 1.10.10
 _ZNK5Botan6Engine17get_encryption_opERKNS_10Public_KeyE@Base 1.10.10
 _ZNK5Botan6Engine18find_stream_cipherERKNS_9SCAN_NameERNS_17Algorithm_FactoryE@Base 1.10.10
 _ZNK5Botan6Engine20get_key_agreement_opERKNS_11Private_KeyE@Base 1.10.10
 _ZNK5Botan6Engine7mod_expERKNS_6BigIntENS_9Power_Mod11Usage_HintsE@Base 1.10.10
 _ZNK5Botan6Engine8find_macERKNS_9SCAN_NameERNS_17Algorithm_FactoryE@Base 1.10.10
 _ZNK5Botan6Engine9find_hashERKNS_9SCAN_NameERNS_17Algorithm_FactoryE@Base 1.10.10
 _ZNK5Botan6Filter11total_portsEv@Base 1.10.10
 _ZNK5Botan6Filter8get_nextEv@Base 1.10.10
 _ZNK5Botan6KASUMI4nameB5cxx11Ev@Base 1.10.10
 _ZNK5Botan6KASUMI5cloneEv@Base 1.10.10
 _ZNK5Botan6KASUMI9decrypt_nEPKhPhm@Base 1.10.12
 _ZNK5Botan6KASUMI9encrypt_nEPKhPhm@Base 1.10.12
 _ZNK5Botan6MISTY14nameB5cxx11Ev@Base 1.10.10
 _ZNK5Botan6MISTY15cloneEv@Base 1.10.10
 _ZNK5Botan6MISTY19decrypt_nEPKhPhm@Base 1.10.12
 _ZNK5Botan6MISTY19encrypt_nEPKhPhm@Base 1.10.12
 _ZNK5Botan6PK_Ops12Verification13message_partsEv@Base 1.10.10
 _ZNK5Botan6PK_Ops12Verification17message_part_sizeEv@Base 1.10.10
 _ZNK5Botan6PK_Ops9Signature13message_partsEv@Base 1.10.10
 _ZNK5Botan6PK_Ops9Signature17message_part_sizeEv@Base 1.10.10
 _ZNK5Botan6Square4nameB5cxx11Ev@Base 1.10.10
 _ZNK5Botan6Square5cloneEv@Base 1.10.10
 _ZNK5Botan6Square9decrypt_nEPKhPhm@Base 1.10.12
 _ZNK5Botan6Square9encrypt_nEPKhPhm@Base 1.10.12
 _ZNK5Botan6Turing15valid_iv_lengthEm@Base 1.10.12
 _ZNK5Botan6Turing4nameB5cxx11Ev@Base 1.10.10
 _ZNK5Botan6Turing5cloneEv@Base 1.10.10
 _ZNK5Botan6Turing8key_specEv@Base 1.10.10
 _ZNK5Botan7AES_1284nameB5cxx11Ev@Base 1.10.10
 _ZNK5Botan7AES_1285cloneEv@Base 1.10.10
 _ZNK5Botan7AES_1289decrypt_nEPKhPhm@Base 1.10.12
 _ZNK5Botan7AES_1289encrypt_nEPKhPhm@Base 1.10.12
 _ZNK5Botan7AES_1924nameB5cxx11Ev@Base 1.10.10
 _ZNK5Botan7AES_1925cloneEv@Base 1.10.10
 _ZNK5Botan7AES_1929decrypt_nEPKhPhm@Base 1.10.12
 _ZNK5Botan7AES_1929encrypt_nEPKhPhm@Base 1.10.12
 _ZNK5Botan7AES_2564nameB5cxx11Ev@Base 1.10.10
 _ZNK5Botan7AES_2565cloneEv@Base 1.10.10
 _ZNK5Botan7AES_2569decrypt_nEPKhPhm@Base 1.10.12
 _ZNK5Botan7AES_2569encrypt_nEPKhPhm@Base 1.10.12
 _ZNK5Botan7Adler3213output_lengthEv@Base 1.10.10
 _ZNK5Botan7Adler324nameB5cxx11Ev@Base 1.10.10
 _ZNK5Botan7Adler325cloneEv@Base 1.10.10
 _ZNK5Botan7BMW_51213output_lengthEv@Base 1.10.10
 _ZNK5Botan7BMW_5124nameB5cxx11Ev@Base 1.10.10
 _ZNK5Botan7BMW_5125cloneEv@Base 1.10.10
 _ZNK5Botan7Blinder5blindERKNS_6BigIntE@Base 1.10.10
 _ZNK5Botan7Blinder7unblindERKNS_6BigIntE@Base 1.10.10
 _ZNK5Botan7CBC_MAC13output_lengthEv@Base 1.10.10
 _ZNK5Botan7CBC_MAC4nameB5cxx11Ev@Base 1.10.10
 _ZNK5Botan7CBC_MAC5cloneEv@Base 1.10.10
 _ZNK5Botan7CBC_MAC8key_specEv@Base 1.10.10
 _ZNK5Botan7HAS_16013output_lengthEv@Base 1.10.10
 _ZNK5Botan7HAS_1604nameB5cxx11Ev@Base 1.10.10
 _ZNK5Botan7HAS_1605cloneEv@Base 1.10.10
 _ZNK5Botan7Noekeon4nameB5cxx11Ev@Base 1.10.10
 _ZNK5Botan7Noekeon5cloneEv@Base 1.10.10
 _ZNK5Botan7Noekeon9decrypt_nEPKhPhm@Base 1.10.12
 _ZNK5Botan7Noekeon9encrypt_nEPKhPhm@Base 1.10.12
 _ZNK5Botan7SHA_16013output_lengthEv@Base 1.10.10
 _ZNK5Botan7SHA_1604nameB5cxx11Ev@Base 1.10.10
 _ZNK5Botan7SHA_1605cloneEv@Base 1.10.10
 _ZNK5Botan7SHA_22413output_lengthEv@Base 1.10.10
 _ZNK5Botan7SHA_2244nameB5cxx11Ev@Base 1.10.10
 _ZNK5Botan7SHA_2245cloneEv@Base 1.10.10
 _ZNK5Botan7SHA_25613output_lengthEv@Base 1.10.10
 _ZNK5Botan7SHA_2564nameB5cxx11Ev@Base 1.10.10
 _ZNK5Botan7SHA_2565cloneEv@Base 1.10.10
 _ZNK5Botan7SHA_38413output_lengthEv@Base 1.10.10
 _ZNK5Botan7SHA_3844nameB5cxx11Ev@Base 1.10.10
 _ZNK5Botan7SHA_3845cloneEv@Base 1.10.10
 _ZNK5Botan7SHA_51213output_lengthEv@Base 1.10.10
 _ZNK5Botan7SHA_5124nameB5cxx11Ev@Base 1.10.10
 _ZNK5Botan7SHA_5125cloneEv@Base 1.10.10
 _ZNK5Botan7Salsa2015valid_iv_lengthEm@Base 1.10.12
 _ZNK5Botan7Salsa204nameB5cxx11Ev@Base 1.10.10
 _ZNK5Botan7Salsa205cloneEv@Base 1.10.10
 _ZNK5Botan7Salsa208key_specEv@Base 1.10.10
 _ZNK5Botan7Serpent4nameB5cxx11Ev@Base 1.10.10
 _ZNK5Botan7Serpent5cloneEv@Base 1.10.10
 _ZNK5Botan7Serpent9decrypt_nEPKhPhm@Base 1.10.12
 _ZNK5Botan7Serpent9encrypt_nEPKhPhm@Base 1.10.12
 _ZNK5Botan7TLS_PRF4nameB5cxx11Ev@Base 1.10.10
 _ZNK5Botan7TLS_PRF5cloneEv@Base 1.10.10
 _ZNK5Botan7TLS_PRF6deriveEmPKhmS2_m@Base 1.10.12
 _ZNK5Botan7Twofish4nameB5cxx11Ev@Base 1.10.10
 _ZNK5Botan7Twofish5cloneEv@Base 1.10.10
 _ZNK5Botan7Twofish9decrypt_nEPKhPhm@Base 1.10.12
 _ZNK5Botan7Twofish9encrypt_nEPKhPhm@Base 1.10.12
 _ZNK5Botan7X509_CA10update_crlERKNS_8X509_CRLERKSt6vectorINS_9CRL_EntryESaIS5_EERNS_21RandomNumberGeneratorEj@Base 1.10.10
 _ZNK5Botan7X509_CA14ca_certificateEv@Base 1.10.10
 _ZNK5Botan7X509_CA7new_crlERNS_21RandomNumberGeneratorEj@Base 1.10.10
 _ZNK5Botan7X509_CA8make_crlERKSt6vectorINS_9CRL_EntryESaIS2_EEjjRNS_21RandomNumberGeneratorE@Base 1.10.10
 _ZNK5Botan7X509_DN11encode_intoERNS_11DER_EncoderE@Base 1.10.10
 _ZNK5Botan7X509_DN13get_attributeERKNSt7__cxx1112basic_stringIcSt11char_traitsIcESaIcEEE@Base 1.10.10
 _ZNK5Botan7X509_DN14get_attributesB5cxx11Ev@Base 1.10.10
 _ZNK5Botan7X509_DN8contentsB5cxx11Ev@Base 1.10.10
 _ZNK5Botan7X509_DN8get_bitsEv@Base 1.10.10
 _ZNK5Botan8Blowfish13generate_sboxERNS_12MemoryRegionIjEERjS4_PKhm@Base 1.10.12
 _ZNK5Botan8Blowfish4nameB5cxx11Ev@Base 1.10.10
 _ZNK5Botan8Blowfish5cloneEv@Base 1.10.10
 _ZNK5Botan8Blowfish9decrypt_nEPKhPhm@Base 1.10.12
 _ZNK5Botan8Blowfish9encrypt_nEPKhPhm@Base 1.10.12
 _ZNK5Botan8CAST_1284nameB5cxx11Ev@Base 1.10.10
 _ZNK5Botan8CAST_1285cloneEv@Base 1.10.10
 _ZNK5Botan8CAST_1289decrypt_nEPKhPhm@Base 1.10.12
 _ZNK5Botan8CAST_1289encrypt_nEPKhPhm@Base 1.10.12
 _ZNK5Botan8CAST_2564nameB5cxx11Ev@Base 1.10.10
 _ZNK5Botan8CAST_2565cloneEv@Base 1.10.10
 _ZNK5Botan8CAST_2569decrypt_nEPKhPhm@Base 1.10.12
 _ZNK5Botan8CAST_2569encrypt_nEPKhPhm@Base 1.10.12
 _ZNK5Botan8DL_Group10DER_encodeENS0_6FormatE@Base 1.10.10
 _ZNK5Botan8DL_Group10PEM_encodeB5cxx11ENS0_6FormatE@Base 1.10.10
 _ZNK5Botan8DL_Group10init_checkEv@Base 1.10.10
 _ZNK5Botan8DL_Group12verify_groupERNS_21RandomNumberGeneratorEb@Base 1.10.10
 _ZNK5Botan8DL_Group5get_gEv@Base 1.10.10
 _ZNK5Botan8DL_Group5get_pEv@Base 1.10.10
 _ZNK5Botan8DL_Group5get_qEv@Base 1.10.10
 _ZNK5Botan8EAX_Base15valid_iv_lengthEm@Base 1.10.12
 _ZNK5Botan8EAX_Base15valid_keylengthEm@Base 1.10.12
 _ZNK5Botan8EAX_Base4nameB5cxx11Ev@Base 1.10.10
 _ZNK5Botan8EC_Group10DER_encodeENS_17EC_Group_EncodingE@Base 1.10.10
 _ZNK5Botan8EC_Group10PEM_encodeB5cxx11Ev@Base 1.10.10
 _ZNK5Botan8HMAC_RNG4nameB5cxx11Ev@Base 1.10.10
 _ZNK5Botan8HMAC_RNG9is_seededEv@Base 1.10.10
 _ZNK5Botan8Null_RNG4nameB5cxx11Ev@Base 1.10.10
 _ZNK5Botan8Null_RNG9is_seededEv@Base 1.10.10
 _ZNK5Botan8Parallel13output_lengthEv@Base 1.10.10
 _ZNK5Botan8Parallel4nameB5cxx11Ev@Base 1.10.10
 _ZNK5Botan8Parallel5cloneEv@Base 1.10.10
 _ZNK5Botan8PointGFp10monty_multERNS_6BigIntERKS1_S4_@Base 1.10.10
 _ZNK5Botan8PointGFp12get_affine_xEv@Base 1.10.10
 _ZNK5Botan8PointGFp12get_affine_yEv@Base 1.10.10
 _ZNK5Botan8PointGFp12on_the_curveEv@Base 1.10.10
 _ZNK5Botan8PointGFp9monty_sqrERNS_6BigIntERKS1_@Base 1.10.10
 _ZNK5Botan8PointGFpeqERKS0_@Base 1.10.10
 _ZNK5Botan8Randpool4nameB5cxx11Ev@Base 1.10.10
 _ZNK5Botan8Randpool9is_seededEv@Base 1.10.10
 _ZNK5Botan8SAFER_SK4nameB5cxx11Ev@Base 1.10.10
 _ZNK5Botan8SAFER_SK5cloneEv@Base 1.10.10
 _ZNK5Botan8SAFER_SK9decrypt_nEPKhPhm@Base 1.10.12
 _ZNK5Botan8SAFER_SK9encrypt_nEPKhPhm@Base 1.10.12
 _ZNK5Botan8SSL3_MAC13output_lengthEv@Base 1.10.10
 _ZNK5Botan8SSL3_MAC4nameB5cxx11Ev@Base 1.10.10
 _ZNK5Botan8SSL3_MAC5cloneEv@Base 1.10.10
 _ZNK5Botan8SSL3_MAC8key_specEv@Base 1.10.10
 _ZNK5Botan8SSL3_PRF4nameB5cxx11Ev@Base 1.10.10
 _ZNK5Botan8SSL3_PRF5cloneEv@Base 1.10.10
 _ZNK5Botan8SSL3_PRF6deriveEmPKhmS2_m@Base 1.10.12
 _ZNK5Botan8Skipjack4nameB5cxx11Ev@Base 1.10.10
 _ZNK5Botan8Skipjack5cloneEv@Base 1.10.10
 _ZNK5Botan8Skipjack9decrypt_nEPKhPhm@Base 1.10.12
 _ZNK5Botan8Skipjack9encrypt_nEPKhPhm@Base 1.10.12
 _ZNK5Botan8X509_CRL10crl_numberEv@Base 1.10.10
 _ZNK5Botan8X509_CRL11get_revokedEv@Base 1.10.10
 _ZNK5Botan8X509_CRL11next_updateEv@Base 1.10.10
 _ZNK5Botan8X509_CRL11this_updateEv@Base 1.10.10
 _ZNK5Botan8X509_CRL16authority_key_idEv@Base 1.10.10
 _ZNK5Botan8X509_CRL9issuer_dnEv@Base 1.10.10
 _ZNK5Botan8X942_PRF4nameB5cxx11Ev@Base 1.10.10
 _ZNK5Botan8X942_PRF5cloneEv@Base 1.10.10
 _ZNK5Botan8X942_PRF6deriveEmPKhmS2_m@Base 1.10.12
 _ZNK5Botan9Attribute11encode_intoERNS_11DER_EncoderE@Base 1.10.10
 _ZNK5Botan9CRL_Entry11encode_intoERNS_11DER_EncoderE@Base 1.10.10
 _ZNK5Botan9IDEA_SSE211parallelismEv@Base 1.10.10
 _ZNK5Botan9IDEA_SSE25cloneEv@Base 1.10.10
 _ZNK5Botan9IDEA_SSE29decrypt_nEPKhPhm@Base 1.10.10
 _ZNK5Botan9IDEA_SSE29encrypt_nEPKhPhm@Base 1.10.10
 _ZNK5Botan9PK_Signer19self_test_signatureERKNS_12MemoryRegionIhEES4_@Base 1.10.10
 _ZNK5Botan9Power_Mod11set_modulusERKNS_6BigIntENS0_11Usage_HintsE@Base 1.10.10
 _ZNK5Botan9Power_Mod12set_exponentERKNS_6BigIntE@Base 1.10.10
 _ZNK5Botan9Power_Mod7executeEv@Base 1.10.10
 _ZNK5Botan9Power_Mod8set_baseERKNS_6BigIntE@Base 1.10.10
 _ZNK5Botan9SCAN_Name14arg_as_integerEmm@Base 1.10.12
 _ZNK5Botan9SCAN_Name18algo_name_and_argsB5cxx11Ev@Base 1.10.10
 _ZNK5Botan9SCAN_Name3argB5cxx11Em@Base 1.10.12
 _ZNK5Botan9SCAN_Name3argEmRKNSt7__cxx1112basic_stringIcSt11char_traitsIcESaIcEEE@Base 1.10.12
 _ZNK5Botan9Skein_51213output_lengthEv@Base 1.10.10
 _ZNK5Botan9Skein_51215hash_block_sizeEv@Base 1.10.10
 _ZNK5Botan9Skein_5124nameB5cxx11Ev@Base 1.10.10
 _ZNK5Botan9Skein_5125cloneEv@Base 1.10.10
 _ZNK5Botan9TripleDES4nameB5cxx11Ev@Base 1.10.10
 _ZNK5Botan9TripleDES5cloneEv@Base 1.10.10
 _ZNK5Botan9TripleDES9decrypt_nEPKhPhm@Base 1.10.12
 _ZNK5Botan9TripleDES9encrypt_nEPKhPhm@Base 1.10.12
 _ZNK5Botan9Whirlpool13output_lengthEv@Base 1.10.10
 _ZNK5Botan9Whirlpool4nameB5cxx11Ev@Base 1.10.10
 _ZNK5Botan9Whirlpool5cloneEv@Base 1.10.10
 _ZNK5Botan9X509_Time11encode_intoERNS_11DER_EncoderE@Base 1.10.10
 _ZNK5Botan9X509_Time11time_is_setEv@Base 1.10.10
 _ZNK5Botan9X509_Time15readable_stringB5cxx11Ev@Base 1.10.10
 _ZNK5Botan9X509_Time19passes_sanity_checkEv@Base 1.10.10
 _ZNK5Botan9X509_Time3cmpERKS0_@Base 1.10.10
 _ZNK5Botan9X509_Time9as_stringB5cxx11Ev@Base 1.10.10
 _ZNK5Botan9XTEA_SIMD11parallelismEv@Base 1.10.10
 _ZNK5Botan9XTEA_SIMD5cloneEv@Base 1.10.10
 _ZNK5Botan9XTEA_SIMD9decrypt_nEPKhPhm@Base 1.10.12
 _ZNK5Botan9XTEA_SIMD9encrypt_nEPKhPhm@Base 1.10.12
 _ZNKSt5ctypeIcE8do_widenEc@Base 1.10.10
 _ZNKSt8_Rb_treeINSt7__cxx1112basic_stringIcSt11char_traitsIcESaIcEEESt4pairIKS5_PN5Botan9AllocatorEESt10_Select1stISB_ESt4lessIS5_ESaISB_EE4findERS7_@Base 1.10.10
 _ZNKSt8_Rb_treeINSt7__cxx1112basic_stringIcSt11char_traitsIcESaIcEEESt4pairIKS5_S5_ESt10_Select1stIS8_ESt4lessIS5_ESaIS8_EE4findERS7_@Base 1.10.10
 _ZNSt20__uninitialized_copyILb0EE13__uninit_copyIPN5Botan10X509_Store8CRL_DataES5_EET0_T_S7_S6_@Base 1.10.10
 _ZNSt20__uninitialized_copyILb0EE13__uninit_copyIPN5Botan10X509_Store9Cert_InfoES5_EET0_T_S7_S6_@Base 1.10.10
 _ZNSt20__uninitialized_copyILb0EE13__uninit_copyIPN5Botan8X509_CRLES4_EET0_T_S6_S5_@Base 1.10.10
 _ZNSt20__uninitialized_copyILb0EE13__uninit_copyIPNSt7__cxx1112basic_stringIcSt11char_traitsIcESaIcEEES8_EET0_T_SA_S9_@Base 1.10.10
 _ZNSt3mapINSt7__cxx1112basic_stringIcSt11char_traitsIcESaIcEEEPN5Botan11BlockCipherESt4lessIS5_ESaISt4pairIKS5_S8_EEEixERSC_@Base 1.10.10
 _ZNSt3mapINSt7__cxx1112basic_stringIcSt11char_traitsIcESaIcEEEPN5Botan12HashFunctionESt4lessIS5_ESaISt4pairIKS5_S8_EEEixERSC_@Base 1.10.10
 _ZNSt3mapINSt7__cxx1112basic_stringIcSt11char_traitsIcESaIcEEEPN5Botan12StreamCipherESt4lessIS5_ESaISt4pairIKS5_S8_EEEixERSC_@Base 1.10.10
 _ZNSt3mapINSt7__cxx1112basic_stringIcSt11char_traitsIcESaIcEEEPN5Botan25MessageAuthenticationCodeESt4lessIS5_ESaISt4pairIKS5_S8_EEEixERSC_@Base 1.10.10
 _ZNSt3mapINSt7__cxx1112basic_stringIcSt11char_traitsIcESaIcEEEPN5Botan5PBKDFESt4lessIS5_ESaISt4pairIKS5_S8_EEEixERSC_@Base 1.10.10
 _ZNSt3mapINSt7__cxx1112basic_stringIcSt11char_traitsIcESaIcEEES5_St4lessIS5_ESaISt4pairIKS5_S5_EEEixERS9_@Base 1.10.10
 _ZNSt3mapINSt7__cxx1112basic_stringIcSt11char_traitsIcESaIcEEES_IS5_PN5Botan11BlockCipherESt4lessIS5_ESaISt4pairIKS5_S8_EEESA_SaISB_ISC_SF_EEEixERSC_@Base 1.10.10
 _ZNSt3mapINSt7__cxx1112basic_stringIcSt11char_traitsIcESaIcEEES_IS5_PN5Botan12HashFunctionESt4lessIS5_ESaISt4pairIKS5_S8_EEESA_SaISB_ISC_SF_EEEixERSC_@Base 1.10.10
 _ZNSt3mapINSt7__cxx1112basic_stringIcSt11char_traitsIcESaIcEEES_IS5_PN5Botan12StreamCipherESt4lessIS5_ESaISt4pairIKS5_S8_EEESA_SaISB_ISC_SF_EEEixERSC_@Base 1.10.10
 _ZNSt3mapINSt7__cxx1112basic_stringIcSt11char_traitsIcESaIcEEES_IS5_PN5Botan25MessageAuthenticationCodeESt4lessIS5_ESaISt4pairIKS5_S8_EEESA_SaISB_ISC_SF_EEEixERSC_@Base 1.10.10
 _ZNSt3mapINSt7__cxx1112basic_stringIcSt11char_traitsIcESaIcEEES_IS5_PN5Botan5PBKDFESt4lessIS5_ESaISt4pairIKS5_S8_EEESA_SaISB_ISC_SF_EEEixERSC_@Base 1.10.10
 _ZNSt3tr117bad_function_callD0Ev@Base 1.10.10
 _ZNSt3tr117bad_function_callD1Ev@Base 1.10.10
 _ZNSt3tr117bad_function_callD2Ev@Base 1.10.10
 _ZNSt4pairINSt7__cxx1112basic_stringIcSt11char_traitsIcESaIcEEES5_ED1Ev@Base 1.10.10
 _ZNSt4pairINSt7__cxx1112basic_stringIcSt11char_traitsIcESaIcEEES5_ED2Ev@Base 1.10.10
 _ZNSt5dequeINSt7__cxx1112basic_stringIcSt11char_traitsIcESaIcEEESaIS5_EE16_M_push_back_auxERKS5_@Base 1.10.10
 _ZNSt5dequeINSt7__cxx1112basic_stringIcSt11char_traitsIcESaIcEEESaIS5_EED1Ev@Base 1.10.10
 _ZNSt5dequeINSt7__cxx1112basic_stringIcSt11char_traitsIcESaIcEEESaIS5_EED2Ev@Base 1.10.10
 _ZNSt6vectorIN5Botan10RTSS_ShareESaIS1_EED1Ev@Base 1.10.10
 _ZNSt6vectorIN5Botan10RTSS_ShareESaIS1_EED2Ev@Base 1.10.10
 _ZNSt6vectorIN5Botan10X509_Store8CRL_DataESaIS2_EE13_M_insert_auxEN9__gnu_cxx17__normal_iteratorIPS2_S4_EERKS2_@Base 1.10.10
 _ZNSt6vectorIN5Botan10X509_Store8CRL_DataESaIS2_EED1Ev@Base 1.10.10
 _ZNSt6vectorIN5Botan10X509_Store8CRL_DataESaIS2_EED2Ev@Base 1.10.10
 _ZNSt6vectorIN5Botan10X509_Store8CRL_DataESaIS2_EEaSERKS4_@Base 1.10.10
 _ZNSt6vectorIN5Botan10X509_Store9Cert_InfoESaIS2_EE13_M_insert_auxEN9__gnu_cxx17__normal_iteratorIPS2_S4_EERKS2_@Base 1.10.10
 _ZNSt6vectorIN5Botan10X509_Store9Cert_InfoESaIS2_EED1Ev@Base 1.10.10
 _ZNSt6vectorIN5Botan10X509_Store9Cert_InfoESaIS2_EED2Ev@Base 1.10.10
 _ZNSt6vectorIN5Botan10X509_Store9Cert_InfoESaIS2_EEaSERKS4_@Base 1.10.10
 _ZNSt6vectorIN5Botan11DER_Encoder12DER_SequenceESaIS2_EE13_M_insert_auxEN9__gnu_cxx17__normal_iteratorIPS2_S4_EERKS2_@Base 1.10.10
 _ZNSt6vectorIN5Botan16Certificate_TypeESaIS1_EE13_M_insert_auxEN9__gnu_cxx17__normal_iteratorIPS1_S3_EERKS1_@Base 1.10.10
 _ZNSt6vectorIN5Botan16X509_CertificateESaIS1_EE13_M_insert_auxEN9__gnu_cxx17__normal_iteratorIPS1_S3_EERKS1_@Base 1.10.10
 _ZNSt6vectorIN5Botan16X509_CertificateESaIS1_EED1Ev@Base 1.10.10
 _ZNSt6vectorIN5Botan16X509_CertificateESaIS1_EED2Ev@Base 1.10.10
 _ZNSt6vectorIN5Botan16X509_CertificateESaIS1_EEaSERKS3_@Base 1.10.10
 _ZNSt6vectorIN5Botan3OIDESaIS1_EE13_M_insert_auxEN9__gnu_cxx17__normal_iteratorIPS1_S3_EERKS1_@Base 1.10.10
 _ZNSt6vectorIN5Botan6BigIntESaIS1_EE13_M_insert_auxEN9__gnu_cxx17__normal_iteratorIPS1_S3_EERKS1_@Base 1.10.10
 _ZNSt6vectorIN5Botan6BigIntESaIS1_EE14_M_fill_insertEN9__gnu_cxx17__normal_iteratorIPS1_S3_EEmRKS1_@Base 1.10.10
 _ZNSt6vectorIN5Botan6BigIntESaIS1_EED1Ev@Base 1.10.10
 _ZNSt6vectorIN5Botan6BigIntESaIS1_EED2Ev@Base 1.10.10
 _ZNSt6vectorIN5Botan7X509_DNESaIS1_EE13_M_insert_auxEN9__gnu_cxx17__normal_iteratorIPS1_S3_EERKS1_@Base 1.10.10
 _ZNSt6vectorIN5Botan8PointGFpESaIS1_EED1Ev@Base 1.10.10
 _ZNSt6vectorIN5Botan8PointGFpESaIS1_EED2Ev@Base 1.10.10
 _ZNSt6vectorIN5Botan8X509_CRLESaIS1_EE13_M_insert_auxEN9__gnu_cxx17__normal_iteratorIPS1_S3_EERKS1_@Base 1.10.10
 _ZNSt6vectorIN5Botan9CRL_EntryESaIS1_EE13_M_insert_auxEN9__gnu_cxx17__normal_iteratorIPS1_S3_EERKS1_@Base 1.10.10
 _ZNSt6vectorIN5Botan9CRL_EntryESaIS1_EED1Ev@Base 1.10.10
 _ZNSt6vectorIN5Botan9CRL_EntryESaIS1_EED2Ev@Base 1.10.10
 _ZNSt6vectorIN5Botan9CRL_EntryESaIS1_EEaSERKS3_@Base 1.10.10
 _ZNSt6vectorINSt7__cxx1112basic_stringIcSt11char_traitsIcESaIcEEESaIS5_EE13_M_insert_auxEN9__gnu_cxx17__normal_iteratorIPS5_S7_EERKS5_@Base 1.10.10
 _ZNSt6vectorINSt7__cxx1112basic_stringIcSt11char_traitsIcESaIcEEESaIS5_EED1Ev@Base 1.10.10
 _ZNSt6vectorINSt7__cxx1112basic_stringIcSt11char_traitsIcESaIcEEESaIS5_EED2Ev@Base 1.10.10
 _ZNSt6vectorINSt7__cxx1112basic_stringIcSt11char_traitsIcESaIcEEESaIS5_EEaSERKS7_@Base 1.10.10
 _ZNSt6vectorIPKN5Botan12HashFunctionESaIS3_EE13_M_insert_auxEN9__gnu_cxx17__normal_iteratorIPS3_S5_EERKS3_@Base 1.10.10
 _ZNSt6vectorIPN5Botan12HashFunctionESaIS2_EE13_M_insert_auxEN9__gnu_cxx17__normal_iteratorIPS2_S4_EERKS2_@Base 1.10.10
 _ZNSt6vectorIPN5Botan13EntropySourceESaIS2_EE13_M_insert_auxEN9__gnu_cxx17__normal_iteratorIPS2_S4_EERKS2_@Base 1.10.10
 _ZNSt6vectorIPN5Botan17Certificate_StoreESaIS2_EE13_M_insert_auxEN9__gnu_cxx17__normal_iteratorIPS2_S4_EERKS2_@Base 1.10.10
 _ZNSt6vectorIPN5Botan6FilterESaIS2_EE13_M_assign_auxIPS2_EEvT_S7_St20forward_iterator_tag@Base 1.10.10
 _ZNSt6vectorIPN5Botan6FilterESaIS2_EE14_M_fill_insertEN9__gnu_cxx17__normal_iteratorIPS2_S4_EEmRKS2_@Base 1.10.10
 _ZNSt6vectorIPN5Botan9AllocatorESaIS2_EE13_M_insert_auxEN9__gnu_cxx17__normal_iteratorIPS2_S4_EERKS2_@Base 1.10.10
 _ZNSt6vectorISt4pairIN5Botan16X509_CertificateEPNS1_11Private_KeyEESaIS5_EE13_M_insert_auxEN9__gnu_cxx17__normal_iteratorIPS5_S7_EERKS5_@Base 1.10.10
 _ZNSt6vectorISt4pairIN5Botan16X509_CertificateEPNS1_11Private_KeyEESaIS5_EED1Ev@Base 1.10.10
 _ZNSt6vectorISt4pairIN5Botan16X509_CertificateEPNS1_11Private_KeyEESaIS5_EED2Ev@Base 1.10.10
 _ZNSt6vectorISt4pairIPN5Botan21Certificate_ExtensionEbESaIS4_EE13_M_insert_auxEN9__gnu_cxx17__normal_iteratorIPS4_S6_EERKS4_@Base 1.10.10
 _ZNSt6vectorISt4pairIPvmESaIS2_EE13_M_insert_auxEN9__gnu_cxx17__normal_iteratorIPS2_S4_EERKS2_@Base 1.10.10
 _ZNSt6vectorISt4pairImNSt7__cxx1112basic_stringIcSt11char_traitsIcESaIcEEEESaIS7_EE13_M_insert_auxEN9__gnu_cxx17__normal_iteratorIPS7_S9_EERKS7_@Base 1.10.10
 _ZNSt6vectorIcSaIcEE13_M_insert_auxEN9__gnu_cxx17__normal_iteratorIPcS1_EERKc@Base 1.10.10
 _ZNSt6vectorIhSaIhEEaSERKS1_@Base 1.10.10
 _ZNSt6vectorIiSaIiEE13_M_insert_auxEN9__gnu_cxx17__normal_iteratorIPiS1_EERKi@Base 1.10.10
 _ZNSt6vectorIjSaIjEE13_M_insert_auxEN9__gnu_cxx17__normal_iteratorIPjS1_EERKj@Base 1.10.10
 _ZNSt6vectorIjSaIjEEaSERKS1_@Base 1.10.10
 _ZNSt6vectorImSaImEE13_M_insert_auxEN9__gnu_cxx17__normal_iteratorIPmS1_EERKm@Base 1.10.10
 _ZNSt6vectorItSaItEE13_M_insert_auxEN9__gnu_cxx17__normal_iteratorIPtS1_EERKt@Base 1.10.10
 _ZNSt6vectorItSaItEEaSERKS1_@Base 1.10.10
 _ZNSt8_Rb_treeIN5Botan3OIDESt4pairIKS1_NS0_11ASN1_StringEESt10_Select1stIS5_ESt4lessIS1_ESaIS5_EE7_M_copyINSB_11_Alloc_nodeEEEPSt13_Rb_tree_nodeIS5_EPKSF_SG_RT_@Base 1.10.10
 _ZNSt8_Rb_treeIN5Botan3OIDESt4pairIKS1_NS0_11ASN1_StringEESt10_Select1stIS5_ESt4lessIS1_ESaIS5_EE7_M_copyINSB_20_Reuse_or_alloc_nodeEEEPSt13_Rb_tree_nodeIS5_EPKSF_SG_RT_@Base 1.10.10
 _ZNSt8_Rb_treeIN5Botan3OIDESt4pairIKS1_NS0_11ASN1_StringEESt10_Select1stIS5_ESt4lessIS1_ESaIS5_EE8_M_eraseEPSt13_Rb_tree_nodeIS5_E@Base 1.10.10
 _ZNSt8_Rb_treeIN5Botan3OIDESt4pairIKS1_NS0_11ASN1_StringEESt10_Select1stIS5_ESt4lessIS1_ESaIS5_EEaSERKSB_@Base 1.10.10
 _ZNSt8_Rb_treeIN5Botan3OIDESt4pairIKS1_NSt7__cxx1112basic_stringIcSt11char_traitsIcESaIcEEEESt10_Select1stISA_ESt4lessIS1_ESaISA_EE8_M_eraseEPSt13_Rb_tree_nodeISA_E@Base 1.10.10
 _ZNSt8_Rb_treeINSt7__cxx1112basic_stringIcSt11char_traitsIcESaIcEEESt4pairIKS5_PN5Botan11BlockCipherEESt10_Select1stISB_ESt4lessIS5_ESaISB_EE24_M_get_insert_unique_posERS7_@Base 1.10.10
 _ZNSt8_Rb_treeINSt7__cxx1112basic_stringIcSt11char_traitsIcESaIcEEESt4pairIKS5_PN5Botan11BlockCipherEESt10_Select1stISB_ESt4lessIS5_ESaISB_EE7_M_copyINSH_11_Alloc_nodeEEEPSt13_Rb_tree_nodeISB_EPKSL_SM_RT_@Base 1.10.10
 _ZNSt8_Rb_treeINSt7__cxx1112basic_stringIcSt11char_traitsIcESaIcEEESt4pairIKS5_PN5Botan11BlockCipherEESt10_Select1stISB_ESt4lessIS5_ESaISB_EE8_M_eraseEPSt13_Rb_tree_nodeISB_E@Base 1.10.10
 _ZNSt8_Rb_treeINSt7__cxx1112basic_stringIcSt11char_traitsIcESaIcEEESt4pairIKS5_PN5Botan12HashFunctionEESt10_Select1stISB_ESt4lessIS5_ESaISB_EE24_M_get_insert_unique_posERS7_@Base 1.10.10
 _ZNSt8_Rb_treeINSt7__cxx1112basic_stringIcSt11char_traitsIcESaIcEEESt4pairIKS5_PN5Botan12HashFunctionEESt10_Select1stISB_ESt4lessIS5_ESaISB_EE7_M_copyINSH_11_Alloc_nodeEEEPSt13_Rb_tree_nodeISB_EPKSL_SM_RT_@Base 1.10.10
 _ZNSt8_Rb_treeINSt7__cxx1112basic_stringIcSt11char_traitsIcESaIcEEESt4pairIKS5_PN5Botan12HashFunctionEESt10_Select1stISB_ESt4lessIS5_ESaISB_EE8_M_eraseEPSt13_Rb_tree_nodeISB_E@Base 1.10.10
 _ZNSt8_Rb_treeINSt7__cxx1112basic_stringIcSt11char_traitsIcESaIcEEESt4pairIKS5_PN5Botan12StreamCipherEESt10_Select1stISB_ESt4lessIS5_ESaISB_EE24_M_get_insert_unique_posERS7_@Base 1.10.10
 _ZNSt8_Rb_treeINSt7__cxx1112basic_stringIcSt11char_traitsIcESaIcEEESt4pairIKS5_PN5Botan12StreamCipherEESt10_Select1stISB_ESt4lessIS5_ESaISB_EE7_M_copyINSH_11_Alloc_nodeEEEPSt13_Rb_tree_nodeISB_EPKSL_SM_RT_@Base 1.10.10
 _ZNSt8_Rb_treeINSt7__cxx1112basic_stringIcSt11char_traitsIcESaIcEEESt4pairIKS5_PN5Botan12StreamCipherEESt10_Select1stISB_ESt4lessIS5_ESaISB_EE8_M_eraseEPSt13_Rb_tree_nodeISB_E@Base 1.10.10
 _ZNSt8_Rb_treeINSt7__cxx1112basic_stringIcSt11char_traitsIcESaIcEEESt4pairIKS5_PN5Botan25MessageAuthenticationCodeEESt10_Select1stISB_ESt4lessIS5_ESaISB_EE24_M_get_insert_unique_posERS7_@Base 1.10.10
 _ZNSt8_Rb_treeINSt7__cxx1112basic_stringIcSt11char_traitsIcESaIcEEESt4pairIKS5_PN5Botan25MessageAuthenticationCodeEESt10_Select1stISB_ESt4lessIS5_ESaISB_EE7_M_copyINSH_11_Alloc_nodeEEEPSt13_Rb_tree_nodeISB_EPKSL_SM_RT_@Base 1.10.10
 _ZNSt8_Rb_treeINSt7__cxx1112basic_stringIcSt11char_traitsIcESaIcEEESt4pairIKS5_PN5Botan25MessageAuthenticationCodeEESt10_Select1stISB_ESt4lessIS5_ESaISB_EE8_M_eraseEPSt13_Rb_tree_nodeISB_E@Base 1.10.10
 _ZNSt8_Rb_treeINSt7__cxx1112basic_stringIcSt11char_traitsIcESaIcEEESt4pairIKS5_PN5Botan5PBKDFEESt10_Select1stISB_ESt4lessIS5_ESaISB_EE24_M_get_insert_unique_posERS7_@Base 1.10.10
 _ZNSt8_Rb_treeINSt7__cxx1112basic_stringIcSt11char_traitsIcESaIcEEESt4pairIKS5_PN5Botan5PBKDFEESt10_Select1stISB_ESt4lessIS5_ESaISB_EE7_M_copyINSH_11_Alloc_nodeEEEPSt13_Rb_tree_nodeISB_EPKSL_SM_RT_@Base 1.10.10
 _ZNSt8_Rb_treeINSt7__cxx1112basic_stringIcSt11char_traitsIcESaIcEEESt4pairIKS5_PN5Botan5PBKDFEESt10_Select1stISB_ESt4lessIS5_ESaISB_EE8_M_eraseEPSt13_Rb_tree_nodeISB_E@Base 1.10.10
 _ZNSt8_Rb_treeINSt7__cxx1112basic_stringIcSt11char_traitsIcESaIcEEESt4pairIKS5_PN5Botan9AllocatorEESt10_Select1stISB_ESt4lessIS5_ESaISB_EE24_M_get_insert_unique_posERS7_@Base 1.10.10
 _ZNSt8_Rb_treeINSt7__cxx1112basic_stringIcSt11char_traitsIcESaIcEEESt4pairIKS5_PN5Botan9AllocatorEESt10_Select1stISB_ESt4lessIS5_ESaISB_EE29_M_get_insert_hint_unique_posESt23_Rb_tree_const_iteratorISB_ERS7_@Base 1.10.10
 _ZNSt8_Rb_treeINSt7__cxx1112basic_stringIcSt11char_traitsIcESaIcEEESt4pairIKS5_PN5Botan9AllocatorEESt10_Select1stISB_ESt4lessIS5_ESaISB_EE8_M_eraseEPSt13_Rb_tree_nodeISB_E@Base 1.10.10
 _ZNSt8_Rb_treeINSt7__cxx1112basic_stringIcSt11char_traitsIcESaIcEEESt4pairIKS5_S5_ESt10_Select1stIS8_ESt4lessIS5_ESaIS8_EE15_M_insert_equalERKS8_@Base 1.10.10
 _ZNSt8_Rb_treeINSt7__cxx1112basic_stringIcSt11char_traitsIcESaIcEEESt4pairIKS5_S5_ESt10_Select1stIS8_ESt4lessIS5_ESaIS8_EE24_M_get_insert_unique_posERS7_@Base 1.10.10
 _ZNSt8_Rb_treeINSt7__cxx1112basic_stringIcSt11char_traitsIcESaIcEEESt4pairIKS5_S5_ESt10_Select1stIS8_ESt4lessIS5_ESaIS8_EE29_M_get_insert_hint_unique_posESt23_Rb_tree_const_iteratorIS8_ERS7_@Base 1.10.10
 _ZNSt8_Rb_treeINSt7__cxx1112basic_stringIcSt11char_traitsIcESaIcEEESt4pairIKS5_S5_ESt10_Select1stIS8_ESt4lessIS5_ESaIS8_EE4findERS7_@Base 1.10.10
 _ZNSt8_Rb_treeINSt7__cxx1112basic_stringIcSt11char_traitsIcESaIcEEESt4pairIKS5_S5_ESt10_Select1stIS8_ESt4lessIS5_ESaIS8_EE7_M_copyINSE_11_Alloc_nodeEEEPSt13_Rb_tree_nodeIS8_EPKSI_SJ_RT_@Base 1.10.10
 _ZNSt8_Rb_treeINSt7__cxx1112basic_stringIcSt11char_traitsIcESaIcEEESt4pairIKS5_S5_ESt10_Select1stIS8_ESt4lessIS5_ESaIS8_EE7_M_copyINSE_20_Reuse_or_alloc_nodeEEEPSt13_Rb_tree_nodeIS8_EPKSI_SJ_RT_@Base 1.10.10
 _ZNSt8_Rb_treeINSt7__cxx1112basic_stringIcSt11char_traitsIcESaIcEEESt4pairIKS5_S5_ESt10_Select1stIS8_ESt4lessIS5_ESaIS8_EE8_M_eraseEPSt13_Rb_tree_nodeIS8_E@Base 1.10.10
 _ZNSt8_Rb_treeINSt7__cxx1112basic_stringIcSt11char_traitsIcESaIcEEESt4pairIKS5_S5_ESt10_Select1stIS8_ESt4lessIS5_ESaIS8_EEaSERKSE_@Base 1.10.10
 _ZNSt8_Rb_treeINSt7__cxx1112basic_stringIcSt11char_traitsIcESaIcEEESt4pairIKS5_St3mapIS5_PN5Botan11BlockCipherESt4lessIS5_ESaIS6_IS7_SB_EEEESt10_Select1stISH_ESD_SaISH_EE24_M_get_insert_unique_posERS7_@Base 1.10.10
 _ZNSt8_Rb_treeINSt7__cxx1112basic_stringIcSt11char_traitsIcESaIcEEESt4pairIKS5_St3mapIS5_PN5Botan11BlockCipherESt4lessIS5_ESaIS6_IS7_SB_EEEESt10_Select1stISH_ESD_SaISH_EE4findERS7_@Base 1.10.10
 _ZNSt8_Rb_treeINSt7__cxx1112basic_stringIcSt11char_traitsIcESaIcEEESt4pairIKS5_St3mapIS5_PN5Botan11BlockCipherESt4lessIS5_ESaIS6_IS7_SB_EEEESt10_Select1stISH_ESD_SaISH_EE8_M_eraseEPSt13_Rb_tree_nodeISH_E@Base 1.10.10
 _ZNSt8_Rb_treeINSt7__cxx1112basic_stringIcSt11char_traitsIcESaIcEEESt4pairIKS5_St3mapIS5_PN5Botan12HashFunctionESt4lessIS5_ESaIS6_IS7_SB_EEEESt10_Select1stISH_ESD_SaISH_EE24_M_get_insert_unique_posERS7_@Base 1.10.10
 _ZNSt8_Rb_treeINSt7__cxx1112basic_stringIcSt11char_traitsIcESaIcEEESt4pairIKS5_St3mapIS5_PN5Botan12HashFunctionESt4lessIS5_ESaIS6_IS7_SB_EEEESt10_Select1stISH_ESD_SaISH_EE4findERS7_@Base 1.10.10
 _ZNSt8_Rb_treeINSt7__cxx1112basic_stringIcSt11char_traitsIcESaIcEEESt4pairIKS5_St3mapIS5_PN5Botan12HashFunctionESt4lessIS5_ESaIS6_IS7_SB_EEEESt10_Select1stISH_ESD_SaISH_EE8_M_eraseEPSt13_Rb_tree_nodeISH_E@Base 1.10.10
 _ZNSt8_Rb_treeINSt7__cxx1112basic_stringIcSt11char_traitsIcESaIcEEESt4pairIKS5_St3mapIS5_PN5Botan12StreamCipherESt4lessIS5_ESaIS6_IS7_SB_EEEESt10_Select1stISH_ESD_SaISH_EE24_M_get_insert_unique_posERS7_@Base 1.10.10
 _ZNSt8_Rb_treeINSt7__cxx1112basic_stringIcSt11char_traitsIcESaIcEEESt4pairIKS5_St3mapIS5_PN5Botan12StreamCipherESt4lessIS5_ESaIS6_IS7_SB_EEEESt10_Select1stISH_ESD_SaISH_EE4findERS7_@Base 1.10.10
 _ZNSt8_Rb_treeINSt7__cxx1112basic_stringIcSt11char_traitsIcESaIcEEESt4pairIKS5_St3mapIS5_PN5Botan12StreamCipherESt4lessIS5_ESaIS6_IS7_SB_EEEESt10_Select1stISH_ESD_SaISH_EE8_M_eraseEPSt13_Rb_tree_nodeISH_E@Base 1.10.10
 _ZNSt8_Rb_treeINSt7__cxx1112basic_stringIcSt11char_traitsIcESaIcEEESt4pairIKS5_St3mapIS5_PN5Botan25MessageAuthenticationCodeESt4lessIS5_ESaIS6_IS7_SB_EEEESt10_Select1stISH_ESD_SaISH_EE24_M_get_insert_unique_posERS7_@Base 1.10.10
 _ZNSt8_Rb_treeINSt7__cxx1112basic_stringIcSt11char_traitsIcESaIcEEESt4pairIKS5_St3mapIS5_PN5Botan25MessageAuthenticationCodeESt4lessIS5_ESaIS6_IS7_SB_EEEESt10_Select1stISH_ESD_SaISH_EE4findERS7_@Base 1.10.10
 _ZNSt8_Rb_treeINSt7__cxx1112basic_stringIcSt11char_traitsIcESaIcEEESt4pairIKS5_St3mapIS5_PN5Botan25MessageAuthenticationCodeESt4lessIS5_ESaIS6_IS7_SB_EEEESt10_Select1stISH_ESD_SaISH_EE8_M_eraseEPSt13_Rb_tree_nodeISH_E@Base 1.10.10
 _ZNSt8_Rb_treeINSt7__cxx1112basic_stringIcSt11char_traitsIcESaIcEEESt4pairIKS5_St3mapIS5_PN5Botan5PBKDFESt4lessIS5_ESaIS6_IS7_SB_EEEESt10_Select1stISH_ESD_SaISH_EE24_M_get_insert_unique_posERS7_@Base 1.10.10
 _ZNSt8_Rb_treeINSt7__cxx1112basic_stringIcSt11char_traitsIcESaIcEEESt4pairIKS5_St3mapIS5_PN5Botan5PBKDFESt4lessIS5_ESaIS6_IS7_SB_EEEESt10_Select1stISH_ESD_SaISH_EE4findERS7_@Base 1.10.10
 _ZNSt8_Rb_treeINSt7__cxx1112basic_stringIcSt11char_traitsIcESaIcEEESt4pairIKS5_St3mapIS5_PN5Botan5PBKDFESt4lessIS5_ESaIS6_IS7_SB_EEEESt10_Select1stISH_ESD_SaISH_EE8_M_eraseEPSt13_Rb_tree_nodeISH_E@Base 1.10.10
 _ZNSt8_Rb_treeINSt7__cxx1112basic_stringIcSt11char_traitsIcESaIcEEESt4pairIKS5_bESt10_Select1stIS8_ESt4lessIS5_ESaIS8_EE24_M_get_insert_unique_posERS7_@Base 1.10.10
 _ZNSt8_Rb_treeINSt7__cxx1112basic_stringIcSt11char_traitsIcESaIcEEESt4pairIKS5_bESt10_Select1stIS8_ESt4lessIS5_ESaIS8_EE8_M_eraseEPSt13_Rb_tree_nodeIS8_E@Base 1.10.10
 _ZNSt8_Rb_treeINSt7__cxx1112basic_stringIcSt11char_traitsIcESaIcEEESt4pairIKS5_dESt10_Select1stIS8_ESt4lessIS5_ESaIS8_EE24_M_get_insert_unique_posERS7_@Base 1.10.10
 _ZNSt8_Rb_treeINSt7__cxx1112basic_stringIcSt11char_traitsIcESaIcEEESt4pairIKS5_dESt10_Select1stIS8_ESt4lessIS5_ESaIS8_EE29_M_get_insert_hint_unique_posESt23_Rb_tree_const_iteratorIS8_ERS7_@Base 1.10.10
 _ZNSt8_Rb_treeINSt7__cxx1112basic_stringIcSt11char_traitsIcESaIcEEESt4pairIKS5_dESt10_Select1stIS8_ESt4lessIS5_ESaIS8_EE8_M_eraseEPSt13_Rb_tree_nodeIS8_E@Base 1.10.10
 _ZNSt8_Rb_treeIPvSt4pairIKS0_mESt10_Select1stIS3_ESt4lessIS0_ESaIS3_EE29_M_get_insert_hint_unique_posESt23_Rb_tree_const_iteratorIS3_ERS2_@Base 1.10.10
 _ZNSt8_Rb_treeIPvSt4pairIKS0_mESt10_Select1stIS3_ESt4lessIS0_ESaIS3_EE8_M_eraseEPSt13_Rb_tree_nodeIS3_E@Base 1.10.10
 _ZNSt8auto_ptrIN5Botan9PK_SignerEED1Ev@Base 1.10.10
 _ZNSt8auto_ptrIN5Botan9PK_SignerEED2Ev@Base 1.10.10
 _ZStplIcSt11char_traitsIcESaIcEENSt7__cxx1112basic_stringIT_T0_T1_EEPKS5_RKS8_@Base 1.10.10
 _ZStplIcSt11char_traitsIcESaIcEENSt7__cxx1112basic_stringIT_T0_T1_EERKS8_PKS5_@Base 1.10.10
 _ZStplIcSt11char_traitsIcESaIcEENSt7__cxx1112basic_stringIT_T0_T1_EERKS8_SA_@Base 1.10.10
 _ZTIN5Botan10DataSourceE@Base 1.10.10
 _ZTIN5Botan10Data_Store7MatcherE@Base 1.10.10
 _ZTIN5Botan10ExtensionsE@Base 1.10.10
 _ZTIN5Botan10GOST_34_11E@Base 1.10.10
 _ZTIN5Botan10MAC_FilterE@Base 1.10.10
 _ZTIN5Botan10Public_KeyE@Base 1.10.10
 _ZTIN5Botan10RIPEMD_128E@Base 1.10.10
 _ZTIN5Botan10RIPEMD_160E@Base 1.10.10
 _ZTIN5Botan10TLS_12_PRFE@Base 1.10.10
 _ZTIN5Botan10TLS_ClientE@Base 1.10.10
 _ZTIN5Botan10TLS_PolicyE@Base 1.10.10
 _ZTIN5Botan10TLS_ServerE@Base 1.10.10
 _ZTIN5Botan11ASN1_ObjectE@Base 1.10.10
 _ZTIN5Botan11ASN1_StringE@Base 1.10.10
 _ZTIN5Botan11BER_Bad_TagE@Base 1.10.10
 _ZTIN5Botan11BlockCipherE@Base 1.10.10
 _ZTIN5Botan11Hash_FilterE@Base 1.10.10
 _ZTIN5Botan11Hex_DecoderE@Base 1.10.10
 _ZTIN5Botan11Hex_EncoderE@Base 1.10.10
 _ZTIN5Botan11Invalid_OIDE@Base 1.10.10
 _ZTIN5Botan11Keccak_1600E@Base 1.10.10
 _ZTIN5Botan11LubyRackoffE@Base 1.10.10
 _ZTIN5Botan11OpenPGP_S2KE@Base 1.10.10
 _ZTIN5Botan11Private_KeyE@Base 1.10.10
 _ZTIN5Botan11SecureQueueE@Base 1.10.10
 _ZTIN5Botan11X509_ObjectE@Base 1.10.10
 _ZTIN5Botan12Camellia_128E@Base 1.10.10
 _ZTIN5Botan12Camellia_192E@Base 1.10.10
 _ZTIN5Botan12Camellia_256E@Base 1.10.10
 _ZTIN5Botan12DH_PublicKeyE@Base 1.10.10
 _ZTIN5Botan12EC_PublicKeyE@Base 1.10.10
 _ZTIN5Botan12EME_PKCS1v15E@Base 1.10.10
 _ZTIN5Botan12HashFunctionE@Base 1.10.10
 _ZTIN5Botan12Keyed_FilterE@Base 1.10.10
 _ZTIN5Botan12Lookup_ErrorE@Base 1.10.10
 _ZTIN5Botan12NR_PublicKeyE@Base 1.10.10
 _ZTIN5Botan12Noekeon_SIMDE@Base 1.10.10
 _ZTIN5Botan12Null_PaddingE@Base 1.10.10
 _ZTIN5Botan12PBE_PKCS5v15E@Base 1.10.10
 _ZTIN5Botan12PBE_PKCS5v20E@Base 1.10.10
 _ZTIN5Botan12PKCS5_PBKDF1E@Base 1.10.10
 _ZTIN5Botan12PKCS5_PBKDF2E@Base 1.10.10
 _ZTIN5Botan12PK_DecryptorE@Base 1.10.10
 _ZTIN5Botan12PK_EncryptorE@Base 1.10.10
 _ZTIN5Botan12RW_PublicKeyE@Base 1.10.10
 _ZTIN5Botan12SHA_160_SSE2E@Base 1.10.10
 _ZTIN5Botan12Serpent_SIMDE@Base 1.10.10
 _ZTIN5Botan12StreamCipherE@Base 1.10.10
 _ZTIN5Botan13ANSI_X919_MACE@Base 1.10.10
 _ZTIN5Botan13ANSI_X931_RNGE@Base 1.10.10
 _ZTIN5Botan13DH_PrivateKeyE@Base 1.10.10
 _ZTIN5Botan13DSA_PublicKeyE@Base 1.10.10
 _ZTIN5Botan13EC_PrivateKeyE@Base 1.10.10
 _ZTIN5Botan13EntropySourceE@Base 1.10.10
 _ZTIN5Botan13Fanout_FilterE@Base 1.10.10
 _ZTIN5Botan13GOST_28147_89E@Base 1.10.10
 _ZTIN5Botan13Illegal_PointE@Base 1.10.10
 _ZTIN5Botan13Invalid_StateE@Base 1.10.10
 _ZTIN5Botan13NR_PrivateKeyE@Base 1.10.10
 _ZTIN5Botan13PKCS7_PaddingE@Base 1.10.10
 _ZTIN5Botan13PRNG_UnseededE@Base 1.10.10
 _ZTIN5Botan13RSA_PublicKeyE@Base 1.10.10
 _ZTIN5Botan13RW_PrivateKeyE@Base 1.10.10
 _ZTIN5Botan13TLS_ExceptionE@Base 1.10.10
 _ZTIN5Botan14AutoSeeded_RNGE@Base 1.10.10
 _ZTIN5Botan14Base64_DecoderE@Base 1.10.10
 _ZTIN5Botan14Base64_EncoderE@Base 1.10.10
 _ZTIN5Botan14CBC_DecryptionE@Base 1.10.10
 _ZTIN5Botan14CBC_EncryptionE@Base 1.10.10
 _ZTIN5Botan14CFB_DecryptionE@Base 1.10.10
 _ZTIN5Botan14CFB_EncryptionE@Base 1.10.10
 _ZTIN5Botan14CTS_DecryptionE@Base 1.10.10
 _ZTIN5Botan14CTS_EncryptionE@Base 1.10.10
 _ZTIN5Botan14Cascade_CipherE@Base 1.10.10
 _ZTIN5Botan14Cert_Extension10CRL_NumberE@Base 1.10.10
 _ZTIN5Botan14Cert_Extension14CRL_ReasonCodeE@Base 1.10.10
 _ZTIN5Botan14Cert_Extension14Subject_Key_IDE@Base 1.10.10
 _ZTIN5Botan14Cert_Extension16Alternative_NameE@Base 1.10.10
 _ZTIN5Botan14Cert_Extension16Authority_Key_IDE@Base 1.10.10
 _ZTIN5Botan14Cert_Extension17Basic_ConstraintsE@Base 1.10.10
 _ZTIN5Botan14Cert_Extension18Extended_Key_UsageE@Base 1.10.10
 _ZTIN5Botan14Cert_Extension20Certificate_PoliciesE@Base 1.10.10
 _ZTIN5Botan14Cert_Extension23Issuer_Alternative_NameE@Base 1.10.10
 _ZTIN5Botan14Cert_Extension24Subject_Alternative_NameE@Base 1.10.10
 _ZTIN5Botan14Cert_Extension9Key_UsageE@Base 1.10.10
 _ZTIN5Botan14DSA_PrivateKeyE@Base 1.10.10
 _ZTIN5Botan14Decoding_ErrorE@Base 1.10.10
 _ZTIN5Botan14EAX_DecryptionE@Base 1.10.10
 _ZTIN5Botan14EAX_EncryptionE@Base 1.10.10
 _ZTIN5Botan14ECB_DecryptionE@Base 1.10.10
 _ZTIN5Botan14ECB_EncryptionE@Base 1.10.10
 _ZTIN5Botan14ECDH_PublicKeyE@Base 1.10.10
 _ZTIN5Botan14Encoding_ErrorE@Base 1.10.10
 _ZTIN5Botan14Internal_ErrorE@Base 1.10.10
 _ZTIN5Botan14PKCS10_RequestE@Base 1.10.10
 _ZTIN5Botan14RSA_PrivateKeyE@Base 1.10.10
 _ZTIN5Botan14SHA_160_X86_64E@Base 1.10.10
 _ZTIN5Botan14TLS_ConnectionE@Base 1.10.10
 _ZTIN5Botan14User_InterfaceE@Base 1.10.10
 _ZTIN5Botan14XTS_DecryptionE@Base 1.10.10
 _ZTIN5Botan14XTS_EncryptionE@Base 1.10.10
 _ZTIN5Botan15AlternativeNameE@Base 1.10.10
 _ZTIN5Botan15Buffered_FilterE@Base 1.10.10
 _ZTIN5Botan15DH_KA_OperationE@Base 1.10.10
 _ZTIN5Botan15DLIES_DecryptorE@Base 1.10.10
 _ZTIN5Botan15DLIES_EncryptorE@Base 1.10.10
 _ZTIN5Botan15DataSink_StreamE@Base 1.10.10
 _ZTIN5Botan15ECDH_PrivateKeyE@Base 1.10.10
 _ZTIN5Botan15ECDSA_PublicKeyE@Base 1.10.10
 _ZTIN5Botan15PKCS8_ExceptionE@Base 1.10.10
 _ZTIN5Botan15Stream_IO_ErrorE@Base 1.10.10
 _ZTIN5Botan15WiderWake_41_BEE@Base 1.10.10
 _ZTIN5Botan16Bzip_CompressionE@Base 1.10.10
 _ZTIN5Botan16ECDSA_PrivateKeyE@Base 1.10.10
 _ZTIN5Botan16MDx_HashFunctionE@Base 1.10.10
 _ZTIN5Botan16PK_Decryptor_EMEE@Base 1.10.10
 _ZTIN5Botan16PK_Encryptor_EMEE@Base 1.10.10
 _ZTIN5Botan16PK_Signer_FilterE@Base 1.10.10
 _ZTIN5Botan16X509_CertificateE@Base 1.10.10
 _ZTIN5Botan16Zlib_CompressionE@Base 1.10.10
 _ZTIN5Botan17ANSI_X923_PaddingE@Base 1.10.10
 _ZTIN5Botan17Certificate_StoreE@Base 1.10.10
 _ZTIN5Botan17DataSource_MemoryE@Base 1.10.10
 _ZTIN5Botan17DataSource_StreamE@Base 1.10.10
 _ZTIN5Botan17ECDH_KA_OperationE@Base 1.10.10
 _ZTIN5Botan17ElGamal_PublicKeyE@Base 1.10.10
 _ZTIN5Botan17Integrity_FailureE@Base 1.10.10
 _ZTIN5Botan17Invalid_IV_LengthE@Base 1.10.10
 _ZTIN5Botan17Memory_ExhaustionE@Base 1.10.10
 _ZTIN5Botan17Self_Test_FailureE@Base 1.10.10
 _ZTIN5Botan18BER_Decoding_ErrorE@Base 1.10.10
 _ZTIN5Botan18Bzip_DecompressionE@Base 1.10.10
 _ZTIN5Botan18ElGamal_PrivateKeyE@Base 1.10.10
 _ZTIN5Botan18Invalid_Block_SizeE@Base 1.10.10
 _ZTIN5Botan18Invalid_Key_LengthE@Base 1.10.10
 _ZTIN5Botan18PK_Verifier_FilterE@Base 1.10.10
 _ZTIN5Botan18SymmetricAlgorithmE@Base 1.10.10
 _ZTIN5Botan18Unexpected_MessageE@Base 1.10.10
 _ZTIN5Botan18Zlib_DecompressionE@Base 1.10.10
 _ZTIN5Botan19AlgorithmIdentifierE@Base 1.10.10
 _ZTIN5Botan19Algorithm_Not_FoundE@Base 1.10.10
 _ZTIN5Botan19DL_Scheme_PublicKeyE@Base 1.10.10
 _ZTIN5Botan19Entropy_AccumulatorE@Base 1.10.10
 _ZTIN5Botan19GOST_3410_PublicKeyE@Base 1.10.10
 _ZTIN5Botan19IF_Scheme_PublicKeyE@Base 1.10.10
 _ZTIN5Botan19OneAndZeros_PaddingE@Base 1.10.10
 _ZTIN5Botan19PK_Decryptor_FilterE@Base 1.10.10
 _ZTIN5Botan19PK_Encryptor_FilterE@Base 1.10.10
 _ZTIN5Botan19StreamCipher_FilterE@Base 1.10.10
 _ZTIN5Botan20Buffered_ComputationE@Base 1.10.10
 _ZTIN5Botan20DL_Scheme_PrivateKeyE@Base 1.10.10
 _ZTIN5Botan20Fixed_Base_Power_ModE@Base 1.10.10
 _ZTIN5Botan20GOST_3410_PrivateKeyE@Base 1.10.10
 _ZTIN5Botan20IF_Scheme_PrivateKeyE@Base 1.10.10
 _ZTIN5Botan20PK_Key_Agreement_KeyE@Base 1.10.10
 _ZTIN5Botan20RSA_Public_OperationE@Base 1.10.10
 _ZTIN5Botan21Certificate_ExtensionE@Base 1.10.10
 _ZTIN5Botan21Modular_ExponentiatorE@Base 1.10.10
 _ZTIN5Botan21RSA_Private_OperationE@Base 1.10.10
 _ZTIN5Botan21RandomNumberGeneratorE@Base 1.10.10
 _ZTIN5Botan22Illegal_TransformationE@Base 1.10.10
 _ZTIN5Botan22Invalid_Algorithm_NameE@Base 1.10.10
 _ZTIN5Botan22NR_Signature_OperationE@Base 1.10.10
 _ZTIN5Botan22RW_Signature_OperationE@Base 1.10.10
 _ZTIN5Botan23DSA_Signature_OperationE@Base 1.10.10
 _ZTIN5Botan24Certificate_Store_MemoryE@Base 1.10.10
 _ZTIN5Botan24Fixed_Exponent_Power_ModE@Base 1.10.10
 _ZTIN5Botan25Dynamically_Loaded_EngineE@Base 1.10.10
 _ZTIN5Botan25ECDSA_Signature_OperationE@Base 1.10.10
 _ZTIN5Botan25MessageAuthenticationCodeE@Base 1.10.10
 _ZTIN5Botan25NR_Verification_OperationE@Base 1.10.10
 _ZTIN5Botan25RW_Verification_OperationE@Base 1.10.10
 _ZTIN5Botan26DSA_Verification_OperationE@Base 1.10.10
 _ZTIN5Botan28BlockCipherModePaddingMethodE@Base 1.10.10
 _ZTIN5Botan28ECDSA_Verification_OperationE@Base 1.10.10
 _ZTIN5Botan28ElGamal_Decryption_OperationE@Base 1.10.10
 _ZTIN5Botan28ElGamal_Encryption_OperationE@Base 1.10.10
 _ZTIN5Botan29GOST_3410_Signature_OperationE@Base 1.10.10
 _ZTIN5Botan32GOST_3410_Verification_OperationE@Base 1.10.10
 _ZTIN5Botan39Entropy_Accumulator_BufferedComputationE@Base 1.10.10
 _ZTIN5Botan3DESE@Base 1.10.10
 _ZTIN5Botan3EMEE@Base 1.10.10
 _ZTIN5Botan3KDFE@Base 1.10.10
 _ZTIN5Botan3MD2E@Base 1.10.10
 _ZTIN5Botan3MD4E@Base 1.10.10
 _ZTIN5Botan3MD5E@Base 1.10.10
 _ZTIN5Botan3MGFE@Base 1.10.10
 _ZTIN5Botan3OFBE@Base 1.10.10
 _ZTIN5Botan3OIDE@Base 1.10.10
 _ZTIN5Botan3PBEE@Base 1.10.10
 _ZTIN5Botan3RC2E@Base 1.10.10
 _ZTIN5Botan3RC5E@Base 1.10.10
 _ZTIN5Botan3RC6E@Base 1.10.10
 _ZTIN5Botan3TEAE@Base 1.10.10
 _ZTIN5Botan4ARC4E@Base 1.10.10
 _ZTIN5Botan4CMACE@Base 1.10.10
 _ZTIN5Botan4DESXE@Base 1.10.10
 _ZTIN5Botan4EME1E@Base 1.10.10
 _ZTIN5Botan4EMSAE@Base 1.10.10
 _ZTIN5Botan4ForkE@Base 1.10.10
 _ZTIN5Botan4HMACE@Base 1.10.10
 _ZTIN5Botan4IDEAE@Base 1.10.10
 _ZTIN5Botan4KDF1E@Base 1.10.10
 _ZTIN5Botan4KDF2E@Base 1.10.10
 _ZTIN5Botan4LionE@Base 1.10.10
 _ZTIN5Botan4MARSE@Base 1.10.10
 _ZTIN5Botan4MGF1E@Base 1.10.10
 _ZTIN5Botan4Pipe22Invalid_Message_NumberE@Base 1.10.10
 _ZTIN5Botan4PipeE@Base 1.10.10
 _ZTIN5Botan4SEEDE@Base 1.10.10
 _ZTIN5Botan4XTEAE@Base 1.10.10
 _ZTIN5Botan5CRC24E@Base 1.10.10
 _ZTIN5Botan5CRC32E@Base 1.10.10
 _ZTIN5Botan5ChainE@Base 1.10.10
 _ZTIN5Botan5EMSA1E@Base 1.10.10
 _ZTIN5Botan5EMSA2E@Base 1.10.10
 _ZTIN5Botan5EMSA3E@Base 1.10.10
 _ZTIN5Botan5EMSA4E@Base 1.10.10
 _ZTIN5Botan5PBKDFE@Base 1.10.10
 _ZTIN5Botan5TigerE@Base 1.10.10
 _ZTIN5Botan6BigInt12DivideByZeroE@Base 1.10.10
 _ZTIN5Botan6CTR_BEE@Base 1.10.10
 _ZTIN5Botan6Comb4PE@Base 1.10.10
 _ZTIN5Botan6EngineE@Base 1.10.10
 _ZTIN5Botan6FilterE@Base 1.10.10
 _ZTIN5Botan6KASUMIE@Base 1.10.10
 _ZTIN5Botan6MISTY1E@Base 1.10.10
 _ZTIN5Botan6PK_Ops10DecryptionE@Base 1.10.10
 _ZTIN5Botan6PK_Ops10EncryptionE@Base 1.10.10
 _ZTIN5Botan6PK_Ops12VerificationE@Base 1.10.10
 _ZTIN5Botan6PK_Ops13Key_AgreementE@Base 1.10.10
 _ZTIN5Botan6PK_Ops9SignatureE@Base 1.10.10
 _ZTIN5Botan6SquareE@Base 1.10.10
 _ZTIN5Botan6TuringE@Base 1.10.10
 _ZTIN5Botan7AES_128E@Base 1.10.10
 _ZTIN5Botan7AES_192E@Base 1.10.10
 _ZTIN5Botan7AES_256E@Base 1.10.10
 _ZTIN5Botan7Adler32E@Base 1.10.10
 _ZTIN5Botan7BMW_512E@Base 1.10.10
 _ZTIN5Botan7CBC_MACE@Base 1.10.10
 _ZTIN5Botan7HAS_160E@Base 1.10.10
 _ZTIN5Botan7NoekeonE@Base 1.10.10
 _ZTIN5Botan7SHA_160E@Base 1.10.10
 _ZTIN5Botan7SHA_224E@Base 1.10.10
 _ZTIN5Botan7SHA_256E@Base 1.10.10
 _ZTIN5Botan7SHA_384E@Base 1.10.10
 _ZTIN5Botan7SHA_512E@Base 1.10.10
 _ZTIN5Botan7Salsa20E@Base 1.10.10
 _ZTIN5Botan7SerpentE@Base 1.10.10
 _ZTIN5Botan7TLS_PRFE@Base 1.10.10
 _ZTIN5Botan7TwofishE@Base 1.10.10
 _ZTIN5Botan7X509_DNE@Base 1.10.10
 _ZTIN5Botan8BlowfishE@Base 1.10.10
 _ZTIN5Botan8CAST_128E@Base 1.10.10
 _ZTIN5Botan8CAST_256E@Base 1.10.10
 _ZTIN5Botan8DataSinkE@Base 1.10.10
 _ZTIN5Botan8EAX_BaseE@Base 1.10.10
 _ZTIN5Botan8EMSA_RawE@Base 1.10.10
 _ZTIN5Botan8HMAC_RNGE@Base 1.10.10
 _ZTIN5Botan8Null_RNGE@Base 1.10.10
 _ZTIN5Botan8ParallelE@Base 1.10.10
 _ZTIN5Botan8RandpoolE@Base 1.10.10
 _ZTIN5Botan8SAFER_SKE@Base 1.10.10
 _ZTIN5Botan8SSL3_MACE@Base 1.10.10
 _ZTIN5Botan8SSL3_PRFE@Base 1.10.10
 _ZTIN5Botan8SkipjackE@Base 1.10.10
 _ZTIN5Botan8X509_CRL14X509_CRL_ErrorE@Base 1.10.10
 _ZTIN5Botan8X509_CRLE@Base 1.10.10
 _ZTIN5Botan8X942_PRFE@Base 1.10.10
 _ZTIN5Botan9AlgorithmE@Base 1.10.10
 _ZTIN5Botan9AllocatorE@Base 1.10.10
 _ZTIN5Botan9AttributeE@Base 1.10.10
 _ZTIN5Botan9CRL_EntryE@Base 1.10.10
 _ZTIN5Botan9EMSA1_BSIE@Base 1.10.10
 _ZTIN5Botan9EMSA3_RawE@Base 1.10.10
 _ZTIN5Botan9IDEA_SSE2E@Base 1.10.10
 _ZTIN5Botan9Power_ModE@Base 1.10.10
 _ZTIN5Botan9Skein_512E@Base 1.10.10
 _ZTIN5Botan9TripleDESE@Base 1.10.10
 _ZTIN5Botan9WhirlpoolE@Base 1.10.10
 _ZTIN5Botan9X509_TimeE@Base 1.10.10
 _ZTIN5Botan9XTEA_SIMDE@Base 1.10.10
 _ZTINSt3tr117bad_function_callE@Base 1.10.10
 _ZTSN5Botan10DataSourceE@Base 1.10.10
 _ZTSN5Botan10Data_Store7MatcherE@Base 1.10.10
 _ZTSN5Botan10ExtensionsE@Base 1.10.10
 _ZTSN5Botan10GOST_34_11E@Base 1.10.10
 _ZTSN5Botan10MAC_FilterE@Base 1.10.10
 _ZTSN5Botan10Public_KeyE@Base 1.10.10
 _ZTSN5Botan10RIPEMD_128E@Base 1.10.10
 _ZTSN5Botan10RIPEMD_160E@Base 1.10.10
 _ZTSN5Botan10TLS_12_PRFE@Base 1.10.10
 _ZTSN5Botan10TLS_ClientE@Base 1.10.10
 _ZTSN5Botan10TLS_PolicyE@Base 1.10.10
 _ZTSN5Botan10TLS_ServerE@Base 1.10.10
 _ZTSN5Botan11ASN1_ObjectE@Base 1.10.10
 _ZTSN5Botan11ASN1_StringE@Base 1.10.10
 _ZTSN5Botan11BER_Bad_TagE@Base 1.10.10
 _ZTSN5Botan11BlockCipherE@Base 1.10.10
 _ZTSN5Botan11Hash_FilterE@Base 1.10.10
 _ZTSN5Botan11Hex_DecoderE@Base 1.10.10
 _ZTSN5Botan11Hex_EncoderE@Base 1.10.10
 _ZTSN5Botan11Invalid_OIDE@Base 1.10.10
 _ZTSN5Botan11Keccak_1600E@Base 1.10.10
 _ZTSN5Botan11LubyRackoffE@Base 1.10.10
 _ZTSN5Botan11OpenPGP_S2KE@Base 1.10.10
 _ZTSN5Botan11Private_KeyE@Base 1.10.10
 _ZTSN5Botan11SecureQueueE@Base 1.10.10
 _ZTSN5Botan11X509_ObjectE@Base 1.10.10
 _ZTSN5Botan12Camellia_128E@Base 1.10.10
 _ZTSN5Botan12Camellia_192E@Base 1.10.10
 _ZTSN5Botan12Camellia_256E@Base 1.10.10
 _ZTSN5Botan12DH_PublicKeyE@Base 1.10.10
 _ZTSN5Botan12EC_PublicKeyE@Base 1.10.10
 _ZTSN5Botan12EME_PKCS1v15E@Base 1.10.10
 _ZTSN5Botan12HashFunctionE@Base 1.10.10
 _ZTSN5Botan12Keyed_FilterE@Base 1.10.10
 _ZTSN5Botan12Lookup_ErrorE@Base 1.10.10
 _ZTSN5Botan12NR_PublicKeyE@Base 1.10.10
 _ZTSN5Botan12Noekeon_SIMDE@Base 1.10.10
 _ZTSN5Botan12Null_PaddingE@Base 1.10.10
 _ZTSN5Botan12PBE_PKCS5v15E@Base 1.10.10
 _ZTSN5Botan12PBE_PKCS5v20E@Base 1.10.10
 _ZTSN5Botan12PKCS5_PBKDF1E@Base 1.10.10
 _ZTSN5Botan12PKCS5_PBKDF2E@Base 1.10.10
 _ZTSN5Botan12PK_DecryptorE@Base 1.10.10
 _ZTSN5Botan12PK_EncryptorE@Base 1.10.10
 _ZTSN5Botan12RW_PublicKeyE@Base 1.10.10
 _ZTSN5Botan12SHA_160_SSE2E@Base 1.10.10
 _ZTSN5Botan12Serpent_SIMDE@Base 1.10.10
 _ZTSN5Botan12StreamCipherE@Base 1.10.10
 _ZTSN5Botan13ANSI_X919_MACE@Base 1.10.10
 _ZTSN5Botan13ANSI_X931_RNGE@Base 1.10.10
 _ZTSN5Botan13DH_PrivateKeyE@Base 1.10.10
 _ZTSN5Botan13DSA_PublicKeyE@Base 1.10.10
 _ZTSN5Botan13EC_PrivateKeyE@Base 1.10.10
 _ZTSN5Botan13EntropySourceE@Base 1.10.10
 _ZTSN5Botan13Fanout_FilterE@Base 1.10.10
 _ZTSN5Botan13GOST_28147_89E@Base 1.10.10
 _ZTSN5Botan13Illegal_PointE@Base 1.10.10
 _ZTSN5Botan13Invalid_StateE@Base 1.10.10
 _ZTSN5Botan13NR_PrivateKeyE@Base 1.10.10
 _ZTSN5Botan13PKCS7_PaddingE@Base 1.10.10
 _ZTSN5Botan13PRNG_UnseededE@Base 1.10.10
 _ZTSN5Botan13RSA_PublicKeyE@Base 1.10.10
 _ZTSN5Botan13RW_PrivateKeyE@Base 1.10.10
 _ZTSN5Botan13TLS_ExceptionE@Base 1.10.10
 _ZTSN5Botan14AutoSeeded_RNGE@Base 1.10.10
 _ZTSN5Botan14Base64_DecoderE@Base 1.10.10
 _ZTSN5Botan14Base64_EncoderE@Base 1.10.10
 _ZTSN5Botan14CBC_DecryptionE@Base 1.10.10
 _ZTSN5Botan14CBC_EncryptionE@Base 1.10.10
 _ZTSN5Botan14CFB_DecryptionE@Base 1.10.10
 _ZTSN5Botan14CFB_EncryptionE@Base 1.10.10
 _ZTSN5Botan14CTS_DecryptionE@Base 1.10.10
 _ZTSN5Botan14CTS_EncryptionE@Base 1.10.10
 _ZTSN5Botan14Cascade_CipherE@Base 1.10.10
 _ZTSN5Botan14Cert_Extension10CRL_NumberE@Base 1.10.10
 _ZTSN5Botan14Cert_Extension14CRL_ReasonCodeE@Base 1.10.10
 _ZTSN5Botan14Cert_Extension14Subject_Key_IDE@Base 1.10.10
 _ZTSN5Botan14Cert_Extension16Alternative_NameE@Base 1.10.10
 _ZTSN5Botan14Cert_Extension16Authority_Key_IDE@Base 1.10.10
 _ZTSN5Botan14Cert_Extension17Basic_ConstraintsE@Base 1.10.10
 _ZTSN5Botan14Cert_Extension18Extended_Key_UsageE@Base 1.10.10
 _ZTSN5Botan14Cert_Extension20Certificate_PoliciesE@Base 1.10.10
 _ZTSN5Botan14Cert_Extension23Issuer_Alternative_NameE@Base 1.10.10
 _ZTSN5Botan14Cert_Extension24Subject_Alternative_NameE@Base 1.10.10
 _ZTSN5Botan14Cert_Extension9Key_UsageE@Base 1.10.10
 _ZTSN5Botan14DSA_PrivateKeyE@Base 1.10.10
 _ZTSN5Botan14Decoding_ErrorE@Base 1.10.10
 _ZTSN5Botan14EAX_DecryptionE@Base 1.10.10
 _ZTSN5Botan14EAX_EncryptionE@Base 1.10.10
 _ZTSN5Botan14ECB_DecryptionE@Base 1.10.10
 _ZTSN5Botan14ECB_EncryptionE@Base 1.10.10
 _ZTSN5Botan14ECDH_PublicKeyE@Base 1.10.10
 _ZTSN5Botan14Encoding_ErrorE@Base 1.10.10
 _ZTSN5Botan14Internal_ErrorE@Base 1.10.10
 _ZTSN5Botan14PKCS10_RequestE@Base 1.10.10
 _ZTSN5Botan14RSA_PrivateKeyE@Base 1.10.10
 _ZTSN5Botan14SHA_160_X86_64E@Base 1.10.10
 _ZTSN5Botan14TLS_ConnectionE@Base 1.10.10
 _ZTSN5Botan14User_InterfaceE@Base 1.10.10
 _ZTSN5Botan14XTS_DecryptionE@Base 1.10.10
 _ZTSN5Botan14XTS_EncryptionE@Base 1.10.10
 _ZTSN5Botan15AlternativeNameE@Base 1.10.10
 _ZTSN5Botan15Buffered_FilterE@Base 1.10.10
 _ZTSN5Botan15DH_KA_OperationE@Base 1.10.10
 _ZTSN5Botan15DLIES_DecryptorE@Base 1.10.10
 _ZTSN5Botan15DLIES_EncryptorE@Base 1.10.10
 _ZTSN5Botan15DataSink_StreamE@Base 1.10.10
 _ZTSN5Botan15ECDH_PrivateKeyE@Base 1.10.10
 _ZTSN5Botan15ECDSA_PublicKeyE@Base 1.10.10
 _ZTSN5Botan15PKCS8_ExceptionE@Base 1.10.10
 _ZTSN5Botan15Stream_IO_ErrorE@Base 1.10.10
 _ZTSN5Botan15WiderWake_41_BEE@Base 1.10.10
 _ZTSN5Botan16Bzip_CompressionE@Base 1.10.10
 _ZTSN5Botan16ECDSA_PrivateKeyE@Base 1.10.10
 _ZTSN5Botan16MDx_HashFunctionE@Base 1.10.10
 _ZTSN5Botan16PK_Decryptor_EMEE@Base 1.10.10
 _ZTSN5Botan16PK_Encryptor_EMEE@Base 1.10.10
 _ZTSN5Botan16PK_Signer_FilterE@Base 1.10.10
 _ZTSN5Botan16X509_CertificateE@Base 1.10.10
 _ZTSN5Botan16Zlib_CompressionE@Base 1.10.10
 _ZTSN5Botan17ANSI_X923_PaddingE@Base 1.10.10
 _ZTSN5Botan17Certificate_StoreE@Base 1.10.10
 _ZTSN5Botan17DataSource_MemoryE@Base 1.10.10
 _ZTSN5Botan17DataSource_StreamE@Base 1.10.10
 _ZTSN5Botan17ECDH_KA_OperationE@Base 1.10.10
 _ZTSN5Botan17ElGamal_PublicKeyE@Base 1.10.10
 _ZTSN5Botan17Integrity_FailureE@Base 1.10.10
 _ZTSN5Botan17Invalid_IV_LengthE@Base 1.10.10
 _ZTSN5Botan17Memory_ExhaustionE@Base 1.10.10
 _ZTSN5Botan17Self_Test_FailureE@Base 1.10.10
 _ZTSN5Botan18BER_Decoding_ErrorE@Base 1.10.10
 _ZTSN5Botan18Bzip_DecompressionE@Base 1.10.10
 _ZTSN5Botan18ElGamal_PrivateKeyE@Base 1.10.10
 _ZTSN5Botan18Invalid_Block_SizeE@Base 1.10.10
 _ZTSN5Botan18Invalid_Key_LengthE@Base 1.10.10
 _ZTSN5Botan18PK_Verifier_FilterE@Base 1.10.10
 _ZTSN5Botan18SymmetricAlgorithmE@Base 1.10.10
 _ZTSN5Botan18Unexpected_MessageE@Base 1.10.10
 _ZTSN5Botan18Zlib_DecompressionE@Base 1.10.10
 _ZTSN5Botan19AlgorithmIdentifierE@Base 1.10.10
 _ZTSN5Botan19Algorithm_Not_FoundE@Base 1.10.10
 _ZTSN5Botan19DL_Scheme_PublicKeyE@Base 1.10.10
 _ZTSN5Botan19Entropy_AccumulatorE@Base 1.10.10
 _ZTSN5Botan19GOST_3410_PublicKeyE@Base 1.10.10
 _ZTSN5Botan19IF_Scheme_PublicKeyE@Base 1.10.10
 _ZTSN5Botan19OneAndZeros_PaddingE@Base 1.10.10
 _ZTSN5Botan19PK_Decryptor_FilterE@Base 1.10.10
 _ZTSN5Botan19PK_Encryptor_FilterE@Base 1.10.10
 _ZTSN5Botan19StreamCipher_FilterE@Base 1.10.10
 _ZTSN5Botan20Buffered_ComputationE@Base 1.10.10
 _ZTSN5Botan20DL_Scheme_PrivateKeyE@Base 1.10.10
 _ZTSN5Botan20Fixed_Base_Power_ModE@Base 1.10.10
 _ZTSN5Botan20GOST_3410_PrivateKeyE@Base 1.10.10
 _ZTSN5Botan20IF_Scheme_PrivateKeyE@Base 1.10.10
 _ZTSN5Botan20PK_Key_Agreement_KeyE@Base 1.10.10
 _ZTSN5Botan20RSA_Public_OperationE@Base 1.10.10
 _ZTSN5Botan21Certificate_ExtensionE@Base 1.10.10
 _ZTSN5Botan21Modular_ExponentiatorE@Base 1.10.10
 _ZTSN5Botan21RSA_Private_OperationE@Base 1.10.10
 _ZTSN5Botan21RandomNumberGeneratorE@Base 1.10.10
 _ZTSN5Botan22Illegal_TransformationE@Base 1.10.10
 _ZTSN5Botan22Invalid_Algorithm_NameE@Base 1.10.10
 _ZTSN5Botan22NR_Signature_OperationE@Base 1.10.10
 _ZTSN5Botan22RW_Signature_OperationE@Base 1.10.10
 _ZTSN5Botan23DSA_Signature_OperationE@Base 1.10.10
 _ZTSN5Botan24Certificate_Store_MemoryE@Base 1.10.10
 _ZTSN5Botan24Fixed_Exponent_Power_ModE@Base 1.10.10
 _ZTSN5Botan25Dynamically_Loaded_EngineE@Base 1.10.10
 _ZTSN5Botan25ECDSA_Signature_OperationE@Base 1.10.10
 _ZTSN5Botan25MessageAuthenticationCodeE@Base 1.10.10
 _ZTSN5Botan25NR_Verification_OperationE@Base 1.10.10
 _ZTSN5Botan25RW_Verification_OperationE@Base 1.10.10
 _ZTSN5Botan26DSA_Verification_OperationE@Base 1.10.10
 _ZTSN5Botan28BlockCipherModePaddingMethodE@Base 1.10.10
 _ZTSN5Botan28ECDSA_Verification_OperationE@Base 1.10.10
 _ZTSN5Botan28ElGamal_Decryption_OperationE@Base 1.10.10
 _ZTSN5Botan28ElGamal_Encryption_OperationE@Base 1.10.10
 _ZTSN5Botan29GOST_3410_Signature_OperationE@Base 1.10.10
 _ZTSN5Botan32GOST_3410_Verification_OperationE@Base 1.10.10
 _ZTSN5Botan39Entropy_Accumulator_BufferedComputationE@Base 1.10.10
 _ZTSN5Botan3DESE@Base 1.10.10
 _ZTSN5Botan3EMEE@Base 1.10.10
 _ZTSN5Botan3KDFE@Base 1.10.10
 _ZTSN5Botan3MD2E@Base 1.10.10
 _ZTSN5Botan3MD4E@Base 1.10.10
 _ZTSN5Botan3MD5E@Base 1.10.10
 _ZTSN5Botan3MGFE@Base 1.10.10
 _ZTSN5Botan3OFBE@Base 1.10.10
 _ZTSN5Botan3OIDE@Base 1.10.10
 _ZTSN5Botan3PBEE@Base 1.10.10
 _ZTSN5Botan3RC2E@Base 1.10.10
 _ZTSN5Botan3RC5E@Base 1.10.10
 _ZTSN5Botan3RC6E@Base 1.10.10
 _ZTSN5Botan3TEAE@Base 1.10.10
 _ZTSN5Botan4ARC4E@Base 1.10.10
 _ZTSN5Botan4CMACE@Base 1.10.10
 _ZTSN5Botan4DESXE@Base 1.10.10
 _ZTSN5Botan4EME1E@Base 1.10.10
 _ZTSN5Botan4EMSAE@Base 1.10.10
 _ZTSN5Botan4ForkE@Base 1.10.10
 _ZTSN5Botan4HMACE@Base 1.10.10
 _ZTSN5Botan4IDEAE@Base 1.10.10
 _ZTSN5Botan4KDF1E@Base 1.10.10
 _ZTSN5Botan4KDF2E@Base 1.10.10
 _ZTSN5Botan4LionE@Base 1.10.10
 _ZTSN5Botan4MARSE@Base 1.10.10
 _ZTSN5Botan4MGF1E@Base 1.10.10
 _ZTSN5Botan4Pipe22Invalid_Message_NumberE@Base 1.10.10
 _ZTSN5Botan4PipeE@Base 1.10.10
 _ZTSN5Botan4SEEDE@Base 1.10.10
 _ZTSN5Botan4XTEAE@Base 1.10.10
 _ZTSN5Botan5CRC24E@Base 1.10.10
 _ZTSN5Botan5CRC32E@Base 1.10.10
 _ZTSN5Botan5ChainE@Base 1.10.10
 _ZTSN5Botan5EMSA1E@Base 1.10.10
 _ZTSN5Botan5EMSA2E@Base 1.10.10
 _ZTSN5Botan5EMSA3E@Base 1.10.10
 _ZTSN5Botan5EMSA4E@Base 1.10.10
 _ZTSN5Botan5PBKDFE@Base 1.10.10
 _ZTSN5Botan5TigerE@Base 1.10.10
 _ZTSN5Botan6BigInt12DivideByZeroE@Base 1.10.10
 _ZTSN5Botan6CTR_BEE@Base 1.10.10
 _ZTSN5Botan6Comb4PE@Base 1.10.10
 _ZTSN5Botan6EngineE@Base 1.10.10
 _ZTSN5Botan6FilterE@Base 1.10.10
 _ZTSN5Botan6KASUMIE@Base 1.10.10
 _ZTSN5Botan6MISTY1E@Base 1.10.10
 _ZTSN5Botan6PK_Ops10DecryptionE@Base 1.10.10
 _ZTSN5Botan6PK_Ops10EncryptionE@Base 1.10.10
 _ZTSN5Botan6PK_Ops12VerificationE@Base 1.10.10
 _ZTSN5Botan6PK_Ops13Key_AgreementE@Base 1.10.10
 _ZTSN5Botan6PK_Ops9SignatureE@Base 1.10.10
 _ZTSN5Botan6SquareE@Base 1.10.10
 _ZTSN5Botan6TuringE@Base 1.10.10
 _ZTSN5Botan7AES_128E@Base 1.10.10
 _ZTSN5Botan7AES_192E@Base 1.10.10
 _ZTSN5Botan7AES_256E@Base 1.10.10
 _ZTSN5Botan7Adler32E@Base 1.10.10
 _ZTSN5Botan7BMW_512E@Base 1.10.10
 _ZTSN5Botan7CBC_MACE@Base 1.10.10
 _ZTSN5Botan7HAS_160E@Base 1.10.10
 _ZTSN5Botan7NoekeonE@Base 1.10.10
 _ZTSN5Botan7SHA_160E@Base 1.10.10
 _ZTSN5Botan7SHA_224E@Base 1.10.10
 _ZTSN5Botan7SHA_256E@Base 1.10.10
 _ZTSN5Botan7SHA_384E@Base 1.10.10
 _ZTSN5Botan7SHA_512E@Base 1.10.10
 _ZTSN5Botan7Salsa20E@Base 1.10.10
 _ZTSN5Botan7SerpentE@Base 1.10.10
 _ZTSN5Botan7TLS_PRFE@Base 1.10.10
 _ZTSN5Botan7TwofishE@Base 1.10.10
 _ZTSN5Botan7X509_DNE@Base 1.10.10
 _ZTSN5Botan8BlowfishE@Base 1.10.10
 _ZTSN5Botan8CAST_128E@Base 1.10.10
 _ZTSN5Botan8CAST_256E@Base 1.10.10
 _ZTSN5Botan8DataSinkE@Base 1.10.10
 _ZTSN5Botan8EAX_BaseE@Base 1.10.10
 _ZTSN5Botan8EMSA_RawE@Base 1.10.10
 _ZTSN5Botan8HMAC_RNGE@Base 1.10.10
 _ZTSN5Botan8Null_RNGE@Base 1.10.10
 _ZTSN5Botan8ParallelE@Base 1.10.10
 _ZTSN5Botan8RandpoolE@Base 1.10.10
 _ZTSN5Botan8SAFER_SKE@Base 1.10.10
 _ZTSN5Botan8SSL3_MACE@Base 1.10.10
 _ZTSN5Botan8SSL3_PRFE@Base 1.10.10
 _ZTSN5Botan8SkipjackE@Base 1.10.10
 _ZTSN5Botan8X509_CRL14X509_CRL_ErrorE@Base 1.10.10
 _ZTSN5Botan8X509_CRLE@Base 1.10.10
 _ZTSN5Botan8X942_PRFE@Base 1.10.10
 _ZTSN5Botan9AlgorithmE@Base 1.10.10
 _ZTSN5Botan9AllocatorE@Base 1.10.10
 _ZTSN5Botan9AttributeE@Base 1.10.10
 _ZTSN5Botan9CRL_EntryE@Base 1.10.10
 _ZTSN5Botan9EMSA1_BSIE@Base 1.10.10
 _ZTSN5Botan9EMSA3_RawE@Base 1.10.10
 _ZTSN5Botan9IDEA_SSE2E@Base 1.10.10
 _ZTSN5Botan9Power_ModE@Base 1.10.10
 _ZTSN5Botan9Skein_512E@Base 1.10.10
 _ZTSN5Botan9TripleDESE@Base 1.10.10
 _ZTSN5Botan9WhirlpoolE@Base 1.10.10
 _ZTSN5Botan9X509_TimeE@Base 1.10.10
 _ZTSN5Botan9XTEA_SIMDE@Base 1.10.10
 _ZTSNSt3tr117bad_function_callE@Base 1.10.10
 _ZTTN5Botan11Private_KeyE@Base 1.10.10
 _ZTTN5Botan12DH_PublicKeyE@Base 1.10.10
 _ZTTN5Botan12EC_PublicKeyE@Base 1.10.10
 _ZTTN5Botan12NR_PublicKeyE@Base 1.10.10
 _ZTTN5Botan12RW_PublicKeyE@Base 1.10.10
 _ZTTN5Botan13DH_PrivateKeyE@Base 1.10.10
 _ZTTN5Botan13DSA_PublicKeyE@Base 1.10.10
 _ZTTN5Botan13EC_PrivateKeyE@Base 1.10.10
 _ZTTN5Botan13NR_PrivateKeyE@Base 1.10.10
 _ZTTN5Botan13RSA_PublicKeyE@Base 1.10.10
 _ZTTN5Botan13RW_PrivateKeyE@Base 1.10.10
 _ZTTN5Botan14DSA_PrivateKeyE@Base 1.10.10
 _ZTTN5Botan14ECDH_PublicKeyE@Base 1.10.10
 _ZTTN5Botan14RSA_PrivateKeyE@Base 1.10.10
 _ZTTN5Botan15ECDH_PrivateKeyE@Base 1.10.10
 _ZTTN5Botan15ECDSA_PublicKeyE@Base 1.10.10
 _ZTTN5Botan16ECDSA_PrivateKeyE@Base 1.10.10
 _ZTTN5Botan17ElGamal_PublicKeyE@Base 1.10.10
 _ZTTN5Botan18ElGamal_PrivateKeyE@Base 1.10.10
 _ZTTN5Botan19DL_Scheme_PublicKeyE@Base 1.10.10
 _ZTTN5Botan19GOST_3410_PublicKeyE@Base 1.10.10
 _ZTTN5Botan19IF_Scheme_PublicKeyE@Base 1.10.10
 _ZTTN5Botan20DL_Scheme_PrivateKeyE@Base 1.10.10
 _ZTTN5Botan20GOST_3410_PrivateKeyE@Base 1.10.10
 _ZTTN5Botan20IF_Scheme_PrivateKeyE@Base 1.10.10
 _ZTVN5Botan10Data_Store7MatcherE@Base 1.10.10
 _ZTVN5Botan10ExtensionsE@Base 1.10.10
 _ZTVN5Botan10GOST_34_11E@Base 1.10.10
 _ZTVN5Botan10MAC_FilterE@Base 1.10.10
 _ZTVN5Botan10Public_KeyE@Base 1.10.10
 _ZTVN5Botan10RIPEMD_128E@Base 1.10.10
 _ZTVN5Botan10RIPEMD_160E@Base 1.10.10
 _ZTVN5Botan10TLS_12_PRFE@Base 1.10.10
 _ZTVN5Botan10TLS_ClientE@Base 1.10.10
 _ZTVN5Botan10TLS_PolicyE@Base 1.10.10
 _ZTVN5Botan10TLS_ServerE@Base 1.10.10
 _ZTVN5Botan11ASN1_ObjectE@Base 1.10.10
 _ZTVN5Botan11ASN1_StringE@Base 1.10.10
 _ZTVN5Botan11BER_Bad_TagE@Base 1.10.10
 _ZTVN5Botan11Hash_FilterE@Base 1.10.10
 _ZTVN5Botan11Hex_DecoderE@Base 1.10.10
 _ZTVN5Botan11Hex_EncoderE@Base 1.10.10
 _ZTVN5Botan11Invalid_OIDE@Base 1.10.10
 _ZTVN5Botan11Keccak_1600E@Base 1.10.10
 _ZTVN5Botan11LubyRackoffE@Base 1.10.10
 _ZTVN5Botan11OpenPGP_S2KE@Base 1.10.10
 _ZTVN5Botan11Private_KeyE@Base 1.10.10
 _ZTVN5Botan11SecureQueueE@Base 1.10.10
 _ZTVN5Botan11X509_ObjectE@Base 1.10.10
 _ZTVN5Botan12Camellia_128E@Base 1.10.10
 _ZTVN5Botan12Camellia_192E@Base 1.10.10
 _ZTVN5Botan12Camellia_256E@Base 1.10.10
 _ZTVN5Botan12DH_PublicKeyE@Base 1.10.10
 _ZTVN5Botan12EC_PublicKeyE@Base 1.10.10
 _ZTVN5Botan12EME_PKCS1v15E@Base 1.10.10
 _ZTVN5Botan12Keyed_FilterE@Base 1.10.10
 _ZTVN5Botan12Lookup_ErrorE@Base 1.10.10
 _ZTVN5Botan12NR_PublicKeyE@Base 1.10.10
 _ZTVN5Botan12Noekeon_SIMDE@Base 1.10.10
 _ZTVN5Botan12Null_PaddingE@Base 1.10.10
 _ZTVN5Botan12PBE_PKCS5v15E@Base 1.10.10
 _ZTVN5Botan12PBE_PKCS5v20E@Base 1.10.10
 _ZTVN5Botan12PKCS5_PBKDF1E@Base 1.10.10
 _ZTVN5Botan12PKCS5_PBKDF2E@Base 1.10.10
 _ZTVN5Botan12RW_PublicKeyE@Base 1.10.10
 _ZTVN5Botan12SHA_160_SSE2E@Base 1.10.10
 _ZTVN5Botan12Serpent_SIMDE@Base 1.10.10
 _ZTVN5Botan12StreamCipherE@Base 1.10.10
 _ZTVN5Botan13ANSI_X919_MACE@Base 1.10.10
 _ZTVN5Botan13ANSI_X931_RNGE@Base 1.10.10
 _ZTVN5Botan13DH_PrivateKeyE@Base 1.10.10
 _ZTVN5Botan13DSA_PublicKeyE@Base 1.10.10
 _ZTVN5Botan13EC_PrivateKeyE@Base 1.10.10
 _ZTVN5Botan13Fanout_FilterE@Base 1.10.10
 _ZTVN5Botan13GOST_28147_89E@Base 1.10.10
 _ZTVN5Botan13Illegal_PointE@Base 1.10.10
 _ZTVN5Botan13Invalid_StateE@Base 1.10.10
 _ZTVN5Botan13NR_PrivateKeyE@Base 1.10.10
 _ZTVN5Botan13PKCS7_PaddingE@Base 1.10.10
 _ZTVN5Botan13PRNG_UnseededE@Base 1.10.10
 _ZTVN5Botan13RSA_PublicKeyE@Base 1.10.10
 _ZTVN5Botan13RW_PrivateKeyE@Base 1.10.10
 _ZTVN5Botan13TLS_ExceptionE@Base 1.10.10
 _ZTVN5Botan14AutoSeeded_RNGE@Base 1.10.10
 _ZTVN5Botan14Base64_DecoderE@Base 1.10.10
 _ZTVN5Botan14Base64_EncoderE@Base 1.10.10
 _ZTVN5Botan14CBC_DecryptionE@Base 1.10.10
 _ZTVN5Botan14CBC_EncryptionE@Base 1.10.10
 _ZTVN5Botan14CFB_DecryptionE@Base 1.10.10
 _ZTVN5Botan14CFB_EncryptionE@Base 1.10.10
 _ZTVN5Botan14CTS_DecryptionE@Base 1.10.10
 _ZTVN5Botan14CTS_EncryptionE@Base 1.10.10
 _ZTVN5Botan14Cascade_CipherE@Base 1.10.10
 _ZTVN5Botan14Cert_Extension10CRL_NumberE@Base 1.10.10
 _ZTVN5Botan14Cert_Extension14CRL_ReasonCodeE@Base 1.10.10
 _ZTVN5Botan14Cert_Extension14Subject_Key_IDE@Base 1.10.10
 _ZTVN5Botan14Cert_Extension16Alternative_NameE@Base 1.10.10
 _ZTVN5Botan14Cert_Extension16Authority_Key_IDE@Base 1.10.10
 _ZTVN5Botan14Cert_Extension17Basic_ConstraintsE@Base 1.10.10
 _ZTVN5Botan14Cert_Extension18Extended_Key_UsageE@Base 1.10.10
 _ZTVN5Botan14Cert_Extension20Certificate_PoliciesE@Base 1.10.10
 _ZTVN5Botan14Cert_Extension23Issuer_Alternative_NameE@Base 1.10.10
 _ZTVN5Botan14Cert_Extension24Subject_Alternative_NameE@Base 1.10.10
 _ZTVN5Botan14Cert_Extension9Key_UsageE@Base 1.10.10
 _ZTVN5Botan14DSA_PrivateKeyE@Base 1.10.10
 _ZTVN5Botan14Decoding_ErrorE@Base 1.10.10
 _ZTVN5Botan14EAX_DecryptionE@Base 1.10.10
 _ZTVN5Botan14EAX_EncryptionE@Base 1.10.10
 _ZTVN5Botan14ECB_DecryptionE@Base 1.10.10
 _ZTVN5Botan14ECB_EncryptionE@Base 1.10.10
 _ZTVN5Botan14ECDH_PublicKeyE@Base 1.10.10
 _ZTVN5Botan14Encoding_ErrorE@Base 1.10.10
 _ZTVN5Botan14Internal_ErrorE@Base 1.10.10
 _ZTVN5Botan14PKCS10_RequestE@Base 1.10.10
 _ZTVN5Botan14RSA_PrivateKeyE@Base 1.10.10
 _ZTVN5Botan14SHA_160_X86_64E@Base 1.10.10
 _ZTVN5Botan14User_InterfaceE@Base 1.10.10
 _ZTVN5Botan14XTS_DecryptionE@Base 1.10.10
 _ZTVN5Botan14XTS_EncryptionE@Base 1.10.10
 _ZTVN5Botan15AlternativeNameE@Base 1.10.10
 _ZTVN5Botan15Buffered_FilterE@Base 1.10.10
 _ZTVN5Botan15DH_KA_OperationE@Base 1.10.10
 _ZTVN5Botan15DLIES_DecryptorE@Base 1.10.10
 _ZTVN5Botan15DLIES_EncryptorE@Base 1.10.10
 _ZTVN5Botan15DataSink_StreamE@Base 1.10.10
 _ZTVN5Botan15ECDH_PrivateKeyE@Base 1.10.10
 _ZTVN5Botan15ECDSA_PublicKeyE@Base 1.10.10
 _ZTVN5Botan15PKCS8_ExceptionE@Base 1.10.10
 _ZTVN5Botan15Stream_IO_ErrorE@Base 1.10.10
 _ZTVN5Botan15WiderWake_41_BEE@Base 1.10.10
 _ZTVN5Botan16Bzip_CompressionE@Base 1.10.10
 _ZTVN5Botan16ECDSA_PrivateKeyE@Base 1.10.10
 _ZTVN5Botan16MDx_HashFunctionE@Base 1.10.10
 _ZTVN5Botan16PK_Decryptor_EMEE@Base 1.10.10
 _ZTVN5Botan16PK_Encryptor_EMEE@Base 1.10.10
 _ZTVN5Botan16PK_Signer_FilterE@Base 1.10.10
 _ZTVN5Botan16X509_CertificateE@Base 1.10.10
 _ZTVN5Botan16Zlib_CompressionE@Base 1.10.10
 _ZTVN5Botan17ANSI_X923_PaddingE@Base 1.10.10
 _ZTVN5Botan17DataSource_MemoryE@Base 1.10.10
 _ZTVN5Botan17DataSource_StreamE@Base 1.10.10
 _ZTVN5Botan17ECDH_KA_OperationE@Base 1.10.10
 _ZTVN5Botan17ElGamal_PublicKeyE@Base 1.10.10
 _ZTVN5Botan17Integrity_FailureE@Base 1.10.10
 _ZTVN5Botan17Invalid_IV_LengthE@Base 1.10.10
 _ZTVN5Botan17Memory_ExhaustionE@Base 1.10.10
 _ZTVN5Botan17Self_Test_FailureE@Base 1.10.10
 _ZTVN5Botan18BER_Decoding_ErrorE@Base 1.10.10
 _ZTVN5Botan18Bzip_DecompressionE@Base 1.10.10
 _ZTVN5Botan18ElGamal_PrivateKeyE@Base 1.10.10
 _ZTVN5Botan18Invalid_Block_SizeE@Base 1.10.10
 _ZTVN5Botan18Invalid_Key_LengthE@Base 1.10.10
 _ZTVN5Botan18PK_Verifier_FilterE@Base 1.10.10
 _ZTVN5Botan18Unexpected_MessageE@Base 1.10.10
 _ZTVN5Botan18Zlib_DecompressionE@Base 1.10.10
 _ZTVN5Botan19AlgorithmIdentifierE@Base 1.10.10
 _ZTVN5Botan19Algorithm_Not_FoundE@Base 1.10.10
 _ZTVN5Botan19DL_Scheme_PublicKeyE@Base 1.10.10
 _ZTVN5Botan19Entropy_AccumulatorE@Base 1.10.10
 _ZTVN5Botan19GOST_3410_PublicKeyE@Base 1.10.10
 _ZTVN5Botan19IF_Scheme_PublicKeyE@Base 1.10.10
 _ZTVN5Botan19OneAndZeros_PaddingE@Base 1.10.10
 _ZTVN5Botan19PK_Decryptor_FilterE@Base 1.10.10
 _ZTVN5Botan19PK_Encryptor_FilterE@Base 1.10.10
 _ZTVN5Botan19StreamCipher_FilterE@Base 1.10.10
 _ZTVN5Botan20DL_Scheme_PrivateKeyE@Base 1.10.10
 _ZTVN5Botan20Fixed_Base_Power_ModE@Base 1.10.10
 _ZTVN5Botan20GOST_3410_PrivateKeyE@Base 1.10.10
 _ZTVN5Botan20IF_Scheme_PrivateKeyE@Base 1.10.10
 _ZTVN5Botan20RSA_Public_OperationE@Base 1.10.10
 _ZTVN5Botan21RSA_Private_OperationE@Base 1.10.10
 _ZTVN5Botan22Illegal_TransformationE@Base 1.10.10
 _ZTVN5Botan22Invalid_Algorithm_NameE@Base 1.10.10
 _ZTVN5Botan22NR_Signature_OperationE@Base 1.10.10
 _ZTVN5Botan22RW_Signature_OperationE@Base 1.10.10
 _ZTVN5Botan23DSA_Signature_OperationE@Base 1.10.10
 _ZTVN5Botan24Certificate_Store_MemoryE@Base 1.10.10
 _ZTVN5Botan24Fixed_Exponent_Power_ModE@Base 1.10.10
 _ZTVN5Botan25Dynamically_Loaded_EngineE@Base 1.10.10
 _ZTVN5Botan25ECDSA_Signature_OperationE@Base 1.10.10
 _ZTVN5Botan25MessageAuthenticationCodeE@Base 1.10.10
 _ZTVN5Botan25NR_Verification_OperationE@Base 1.10.10
 _ZTVN5Botan25RW_Verification_OperationE@Base 1.10.10
 _ZTVN5Botan26DSA_Verification_OperationE@Base 1.10.10
 _ZTVN5Botan28BlockCipherModePaddingMethodE@Base 1.10.10
 _ZTVN5Botan28ECDSA_Verification_OperationE@Base 1.10.10
 _ZTVN5Botan28ElGamal_Decryption_OperationE@Base 1.10.10
 _ZTVN5Botan28ElGamal_Encryption_OperationE@Base 1.10.10
 _ZTVN5Botan29GOST_3410_Signature_OperationE@Base 1.10.10
 _ZTVN5Botan32GOST_3410_Verification_OperationE@Base 1.10.10
 _ZTVN5Botan39Entropy_Accumulator_BufferedComputationE@Base 1.10.10
 _ZTVN5Botan3DESE@Base 1.10.10
 _ZTVN5Botan3MD2E@Base 1.10.10
 _ZTVN5Botan3MD4E@Base 1.10.10
 _ZTVN5Botan3MD5E@Base 1.10.10
 _ZTVN5Botan3OFBE@Base 1.10.10
 _ZTVN5Botan3OIDE@Base 1.10.10
 _ZTVN5Botan3PBEE@Base 1.10.10
 _ZTVN5Botan3RC2E@Base 1.10.10
 _ZTVN5Botan3RC5E@Base 1.10.10
 _ZTVN5Botan3RC6E@Base 1.10.10
 _ZTVN5Botan3TEAE@Base 1.10.10
 _ZTVN5Botan4ARC4E@Base 1.10.10
 _ZTVN5Botan4CMACE@Base 1.10.10
 _ZTVN5Botan4DESXE@Base 1.10.10
 _ZTVN5Botan4EME1E@Base 1.10.10
 _ZTVN5Botan4ForkE@Base 1.10.10
 _ZTVN5Botan4HMACE@Base 1.10.10
 _ZTVN5Botan4IDEAE@Base 1.10.10
 _ZTVN5Botan4KDF1E@Base 1.10.10
 _ZTVN5Botan4KDF2E@Base 1.10.10
 _ZTVN5Botan4LionE@Base 1.10.10
 _ZTVN5Botan4MARSE@Base 1.10.10
 _ZTVN5Botan4MGF1E@Base 1.10.10
 _ZTVN5Botan4Pipe22Invalid_Message_NumberE@Base 1.10.10
 _ZTVN5Botan4PipeE@Base 1.10.10
 _ZTVN5Botan4SEEDE@Base 1.10.10
 _ZTVN5Botan4XTEAE@Base 1.10.10
 _ZTVN5Botan5CRC24E@Base 1.10.10
 _ZTVN5Botan5CRC32E@Base 1.10.10
 _ZTVN5Botan5ChainE@Base 1.10.10
 _ZTVN5Botan5EMSA1E@Base 1.10.10
 _ZTVN5Botan5EMSA2E@Base 1.10.10
 _ZTVN5Botan5EMSA3E@Base 1.10.10
 _ZTVN5Botan5EMSA4E@Base 1.10.10
 _ZTVN5Botan5TigerE@Base 1.10.10
 _ZTVN5Botan6BigInt12DivideByZeroE@Base 1.10.10
 _ZTVN5Botan6CTR_BEE@Base 1.10.10
 _ZTVN5Botan6Comb4PE@Base 1.10.10
 _ZTVN5Botan6EngineE@Base 1.10.10
 _ZTVN5Botan6FilterE@Base 1.10.10
 _ZTVN5Botan6KASUMIE@Base 1.10.10
 _ZTVN5Botan6MISTY1E@Base 1.10.10
 _ZTVN5Botan6SquareE@Base 1.10.10
 _ZTVN5Botan6TuringE@Base 1.10.10
 _ZTVN5Botan7AES_128E@Base 1.10.10
 _ZTVN5Botan7AES_192E@Base 1.10.10
 _ZTVN5Botan7AES_256E@Base 1.10.10
 _ZTVN5Botan7Adler32E@Base 1.10.10
 _ZTVN5Botan7BMW_512E@Base 1.10.10
 _ZTVN5Botan7CBC_MACE@Base 1.10.10
 _ZTVN5Botan7HAS_160E@Base 1.10.10
 _ZTVN5Botan7NoekeonE@Base 1.10.10
 _ZTVN5Botan7SHA_160E@Base 1.10.10
 _ZTVN5Botan7SHA_224E@Base 1.10.10
 _ZTVN5Botan7SHA_256E@Base 1.10.10
 _ZTVN5Botan7SHA_384E@Base 1.10.10
 _ZTVN5Botan7SHA_512E@Base 1.10.10
 _ZTVN5Botan7Salsa20E@Base 1.10.10
 _ZTVN5Botan7SerpentE@Base 1.10.10
 _ZTVN5Botan7TLS_PRFE@Base 1.10.10
 _ZTVN5Botan7TwofishE@Base 1.10.10
 _ZTVN5Botan7X509_DNE@Base 1.10.10
 _ZTVN5Botan8BlowfishE@Base 1.10.10
 _ZTVN5Botan8CAST_128E@Base 1.10.10
 _ZTVN5Botan8CAST_256E@Base 1.10.10
 _ZTVN5Botan8DataSinkE@Base 1.10.10
 _ZTVN5Botan8EAX_BaseE@Base 1.10.10
 _ZTVN5Botan8EMSA_RawE@Base 1.10.10
 _ZTVN5Botan8HMAC_RNGE@Base 1.10.10
 _ZTVN5Botan8Null_RNGE@Base 1.10.10
 _ZTVN5Botan8ParallelE@Base 1.10.10
 _ZTVN5Botan8RandpoolE@Base 1.10.10
 _ZTVN5Botan8SAFER_SKE@Base 1.10.10
 _ZTVN5Botan8SSL3_MACE@Base 1.10.10
 _ZTVN5Botan8SSL3_PRFE@Base 1.10.10
 _ZTVN5Botan8SkipjackE@Base 1.10.10
 _ZTVN5Botan8X509_CRL14X509_CRL_ErrorE@Base 1.10.10
 _ZTVN5Botan8X509_CRLE@Base 1.10.10
 _ZTVN5Botan8X942_PRFE@Base 1.10.10
 _ZTVN5Botan9AttributeE@Base 1.10.10
 _ZTVN5Botan9CRL_EntryE@Base 1.10.10
 _ZTVN5Botan9EMSA1_BSIE@Base 1.10.10
 _ZTVN5Botan9EMSA3_RawE@Base 1.10.10
 _ZTVN5Botan9IDEA_SSE2E@Base 1.10.10
 _ZTVN5Botan9Power_ModE@Base 1.10.10
 _ZTVN5Botan9Skein_512E@Base 1.10.10
 _ZTVN5Botan9TripleDESE@Base 1.10.10
 _ZTVN5Botan9WhirlpoolE@Base 1.10.10
 _ZTVN5Botan9X509_TimeE@Base 1.10.10
 _ZTVN5Botan9XTEA_SIMDE@Base 1.10.10
 _ZTVNSt3tr117bad_function_callE@Base 1.10.10
 _ZThn56_N5Botan15ECDH_PrivateKeyD0Ev@Base 1.10.10
 _ZThn56_N5Botan15ECDH_PrivateKeyD1Ev@Base 1.10.10
 _ZThn56_NK5Botan15ECDH_PrivateKey12public_valueEv@Base 1.10.10
 _ZThn88_N5Botan11SecureQueue15check_availableEm@Base 1.10.10
 _ZThn88_N5Botan11SecureQueue4readEPhm@Base 1.10.10
 _ZThn88_N5Botan11SecureQueueD0Ev@Base 1.10.10
 _ZThn88_N5Botan11SecureQueueD1Ev@Base 1.10.10
 _ZThn88_N5Botan14CBC_Decryption14buffered_blockEPKhm@Base 1.10.10
 _ZThn88_N5Botan14CBC_Decryption14buffered_finalEPKhm@Base 1.10.10
 _ZThn88_N5Botan14CBC_DecryptionD0Ev@Base 1.10.10
 _ZThn88_N5Botan14CBC_DecryptionD1Ev@Base 1.10.10
 _ZThn88_N5Botan14CBC_Encryption14buffered_blockEPKhm@Base 1.10.10
 _ZThn88_N5Botan14CBC_Encryption14buffered_finalEPKhm@Base 1.10.10
 _ZThn88_N5Botan14CBC_EncryptionD0Ev@Base 1.10.10
 _ZThn88_N5Botan14CBC_EncryptionD1Ev@Base 1.10.10
 _ZThn88_N5Botan14ECB_Decryption14buffered_blockEPKhm@Base 1.10.10
 _ZThn88_N5Botan14ECB_Decryption14buffered_finalEPKhm@Base 1.10.10
 _ZThn88_N5Botan14ECB_DecryptionD0Ev@Base 1.10.10
 _ZThn88_N5Botan14ECB_DecryptionD1Ev@Base 1.10.10
 _ZThn88_N5Botan14ECB_Encryption14buffered_blockEPKhm@Base 1.10.10
 _ZThn88_N5Botan14ECB_Encryption14buffered_finalEPKhm@Base 1.10.10
 _ZThn88_N5Botan14ECB_EncryptionD0Ev@Base 1.10.10
 _ZThn88_N5Botan14ECB_EncryptionD1Ev@Base 1.10.10
 _ZThn88_N5Botan14XTS_Decryption14buffered_blockEPKhm@Base 1.10.10
 _ZThn88_N5Botan14XTS_Decryption14buffered_finalEPKhm@Base 1.10.10
 _ZThn88_N5Botan14XTS_DecryptionD0Ev@Base 1.10.10
 _ZThn88_N5Botan14XTS_DecryptionD1Ev@Base 1.10.10
 _ZThn88_N5Botan14XTS_Encryption14buffered_blockEPKhm@Base 1.10.10
 _ZThn88_N5Botan14XTS_Encryption14buffered_finalEPKhm@Base 1.10.10
 _ZThn88_N5Botan14XTS_EncryptionD0Ev@Base 1.10.10
 _ZThn88_N5Botan14XTS_EncryptionD1Ev@Base 1.10.10
 _ZThn88_NK5Botan11SecureQueue11end_of_dataEv@Base 1.10.10
 _ZThn88_NK5Botan11SecureQueue4peekEPhmm@Base 1.10.10
 _ZThn8_N5Botan10GOST_34_115clearEv@Base 1.10.10
 _ZThn8_N5Botan10GOST_34_11D0Ev@Base 1.10.10
 _ZThn8_N5Botan10GOST_34_11D1Ev@Base 1.10.10
 _ZThn8_N5Botan10RIPEMD_1285clearEv@Base 1.10.10
 _ZThn8_N5Botan10RIPEMD_128D0Ev@Base 1.10.10
 _ZThn8_N5Botan10RIPEMD_128D1Ev@Base 1.10.10
 _ZThn8_N5Botan10RIPEMD_1605clearEv@Base 1.10.10
 _ZThn8_N5Botan10RIPEMD_160D0Ev@Base 1.10.10
 _ZThn8_N5Botan10RIPEMD_160D1Ev@Base 1.10.10
 _ZThn8_N5Botan11Keccak_16005clearEv@Base 1.10.10
 _ZThn8_N5Botan11Keccak_1600D0Ev@Base 1.10.10
 _ZThn8_N5Botan11Keccak_1600D1Ev@Base 1.10.10
 _ZThn8_N5Botan12SHA_160_SSE2D0Ev@Base 1.10.10
 _ZThn8_N5Botan12SHA_160_SSE2D1Ev@Base 1.10.10
 _ZThn8_N5Botan13ANSI_X919_MAC12key_scheduleEPKhm@Base 1.10.10
 _ZThn8_N5Botan13ANSI_X919_MAC5clearEv@Base 1.10.10
 _ZThn8_N5Botan13ANSI_X919_MACD0Ev@Base 1.10.10
 _ZThn8_N5Botan13ANSI_X919_MACD1Ev@Base 1.10.10
 _ZThn8_N5Botan13DH_PrivateKeyD0Ev@Base 1.10.10
 _ZThn8_N5Botan13DH_PrivateKeyD1Ev@Base 1.10.10
 _ZThn8_N5Botan13RW_PrivateKeyD0Ev@Base 1.10.10
 _ZThn8_N5Botan13RW_PrivateKeyD1Ev@Base 1.10.10
 _ZThn8_N5Botan14RSA_PrivateKeyD0Ev@Base 1.10.10
 _ZThn8_N5Botan14RSA_PrivateKeyD1Ev@Base 1.10.10
 _ZThn8_N5Botan14SHA_160_X86_64D0Ev@Base 1.10.10
 _ZThn8_N5Botan14SHA_160_X86_64D1Ev@Base 1.10.10
 _ZThn8_N5Botan15ECDH_PrivateKeyD0Ev@Base 1.10.10
 _ZThn8_N5Botan15ECDH_PrivateKeyD1Ev@Base 1.10.10
 _ZThn8_N5Botan16ECDSA_PrivateKeyD0Ev@Base 1.10.10
 _ZThn8_N5Botan16ECDSA_PrivateKeyD1Ev@Base 1.10.10
 _ZThn8_N5Botan16MDx_HashFunction5clearEv@Base 1.10.10
 _ZThn8_N5Botan20GOST_3410_PrivateKeyD0Ev@Base 1.10.10
 _ZThn8_N5Botan20GOST_3410_PrivateKeyD1Ev@Base 1.10.10
 _ZThn8_N5Botan20RSA_Public_Operation7encryptEPKhmRNS_21RandomNumberGeneratorE@Base 1.10.10
 _ZThn8_N5Botan20RSA_Public_OperationD0Ev@Base 1.10.10
 _ZThn8_N5Botan20RSA_Public_OperationD1Ev@Base 1.10.10
 _ZThn8_N5Botan21RSA_Private_Operation7decryptEPKhm@Base 1.10.10
 _ZThn8_N5Botan21RSA_Private_OperationD0Ev@Base 1.10.10
 _ZThn8_N5Botan21RSA_Private_OperationD1Ev@Base 1.10.10
 _ZThn8_N5Botan3MD25clearEv@Base 1.10.10
 _ZThn8_N5Botan3MD2D0Ev@Base 1.10.10
 _ZThn8_N5Botan3MD2D1Ev@Base 1.10.10
 _ZThn8_N5Botan3MD45clearEv@Base 1.10.10
 _ZThn8_N5Botan3MD4D0Ev@Base 1.10.10
 _ZThn8_N5Botan3MD4D1Ev@Base 1.10.10
 _ZThn8_N5Botan3MD55clearEv@Base 1.10.10
 _ZThn8_N5Botan3MD5D0Ev@Base 1.10.10
 _ZThn8_N5Botan3MD5D1Ev@Base 1.10.10
 _ZThn8_N5Botan4CMAC12key_scheduleEPKhm@Base 1.10.10
 _ZThn8_N5Botan4CMAC5clearEv@Base 1.10.10
 _ZThn8_N5Botan4CMACD0Ev@Base 1.10.10
 _ZThn8_N5Botan4CMACD1Ev@Base 1.10.10
 _ZThn8_N5Botan4HMAC12key_scheduleEPKhm@Base 1.10.10
 _ZThn8_N5Botan4HMAC5clearEv@Base 1.10.10
 _ZThn8_N5Botan4HMACD0Ev@Base 1.10.10
 _ZThn8_N5Botan4HMACD1Ev@Base 1.10.10
 _ZThn8_N5Botan5CRC245clearEv@Base 1.10.10
 _ZThn8_N5Botan5CRC24D0Ev@Base 1.10.10
 _ZThn8_N5Botan5CRC24D1Ev@Base 1.10.10
 _ZThn8_N5Botan5CRC325clearEv@Base 1.10.10
 _ZThn8_N5Botan5CRC32D0Ev@Base 1.10.10
 _ZThn8_N5Botan5CRC32D1Ev@Base 1.10.10
 _ZThn8_N5Botan5Tiger5clearEv@Base 1.10.10
 _ZThn8_N5Botan5TigerD0Ev@Base 1.10.10
 _ZThn8_N5Botan5TigerD1Ev@Base 1.10.10
 _ZThn8_N5Botan6Comb4P5clearEv@Base 1.10.10
 _ZThn8_N5Botan6Comb4PD0Ev@Base 1.10.10
 _ZThn8_N5Botan6Comb4PD1Ev@Base 1.10.10
 _ZThn8_N5Botan7Adler325clearEv@Base 1.10.10
 _ZThn8_N5Botan7Adler32D0Ev@Base 1.10.10
 _ZThn8_N5Botan7Adler32D1Ev@Base 1.10.10
 _ZThn8_N5Botan7BMW_5125clearEv@Base 1.10.10
 _ZThn8_N5Botan7BMW_512D0Ev@Base 1.10.10
 _ZThn8_N5Botan7BMW_512D1Ev@Base 1.10.10
 _ZThn8_N5Botan7CBC_MAC12key_scheduleEPKhm@Base 1.10.10
 _ZThn8_N5Botan7CBC_MAC5clearEv@Base 1.10.10
 _ZThn8_N5Botan7CBC_MACD0Ev@Base 1.10.10
 _ZThn8_N5Botan7CBC_MACD1Ev@Base 1.10.10
 _ZThn8_N5Botan7HAS_1605clearEv@Base 1.10.10
 _ZThn8_N5Botan7HAS_160D0Ev@Base 1.10.10
 _ZThn8_N5Botan7HAS_160D1Ev@Base 1.10.10
 _ZThn8_N5Botan7SHA_1605clearEv@Base 1.10.10
 _ZThn8_N5Botan7SHA_160D0Ev@Base 1.10.10
 _ZThn8_N5Botan7SHA_160D1Ev@Base 1.10.10
 _ZThn8_N5Botan7SHA_2245clearEv@Base 1.10.10
 _ZThn8_N5Botan7SHA_224D0Ev@Base 1.10.10
 _ZThn8_N5Botan7SHA_224D1Ev@Base 1.10.10
 _ZThn8_N5Botan7SHA_2565clearEv@Base 1.10.10
 _ZThn8_N5Botan7SHA_256D0Ev@Base 1.10.10
 _ZThn8_N5Botan7SHA_256D1Ev@Base 1.10.10
 _ZThn8_N5Botan7SHA_3845clearEv@Base 1.10.10
 _ZThn8_N5Botan7SHA_384D0Ev@Base 1.10.10
 _ZThn8_N5Botan7SHA_384D1Ev@Base 1.10.10
 _ZThn8_N5Botan7SHA_5125clearEv@Base 1.10.10
 _ZThn8_N5Botan7SHA_512D0Ev@Base 1.10.10
 _ZThn8_N5Botan7SHA_512D1Ev@Base 1.10.10
 _ZThn8_N5Botan8Parallel5clearEv@Base 1.10.10
 _ZThn8_N5Botan8ParallelD0Ev@Base 1.10.10
 _ZThn8_N5Botan8ParallelD1Ev@Base 1.10.10
 _ZThn8_N5Botan8SSL3_MAC12key_scheduleEPKhm@Base 1.10.10
 _ZThn8_N5Botan8SSL3_MAC5clearEv@Base 1.10.10
 _ZThn8_N5Botan8SSL3_MACD0Ev@Base 1.10.10
 _ZThn8_N5Botan8SSL3_MACD1Ev@Base 1.10.10
 _ZThn8_N5Botan9Skein_5125clearEv@Base 1.10.10
 _ZThn8_N5Botan9Skein_512D0Ev@Base 1.10.10
 _ZThn8_N5Botan9Skein_512D1Ev@Base 1.10.10
 _ZThn8_N5Botan9Whirlpool5clearEv@Base 1.10.10
 _ZThn8_N5Botan9WhirlpoolD0Ev@Base 1.10.10
 _ZThn8_N5Botan9WhirlpoolD1Ev@Base 1.10.10
 _ZThn8_NK5Botan10GOST_34_114nameEv@Base 1.10.10
 _ZThn8_NK5Botan10RIPEMD_1284nameEv@Base 1.10.10
 _ZThn8_NK5Botan10RIPEMD_1604nameEv@Base 1.10.10
 _ZThn8_NK5Botan11Keccak_16004nameEv@Base 1.10.10
 _ZThn8_NK5Botan13ANSI_X919_MAC4nameEv@Base 1.10.10
 _ZThn8_NK5Botan13ANSI_X919_MAC8key_specEv@Base 1.10.10
 _ZThn8_NK5Botan13DH_PrivateKey12public_valueEv@Base 1.10.10
 _ZThn8_NK5Botan13RW_PrivateKey9check_keyERNS_21RandomNumberGeneratorEb@Base 1.10.10
 _ZThn8_NK5Botan14RSA_PrivateKey9check_keyERNS_21RandomNumberGeneratorEb@Base 1.10.10
 _ZThn8_NK5Botan20RSA_Public_Operation14max_input_bitsEv@Base 1.10.10
 _ZThn8_NK5Botan21RSA_Private_Operation14max_input_bitsEv@Base 1.10.10
 _ZThn8_NK5Botan3MD24nameEv@Base 1.10.10
 _ZThn8_NK5Botan3MD44nameEv@Base 1.10.10
 _ZThn8_NK5Botan3MD54nameEv@Base 1.10.10
 _ZThn8_NK5Botan4CMAC4nameEv@Base 1.10.10
 _ZThn8_NK5Botan4CMAC8key_specEv@Base 1.10.10
 _ZThn8_NK5Botan4HMAC4nameEv@Base 1.10.10
 _ZThn8_NK5Botan4HMAC8key_specEv@Base 1.10.10
 _ZThn8_NK5Botan5CRC244nameEv@Base 1.10.10
 _ZThn8_NK5Botan5CRC324nameEv@Base 1.10.10
 _ZThn8_NK5Botan5Tiger4nameEv@Base 1.10.10
 _ZThn8_NK5Botan6Comb4P4nameEv@Base 1.10.10
 _ZThn8_NK5Botan7Adler324nameEv@Base 1.10.10
 _ZThn8_NK5Botan7BMW_5124nameEv@Base 1.10.10
 _ZThn8_NK5Botan7CBC_MAC4nameEv@Base 1.10.10
 _ZThn8_NK5Botan7CBC_MAC8key_specEv@Base 1.10.10
 _ZThn8_NK5Botan7HAS_1604nameEv@Base 1.10.10
 _ZThn8_NK5Botan7SHA_1604nameEv@Base 1.10.10
 _ZThn8_NK5Botan7SHA_2244nameEv@Base 1.10.10
 _ZThn8_NK5Botan7SHA_2564nameEv@Base 1.10.10
 _ZThn8_NK5Botan7SHA_3844nameEv@Base 1.10.10
 _ZThn8_NK5Botan7SHA_5124nameEv@Base 1.10.10
 _ZThn8_NK5Botan8Parallel4nameEv@Base 1.10.10
 _ZThn8_NK5Botan8SSL3_MAC4nameEv@Base 1.10.10
 _ZThn8_NK5Botan8SSL3_MAC8key_specEv@Base 1.10.10
 _ZThn8_NK5Botan9Skein_5124nameEv@Base 1.10.10
 _ZThn8_NK5Botan9Whirlpool4nameEv@Base 1.10.10
 _ZTv0_n112_NK5Botan12DH_PublicKey12group_formatEv@Base 1.10.10
 _ZTv0_n112_NK5Botan12NR_PublicKey12group_formatEv@Base 1.10.10
 _ZTv0_n112_NK5Botan13DSA_PublicKey12group_formatEv@Base 1.10.10
 _ZTv0_n112_NK5Botan13EC_PrivateKey17pkcs8_private_keyEv@Base 1.10.10
 _ZTv0_n112_NK5Botan17ElGamal_PublicKey12group_formatEv@Base 1.10.10
 _ZTv0_n112_NK5Botan20DL_Scheme_PrivateKey17pkcs8_private_keyEv@Base 1.10.10
 _ZTv0_n112_NK5Botan20IF_Scheme_PrivateKey17pkcs8_private_keyEv@Base 1.10.10
 _ZTv0_n120_NK5Botan20GOST_3410_PrivateKey26pkcs8_algorithm_identifierEv@Base 1.10.10
 _ZTv0_n24_NK5Botan12DH_PublicKey9algo_nameEv@Base 1.10.10
 _ZTv0_n24_NK5Botan12NR_PublicKey9algo_nameEv@Base 1.10.10
 _ZTv0_n24_NK5Botan12RW_PublicKey9algo_nameEv@Base 1.10.10
 _ZTv0_n24_NK5Botan13DSA_PublicKey9algo_nameEv@Base 1.10.10
 _ZTv0_n24_NK5Botan13RSA_PublicKey9algo_nameEv@Base 1.10.10
 _ZTv0_n24_NK5Botan14ECDH_PublicKey9algo_nameEv@Base 1.10.10
 _ZTv0_n24_NK5Botan15ECDSA_PublicKey9algo_nameEv@Base 1.10.10
 _ZTv0_n24_NK5Botan17ElGamal_PublicKey9algo_nameEv@Base 1.10.10
 _ZTv0_n24_NK5Botan19GOST_3410_PublicKey9algo_nameEv@Base 1.10.10
 _ZTv0_n40_NK5Botan12EC_PublicKey9check_keyERNS_21RandomNumberGeneratorEb@Base 1.10.10
 _ZTv0_n40_NK5Botan13NR_PrivateKey9check_keyERNS_21RandomNumberGeneratorEb@Base 1.10.10
 _ZTv0_n40_NK5Botan13RW_PrivateKey9check_keyERNS_21RandomNumberGeneratorEb@Base 1.10.10
 _ZTv0_n40_NK5Botan14DSA_PrivateKey9check_keyERNS_21RandomNumberGeneratorEb@Base 1.10.10
 _ZTv0_n40_NK5Botan14RSA_PrivateKey9check_keyERNS_21RandomNumberGeneratorEb@Base 1.10.10
 _ZTv0_n40_NK5Botan16ECDSA_PrivateKey9check_keyERNS_21RandomNumberGeneratorEb@Base 1.10.10
 _ZTv0_n40_NK5Botan18ElGamal_PrivateKey9check_keyERNS_21RandomNumberGeneratorEb@Base 1.10.10
 _ZTv0_n40_NK5Botan19DL_Scheme_PublicKey9check_keyERNS_21RandomNumberGeneratorEb@Base 1.10.10
 _ZTv0_n40_NK5Botan19IF_Scheme_PublicKey9check_keyERNS_21RandomNumberGeneratorEb@Base 1.10.10
 _ZTv0_n40_NK5Botan20DL_Scheme_PrivateKey9check_keyERNS_21RandomNumberGeneratorEb@Base 1.10.10
 _ZTv0_n40_NK5Botan20IF_Scheme_PrivateKey9check_keyERNS_21RandomNumberGeneratorEb@Base 1.10.10
 _ZTv0_n48_NK5Botan12NR_PublicKey13message_partsEv@Base 1.10.10
 _ZTv0_n48_NK5Botan13DSA_PublicKey13message_partsEv@Base 1.10.10
 _ZTv0_n48_NK5Botan15ECDSA_PublicKey13message_partsEv@Base 1.10.10
 _ZTv0_n48_NK5Botan19GOST_3410_PublicKey13message_partsEv@Base 1.10.10
 _ZTv0_n56_NK5Botan12NR_PublicKey17message_part_sizeEv@Base 1.10.10
 _ZTv0_n56_NK5Botan13DSA_PublicKey17message_part_sizeEv@Base 1.10.10
 _ZTv0_n56_NK5Botan15ECDSA_PublicKey17message_part_sizeEv@Base 1.10.10
 _ZTv0_n56_NK5Botan19GOST_3410_PublicKey17message_part_sizeEv@Base 1.10.10
 _ZTv0_n64_NK5Botan12DH_PublicKey14max_input_bitsEv@Base 1.10.10
 _ZTv0_n64_NK5Botan12NR_PublicKey14max_input_bitsEv@Base 1.10.10
 _ZTv0_n64_NK5Botan13DSA_PublicKey14max_input_bitsEv@Base 1.10.10
 _ZTv0_n64_NK5Botan14ECDH_PublicKey14max_input_bitsEv@Base 1.10.10
 _ZTv0_n64_NK5Botan15ECDSA_PublicKey14max_input_bitsEv@Base 1.10.10
 _ZTv0_n64_NK5Botan17ElGamal_PublicKey14max_input_bitsEv@Base 1.10.10
 _ZTv0_n64_NK5Botan19GOST_3410_PublicKey14max_input_bitsEv@Base 1.10.10
 _ZTv0_n64_NK5Botan19IF_Scheme_PublicKey14max_input_bitsEv@Base 1.10.10
 _ZTv0_n72_NK5Botan12EC_PublicKey20algorithm_identifierEv@Base 1.10.10
 _ZTv0_n72_NK5Botan19DL_Scheme_PublicKey20algorithm_identifierEv@Base 1.10.10
 _ZTv0_n72_NK5Botan19GOST_3410_PublicKey20algorithm_identifierEv@Base 1.10.10
 _ZTv0_n72_NK5Botan19IF_Scheme_PublicKey20algorithm_identifierEv@Base 1.10.10
 _ZTv0_n80_NK5Botan12EC_PublicKey23x509_subject_public_keyEv@Base 1.10.10
 _ZTv0_n80_NK5Botan19DL_Scheme_PublicKey23x509_subject_public_keyEv@Base 1.10.10
 _ZTv0_n80_NK5Botan19GOST_3410_PublicKey23x509_subject_public_keyEv@Base 1.10.10
 _ZTv0_n80_NK5Botan19IF_Scheme_PublicKey23x509_subject_public_keyEv@Base 1.10.10
 _ZTv0_n88_N5Botan12DH_PublicKeyD0Ev@Base 1.10.10
 _ZTv0_n88_N5Botan12DH_PublicKeyD1Ev@Base 1.10.10
 _ZTv0_n88_N5Botan12NR_PublicKeyD0Ev@Base 1.10.10
 _ZTv0_n88_N5Botan12NR_PublicKeyD1Ev@Base 1.10.10
 _ZTv0_n88_N5Botan12RW_PublicKeyD0Ev@Base 1.10.10
 _ZTv0_n88_N5Botan12RW_PublicKeyD1Ev@Base 1.10.10
 _ZTv0_n88_N5Botan13DH_PrivateKeyD0Ev@Base 1.10.10
 _ZTv0_n88_N5Botan13DH_PrivateKeyD1Ev@Base 1.10.10
 _ZTv0_n88_N5Botan13DSA_PublicKeyD0Ev@Base 1.10.10
 _ZTv0_n88_N5Botan13DSA_PublicKeyD1Ev@Base 1.10.10
 _ZTv0_n88_N5Botan13NR_PrivateKeyD0Ev@Base 1.10.10
 _ZTv0_n88_N5Botan13NR_PrivateKeyD1Ev@Base 1.10.10
 _ZTv0_n88_N5Botan13RSA_PublicKeyD0Ev@Base 1.10.10
 _ZTv0_n88_N5Botan13RSA_PublicKeyD1Ev@Base 1.10.10
 _ZTv0_n88_N5Botan13RW_PrivateKeyD0Ev@Base 1.10.10
 _ZTv0_n88_N5Botan13RW_PrivateKeyD1Ev@Base 1.10.10
 _ZTv0_n88_N5Botan14DSA_PrivateKeyD0Ev@Base 1.10.10
 _ZTv0_n88_N5Botan14DSA_PrivateKeyD1Ev@Base 1.10.10
 _ZTv0_n88_N5Botan14ECDH_PublicKeyD0Ev@Base 1.10.10
 _ZTv0_n88_N5Botan14ECDH_PublicKeyD1Ev@Base 1.10.10
 _ZTv0_n88_N5Botan14RSA_PrivateKeyD0Ev@Base 1.10.10
 _ZTv0_n88_N5Botan14RSA_PrivateKeyD1Ev@Base 1.10.10
 _ZTv0_n88_N5Botan15ECDH_PrivateKeyD0Ev@Base 1.10.10
 _ZTv0_n88_N5Botan15ECDH_PrivateKeyD1Ev@Base 1.10.10
 _ZTv0_n88_N5Botan15ECDSA_PublicKeyD0Ev@Base 1.10.10
 _ZTv0_n88_N5Botan15ECDSA_PublicKeyD1Ev@Base 1.10.10
 _ZTv0_n88_N5Botan16ECDSA_PrivateKeyD0Ev@Base 1.10.10
 _ZTv0_n88_N5Botan16ECDSA_PrivateKeyD1Ev@Base 1.10.10
 _ZTv0_n88_N5Botan17ElGamal_PublicKeyD0Ev@Base 1.10.10
 _ZTv0_n88_N5Botan17ElGamal_PublicKeyD1Ev@Base 1.10.10
 _ZTv0_n88_N5Botan18ElGamal_PrivateKeyD0Ev@Base 1.10.10
 _ZTv0_n88_N5Botan18ElGamal_PrivateKeyD1Ev@Base 1.10.10
 _ZTv0_n88_N5Botan19GOST_3410_PublicKeyD0Ev@Base 1.10.10
 _ZTv0_n88_N5Botan19GOST_3410_PublicKeyD1Ev@Base 1.10.10
 _ZTv0_n88_N5Botan20GOST_3410_PrivateKeyD0Ev@Base 1.10.10
 _ZTv0_n88_N5Botan20GOST_3410_PrivateKeyD1Ev@Base 1.10.10
 _ZTv0_n96_NK5Botan11Private_Key10load_checkERNS_21RandomNumberGeneratorE@Base 1.10.10
 botan_sha160_x86_64_compress@Base 1.10.10
