libcolumbus.so.1 libcolumbus1v5 #MINVER#
 _ZN8Columbus11ErrorValues10addAccentsENS_12accentGroupsE@Base 1.1.0+14.04.20140325.3
 _ZN8Columbus11ErrorValues11clearErrorsEv@Base 1.1.0+14.04.20140325.3
 _ZN8Columbus11ErrorValues13setGroupErrorERKNS_4WordEi@Base 1.1.0+14.04.20140325.3
 _ZN8Columbus11ErrorValues16setSubstringModeEv@Base 1.1.0+14.04.20140325.3
 _ZN8Columbus11ErrorValues17addKeyboardErrorsEv@Base 1.1.0+14.04.20140325.3
 _ZN8Columbus11ErrorValues17addStandardErrorsEv@Base 1.1.0+14.04.20140325.3
 _ZN8Columbus11ErrorValues18addNumberpadErrorsEv@Base 1.1.0+14.04.20140325.3
 _ZN8Columbus11ErrorValues8setErrorEtti@Base 1.1.0+14.04.20140325.3
 _ZN8Columbus11ErrorValues9isInGroupEt@Base 1.1.0+14.04.20140325.3
 _ZN8Columbus11ErrorValuesC1Ev@Base 1.1.0+14.04.20140325.3
 _ZN8Columbus11ErrorValuesC2Ev@Base 1.1.0+14.04.20140325.3
 _ZN8Columbus11ErrorValuesD1Ev@Base 1.1.0+14.04.20140325.3
 _ZN8Columbus11ErrorValuesD2Ev@Base 1.1.0+14.04.20140325.3
 _ZN8Columbus12IndexMatches5clearEv@Base 1.1.0+14.04.20140325.3
 _ZN8Columbus12IndexMatchesC1Ev@Base 1.1.0+14.04.20140325.3
 _ZN8Columbus12IndexMatchesC2Ev@Base 1.1.0+14.04.20140325.3
 _ZN8Columbus12IndexMatchesD1Ev@Base 1.1.0+14.04.20140325.3
 _ZN8Columbus12IndexMatchesD2Ev@Base 1.1.0+14.04.20140325.3
 _ZN8Columbus12IndexWeights9setWeightERKNS_4WordEd@Base 1.1.0+14.04.20140325.3
 _ZN8Columbus12IndexWeightsC1Ev@Base 1.1.0+14.04.20140325.3
 _ZN8Columbus12IndexWeightsC2Ev@Base 1.1.0+14.04.20140325.3
 _ZN8Columbus12IndexWeightsD1Ev@Base 1.1.0+14.04.20140325.3
 _ZN8Columbus12IndexWeightsD2Ev@Base 1.1.0+14.04.20140325.3
 _ZN8Columbus12MatchResults10addResultsERKS0_@Base 1.1.0+14.04.20140325.3
 _ZN8Columbus12MatchResults10copyResultERKS0_m@Base 1.1.0+14.04.20140325.3
 _ZN8Columbus12MatchResults9addResultEmd@Base 1.1.0+14.04.20140325.3
 _ZN8Columbus12MatchResultsC1EOS0_@Base 1.1.0+14.04.20140325.3
 _ZN8Columbus12MatchResultsC1ERKS0_@Base 1.1.0+14.04.20140325.3
 _ZN8Columbus12MatchResultsC1Ev@Base 1.1.0+14.04.20140325.3
 _ZN8Columbus12MatchResultsC2EOS0_@Base 1.1.0+14.04.20140325.3
 _ZN8Columbus12MatchResultsC2ERKS0_@Base 1.1.0+14.04.20140325.3
 _ZN8Columbus12MatchResultsC2Ev@Base 1.1.0+14.04.20140325.3
 _ZN8Columbus12MatchResultsD1Ev@Base 1.1.0+14.04.20140325.3
 _ZN8Columbus12MatchResultsD2Ev@Base 1.1.0+14.04.20140325.3
 _ZN8Columbus12MatchResultsaSEOS0_@Base 1.1.0+14.04.20140325.3
 _ZN8Columbus12MatchResultsaSERKS0_@Base 1.1.0+14.04.20140325.3
 _ZN8Columbus12ResultFilter10addNewTermEv@Base 1.1.0+14.04.20140325.3
 _ZN8Columbus12ResultFilter13addNewSubTermERKNS_4WordES3_@Base 1.1.0+14.04.20140325.3
 _ZN8Columbus12ResultFilterC1Ev@Base 1.1.0+14.04.20140325.3
 _ZN8Columbus12ResultFilterC2Ev@Base 1.1.0+14.04.20140325.3
 _ZN8Columbus12ResultFilterD1Ev@Base 1.1.0+14.04.20140325.3
 _ZN8Columbus12ResultFilterD2Ev@Base 1.1.0+14.04.20140325.3
 _ZN8Columbus12splitToWordsEPKc@Base 1.1.0+14.04.20140325.3
 _ZN8Columbus14hiresTimestampEv@Base 1.1.0+14.04.20140325.3
 _ZN8Columbus16LevenshteinIndex10insertWordERKNS_4WordEj@Base 1.1.0+14.04.20140325.3
 _ZN8Columbus16LevenshteinIndex15getDefaultErrorEv@Base 1.1.0+14.04.20140325.3
 _ZN8Columbus16LevenshteinIndexC1Ev@Base 1.1.0+14.04.20140325.3
 _ZN8Columbus16LevenshteinIndexC2Ev@Base 1.1.0+14.04.20140325.3
 _ZN8Columbus16LevenshteinIndexD1Ev@Base 1.1.0+14.04.20140325.3
 _ZN8Columbus16LevenshteinIndexD2Ev@Base 1.1.0+14.04.20140325.3
 _ZN8Columbus16SearchParameters10setDynamicEb@Base 1.1.0+14.04.20140325.3
 _ZN8Columbus16SearchParameters15getResultFilterEv@Base 1.1.0+14.04.20140325.3
 _ZN8Columbus16SearchParameters20addNonsearchingFieldERKNS_4WordE@Base 1.1.0+14.04.20140325.3
 _ZN8Columbus16SearchParametersC1Ev@Base 1.1.0+14.04.20140325.3
 _ZN8Columbus16SearchParametersC2Ev@Base 1.1.0+14.04.20140325.3
 _ZN8Columbus16SearchParametersD1Ev@Base 1.1.0+14.04.20140325.3
 _ZN8Columbus16SearchParametersD2Ev@Base 1.1.0+14.04.20140325.3
 _ZN8Columbus4WordC1EOS0_@Base 1.1.0+14.04.20140325.3
 _ZN8Columbus4WordC1EPKc@Base 1.1.0+14.04.20140325.3
 _ZN8Columbus4WordC1EPtm@Base 1.1.0+14.04.20140325.3
 _ZN8Columbus4WordC1ERKNSt7__cxx1112basic_stringIcSt11char_traitsIcESaIcEEE@Base 1.1.0+14.04.20140325.3
 _ZN8Columbus4WordC1ERKS0_@Base 1.1.0+14.04.20140325.3
 _ZN8Columbus4WordC1Ev@Base 1.1.0+14.04.20140325.3
 _ZN8Columbus4WordC2EOS0_@Base 1.1.0+14.04.20140325.3
 _ZN8Columbus4WordC2EPKc@Base 1.1.0+14.04.20140325.3
 _ZN8Columbus4WordC2EPtm@Base 1.1.0+14.04.20140325.3
 _ZN8Columbus4WordC2ERKNSt7__cxx1112basic_stringIcSt11char_traitsIcESaIcEEE@Base 1.1.0+14.04.20140325.3
 _ZN8Columbus4WordC2ERKS0_@Base 1.1.0+14.04.20140325.3
 _ZN8Columbus4WordC2Ev@Base 1.1.0+14.04.20140325.3
 _ZN8Columbus4WordD1Ev@Base 1.1.0+14.04.20140325.3
 _ZN8Columbus4WordD2Ev@Base 1.1.0+14.04.20140325.3
 _ZN8Columbus4WordaSEOS0_@Base 1.1.0+14.04.20140325.3
 _ZN8Columbus4WordaSEPKc@Base 1.1.0+14.04.20140325.3
 _ZN8Columbus4WordaSERKNSt7__cxx1112basic_stringIcSt11char_traitsIcESaIcEEE@Base 1.1.0+14.04.20140325.3
 _ZN8Columbus4WordaSERKS0_@Base 1.1.0+14.04.20140325.3
 _ZN8Columbus6Corpus11addDocumentERKNS_8DocumentE@Base 1.1.0+14.04.20140325.3
 _ZN8Columbus6CorpusC1Ev@Base 1.1.0+14.04.20140325.3
 _ZN8Columbus6CorpusC2Ev@Base 1.1.0+14.04.20140325.3
 _ZN8Columbus6CorpusD1Ev@Base 1.1.0+14.04.20140325.3
 _ZN8Columbus6CorpusD2Ev@Base 1.1.0+14.04.20140325.3
 _ZN8Columbus7Matcher11onlineMatchERKNS_8WordListERKNS_4WordE@Base 1.1.0+14.04.20140325.3
 _ZN8Columbus7Matcher14getErrorValuesEv@Base 1.1.0+14.04.20140325.3
 _ZN8Columbus7Matcher15getIndexWeightsEv@Base 1.1.0+14.04.20140325.3
 _ZN8Columbus7Matcher5indexERKNS_6CorpusE@Base 1.1.0+14.04.20140325.3
 _ZN8Columbus7Matcher5matchEPKc@Base 1.1.0+14.04.20140325.3
 _ZN8Columbus7Matcher5matchEPKcRKNS_16SearchParametersE@Base 1.1.0+14.04.20140325.3
 _ZN8Columbus7Matcher5matchERKNS_8WordListE@Base 1.1.0+14.04.20140325.3
 _ZN8Columbus7Matcher5matchERKNS_8WordListERKNS_16SearchParametersE@Base 1.1.0+14.04.20140325.3
 _ZN8Columbus7Matcher5matchERKNSt7__cxx1112basic_stringIcSt11char_traitsIcESaIcEEE@Base 1.1.0+14.04.20140325.3
 _ZN8Columbus7MatcherC1Ev@Base 1.1.0+14.04.20140325.3
 _ZN8Columbus7MatcherC2Ev@Base 1.1.0+14.04.20140325.3
 _ZN8Columbus7MatcherD1Ev@Base 1.1.0+14.04.20140325.3
 _ZN8Columbus7MatcherD2Ev@Base 1.1.0+14.04.20140325.3
 _ZN8Columbus8Document7addTextERKNS_4WordEPKc@Base 1.1.0+14.04.20140325.3
 _ZN8Columbus8Document7addTextERKNS_4WordERKNS_8WordListE@Base 1.1.0+14.04.20140325.3
 _ZN8Columbus8Document7addTextERKNS_4WordERKNSt7__cxx1112basic_stringIcSt11char_traitsIcESaIcEEE@Base 1.1.0+14.04.20140325.3
 _ZN8Columbus8DocumentC1ERKS0_@Base 1.1.0+14.04.20140325.3
 _ZN8Columbus8DocumentC1Em@Base 1.1.0+14.04.20140325.3
 _ZN8Columbus8DocumentC2ERKS0_@Base 1.1.0+14.04.20140325.3
 _ZN8Columbus8DocumentC2Em@Base 1.1.0+14.04.20140325.3
 _ZN8Columbus8DocumentD1Ev@Base 1.1.0+14.04.20140325.3
 _ZN8Columbus8DocumentD2Ev@Base 1.1.0+14.04.20140325.3
 _ZN8Columbus8DocumentaSERKS0_@Base 1.1.0+14.04.20140325.3
 _ZN8Columbus8WordList7addWordERKNS_4WordE@Base 1.1.0+14.04.20140325.3
 _ZN8Columbus8WordListC1EOS0_@Base 1.1.0+14.04.20140325.3
 _ZN8Columbus8WordListC1ERKS0_@Base 1.1.0+14.04.20140325.3
 _ZN8Columbus8WordListC1Ev@Base 1.1.0+14.04.20140325.3
 _ZN8Columbus8WordListC2EOS0_@Base 1.1.0+14.04.20140325.3
 _ZN8Columbus8WordListC2ERKS0_@Base 1.1.0+14.04.20140325.3
 _ZN8Columbus8WordListC2Ev@Base 1.1.0+14.04.20140325.3
 _ZN8Columbus8WordListD1Ev@Base 1.1.0+14.04.20140325.3
 _ZN8Columbus8WordListD2Ev@Base 1.1.0+14.04.20140325.3
 _ZN8Columbus8WordListaSEOS0_@Base 1.1.0+14.04.20140325.3
 _ZN8Columbus8WordListaSERKS0_@Base 1.1.0+14.04.20140325.3
 _ZN8Columbus9WordStore5getIDERKNS_4WordE@Base 1.1.0+14.04.20140325.3
 _ZN8Columbus9WordStoreC1Ev@Base 1.1.0+14.04.20140325.3
 _ZN8Columbus9WordStoreC2Ev@Base 1.1.0+14.04.20140325.3
 _ZN8Columbus9WordStoreD1Ev@Base 1.1.0+14.04.20140325.3
 _ZN8Columbus9WordStoreD2Ev@Base 1.1.0+14.04.20140325.3
 _ZNK8Columbus11ErrorValues18getSubstituteErrorEtt@Base 1.1.0+14.04.20140325.3
 _ZNK8Columbus12IndexMatches13getMatchErrorEm@Base 1.1.0+14.04.20140325.3
 _ZNK8Columbus12IndexMatches4sizeEv@Base 1.1.0+14.04.20140325.3
 _ZNK8Columbus12IndexMatches8getMatchEm@Base 1.1.0+14.04.20140325.3
 _ZNK8Columbus12IndexMatches8getQueryEm@Base 1.1.0+14.04.20140325.3
 _ZNK8Columbus12IndexWeights9getWeightERKNS_4WordE@Base 1.1.0+14.04.20140325.3
 _ZNK8Columbus12MatchResults12getRelevancyEm@Base 1.1.0+14.04.20140325.3
 _ZNK8Columbus12MatchResults13getDocumentIDEm@Base 1.1.0+14.04.20140325.3
 _ZNK8Columbus12MatchResults4sizeEv@Base 1.1.0+14.04.20140325.3
 _ZNK8Columbus12ResultFilter11numSubTermsEm@Base 1.1.0+14.04.20140325.3
 _ZNK8Columbus12ResultFilter7getWordEmm@Base 1.1.0+14.04.20140325.3
 _ZNK8Columbus12ResultFilter8getFieldEmm@Base 1.1.0+14.04.20140325.3
 _ZNK8Columbus12ResultFilter8numTermsEv@Base 1.1.0+14.04.20140325.3
 _ZNK8Columbus16LevenshteinIndex7hasWordERKNS_4WordE@Base 1.1.0+14.04.20140325.3
 _ZNK8Columbus16LevenshteinIndex8maxCountEv@Base 1.1.0+14.04.20140325.3
 _ZNK8Columbus16LevenshteinIndex8numNodesEv@Base 1.1.0+14.04.20140325.3
 _ZNK8Columbus16LevenshteinIndex8numWordsEv@Base 1.1.0+14.04.20140325.3
 _ZNK8Columbus16LevenshteinIndex9findWordsERKNS_4WordERKNS_11ErrorValuesEiRNS_12IndexMatchesE@Base 1.1.0+14.04.20140325.3
 _ZNK8Columbus16LevenshteinIndex9wordCountEj@Base 1.1.0+14.04.20140325.3
 _ZNK8Columbus16SearchParameters15getDynamicErrorERKNS_4WordE@Base 1.1.0+14.04.20140325.3
 _ZNK8Columbus16SearchParameters15getResultFilterEv@Base 1.1.0+14.04.20140325.3
 _ZNK8Columbus16SearchParameters19isNonsearchingFieldERKNS_4WordE@Base 1.1.0+14.04.20140325.3
 _ZNK8Columbus16SearchParameters19looseningIterationsEv@Base 1.1.0+14.04.20140325.3
 _ZNK8Columbus16SearchParameters9isDynamicEv@Base 1.1.0+14.04.20140325.3
 _ZNK8Columbus4Word4hashEv@Base 1.1.0+14.04.20140325.3
 _ZNK8Columbus4Word4joinERKS0_@Base 1.1.0+14.04.20140325.3
 _ZNK8Columbus4Word6asUtf8B5cxx11Ev@Base 1.1.0+14.04.20140325.3
 _ZNK8Columbus4Word6toUtf8EPcj@Base 1.1.0+14.04.20140325.3
 _ZNK8Columbus4WordeqEPKc@Base 1.1.0+14.04.20140325.3
 _ZNK8Columbus4WordeqERKNSt7__cxx1112basic_stringIcSt11char_traitsIcESaIcEEE@Base 1.1.0+14.04.20140325.3
 _ZNK8Columbus4WordeqERKS0_@Base 1.1.0+14.04.20140325.3
 _ZNK8Columbus4WordixEj@Base 1.1.0+14.04.20140325.3
 _ZNK8Columbus4WordltERKS0_@Base 1.1.0+14.04.20140325.3
 _ZNK8Columbus4WordneEPKc@Base 1.1.0+14.04.20140325.3
 _ZNK8Columbus4WordneERKNSt7__cxx1112basic_stringIcSt11char_traitsIcESaIcEEE@Base 1.1.0+14.04.20140325.3
 _ZNK8Columbus4WordneERKS0_@Base 1.1.0+14.04.20140325.3
 _ZNK8Columbus6Corpus11getDocumentEm@Base 1.1.0+14.04.20140325.3
 _ZNK8Columbus6Corpus4sizeEv@Base 1.1.0+14.04.20140325.3
 _ZNK8Columbus8Document10fieldCountEv@Base 1.1.0+14.04.20140325.3
 _ZNK8Columbus8Document13getFieldNamesERNS_8WordListE@Base 1.1.0+14.04.20140325.3
 _ZNK8Columbus8Document14totalWordCountERKNS_4WordE@Base 1.1.0+14.04.20140325.3
 _ZNK8Columbus8Document5getIDEv@Base 1.1.0+14.04.20140325.3
 _ZNK8Columbus8Document7getTextERKNS_4WordE@Base 1.1.0+14.04.20140325.3
 _ZNK8Columbus8Document9wordCountERKNS_4WordES1_@Base 1.1.0+14.04.20140325.3
 _ZNK8Columbus8WordList4sizeEv@Base 1.1.0+14.04.20140325.3
 _ZNK8Columbus8WordListeqERKS0_@Base 1.1.0+14.04.20140325.3
 _ZNK8Columbus8WordListixEm@Base 1.1.0+14.04.20140325.3
 _ZNK8Columbus8WordListneERKS0_@Base 1.1.0+14.04.20140325.3
 _ZNK8Columbus9WordStore7getWordEj@Base 1.1.0+14.04.20140325.3
 _ZNK8Columbus9WordStore7hasWordERKNS_4WordE@Base 1.1.0+14.04.20140325.3
 _ZNK8Columbus9WordStore7hasWordEj@Base 1.1.0+14.04.20140325.3
 col_corpus_add_document@Base 1.1.0+14.04.20140325.3
 col_corpus_delete@Base 1.1.0+14.04.20140325.3
 col_corpus_new@Base 1.1.0+14.04.20140325.3
 col_document_add_text@Base 1.1.0+14.04.20140325.3
 col_document_delete@Base 1.1.0+14.04.20140325.3
 col_document_get_id@Base 1.1.0+14.04.20140325.3
 col_document_new@Base 1.1.0+14.04.20140325.3
 col_error_values_add_standard_errors@Base 1.1.0+14.04.20140325.3
 col_error_values_set_substring_mode@Base 1.1.0+14.04.20140325.3
 col_index_weights_get_weight@Base 1.1.0+14.04.20140325.3
 col_index_weights_set_weight@Base 1.1.0+14.04.20140325.3
 col_match_results_delete@Base 1.1.0+14.04.20140325.3
 col_match_results_get_id@Base 1.1.0+14.04.20140325.3
 col_match_results_get_relevancy@Base 1.1.0+14.04.20140325.3
 col_match_results_new@Base 1.1.0+14.04.20140325.3
 col_match_results_size@Base 1.1.0+14.04.20140325.3
 col_matcher_delete@Base 1.1.0+14.04.20140325.3
 col_matcher_get_error_values@Base 1.1.0+14.04.20140325.3
 col_matcher_get_index_weights@Base 1.1.0+14.04.20140325.3
 col_matcher_index@Base 1.1.0+14.04.20140325.3
 col_matcher_match@Base 1.1.0+14.04.20140325.3
 col_matcher_new@Base 1.1.0+14.04.20140325.3
 col_word_as_utf8@Base 1.1.0+14.04.20140325.3
 col_word_delete@Base 1.1.0+14.04.20140325.3
 col_word_length@Base 1.1.0+14.04.20140325.3
 col_word_new@Base 1.1.0+14.04.20140325.3
