libFLAC++.so.6 libflac++6v5 #MINVER#
 _ZN4FLAC7Decoder4File13read_callbackEPhPm@Base 1.3.1
 _ZN4FLAC7Decoder4File4initEP8_IO_FILE@Base 1.3.1
 _ZN4FLAC7Decoder4File4initEPKc@Base 1.3.1
 _ZN4FLAC7Decoder4File4initERKNSt7__cxx1112basic_stringIcSt11char_traitsIcESaIcEEE@Base 1.3.1
 _ZN4FLAC7Decoder4File8init_oggEP8_IO_FILE@Base 1.3.1
 _ZN4FLAC7Decoder4File8init_oggEPKc@Base 1.3.1
 _ZN4FLAC7Decoder4File8init_oggERKNSt7__cxx1112basic_stringIcSt11char_traitsIcESaIcEEE@Base 1.3.1
 _ZN4FLAC7Decoder4FileC1Ev@Base 1.3.1
 _ZN4FLAC7Decoder4FileC2Ev@Base 1.3.1
 _ZN4FLAC7Decoder4FileD0Ev@Base 1.3.1
 _ZN4FLAC7Decoder4FileD1Ev@Base 1.3.1
 _ZN4FLAC7Decoder4FileD2Ev@Base 1.3.1
 _ZN4FLAC7Decoder6Stream12eof_callbackEv@Base 1.3.1
 _ZN4FLAC7Decoder6Stream13eof_callback_EPK19FLAC__StreamDecoderPv@Base 1.3.1
 _ZN4FLAC7Decoder6Stream13seek_absoluteEm@Base 1.3.1
 _ZN4FLAC7Decoder6Stream13seek_callbackEm@Base 1.3.1
 _ZN4FLAC7Decoder6Stream13tell_callbackEPm@Base 1.3.1
 _ZN4FLAC7Decoder6Stream14process_singleEv@Base 1.3.1
 _ZN4FLAC7Decoder6Stream14read_callback_EPK19FLAC__StreamDecoderPhPmPv@Base 1.3.1
 _ZN4FLAC7Decoder6Stream14seek_callback_EPK19FLAC__StreamDecodermPv@Base 1.3.1
 _ZN4FLAC7Decoder6Stream14tell_callback_EPK19FLAC__StreamDecoderPmPv@Base 1.3.1
 _ZN4FLAC7Decoder6Stream15error_callback_EPK19FLAC__StreamDecoder30FLAC__StreamDecoderErrorStatusPv@Base 1.3.1
 _ZN4FLAC7Decoder6Stream15length_callbackEPm@Base 1.3.1
 _ZN4FLAC7Decoder6Stream15write_callback_EPK19FLAC__StreamDecoderPK11FLAC__FramePKPKiPv@Base 1.3.1
 _ZN4FLAC7Decoder6Stream16length_callback_EPK19FLAC__StreamDecoderPmPv@Base 1.3.1
 _ZN4FLAC7Decoder6Stream16set_md5_checkingEb@Base 1.3.1
 _ZN4FLAC7Decoder6Stream17metadata_callbackEPK20FLAC__StreamMetadata@Base 1.3.1
 _ZN4FLAC7Decoder6Stream17skip_single_frameEv@Base 1.3.1
 _ZN4FLAC7Decoder6Stream18metadata_callback_EPK19FLAC__StreamDecoderPK20FLAC__StreamMetadataPv@Base 1.3.1
 _ZN4FLAC7Decoder6Stream19set_metadata_ignoreE18FLAC__MetadataType@Base 1.3.1
 _ZN4FLAC7Decoder6Stream20set_metadata_respondE18FLAC__MetadataType@Base 1.3.1
 _ZN4FLAC7Decoder6Stream21set_ogg_serial_numberEl@Base 1.3.1
 _ZN4FLAC7Decoder6Stream23set_metadata_ignore_allEv@Base 1.3.1
 _ZN4FLAC7Decoder6Stream24set_metadata_respond_allEv@Base 1.3.1
 _ZN4FLAC7Decoder6Stream27process_until_end_of_streamEv@Base 1.3.1
 _ZN4FLAC7Decoder6Stream29process_until_end_of_metadataEv@Base 1.3.1
 _ZN4FLAC7Decoder6Stream31set_metadata_ignore_applicationEPKh@Base 1.3.1
 _ZN4FLAC7Decoder6Stream32set_metadata_respond_applicationEPKh@Base 1.3.1
 _ZN4FLAC7Decoder6Stream4initEv@Base 1.3.1
 _ZN4FLAC7Decoder6Stream5flushEv@Base 1.3.1
 _ZN4FLAC7Decoder6Stream5resetEv@Base 1.3.1
 _ZN4FLAC7Decoder6Stream6finishEv@Base 1.3.1
 _ZN4FLAC7Decoder6Stream8init_oggEv@Base 1.3.1
 _ZN4FLAC7Decoder6StreamC1Ev@Base 1.3.1
 _ZN4FLAC7Decoder6StreamC2Ev@Base 1.3.1
 _ZN4FLAC7Decoder6StreamD0Ev@Base 1.3.1
 _ZN4FLAC7Decoder6StreamD1Ev@Base 1.3.1
 _ZN4FLAC7Decoder6StreamD2Ev@Base 1.3.1
 _ZN4FLAC7Encoder4File14write_callbackEPKhmjj@Base 1.3.1
 _ZN4FLAC7Encoder4File17progress_callbackEmmjj@Base 1.3.1
 _ZN4FLAC7Encoder4File18progress_callback_EPK19FLAC__StreamEncodermmjjPv@Base 1.3.1
 _ZN4FLAC7Encoder4File4initEP8_IO_FILE@Base 1.3.1
 _ZN4FLAC7Encoder4File4initEPKc@Base 1.3.1
 _ZN4FLAC7Encoder4File4initERKNSt7__cxx1112basic_stringIcSt11char_traitsIcESaIcEEE@Base 1.3.1
 _ZN4FLAC7Encoder4File8init_oggEP8_IO_FILE@Base 1.3.1
 _ZN4FLAC7Encoder4File8init_oggEPKc@Base 1.3.1
 _ZN4FLAC7Encoder4File8init_oggERKNSt7__cxx1112basic_stringIcSt11char_traitsIcESaIcEEE@Base 1.3.1
 _ZN4FLAC7Encoder4FileC1Ev@Base 1.3.1
 _ZN4FLAC7Encoder4FileC2Ev@Base 1.3.1
 _ZN4FLAC7Encoder4FileD0Ev@Base 1.3.1
 _ZN4FLAC7Encoder4FileD1Ev@Base 1.3.1
 _ZN4FLAC7Encoder4FileD2Ev@Base 1.3.1
 _ZN4FLAC7Encoder6Stream10set_verifyEb@Base 1.3.1
 _ZN4FLAC7Encoder6Stream12set_channelsEj@Base 1.3.1
 _ZN4FLAC7Encoder6Stream12set_metadataEPP20FLAC__StreamMetadataj@Base 1.3.1
 _ZN4FLAC7Encoder6Stream12set_metadataEPPNS_8Metadata9PrototypeEj@Base 1.3.1
 _ZN4FLAC7Encoder6Stream13read_callbackEPhPm@Base 1.3.1
 _ZN4FLAC7Encoder6Stream13seek_callbackEm@Base 1.3.1
 _ZN4FLAC7Encoder6Stream13set_blocksizeEj@Base 1.3.1
 _ZN4FLAC7Encoder6Stream13tell_callbackEPm@Base 1.3.1
 _ZN4FLAC7Encoder6Stream14read_callback_EPK19FLAC__StreamEncoderPhPmPv@Base 1.3.1
 _ZN4FLAC7Encoder6Stream14seek_callback_EPK19FLAC__StreamEncodermPv@Base 1.3.1
 _ZN4FLAC7Encoder6Stream14tell_callback_EPK19FLAC__StreamEncoderPmPv@Base 1.3.1
 _ZN4FLAC7Encoder6Stream15set_apodizationEPKc@Base 1.3.1
 _ZN4FLAC7Encoder6Stream15set_sample_rateEj@Base 1.3.1
 _ZN4FLAC7Encoder6Stream15write_callback_EPK19FLAC__StreamEncoderPKhmjjPv@Base 1.3.1
 _ZN4FLAC7Encoder6Stream17metadata_callbackEPK20FLAC__StreamMetadata@Base 1.3.1
 _ZN4FLAC7Encoder6Stream17set_max_lpc_orderEj@Base 1.3.1
 _ZN4FLAC7Encoder6Stream18metadata_callback_EPK19FLAC__StreamEncoderPK20FLAC__StreamMetadataPv@Base 1.3.1
 _ZN4FLAC7Encoder6Stream19process_interleavedEPKij@Base 1.3.1
 _ZN4FLAC7Encoder6Stream19set_bits_per_sampleEj@Base 1.3.1
 _ZN4FLAC7Encoder6Stream20set_do_escape_codingEb@Base 1.3.1
 _ZN4FLAC7Encoder6Stream21set_compression_levelEj@Base 1.3.1
 _ZN4FLAC7Encoder6Stream21set_ogg_serial_numberEl@Base 1.3.1
 _ZN4FLAC7Encoder6Stream21set_streamable_subsetEb@Base 1.3.1
 _ZN4FLAC7Encoder6Stream22set_do_mid_side_stereoEb@Base 1.3.1
 _ZN4FLAC7Encoder6Stream23set_qlp_coeff_precisionEj@Base 1.3.1
 _ZN4FLAC7Encoder6Stream25set_loose_mid_side_stereoEb@Base 1.3.1
 _ZN4FLAC7Encoder6Stream26set_total_samples_estimateEm@Base 1.3.1
 _ZN4FLAC7Encoder6Stream28set_do_qlp_coeff_prec_searchEb@Base 1.3.1
 _ZN4FLAC7Encoder6Stream30get_verify_decoder_error_statsEPmPjS3_S3_PiS4_@Base 1.3.1
 _ZN4FLAC7Encoder6Stream30set_do_exhaustive_model_searchEb@Base 1.3.1
 _ZN4FLAC7Encoder6Stream30set_rice_parameter_search_distEj@Base 1.3.1
 _ZN4FLAC7Encoder6Stream32set_max_residual_partition_orderEj@Base 1.3.1
 _ZN4FLAC7Encoder6Stream32set_min_residual_partition_orderEj@Base 1.3.1
 _ZN4FLAC7Encoder6Stream4initEv@Base 1.3.1
 _ZN4FLAC7Encoder6Stream6finishEv@Base 1.3.1
 _ZN4FLAC7Encoder6Stream7processEPKPKij@Base 1.3.1
 _ZN4FLAC7Encoder6Stream8init_oggEv@Base 1.3.1
 _ZN4FLAC7Encoder6StreamC1Ev@Base 1.3.1
 _ZN4FLAC7Encoder6StreamC2Ev@Base 1.3.1
 _ZN4FLAC7Encoder6StreamD0Ev@Base 1.3.1
 _ZN4FLAC7Encoder6StreamD1Ev@Base 1.3.1
 _ZN4FLAC7Encoder6StreamD2Ev@Base 1.3.1
 _ZN4FLAC8Metadata10StreamInfo10set_md5sumEPKh@Base 1.3.1
 _ZN4FLAC8Metadata10StreamInfo12set_channelsEj@Base 1.3.1
 _ZN4FLAC8Metadata10StreamInfo15set_sample_rateEj@Base 1.3.1
 _ZN4FLAC8Metadata10StreamInfo17set_max_blocksizeEj@Base 1.3.1
 _ZN4FLAC8Metadata10StreamInfo17set_max_framesizeEj@Base 1.3.1
 _ZN4FLAC8Metadata10StreamInfo17set_min_blocksizeEj@Base 1.3.1
 _ZN4FLAC8Metadata10StreamInfo17set_min_framesizeEj@Base 1.3.1
 _ZN4FLAC8Metadata10StreamInfo17set_total_samplesEm@Base 1.3.1
 _ZN4FLAC8Metadata10StreamInfo19set_bits_per_sampleEj@Base 1.3.1
 _ZN4FLAC8Metadata10StreamInfoC1Ev@Base 1.3.1
 _ZN4FLAC8Metadata10StreamInfoC2Ev@Base 1.3.1
 _ZN4FLAC8Metadata10StreamInfoD0Ev@Base 1.3.1
 _ZN4FLAC8Metadata10StreamInfoD1Ev@Base 1.3.1
 _ZN4FLAC8Metadata10StreamInfoD2Ev@Base 1.3.1
 _ZN4FLAC8Metadata11Application6set_idEPKh@Base 1.3.1
 _ZN4FLAC8Metadata11Application8set_dataEPKhj@Base 1.3.1
 _ZN4FLAC8Metadata11Application8set_dataEPhjb@Base 1.3.1
 _ZN4FLAC8Metadata11ApplicationC1Ev@Base 1.3.1
 _ZN4FLAC8Metadata11ApplicationC2Ev@Base 1.3.1
 _ZN4FLAC8Metadata11ApplicationD0Ev@Base 1.3.1
 _ZN4FLAC8Metadata11ApplicationD1Ev@Base 1.3.1
 _ZN4FLAC8Metadata11ApplicationD2Ev@Base 1.3.1
 _ZN4FLAC8Metadata11get_pictureEPKcRNS0_7PictureE33FLAC__StreamMetadata_Picture_TypeS2_PKhjjjj@Base 1.3.1
 _ZN4FLAC8Metadata11get_pictureEPKcRPNS0_7PictureE33FLAC__StreamMetadata_Picture_TypeS2_PKhjjjj@Base 1.3.1
 _ZN4FLAC8Metadata12get_cuesheetEPKcRNS0_8CueSheetE@Base 1.3.1
 _ZN4FLAC8Metadata12get_cuesheetEPKcRPNS0_8CueSheetE@Base 1.3.1
 _ZN4FLAC8Metadata13VorbisComment11set_commentEjRKNS1_5EntryE@Base 1.3.1
 _ZN4FLAC8Metadata13VorbisComment14append_commentERKNS1_5EntryE@Base 1.3.1
 _ZN4FLAC8Metadata13VorbisComment14delete_commentEj@Base 1.3.1
 _ZN4FLAC8Metadata13VorbisComment14insert_commentEjRKNS1_5EntryE@Base 1.3.1
 _ZN4FLAC8Metadata13VorbisComment15find_entry_fromEjPKc@Base 1.3.1
 _ZN4FLAC8Metadata13VorbisComment15replace_commentERKNS1_5EntryEb@Base 1.3.1
 _ZN4FLAC8Metadata13VorbisComment15resize_commentsEj@Base 1.3.1
 _ZN4FLAC8Metadata13VorbisComment17set_vendor_stringEPKh@Base 1.3.1
 _ZN4FLAC8Metadata13VorbisComment21remove_entry_matchingEPKc@Base 1.3.1
 _ZN4FLAC8Metadata13VorbisComment23remove_entries_matchingEPKc@Base 1.3.1
 _ZN4FLAC8Metadata13VorbisComment5Entry11clear_entryEv@Base 1.3.1
 _ZN4FLAC8Metadata13VorbisComment5Entry11parse_fieldEv@Base 1.3.1
 _ZN4FLAC8Metadata13VorbisComment5Entry13compose_fieldEv@Base 1.3.1
 _ZN4FLAC8Metadata13VorbisComment5Entry14set_field_nameEPKc@Base 1.3.1
 _ZN4FLAC8Metadata13VorbisComment5Entry15set_field_valueEPKc@Base 1.3.1
 _ZN4FLAC8Metadata13VorbisComment5Entry15set_field_valueEPKcj@Base 1.3.1
 _ZN4FLAC8Metadata13VorbisComment5Entry16clear_field_nameEv@Base 1.3.1
 _ZN4FLAC8Metadata13VorbisComment5Entry17clear_field_valueEv@Base 1.3.1
 _ZN4FLAC8Metadata13VorbisComment5Entry4zeroEv@Base 1.3.1
 _ZN4FLAC8Metadata13VorbisComment5Entry5clearEv@Base 1.3.1
 _ZN4FLAC8Metadata13VorbisComment5Entry9constructEPKc@Base 1.3.1
 _ZN4FLAC8Metadata13VorbisComment5Entry9constructEPKcS4_@Base 1.3.1
 _ZN4FLAC8Metadata13VorbisComment5Entry9constructEPKcS4_j@Base 1.3.1
 _ZN4FLAC8Metadata13VorbisComment5Entry9constructEPKcj@Base 1.3.1
 _ZN4FLAC8Metadata13VorbisComment5Entry9set_fieldEPKc@Base 1.3.1
 _ZN4FLAC8Metadata13VorbisComment5Entry9set_fieldEPKcj@Base 1.3.1
 _ZN4FLAC8Metadata13VorbisComment5EntryC1EPKc@Base 1.3.1
 _ZN4FLAC8Metadata13VorbisComment5EntryC1EPKcS4_@Base 1.3.1
 _ZN4FLAC8Metadata13VorbisComment5EntryC1EPKcS4_j@Base 1.3.1
 _ZN4FLAC8Metadata13VorbisComment5EntryC1EPKcj@Base 1.3.1
 _ZN4FLAC8Metadata13VorbisComment5EntryC1ERKS2_@Base 1.3.1
 _ZN4FLAC8Metadata13VorbisComment5EntryC1Ev@Base 1.3.1
 _ZN4FLAC8Metadata13VorbisComment5EntryC2EPKc@Base 1.3.1
 _ZN4FLAC8Metadata13VorbisComment5EntryC2EPKcS4_@Base 1.3.1
 _ZN4FLAC8Metadata13VorbisComment5EntryC2EPKcS4_j@Base 1.3.1
 _ZN4FLAC8Metadata13VorbisComment5EntryC2EPKcj@Base 1.3.1
 _ZN4FLAC8Metadata13VorbisComment5EntryC2ERKS2_@Base 1.3.1
 _ZN4FLAC8Metadata13VorbisComment5EntryC2Ev@Base 1.3.1
 _ZN4FLAC8Metadata13VorbisComment5EntryD0Ev@Base 1.3.1
 _ZN4FLAC8Metadata13VorbisComment5EntryD1Ev@Base 1.3.1
 _ZN4FLAC8Metadata13VorbisComment5EntryD2Ev@Base 1.3.1
 _ZN4FLAC8Metadata13VorbisComment5EntryaSERKS2_@Base 1.3.1
 _ZN4FLAC8Metadata13VorbisCommentC1Ev@Base 1.3.1
 _ZN4FLAC8Metadata13VorbisCommentC2Ev@Base 1.3.1
 _ZN4FLAC8Metadata13VorbisCommentD0Ev@Base 1.3.1
 _ZN4FLAC8Metadata13VorbisCommentD1Ev@Base 1.3.1
 _ZN4FLAC8Metadata13VorbisCommentD2Ev@Base 1.3.1
 _ZN4FLAC8Metadata14SimpleIterator12delete_blockEb@Base 1.3.1
 _ZN4FLAC8Metadata14SimpleIterator18get_application_idEPh@Base 1.3.1
 _ZN4FLAC8Metadata14SimpleIterator18insert_block_afterEPNS0_9PrototypeEb@Base 1.3.1
 _ZN4FLAC8Metadata14SimpleIterator4initEPKcbb@Base 1.3.1
 _ZN4FLAC8Metadata14SimpleIterator4nextEv@Base 1.3.1
 _ZN4FLAC8Metadata14SimpleIterator4prevEv@Base 1.3.1
 _ZN4FLAC8Metadata14SimpleIterator5clearEv@Base 1.3.1
 _ZN4FLAC8Metadata14SimpleIterator6statusEv@Base 1.3.1
 _ZN4FLAC8Metadata14SimpleIterator9get_blockEv@Base 1.3.1
 _ZN4FLAC8Metadata14SimpleIterator9set_blockEPNS0_9PrototypeEb@Base 1.3.1
 _ZN4FLAC8Metadata14SimpleIteratorC1Ev@Base 1.3.1
 _ZN4FLAC8Metadata14SimpleIteratorC2Ev@Base 1.3.1
 _ZN4FLAC8Metadata14SimpleIteratorD0Ev@Base 1.3.1
 _ZN4FLAC8Metadata14SimpleIteratorD1Ev@Base 1.3.1
 _ZN4FLAC8Metadata14SimpleIteratorD2Ev@Base 1.3.1
 _ZN4FLAC8Metadata14get_streaminfoEPKcRNS0_10StreamInfoE@Base 1.3.1
 _ZN4FLAC8Metadata5Chain12sort_paddingEv@Base 1.3.1
 _ZN4FLAC8Metadata5Chain13merge_paddingEv@Base 1.3.1
 _ZN4FLAC8Metadata5Chain24check_if_tempfile_neededEb@Base 1.3.1
 _ZN4FLAC8Metadata5Chain4readEPKcb@Base 1.3.1
 _ZN4FLAC8Metadata5Chain4readEPv17FLAC__IOCallbacksb@Base 1.3.1
 _ZN4FLAC8Metadata5Chain5clearEv@Base 1.3.1
 _ZN4FLAC8Metadata5Chain5writeEbPv17FLAC__IOCallbacks@Base 1.3.1
 _ZN4FLAC8Metadata5Chain5writeEbPv17FLAC__IOCallbacksS2_S3_@Base 1.3.1
 _ZN4FLAC8Metadata5Chain5writeEbb@Base 1.3.1
 _ZN4FLAC8Metadata5Chain6statusEv@Base 1.3.1
 _ZN4FLAC8Metadata5ChainC1Ev@Base 1.3.1
 _ZN4FLAC8Metadata5ChainC2Ev@Base 1.3.1
 _ZN4FLAC8Metadata5ChainD0Ev@Base 1.3.1
 _ZN4FLAC8Metadata5ChainD1Ev@Base 1.3.1
 _ZN4FLAC8Metadata5ChainD2Ev@Base 1.3.1
 _ZN4FLAC8Metadata5cloneEPKNS0_9PrototypeE@Base 1.3.1
 _ZN4FLAC8Metadata7Padding10set_lengthEj@Base 1.3.1
 _ZN4FLAC8Metadata7PaddingC1Ej@Base 1.3.1
 _ZN4FLAC8Metadata7PaddingC1Ev@Base 1.3.1
 _ZN4FLAC8Metadata7PaddingC2Ej@Base 1.3.1
 _ZN4FLAC8Metadata7PaddingC2Ev@Base 1.3.1
 _ZN4FLAC8Metadata7PaddingD0Ev@Base 1.3.1
 _ZN4FLAC8Metadata7PaddingD1Ev@Base 1.3.1
 _ZN4FLAC8Metadata7PaddingD2Ev@Base 1.3.1
 _ZN4FLAC8Metadata7Picture13set_mime_typeEPKc@Base 1.3.1
 _ZN4FLAC8Metadata7Picture15set_descriptionEPKh@Base 1.3.1
 _ZN4FLAC8Metadata7Picture8is_legalEPPKc@Base 1.3.1
 _ZN4FLAC8Metadata7Picture8set_dataEPKhj@Base 1.3.1
 _ZN4FLAC8Metadata7Picture8set_typeE33FLAC__StreamMetadata_Picture_Type@Base 1.3.1
 _ZN4FLAC8Metadata7PictureC1Ev@Base 1.3.1
 _ZN4FLAC8Metadata7PictureC2Ev@Base 1.3.1
 _ZN4FLAC8Metadata7PictureD0Ev@Base 1.3.1
 _ZN4FLAC8Metadata7PictureD1Ev@Base 1.3.1
 _ZN4FLAC8Metadata7PictureD2Ev@Base 1.3.1
 _ZN4FLAC8Metadata7Unknown8set_dataEPKhj@Base 1.3.1
 _ZN4FLAC8Metadata7Unknown8set_dataEPhjb@Base 1.3.1
 _ZN4FLAC8Metadata7UnknownC1Ev@Base 1.3.1
 _ZN4FLAC8Metadata7UnknownC2Ev@Base 1.3.1
 _ZN4FLAC8Metadata7UnknownD0Ev@Base 1.3.1
 _ZN4FLAC8Metadata7UnknownD1Ev@Base 1.3.1
 _ZN4FLAC8Metadata7UnknownD2Ev@Base 1.3.1
 _ZN4FLAC8Metadata8CueSheet11set_lead_inEm@Base 1.3.1
 _ZN4FLAC8Metadata8CueSheet12delete_indexEjj@Base 1.3.1
 _ZN4FLAC8Metadata8CueSheet12delete_trackEj@Base 1.3.1
 _ZN4FLAC8Metadata8CueSheet12insert_indexEjjRK35FLAC__StreamMetadata_CueSheet_Index@Base 1.3.1
 _ZN4FLAC8Metadata8CueSheet12insert_trackEjRKNS1_5TrackE@Base 1.3.1
 _ZN4FLAC8Metadata8CueSheet13resize_tracksEj@Base 1.3.1
 _ZN4FLAC8Metadata8CueSheet14resize_indicesEjj@Base 1.3.1
 _ZN4FLAC8Metadata8CueSheet18insert_blank_indexEjj@Base 1.3.1
 _ZN4FLAC8Metadata8CueSheet18insert_blank_trackEj@Base 1.3.1
 _ZN4FLAC8Metadata8CueSheet24set_media_catalog_numberEPKc@Base 1.3.1
 _ZN4FLAC8Metadata8CueSheet5Track8set_isrcEPKc@Base 1.3.1
 _ZN4FLAC8Metadata8CueSheet5Track8set_typeEj@Base 1.3.1
 _ZN4FLAC8Metadata8CueSheet5Track9set_indexEjRK35FLAC__StreamMetadata_CueSheet_Index@Base 1.3.1
 _ZN4FLAC8Metadata8CueSheet5TrackC1EPK35FLAC__StreamMetadata_CueSheet_Track@Base 1.3.1
 _ZN4FLAC8Metadata8CueSheet5TrackC1ERKS2_@Base 1.3.1
 _ZN4FLAC8Metadata8CueSheet5TrackC1Ev@Base 1.3.1
 _ZN4FLAC8Metadata8CueSheet5TrackC2EPK35FLAC__StreamMetadata_CueSheet_Track@Base 1.3.1
 _ZN4FLAC8Metadata8CueSheet5TrackC2ERKS2_@Base 1.3.1
 _ZN4FLAC8Metadata8CueSheet5TrackC2Ev@Base 1.3.1
 _ZN4FLAC8Metadata8CueSheet5TrackD0Ev@Base 1.3.1
 _ZN4FLAC8Metadata8CueSheet5TrackD1Ev@Base 1.3.1
 _ZN4FLAC8Metadata8CueSheet5TrackD2Ev@Base 1.3.1
 _ZN4FLAC8Metadata8CueSheet5TrackaSERKS2_@Base 1.3.1
 _ZN4FLAC8Metadata8CueSheet9set_indexEjjRK35FLAC__StreamMetadata_CueSheet_Index@Base 1.3.1
 _ZN4FLAC8Metadata8CueSheet9set_is_cdEb@Base 1.3.1
 _ZN4FLAC8Metadata8CueSheet9set_trackEjRKNS1_5TrackE@Base 1.3.1
 _ZN4FLAC8Metadata8CueSheetC1Ev@Base 1.3.1
 _ZN4FLAC8Metadata8CueSheetC2Ev@Base 1.3.1
 _ZN4FLAC8Metadata8CueSheetD0Ev@Base 1.3.1
 _ZN4FLAC8Metadata8CueSheetD1Ev@Base 1.3.1
 _ZN4FLAC8Metadata8CueSheetD2Ev@Base 1.3.1
 _ZN4FLAC8Metadata8Iterator12delete_blockEb@Base 1.3.1
 _ZN4FLAC8Metadata8Iterator18insert_block_afterEPNS0_9PrototypeE@Base 1.3.1
 _ZN4FLAC8Metadata8Iterator19insert_block_beforeEPNS0_9PrototypeE@Base 1.3.1
 _ZN4FLAC8Metadata8Iterator4initERNS0_5ChainE@Base 1.3.1
 _ZN4FLAC8Metadata8Iterator4nextEv@Base 1.3.1
 _ZN4FLAC8Metadata8Iterator4prevEv@Base 1.3.1
 _ZN4FLAC8Metadata8Iterator5clearEv@Base 1.3.1
 _ZN4FLAC8Metadata8Iterator9get_blockEv@Base 1.3.1
 _ZN4FLAC8Metadata8Iterator9set_blockEPNS0_9PrototypeE@Base 1.3.1
 _ZN4FLAC8Metadata8IteratorC1Ev@Base 1.3.1
 _ZN4FLAC8Metadata8IteratorC2Ev@Base 1.3.1
 _ZN4FLAC8Metadata8IteratorD0Ev@Base 1.3.1
 _ZN4FLAC8Metadata8IteratorD1Ev@Base 1.3.1
 _ZN4FLAC8Metadata8IteratorD2Ev@Base 1.3.1
 _ZN4FLAC8Metadata8get_tagsEPKcRNS0_13VorbisCommentE@Base 1.3.1
 _ZN4FLAC8Metadata8get_tagsEPKcRPNS0_13VorbisCommentE@Base 1.3.1
 _ZN4FLAC8Metadata9Prototype11set_is_lastEb@Base 1.3.1
 _ZN4FLAC8Metadata9Prototype13assign_objectEP20FLAC__StreamMetadatab@Base 1.3.1
 _ZN4FLAC8Metadata9Prototype5clearEv@Base 1.3.1
 _ZN4FLAC8Metadata9PrototypeC1EP20FLAC__StreamMetadatab@Base 1.3.1
 _ZN4FLAC8Metadata9PrototypeC1EPK20FLAC__StreamMetadata@Base 1.3.1
 _ZN4FLAC8Metadata9PrototypeC1ERK20FLAC__StreamMetadata@Base 1.3.1
 _ZN4FLAC8Metadata9PrototypeC1ERKS1_@Base 1.3.1
 _ZN4FLAC8Metadata9PrototypeC2EP20FLAC__StreamMetadatab@Base 1.3.1
 _ZN4FLAC8Metadata9PrototypeC2EPK20FLAC__StreamMetadata@Base 1.3.1
 _ZN4FLAC8Metadata9PrototypeC2ERK20FLAC__StreamMetadata@Base 1.3.1
 _ZN4FLAC8Metadata9PrototypeC2ERKS1_@Base 1.3.1
 _ZN4FLAC8Metadata9PrototypeD0Ev@Base 1.3.1
 _ZN4FLAC8Metadata9PrototypeD1Ev@Base 1.3.1
 _ZN4FLAC8Metadata9PrototypeD2Ev@Base 1.3.1
 _ZN4FLAC8Metadata9PrototypeaSEPK20FLAC__StreamMetadata@Base 1.3.1
 _ZN4FLAC8Metadata9PrototypeaSERK20FLAC__StreamMetadata@Base 1.3.1
 _ZN4FLAC8Metadata9PrototypeaSERKS1_@Base 1.3.1
 _ZN4FLAC8Metadata9SeekTable12delete_pointEj@Base 1.3.1
 _ZN4FLAC8Metadata9SeekTable12insert_pointEjRK30FLAC__StreamMetadata_SeekPoint@Base 1.3.1
 _ZN4FLAC8Metadata9SeekTable13resize_pointsEj@Base 1.3.1
 _ZN4FLAC8Metadata9SeekTable13template_sortEb@Base 1.3.1
 _ZN4FLAC8Metadata9SeekTable21template_append_pointEm@Base 1.3.1
 _ZN4FLAC8Metadata9SeekTable22template_append_pointsEPmj@Base 1.3.1
 _ZN4FLAC8Metadata9SeekTable28template_append_placeholdersEj@Base 1.3.1
 _ZN4FLAC8Metadata9SeekTable29template_append_spaced_pointsEjm@Base 1.3.1
 _ZN4FLAC8Metadata9SeekTable40template_append_spaced_points_by_samplesEjm@Base 1.3.1
 _ZN4FLAC8Metadata9SeekTable9set_pointEjRK30FLAC__StreamMetadata_SeekPoint@Base 1.3.1
 _ZN4FLAC8Metadata9SeekTableC1Ev@Base 1.3.1
 _ZN4FLAC8Metadata9SeekTableC2Ev@Base 1.3.1
 _ZN4FLAC8Metadata9SeekTableD0Ev@Base 1.3.1
 _ZN4FLAC8Metadata9SeekTableD1Ev@Base 1.3.1
 _ZN4FLAC8Metadata9SeekTableD2Ev@Base 1.3.1
 _ZNK4FLAC7Decoder6Stream12get_channelsEv@Base 1.3.1
 _ZNK4FLAC7Decoder6Stream13get_blocksizeEv@Base 1.3.1
 _ZNK4FLAC7Decoder6Stream15get_sample_rateEv@Base 1.3.1
 _ZNK4FLAC7Decoder6Stream16get_md5_checkingEv@Base 1.3.1
 _ZNK4FLAC7Decoder6Stream17get_total_samplesEv@Base 1.3.1
 _ZNK4FLAC7Decoder6Stream19get_bits_per_sampleEv@Base 1.3.1
 _ZNK4FLAC7Decoder6Stream19get_decode_positionEPm@Base 1.3.1
 _ZNK4FLAC7Decoder6Stream22get_channel_assignmentEv@Base 1.3.1
 _ZNK4FLAC7Decoder6Stream8is_validEv@Base 1.3.1
 _ZNK4FLAC7Decoder6Stream9get_stateEv@Base 1.3.1
 _ZNK4FLAC7Encoder6Stream10get_verifyEv@Base 1.3.1
 _ZNK4FLAC7Encoder6Stream12get_channelsEv@Base 1.3.1
 _ZNK4FLAC7Encoder6Stream13get_blocksizeEv@Base 1.3.1
 _ZNK4FLAC7Encoder6Stream15get_sample_rateEv@Base 1.3.1
 _ZNK4FLAC7Encoder6Stream17get_max_lpc_orderEv@Base 1.3.1
 _ZNK4FLAC7Encoder6Stream19get_bits_per_sampleEv@Base 1.3.1
 _ZNK4FLAC7Encoder6Stream20get_do_escape_codingEv@Base 1.3.1
 _ZNK4FLAC7Encoder6Stream21get_streamable_subsetEv@Base 1.3.1
 _ZNK4FLAC7Encoder6Stream22get_do_mid_side_stereoEv@Base 1.3.1
 _ZNK4FLAC7Encoder6Stream23get_qlp_coeff_precisionEv@Base 1.3.1
 _ZNK4FLAC7Encoder6Stream24get_verify_decoder_stateEv@Base 1.3.1
 _ZNK4FLAC7Encoder6Stream25get_loose_mid_side_stereoEv@Base 1.3.1
 _ZNK4FLAC7Encoder6Stream26get_total_samples_estimateEv@Base 1.3.1
 _ZNK4FLAC7Encoder6Stream28get_do_qlp_coeff_prec_searchEv@Base 1.3.1
 _ZNK4FLAC7Encoder6Stream30get_do_exhaustive_model_searchEv@Base 1.3.1
 _ZNK4FLAC7Encoder6Stream30get_rice_parameter_search_distEv@Base 1.3.1
 _ZNK4FLAC7Encoder6Stream32get_max_residual_partition_orderEv@Base 1.3.1
 _ZNK4FLAC7Encoder6Stream32get_min_residual_partition_orderEv@Base 1.3.1
 _ZNK4FLAC7Encoder6Stream8is_validEv@Base 1.3.1
 _ZNK4FLAC7Encoder6Stream9get_stateEv@Base 1.3.1
 _ZNK4FLAC8Metadata10StreamInfo10get_md5sumEv@Base 1.3.1
 _ZNK4FLAC8Metadata10StreamInfo12get_channelsEv@Base 1.3.1
 _ZNK4FLAC8Metadata10StreamInfo15get_sample_rateEv@Base 1.3.1
 _ZNK4FLAC8Metadata10StreamInfo17get_max_blocksizeEv@Base 1.3.1
 _ZNK4FLAC8Metadata10StreamInfo17get_max_framesizeEv@Base 1.3.1
 _ZNK4FLAC8Metadata10StreamInfo17get_min_blocksizeEv@Base 1.3.1
 _ZNK4FLAC8Metadata10StreamInfo17get_min_framesizeEv@Base 1.3.1
 _ZNK4FLAC8Metadata10StreamInfo17get_total_samplesEv@Base 1.3.1
 _ZNK4FLAC8Metadata10StreamInfo19get_bits_per_sampleEv@Base 1.3.1
 _ZNK4FLAC8Metadata11Application6get_idEv@Base 1.3.1
 _ZNK4FLAC8Metadata11Application8get_dataEv@Base 1.3.1
 _ZNK4FLAC8Metadata13VorbisComment11get_commentEj@Base 1.3.1
 _ZNK4FLAC8Metadata13VorbisComment16get_num_commentsEv@Base 1.3.1
 _ZNK4FLAC8Metadata13VorbisComment17get_vendor_stringEv@Base 1.3.1
 _ZNK4FLAC8Metadata13VorbisComment5Entry14get_field_nameEv@Base 1.3.1
 _ZNK4FLAC8Metadata13VorbisComment5Entry15get_field_valueEv@Base 1.3.1
 _ZNK4FLAC8Metadata13VorbisComment5Entry16get_field_lengthEv@Base 1.3.1
 _ZNK4FLAC8Metadata13VorbisComment5Entry21get_field_name_lengthEv@Base 1.3.1
 _ZNK4FLAC8Metadata13VorbisComment5Entry22get_field_value_lengthEv@Base 1.3.1
 _ZNK4FLAC8Metadata13VorbisComment5Entry8is_validEv@Base 1.3.1
 _ZNK4FLAC8Metadata13VorbisComment5Entry9get_entryEv@Base 1.3.1
 _ZNK4FLAC8Metadata13VorbisComment5Entry9get_fieldEv@Base 1.3.1
 _ZNK4FLAC8Metadata14SimpleIterator11is_writableEv@Base 1.3.1
 _ZNK4FLAC8Metadata14SimpleIterator14get_block_typeEv@Base 1.3.1
 _ZNK4FLAC8Metadata14SimpleIterator16get_block_lengthEv@Base 1.3.1
 _ZNK4FLAC8Metadata14SimpleIterator16get_block_offsetEv@Base 1.3.1
 _ZNK4FLAC8Metadata14SimpleIterator7is_lastEv@Base 1.3.1
 _ZNK4FLAC8Metadata14SimpleIterator8is_validEv@Base 1.3.1
 _ZNK4FLAC8Metadata5Chain8is_validEv@Base 1.3.1
 _ZNK4FLAC8Metadata7Picture10get_colorsEv@Base 1.3.1
 _ZNK4FLAC8Metadata7Picture10get_heightEv@Base 1.3.1
 _ZNK4FLAC8Metadata7Picture10set_colorsEj@Base 1.3.1
 _ZNK4FLAC8Metadata7Picture10set_heightEj@Base 1.3.1
 _ZNK4FLAC8Metadata7Picture13get_mime_typeEv@Base 1.3.1
 _ZNK4FLAC8Metadata7Picture15get_data_lengthEv@Base 1.3.1
 _ZNK4FLAC8Metadata7Picture15get_descriptionEv@Base 1.3.1
 _ZNK4FLAC8Metadata7Picture8get_dataEv@Base 1.3.1
 _ZNK4FLAC8Metadata7Picture8get_typeEv@Base 1.3.1
 _ZNK4FLAC8Metadata7Picture9get_depthEv@Base 1.3.1
 _ZNK4FLAC8Metadata7Picture9get_widthEv@Base 1.3.1
 _ZNK4FLAC8Metadata7Picture9set_depthEj@Base 1.3.1
 _ZNK4FLAC8Metadata7Picture9set_widthEj@Base 1.3.1
 _ZNK4FLAC8Metadata7Unknown8get_dataEv@Base 1.3.1
 _ZNK4FLAC8Metadata8CueSheet11get_lead_inEv@Base 1.3.1
 _ZNK4FLAC8Metadata8CueSheet14get_num_tracksEv@Base 1.3.1
 _ZNK4FLAC8Metadata8CueSheet17calculate_cddb_idEv@Base 1.3.1
 _ZNK4FLAC8Metadata8CueSheet24get_media_catalog_numberEv@Base 1.3.1
 _ZNK4FLAC8Metadata8CueSheet5Track8is_validEv@Base 1.3.1
 _ZNK4FLAC8Metadata8CueSheet5Track9get_indexEj@Base 1.3.1
 _ZNK4FLAC8Metadata8CueSheet8is_legalEbPPKc@Base 1.3.1
 _ZNK4FLAC8Metadata8CueSheet9get_is_cdEv@Base 1.3.1
 _ZNK4FLAC8Metadata8CueSheet9get_trackEj@Base 1.3.1
 _ZNK4FLAC8Metadata8Iterator14get_block_typeEv@Base 1.3.1
 _ZNK4FLAC8Metadata8Iterator8is_validEv@Base 1.3.1
 _ZNK4FLAC8Metadata9Prototype10get_lengthEv@Base 1.3.1
 _ZNK4FLAC8Metadata9Prototype11get_is_lastEv@Base 1.3.1
 _ZNK4FLAC8Metadata9Prototype8get_typeEv@Base 1.3.1
 _ZNK4FLAC8Metadata9SeekTable14get_num_pointsEv@Base 1.3.1
 _ZNK4FLAC8Metadata9SeekTable8is_legalEv@Base 1.3.1
 _ZNK4FLAC8Metadata9SeekTable9get_pointEj@Base 1.3.1
 _ZTIN4FLAC7Decoder4FileE@Base 1.3.1
 _ZTIN4FLAC7Decoder6StreamE@Base 1.3.1
 _ZTIN4FLAC7Encoder4FileE@Base 1.3.1
 _ZTIN4FLAC7Encoder6StreamE@Base 1.3.1
 _ZTIN4FLAC8Metadata10StreamInfoE@Base 1.3.1
 _ZTIN4FLAC8Metadata11ApplicationE@Base 1.3.1
 _ZTIN4FLAC8Metadata13VorbisComment5EntryE@Base 1.3.1
 _ZTIN4FLAC8Metadata13VorbisCommentE@Base 1.3.1
 _ZTIN4FLAC8Metadata14SimpleIteratorE@Base 1.3.1
 _ZTIN4FLAC8Metadata5ChainE@Base 1.3.1
 _ZTIN4FLAC8Metadata7PaddingE@Base 1.3.1
 _ZTIN4FLAC8Metadata7PictureE@Base 1.3.1
 _ZTIN4FLAC8Metadata7UnknownE@Base 1.3.1
 _ZTIN4FLAC8Metadata8CueSheet5TrackE@Base 1.3.1
 _ZTIN4FLAC8Metadata8CueSheetE@Base 1.3.1
 _ZTIN4FLAC8Metadata8IteratorE@Base 1.3.1
 _ZTIN4FLAC8Metadata9PrototypeE@Base 1.3.1
 _ZTIN4FLAC8Metadata9SeekTableE@Base 1.3.1
 _ZTSN4FLAC7Decoder4FileE@Base 1.3.1
 _ZTSN4FLAC7Decoder6StreamE@Base 1.3.1
 _ZTSN4FLAC7Encoder4FileE@Base 1.3.1
 _ZTSN4FLAC7Encoder6StreamE@Base 1.3.1
 _ZTSN4FLAC8Metadata10StreamInfoE@Base 1.3.1
 _ZTSN4FLAC8Metadata11ApplicationE@Base 1.3.1
 _ZTSN4FLAC8Metadata13VorbisComment5EntryE@Base 1.3.1
 _ZTSN4FLAC8Metadata13VorbisCommentE@Base 1.3.1
 _ZTSN4FLAC8Metadata14SimpleIteratorE@Base 1.3.1
 _ZTSN4FLAC8Metadata5ChainE@Base 1.3.1
 _ZTSN4FLAC8Metadata7PaddingE@Base 1.3.1
 _ZTSN4FLAC8Metadata7PictureE@Base 1.3.1
 _ZTSN4FLAC8Metadata7UnknownE@Base 1.3.1
 _ZTSN4FLAC8Metadata8CueSheet5TrackE@Base 1.3.1
 _ZTSN4FLAC8Metadata8CueSheetE@Base 1.3.1
 _ZTSN4FLAC8Metadata8IteratorE@Base 1.3.1
 _ZTSN4FLAC8Metadata9PrototypeE@Base 1.3.1
 _ZTSN4FLAC8Metadata9SeekTableE@Base 1.3.1
 _ZTVN4FLAC7Decoder4FileE@Base 1.3.1
 _ZTVN4FLAC7Decoder6StreamE@Base 1.3.1
 _ZTVN4FLAC7Encoder4FileE@Base 1.3.1
 _ZTVN4FLAC7Encoder6StreamE@Base 1.3.1
 _ZTVN4FLAC8Metadata10StreamInfoE@Base 1.3.1
 _ZTVN4FLAC8Metadata11ApplicationE@Base 1.3.1
 _ZTVN4FLAC8Metadata13VorbisComment5EntryE@Base 1.3.1
 _ZTVN4FLAC8Metadata13VorbisCommentE@Base 1.3.1
 _ZTVN4FLAC8Metadata14SimpleIteratorE@Base 1.3.1
 _ZTVN4FLAC8Metadata5ChainE@Base 1.3.1
 _ZTVN4FLAC8Metadata7PaddingE@Base 1.3.1
 _ZTVN4FLAC8Metadata7PictureE@Base 1.3.1
 _ZTVN4FLAC8Metadata7UnknownE@Base 1.3.1
 _ZTVN4FLAC8Metadata8CueSheet5TrackE@Base 1.3.1
 _ZTVN4FLAC8Metadata8CueSheetE@Base 1.3.1
 _ZTVN4FLAC8Metadata8IteratorE@Base 1.3.1
 _ZTVN4FLAC8Metadata9PrototypeE@Base 1.3.1
 _ZTVN4FLAC8Metadata9SeekTableE@Base 1.3.1
