libgsettings-qt.so.1 libgsettings-qt1 #MINVER#
 _Z10qtify_namePKc@Base 0.1+14.04.20140408
 _Z12unqtify_nameRK7QString@Base 0.1+14.04.20140408
 _Z19qconf_types_convertPK13_GVariantType@Base 0.1+14.04.20140408
 _Z23qconf_types_to_qvariantP9_GVariant@Base 0.1+14.04.20140408
 _Z32qconf_types_collect_from_variantPK13_GVariantTypeRK8QVariant@Base 0.1+14.04.20140408
 _ZN10QByteArrayD1Ev@Base 0.1+14.04.20140408
 _ZN10QByteArrayD2Ev@Base 0.1+14.04.20140408
 _ZN10QGSettings11qt_metacallEN11QMetaObject4CallEiPPv@Base 0.1+14.04.20140408
 _ZN10QGSettings11qt_metacastEPKc@Base 0.1+14.04.20140408
 _ZN10QGSettings16staticMetaObjectE@Base 0.1+14.04.20140408
 _ZN10QGSettings17isSchemaInstalledERK10QByteArray@Base 0.1+14.04.20140408
 _ZN10QGSettings3setERK7QStringRK8QVariant@Base 0.1+14.04.20140408
 _ZN10QGSettings5resetERK7QString@Base 0.1+14.04.20140408
 _ZN10QGSettings6trySetERK7QStringRK8QVariant@Base 0.1+14.04.20140408
 _ZN10QGSettings7changedERK7QString@Base 0.1+14.04.20140408
 _ZN10QGSettingsC1ERK10QByteArrayS2_P7QObject@Base 0.1+14.04.20140408
 _ZN10QGSettingsC2ERK10QByteArrayS2_P7QObject@Base 0.1+14.04.20140408
 _ZN10QGSettingsD0Ev@Base 0.1+14.04.20140408
 _ZN10QGSettingsD1Ev@Base 0.1+14.04.20140408
 _ZN10QGSettingsD2Ev@Base 0.1+14.04.20140408
 _ZN17QGSettingsPrivate14settingChangedEP10_GSettingsPKcPv@Base 0.1+14.04.20140408
 _ZN4QMapI7QString8QVariantED1Ev@Base 0.1+14.10.20140801.1
 _ZN4QMapI7QString8QVariantED2Ev@Base 0.1+14.10.20140801.1
 _ZN5QListI7QStringE18detach_helper_growEii@Base 0.1+14.10.20140801.1
 _ZN5QListI7QStringE6appendERKS0_@Base 0.1+14.04.20140408
 _ZN5QListI7QStringED1Ev@Base 0.1+14.04.20140408
 _ZN5QListI7QStringED2Ev@Base 0.1+14.04.20140408
 _ZN5QListI8QVariantE18detach_helper_growEii@Base 0.1+14.04.20140408
 _ZN5QListI8QVariantE6appendERKS0_@Base 0.1+14.04.20140408
 _ZN5QListI8QVariantEC1ERKS1_@Base 0.1+14.04.20140408
 _ZN5QListI8QVariantEC2ERKS1_@Base 0.1+14.04.20140408
 _ZN5QListI8QVariantED1Ev@Base 0.1+14.04.20140408
 _ZN5QListI8QVariantED2Ev@Base 0.1+14.04.20140408
 _ZN7QStringD1Ev@Base 0.1+14.04.20140408
 _ZN7QStringD2Ev@Base 0.1+14.04.20140408
 _ZN8QMapNodeI7QString8QVariantE14destroySubTreeEv@Base 0.1+14.10.20140801.1
 _ZNK10QGSettings10metaObjectEv@Base 0.1+14.04.20140408
 _ZNK10QGSettings3getERK7QString@Base 0.1+14.04.20140408
 _ZNK10QGSettings4keysEv@Base 0.1+14.04.20140408
 _ZNK10QGSettings7choicesERK7QString@Base 0.1+14.04.20140408
 _ZNK8QMapNodeI7QString8QVariantE4copyEP8QMapDataIS0_S1_E@Base 0.1+14.10.20140801.1
 _ZTI10QGSettings@Base 0.1+14.04.20140408
 _ZTS10QGSettings@Base 0.1+14.04.20140408
 _ZTV10QGSettings@Base 0.1+14.04.20140408
