libKF5GAPICalendar.so.5 libkf5gapicalendar5 #MINVER#
 _ZN6KGAPI212EventMoveJob11qt_metacallEN11QMetaObject4CallEiPPv@Base 4.80.0
 _ZN6KGAPI212EventMoveJob11qt_metacastEPKc@Base 4.80.0
 _ZN6KGAPI212EventMoveJob15dispatchRequestEP21QNetworkAccessManagerRK15QNetworkRequestRK10QByteArrayRK7QString@Base 4.80.0
 _ZN6KGAPI212EventMoveJob16staticMetaObjectE@Base 4.80.0
 _ZN6KGAPI212EventMoveJob20handleReplyWithItemsEPK13QNetworkReplyRK10QByteArray@Base 4.80.0
 _ZN6KGAPI212EventMoveJob5startEv@Base 4.80.0
 _ZN6KGAPI212EventMoveJobC1ERK11QStringListRK7QStringS6_RK14QSharedPointerINS_7AccountEEP7QObject@Base 4.80.0
 _ZN6KGAPI212EventMoveJobC1ERK14QSharedPointerINS_5EventEERK7QStringS8_RKS1_INS_7AccountEEP7QObject@Base 4.80.0
 _ZN6KGAPI212EventMoveJobC1ERK5QListI14QSharedPointerINS_5EventEEERK7QStringSA_RKS2_INS_7AccountEEP7QObject@Base 4.80.0
 _ZN6KGAPI212EventMoveJobC1ERK7QStringS3_S3_RK14QSharedPointerINS_7AccountEEP7QObject@Base 4.80.0
 _ZN6KGAPI212EventMoveJobC2ERK11QStringListRK7QStringS6_RK14QSharedPointerINS_7AccountEEP7QObject@Base 4.80.0
 _ZN6KGAPI212EventMoveJobC2ERK14QSharedPointerINS_5EventEERK7QStringS8_RKS1_INS_7AccountEEP7QObject@Base 4.80.0
 _ZN6KGAPI212EventMoveJobC2ERK5QListI14QSharedPointerINS_5EventEEERK7QStringSA_RKS2_INS_7AccountEEP7QObject@Base 4.80.0
 _ZN6KGAPI212EventMoveJobC2ERK7QStringS3_S3_RK14QSharedPointerINS_7AccountEEP7QObject@Base 4.80.0
 _ZN6KGAPI212EventMoveJobD0Ev@Base 4.80.0
 _ZN6KGAPI212EventMoveJobD1Ev@Base 4.80.0
 _ZN6KGAPI212EventMoveJobD2Ev@Base 4.80.0
 _ZN6KGAPI213EventFetchJob10setTimeMaxEy@Base 4.80.0
 _ZN6KGAPI213EventFetchJob10setTimeMinEy@Base 4.80.0
 _ZN6KGAPI213EventFetchJob11qt_metacallEN11QMetaObject4CallEiPPv@Base 4.80.0
 _ZN6KGAPI213EventFetchJob11qt_metacastEPKc@Base 4.80.0
 _ZN6KGAPI213EventFetchJob12fetchDeletedEv@Base 4.80.0
 _ZN6KGAPI213EventFetchJob15setFetchDeletedEb@Base 4.80.0
 _ZN6KGAPI213EventFetchJob16fetchOnlyUpdatedEv@Base 4.80.0
 _ZN6KGAPI213EventFetchJob16staticMetaObjectE@Base 4.80.0
 _ZN6KGAPI213EventFetchJob19setFetchOnlyUpdatedEy@Base 4.80.0
 _ZN6KGAPI213EventFetchJob20handleReplyWithItemsEPK13QNetworkReplyRK10QByteArray@Base 4.80.0
 _ZN6KGAPI213EventFetchJob5startEv@Base 4.80.0
 _ZN6KGAPI213EventFetchJob9setFilterERK7QString@Base 4.80.0
 _ZN6KGAPI213EventFetchJobC1ERK7QStringRK14QSharedPointerINS_7AccountEEP7QObject@Base 4.80.0
 _ZN6KGAPI213EventFetchJobC1ERK7QStringS3_RK14QSharedPointerINS_7AccountEEP7QObject@Base 4.80.0
 _ZN6KGAPI213EventFetchJobC2ERK7QStringRK14QSharedPointerINS_7AccountEEP7QObject@Base 4.80.0
 _ZN6KGAPI213EventFetchJobC2ERK7QStringS3_RK14QSharedPointerINS_7AccountEEP7QObject@Base 4.80.0
 _ZN6KGAPI213EventFetchJobD0Ev@Base 4.80.0
 _ZN6KGAPI213EventFetchJobD1Ev@Base 4.80.0
 _ZN6KGAPI213EventFetchJobD2Ev@Base 4.80.0
 _ZN6KGAPI214EventCreateJob11qt_metacallEN11QMetaObject4CallEiPPv@Base 4.80.0
 _ZN6KGAPI214EventCreateJob11qt_metacastEPKc@Base 4.80.0
 _ZN6KGAPI214EventCreateJob16staticMetaObjectE@Base 4.80.0
 _ZN6KGAPI214EventCreateJob20handleReplyWithItemsEPK13QNetworkReplyRK10QByteArray@Base 4.80.0
 _ZN6KGAPI214EventCreateJob5startEv@Base 4.80.0
 _ZN6KGAPI214EventCreateJobC1ERK14QSharedPointerINS_5EventEERK7QStringRKS1_INS_7AccountEEP7QObject@Base 4.80.0
 _ZN6KGAPI214EventCreateJobC1ERK5QListI14QSharedPointerINS_5EventEEERK7QStringRKS2_INS_7AccountEEP7QObject@Base 4.80.0
 _ZN6KGAPI214EventCreateJobC2ERK14QSharedPointerINS_5EventEERK7QStringRKS1_INS_7AccountEEP7QObject@Base 4.80.0
 _ZN6KGAPI214EventCreateJobC2ERK5QListI14QSharedPointerINS_5EventEEERK7QStringRKS2_INS_7AccountEEP7QObject@Base 4.80.0
 _ZN6KGAPI214EventCreateJobD0Ev@Base 4.80.0
 _ZN6KGAPI214EventCreateJobD1Ev@Base 4.80.0
 _ZN6KGAPI214EventCreateJobD2Ev@Base 4.80.0
 _ZN6KGAPI214EventDeleteJob11handleReplyEPK13QNetworkReplyRK10QByteArray@Base 4.80.0
 _ZN6KGAPI214EventDeleteJob11qt_metacallEN11QMetaObject4CallEiPPv@Base 4.80.0
 _ZN6KGAPI214EventDeleteJob11qt_metacastEPKc@Base 4.80.0
 _ZN6KGAPI214EventDeleteJob16staticMetaObjectE@Base 4.80.0
 _ZN6KGAPI214EventDeleteJob5startEv@Base 4.80.0
 _ZN6KGAPI214EventDeleteJobC1ERK11QStringListRK7QStringRK14QSharedPointerINS_7AccountEEP7QObject@Base 4.80.0
 _ZN6KGAPI214EventDeleteJobC1ERK14QSharedPointerINS_5EventEERK7QStringRKS1_INS_7AccountEEP7QObject@Base 4.80.0
 _ZN6KGAPI214EventDeleteJobC1ERK5QListI14QSharedPointerINS_5EventEEERK7QStringRKS2_INS_7AccountEEP7QObject@Base 4.80.0
 _ZN6KGAPI214EventDeleteJobC1ERK7QStringS3_RK14QSharedPointerINS_7AccountEEP7QObject@Base 4.80.0
 _ZN6KGAPI214EventDeleteJobC2ERK11QStringListRK7QStringRK14QSharedPointerINS_7AccountEEP7QObject@Base 4.80.0
 _ZN6KGAPI214EventDeleteJobC2ERK14QSharedPointerINS_5EventEERK7QStringRKS1_INS_7AccountEEP7QObject@Base 4.80.0
 _ZN6KGAPI214EventDeleteJobC2ERK5QListI14QSharedPointerINS_5EventEEERK7QStringRKS2_INS_7AccountEEP7QObject@Base 4.80.0
 _ZN6KGAPI214EventDeleteJobC2ERK7QStringS3_RK14QSharedPointerINS_7AccountEEP7QObject@Base 4.80.0
 _ZN6KGAPI214EventDeleteJobD0Ev@Base 4.80.0
 _ZN6KGAPI214EventDeleteJobD1Ev@Base 4.80.0
 _ZN6KGAPI214EventDeleteJobD2Ev@Base 4.80.0
 _ZN6KGAPI214EventModifyJob11qt_metacallEN11QMetaObject4CallEiPPv@Base 4.80.0
 _ZN6KGAPI214EventModifyJob11qt_metacastEPKc@Base 4.80.0
 _ZN6KGAPI214EventModifyJob16staticMetaObjectE@Base 4.80.0
 _ZN6KGAPI214EventModifyJob20handleReplyWithItemsEPK13QNetworkReplyRK10QByteArray@Base 4.80.0
 _ZN6KGAPI214EventModifyJob5startEv@Base 4.80.0
 _ZN6KGAPI214EventModifyJobC1ERK14QSharedPointerINS_5EventEERK7QStringRKS1_INS_7AccountEEP7QObject@Base 4.80.0
 _ZN6KGAPI214EventModifyJobC1ERK5QListI14QSharedPointerINS_5EventEEERK7QStringRKS2_INS_7AccountEEP7QObject@Base 4.80.0
 _ZN6KGAPI214EventModifyJobC2ERK14QSharedPointerINS_5EventEERK7QStringRKS1_INS_7AccountEEP7QObject@Base 4.80.0
 _ZN6KGAPI214EventModifyJobC2ERK5QListI14QSharedPointerINS_5EventEEERK7QStringRKS2_INS_7AccountEEP7QObject@Base 4.80.0
 _ZN6KGAPI214EventModifyJobD0Ev@Base 4.80.0
 _ZN6KGAPI214EventModifyJobD1Ev@Base 4.80.0
 _ZN6KGAPI214EventModifyJobD2Ev@Base 4.80.0
 _ZN6KGAPI215CalendarService10APIVersionEv@Base 4.80.0
 _ZN6KGAPI215CalendarService11JSONToEventERK10QByteArray@Base 4.80.0
 _ZN6KGAPI215CalendarService11eventToJSONERK14QSharedPointerINS_5EventEE@Base 4.80.0
 _ZN6KGAPI215CalendarService12moveEventUrlERK7QStringS3_S3_@Base 4.80.0
 _ZN6KGAPI215CalendarService13fetchEventUrlERK7QStringS3_@Base 4.80.0
 _ZN6KGAPI215CalendarService14JSONToCalendarERK10QByteArray@Base 4.80.0
 _ZN6KGAPI215CalendarService14calendarToJSONERK14QSharedPointerINS_8CalendarEE@Base 4.80.0
 _ZN6KGAPI215CalendarService14createEventUrlERK7QString@Base 4.80.0
 _ZN6KGAPI215CalendarService14fetchEventsUrlERK7QString@Base 4.80.0
 _ZN6KGAPI215CalendarService14removeEventUrlERK7QStringS3_@Base 4.80.0
 _ZN6KGAPI215CalendarService14updateEventUrlERK7QStringS3_@Base 4.80.0
 _ZN6KGAPI215CalendarService16fetchCalendarUrlERK7QString@Base 4.80.0
 _ZN6KGAPI215CalendarService16freeBusyQueryUrlEv@Base 5.1.0
 _ZN6KGAPI215CalendarService17createCalendarUrlEv@Base 4.80.0
 _ZN6KGAPI215CalendarService17fetchCalendarsUrlEv@Base 4.80.0
 _ZN6KGAPI215CalendarService17removeCalendarUrlERK7QString@Base 4.80.0
 _ZN6KGAPI215CalendarService17updateCalendarUrlERK7QString@Base 4.80.0
 _ZN6KGAPI215CalendarService18parseEventJSONFeedERK10QByteArrayRNS_8FeedDataE@Base 4.80.0
 _ZN6KGAPI215CalendarService21parseCalendarJSONFeedERK10QByteArrayRNS_8FeedDataE@Base 4.80.0
 _ZN6KGAPI216CalendarFetchJob11qt_metacallEN11QMetaObject4CallEiPPv@Base 4.80.0
 _ZN6KGAPI216CalendarFetchJob11qt_metacastEPKc@Base 4.80.0
 _ZN6KGAPI216CalendarFetchJob16staticMetaObjectE@Base 4.80.0
 _ZN6KGAPI216CalendarFetchJob20handleReplyWithItemsEPK13QNetworkReplyRK10QByteArray@Base 4.80.0
 _ZN6KGAPI216CalendarFetchJob5startEv@Base 4.80.0
 _ZN6KGAPI216CalendarFetchJobC1ERK14QSharedPointerINS_7AccountEEP7QObject@Base 4.80.0
 _ZN6KGAPI216CalendarFetchJobC1ERK7QStringRK14QSharedPointerINS_7AccountEEP7QObject@Base 4.80.0
 _ZN6KGAPI216CalendarFetchJobC2ERK14QSharedPointerINS_7AccountEEP7QObject@Base 4.80.0
 _ZN6KGAPI216CalendarFetchJobC2ERK7QStringRK14QSharedPointerINS_7AccountEEP7QObject@Base 4.80.0
 _ZN6KGAPI216CalendarFetchJobD0Ev@Base 4.80.0
 _ZN6KGAPI216CalendarFetchJobD1Ev@Base 4.80.0
 _ZN6KGAPI216CalendarFetchJobD2Ev@Base 4.80.0
 _ZN6KGAPI216FreeBusyQueryJob11handleReplyEPK13QNetworkReplyRK10QByteArray@Base 5.1.0
 _ZN6KGAPI216FreeBusyQueryJob11qt_metacallEN11QMetaObject4CallEiPPv@Base 5.1.0
 _ZN6KGAPI216FreeBusyQueryJob11qt_metacastEPKc@Base 5.1.0
 _ZN6KGAPI216FreeBusyQueryJob15dispatchRequestEP21QNetworkAccessManagerRK15QNetworkRequestRK10QByteArrayRK7QString@Base 5.1.0
 _ZN6KGAPI216FreeBusyQueryJob16staticMetaObjectE@Base 5.1.0
 _ZN6KGAPI216FreeBusyQueryJob5startEv@Base 5.1.0
 _ZN6KGAPI216FreeBusyQueryJobC1ERK7QStringRK9QDateTimeS6_RK14QSharedPointerINS_7AccountEEP7QObject@Base 5.1.0
 _ZN6KGAPI216FreeBusyQueryJobC2ERK7QStringRK9QDateTimeS6_RK14QSharedPointerINS_7AccountEEP7QObject@Base 5.1.0
 _ZN6KGAPI216FreeBusyQueryJobD0Ev@Base 5.1.0
 _ZN6KGAPI216FreeBusyQueryJobD1Ev@Base 5.1.0
 _ZN6KGAPI216FreeBusyQueryJobD2Ev@Base 5.1.0
 _ZN6KGAPI217CalendarCreateJob11qt_metacallEN11QMetaObject4CallEiPPv@Base 4.80.0
 _ZN6KGAPI217CalendarCreateJob11qt_metacastEPKc@Base 4.80.0
 _ZN6KGAPI217CalendarCreateJob16staticMetaObjectE@Base 4.80.0
 _ZN6KGAPI217CalendarCreateJob20handleReplyWithItemsEPK13QNetworkReplyRK10QByteArray@Base 4.80.0
 _ZN6KGAPI217CalendarCreateJob5startEv@Base 4.80.0
 _ZN6KGAPI217CalendarCreateJobC1ERK14QSharedPointerINS_8CalendarEERKS1_INS_7AccountEEP7QObject@Base 4.80.0
 _ZN6KGAPI217CalendarCreateJobC1ERK5QListI14QSharedPointerINS_8CalendarEEERKS2_INS_7AccountEEP7QObject@Base 4.80.0
 _ZN6KGAPI217CalendarCreateJobC2ERK14QSharedPointerINS_8CalendarEERKS1_INS_7AccountEEP7QObject@Base 4.80.0
 _ZN6KGAPI217CalendarCreateJobC2ERK5QListI14QSharedPointerINS_8CalendarEEERKS2_INS_7AccountEEP7QObject@Base 4.80.0
 _ZN6KGAPI217CalendarCreateJobD0Ev@Base 4.80.0
 _ZN6KGAPI217CalendarCreateJobD1Ev@Base 4.80.0
 _ZN6KGAPI217CalendarCreateJobD2Ev@Base 4.80.0
 _ZN6KGAPI217CalendarDeleteJob11handleReplyEPK13QNetworkReplyRK10QByteArray@Base 4.80.0
 _ZN6KGAPI217CalendarDeleteJob11qt_metacallEN11QMetaObject4CallEiPPv@Base 4.80.0
 _ZN6KGAPI217CalendarDeleteJob11qt_metacastEPKc@Base 4.80.0
 _ZN6KGAPI217CalendarDeleteJob16staticMetaObjectE@Base 4.80.0
 _ZN6KGAPI217CalendarDeleteJob5startEv@Base 4.80.0
 _ZN6KGAPI217CalendarDeleteJobC1ERK11QStringListRK14QSharedPointerINS_7AccountEEP7QObject@Base 4.80.0
 _ZN6KGAPI217CalendarDeleteJobC1ERK14QSharedPointerINS_8CalendarEERKS1_INS_7AccountEEP7QObject@Base 4.80.0
 _ZN6KGAPI217CalendarDeleteJobC1ERK5QListI14QSharedPointerINS_8CalendarEEERKS2_INS_7AccountEEP7QObject@Base 4.80.0
 _ZN6KGAPI217CalendarDeleteJobC1ERK7QStringRK14QSharedPointerINS_7AccountEEP7QObject@Base 4.80.0
 _ZN6KGAPI217CalendarDeleteJobC2ERK11QStringListRK14QSharedPointerINS_7AccountEEP7QObject@Base 4.80.0
 _ZN6KGAPI217CalendarDeleteJobC2ERK14QSharedPointerINS_8CalendarEERKS1_INS_7AccountEEP7QObject@Base 4.80.0
 _ZN6KGAPI217CalendarDeleteJobC2ERK5QListI14QSharedPointerINS_8CalendarEEERKS2_INS_7AccountEEP7QObject@Base 4.80.0
 _ZN6KGAPI217CalendarDeleteJobC2ERK7QStringRK14QSharedPointerINS_7AccountEEP7QObject@Base 4.80.0
 _ZN6KGAPI217CalendarDeleteJobD0Ev@Base 4.80.0
 _ZN6KGAPI217CalendarDeleteJobD1Ev@Base 4.80.0
 _ZN6KGAPI217CalendarDeleteJobD2Ev@Base 4.80.0
 _ZN6KGAPI217CalendarModifyJob11qt_metacallEN11QMetaObject4CallEiPPv@Base 4.80.0
 _ZN6KGAPI217CalendarModifyJob11qt_metacastEPKc@Base 4.80.0
 _ZN6KGAPI217CalendarModifyJob16staticMetaObjectE@Base 4.80.0
 _ZN6KGAPI217CalendarModifyJob20handleReplyWithItemsEPK13QNetworkReplyRK10QByteArray@Base 4.80.0
 _ZN6KGAPI217CalendarModifyJob5startEv@Base 4.80.0
 _ZN6KGAPI217CalendarModifyJobC1ERK14QSharedPointerINS_8CalendarEERKS1_INS_7AccountEEP7QObject@Base 4.80.0
 _ZN6KGAPI217CalendarModifyJobC1ERK5QListI14QSharedPointerINS_8CalendarEEERKS2_INS_7AccountEEP7QObject@Base 4.80.0
 _ZN6KGAPI217CalendarModifyJobC2ERK14QSharedPointerINS_8CalendarEERKS1_INS_7AccountEEP7QObject@Base 4.80.0
 _ZN6KGAPI217CalendarModifyJobC2ERK5QListI14QSharedPointerINS_8CalendarEEERKS2_INS_7AccountEEP7QObject@Base 4.80.0
 _ZN6KGAPI217CalendarModifyJobD0Ev@Base 4.80.0
 _ZN6KGAPI217CalendarModifyJobD1Ev@Base 4.80.0
 _ZN6KGAPI217CalendarModifyJobD2Ev@Base 4.80.0
 _ZN6KGAPI25Event10setDeletedEb@Base 4.80.0
 _ZN6KGAPI25Event22setUseDefaultRemindersEb@Base 4.80.0
 _ZN6KGAPI25EventC1ERKN8KCalCore5EventE@Base 4.80.0
 _ZN6KGAPI25EventC1ERKS0_@Base 4.80.0
 _ZN6KGAPI25EventC1Ev@Base 4.80.0
 _ZN6KGAPI25EventC2ERKN8KCalCore5EventE@Base 4.80.0
 _ZN6KGAPI25EventC2ERKS0_@Base 4.80.0
 _ZN6KGAPI25EventC2Ev@Base 4.80.0
 _ZN6KGAPI25EventD0Ev@Base 4.80.0
 _ZN6KGAPI25EventD1Ev@Base 4.80.0
 _ZN6KGAPI25EventD2Ev@Base 4.80.0
 _ZN6KGAPI28Calendar10setDetailsERK7QString@Base 4.80.0
 _ZN6KGAPI28Calendar11setEditableEb@Base 4.80.0
 _ZN6KGAPI28Calendar11setLocationERK7QString@Base 4.80.0
 _ZN6KGAPI28Calendar11setTimezoneERK7QString@Base 4.80.0
 _ZN6KGAPI28Calendar17addDefaultReminerERK14QSharedPointerINS_8ReminderEE@Base 4.80.0
 _ZN6KGAPI28Calendar18setBackgroundColorERK6QColor@Base 4.80.0
 _ZN6KGAPI28Calendar18setForegroundColorERK6QColor@Base 4.80.0
 _ZN6KGAPI28Calendar19setDefaultRemindersERK5QListI14QSharedPointerINS_8ReminderEEE@Base 4.80.0
 _ZN6KGAPI28Calendar6setUidERK7QString@Base 4.80.0
 _ZN6KGAPI28Calendar8setTitleERK7QString@Base 4.80.0
 _ZN6KGAPI28CalendarC1ERKS0_@Base 4.80.0
 _ZN6KGAPI28CalendarC1Ev@Base 4.80.0
 _ZN6KGAPI28CalendarC2ERKS0_@Base 4.80.0
 _ZN6KGAPI28CalendarC2Ev@Base 4.80.0
 _ZN6KGAPI28CalendarD0Ev@Base 4.80.0
 _ZN6KGAPI28CalendarD1Ev@Base 4.80.0
 _ZN6KGAPI28CalendarD2Ev@Base 4.80.0
 _ZN6KGAPI28Reminder14setStartOffsetERKN8KCalCore8DurationE@Base 4.80.0
 _ZN6KGAPI28Reminder7setTypeERKN8KCalCore5Alarm4TypeE@Base 4.80.0
 _ZN6KGAPI28ReminderC1ERKN8KCalCore5Alarm4TypeERKNS1_8DurationE@Base 4.80.0
 _ZN6KGAPI28ReminderC1ERKS0_@Base 4.80.0
 _ZN6KGAPI28ReminderC1Ev@Base 4.80.0
 _ZN6KGAPI28ReminderC2ERKN8KCalCore5Alarm4TypeERKNS1_8DurationE@Base 4.80.0
 _ZN6KGAPI28ReminderC2ERKS0_@Base 4.80.0
 _ZN6KGAPI28ReminderC2Ev@Base 4.80.0
 _ZN6KGAPI28ReminderD0Ev@Base 4.80.0
 _ZN6KGAPI28ReminderD1Ev@Base 4.80.0
 _ZN6KGAPI28ReminderD2Ev@Base 4.80.0
 _ZNK6KGAPI212EventMoveJob10metaObjectEv@Base 4.80.0
 _ZNK6KGAPI213EventFetchJob10metaObjectEv@Base 4.80.0
 _ZNK6KGAPI213EventFetchJob6filterEv@Base 4.80.0
 _ZNK6KGAPI213EventFetchJob7timeMaxEv@Base 4.80.0
 _ZNK6KGAPI213EventFetchJob7timeMinEv@Base 4.80.0
 _ZNK6KGAPI214EventCreateJob10metaObjectEv@Base 4.80.0
 _ZNK6KGAPI214EventDeleteJob10metaObjectEv@Base 4.80.0
 _ZNK6KGAPI214EventModifyJob10metaObjectEv@Base 4.80.0
 _ZNK6KGAPI216CalendarFetchJob10metaObjectEv@Base 4.80.0
 _ZNK6KGAPI216FreeBusyQueryJob10metaObjectEv@Base 5.1.0
 _ZNK6KGAPI216FreeBusyQueryJob2idEv@Base 5.1.0
 _ZNK6KGAPI216FreeBusyQueryJob4busyEv@Base 5.1.0
 _ZNK6KGAPI216FreeBusyQueryJob7timeMaxEv@Base 5.1.0
 _ZNK6KGAPI216FreeBusyQueryJob7timeMinEv@Base 5.1.0
 _ZNK6KGAPI217CalendarCreateJob10metaObjectEv@Base 4.80.0
 _ZNK6KGAPI217CalendarDeleteJob10metaObjectEv@Base 4.80.0
 _ZNK6KGAPI217CalendarModifyJob10metaObjectEv@Base 4.80.0
 _ZNK6KGAPI25Event19useDefaultRemindersEv@Base 4.80.0
 _ZNK6KGAPI25Event7deletedEv@Base 4.80.0
 _ZNK6KGAPI28Calendar15backgroundColorEv@Base 4.80.0
 _ZNK6KGAPI28Calendar15foregroundColorEv@Base 4.80.0
 _ZNK6KGAPI28Calendar16defaultRemindersEv@Base 4.80.0
 _ZNK6KGAPI28Calendar3uidEv@Base 4.80.0
 _ZNK6KGAPI28Calendar5titleEv@Base 4.80.0
 _ZNK6KGAPI28Calendar7detailsEv@Base 4.80.0
 _ZNK6KGAPI28Calendar8editableEv@Base 4.80.0
 _ZNK6KGAPI28Calendar8locationEv@Base 4.80.0
 _ZNK6KGAPI28Calendar8timezoneEv@Base 4.80.0
 _ZNK6KGAPI28Reminder11startOffsetEv@Base 4.80.0
 _ZNK6KGAPI28Reminder4typeEv@Base 4.80.0
 _ZNK6KGAPI28Reminder7toAlarmEPN8KCalCore9IncidenceE@Base 4.80.0
 _ZTIN6KGAPI212EventMoveJobE@Base 4.80.0
 _ZTIN6KGAPI213EventFetchJobE@Base 4.80.0
 _ZTIN6KGAPI214EventCreateJobE@Base 4.80.0
 _ZTIN6KGAPI214EventDeleteJobE@Base 4.80.0
 _ZTIN6KGAPI214EventModifyJobE@Base 4.80.0
 _ZTIN6KGAPI216CalendarFetchJobE@Base 4.80.0
 _ZTIN6KGAPI216FreeBusyQueryJobE@Base 5.1.0
 _ZTIN6KGAPI217CalendarCreateJobE@Base 4.80.0
 _ZTIN6KGAPI217CalendarDeleteJobE@Base 4.80.0
 _ZTIN6KGAPI217CalendarModifyJobE@Base 4.80.0
 _ZTIN6KGAPI25EventE@Base 4.80.0
 _ZTIN6KGAPI28CalendarE@Base 4.80.0
 _ZTIN6KGAPI28ReminderE@Base 4.80.0
 _ZTSN6KGAPI212EventMoveJobE@Base 4.80.0
 _ZTSN6KGAPI213EventFetchJobE@Base 4.80.0
 _ZTSN6KGAPI214EventCreateJobE@Base 4.80.0
 _ZTSN6KGAPI214EventDeleteJobE@Base 4.80.0
 _ZTSN6KGAPI214EventModifyJobE@Base 4.80.0
 _ZTSN6KGAPI216CalendarFetchJobE@Base 4.80.0
 _ZTSN6KGAPI216FreeBusyQueryJobE@Base 5.1.0
 _ZTSN6KGAPI217CalendarCreateJobE@Base 4.80.0
 _ZTSN6KGAPI217CalendarDeleteJobE@Base 4.80.0
 _ZTSN6KGAPI217CalendarModifyJobE@Base 4.80.0
 _ZTSN6KGAPI25EventE@Base 4.80.0
 _ZTSN6KGAPI28CalendarE@Base 4.80.0
 _ZTSN6KGAPI28ReminderE@Base 4.80.0
 _ZTVN6KGAPI212EventMoveJobE@Base 4.80.0
 _ZTVN6KGAPI213EventFetchJobE@Base 4.80.0
 _ZTVN6KGAPI214EventCreateJobE@Base 4.80.0
 _ZTVN6KGAPI214EventDeleteJobE@Base 4.80.0
 _ZTVN6KGAPI214EventModifyJobE@Base 4.80.0
 _ZTVN6KGAPI216CalendarFetchJobE@Base 4.80.0
 _ZTVN6KGAPI216FreeBusyQueryJobE@Base 5.1.0
 _ZTVN6KGAPI217CalendarCreateJobE@Base 4.80.0
 _ZTVN6KGAPI217CalendarDeleteJobE@Base 4.80.0
 _ZTVN6KGAPI217CalendarModifyJobE@Base 4.80.0
 _ZTVN6KGAPI25EventE@Base 4.80.0
 _ZTVN6KGAPI28CalendarE@Base 4.80.0
 _ZTVN6KGAPI28ReminderE@Base 4.80.0
 _ZThn16_N6KGAPI25EventD0Ev@Base 4.80.0
 _ZThn16_N6KGAPI25EventD1Ev@Base 4.80.0
 _ZThn48_N6KGAPI25EventD0Ev@Base 4.80.0
 _ZThn48_N6KGAPI25EventD1Ev@Base 4.80.0
