libkolabxml.so.1 libkolabxml1v5 #MINVER#
 _Z13base64_decodeRKNSt7__cxx1112basic_stringIcSt11char_traitsIcESaIcEEE@Base 1.1.0
 _Z13base64_encodeB5cxx11PKhj@Base 1.1.0
 _Z9uriDecodeRKNSt7__cxx1112basic_stringIcSt11char_traitsIcESaIcEEE@Base 1.1.0
 _Z9uriEncodeRKNSt7__cxx1112basic_stringIcSt11char_traitsIcESaIcEEE@Base 1.1.0
 _ZGVN5boost16exception_detail37exception_ptr_static_exception_objectINS0_10bad_alloc_EE1eE@Base 1.1.0
 _ZGVN5boost16exception_detail37exception_ptr_static_exception_objectINS0_14bad_exception_EE1eE@Base 1.1.0
 _ZGVZN5boost16exception_detail27get_static_exception_objectINS0_10bad_alloc_EEENS_13exception_ptrEvE2ep@Base 1.1.0
 _ZGVZN5boost16exception_detail27get_static_exception_objectINS0_14bad_exception_EEENS_13exception_ptrEvE2ep@Base 1.1.0
 _ZN11xercesc_3_110XMLDeleterD0Ev@Base 1.1.2
 _ZN11xercesc_3_110XMLDeleterD1Ev@Base 1.1.2
 _ZN11xercesc_3_110XMLDeleterD2Ev@Base 1.1.2
 _ZN11xercesc_3_111InputSource28setIssueFatalErrorIfNotFoundEb@Base 1.1.0
 _ZN11xercesc_3_115XMLFormatTarget5flushEv@Base 1.1.0
 _ZN11xercesc_3_1lsERNS_10DOMElementEb@Base 1.1.2
 _ZN11xercesc_3_1lsERNS_10DOMElementEx@Base 1.1.2
 _ZN11xercesc_3_1lsERNS_10DOMElementEy@Base 1.1.2
 _ZN11xercesc_3_1lsERNS_7DOMAttrEx@Base 1.1.2
 _ZN11xercesc_3_1lsERNS_7DOMAttrEy@Base 1.1.2
 _ZN11xercesc_3_1lsIcEEvRNS_10DOMElementERKNSt7__cxx1112basic_stringIT_St11char_traitsIS5_ESaIS5_EEE@Base 1.1.0
 _ZN11xercesc_3_1lsIcEEvRNS_7DOMAttrERKNSt7__cxx1112basic_stringIT_St11char_traitsIS5_ESaIS5_EEE@Base 1.1.0
 _ZN13icalendar_2_010CustomType10identifierERKN3xsd3cxx4tree6stringIcNS3_11simple_typeIcNS3_5_typeEEEEE@Base 1.1.0
 _ZN13icalendar_2_010CustomType10identifierESt8auto_ptrIN3xsd3cxx4tree6stringIcNS4_11simple_typeIcNS4_5_typeEEEEEE@Base 1.1.0
 _ZN13icalendar_2_010CustomType10identifierEv@Base 1.1.0
 _ZN13icalendar_2_010CustomType5parseERN3xsd3cxx3xml3dom6parserIcEENS2_4tree5flagsE@Base 1.1.0
 _ZN13icalendar_2_010CustomType5valueERKN3xsd3cxx4tree6stringIcNS3_11simple_typeIcNS3_5_typeEEEEE@Base 1.1.0
 _ZN13icalendar_2_010CustomType5valueESt8auto_ptrIN3xsd3cxx4tree6stringIcNS4_11simple_typeIcNS4_5_typeEEEEEE@Base 1.1.0
 _ZN13icalendar_2_010CustomType5valueEv@Base 1.1.0
 _ZN13icalendar_2_010CustomTypeC1ERKN11xercesc_3_110DOMElementEN3xsd3cxx4tree5flagsEPNS7_5_typeE@Base 1.1.0
 _ZN13icalendar_2_010CustomTypeC1ERKN3xsd3cxx4tree6stringIcNS3_11simple_typeIcNS3_5_typeEEEEESA_@Base 1.1.0
 _ZN13icalendar_2_010CustomTypeC1ERKS0_N3xsd3cxx4tree5flagsEPNS5_5_typeE@Base 1.1.0
 _ZN13icalendar_2_010CustomTypeC2ERKN11xercesc_3_110DOMElementEN3xsd3cxx4tree5flagsEPNS7_5_typeE@Base 1.1.0
 _ZN13icalendar_2_010CustomTypeC2ERKN3xsd3cxx4tree6stringIcNS3_11simple_typeIcNS3_5_typeEEEEESA_@Base 1.1.0
 _ZN13icalendar_2_010CustomTypeC2ERKS0_N3xsd3cxx4tree5flagsEPNS5_5_typeE@Base 1.1.0
 _ZN13icalendar_2_010CustomTypeD0Ev@Base 1.1.0
 _ZN13icalendar_2_010CustomTypeD1Ev@Base 1.1.0
 _ZN13icalendar_2_010CustomTypeD2Ev@Base 1.1.0
 _ZN13icalendar_2_010CustomTypeaSERKS0_@Base 1.1.0
 _ZN13icalendar_2_010KolabEvent10componentsERKN3xsd3cxx4tree8optionalINS_10componentsELb0EEE@Base 1.1.0
 _ZN13icalendar_2_010KolabEvent10componentsERKNS_10componentsE@Base 1.1.0
 _ZN13icalendar_2_010KolabEvent10componentsESt8auto_ptrINS_10componentsEE@Base 1.1.0
 _ZN13icalendar_2_010KolabEvent10componentsEv@Base 1.1.0
 _ZN13icalendar_2_010KolabEvent10propertiesERKNS_11properties1E@Base 1.1.0
 _ZN13icalendar_2_010KolabEvent10propertiesESt8auto_ptrINS_11properties1EE@Base 1.1.0
 _ZN13icalendar_2_010KolabEvent10propertiesEv@Base 1.1.0
 _ZN13icalendar_2_010KolabEvent5parseERN3xsd3cxx3xml3dom6parserIcEENS2_4tree5flagsE@Base 1.1.0
 _ZN13icalendar_2_010KolabEventC1ERKN11xercesc_3_110DOMElementEN3xsd3cxx4tree5flagsEPNS7_5_typeE@Base 1.1.0
 _ZN13icalendar_2_010KolabEventC1ERKNS_11properties1E@Base 1.1.0
 _ZN13icalendar_2_010KolabEventC1ERKS0_N3xsd3cxx4tree5flagsEPNS5_5_typeE@Base 1.1.0
 _ZN13icalendar_2_010KolabEventC1ESt8auto_ptrINS_11properties1EE@Base 1.1.0
 _ZN13icalendar_2_010KolabEventC2ERKN11xercesc_3_110DOMElementEN3xsd3cxx4tree5flagsEPNS7_5_typeE@Base 1.1.0
 _ZN13icalendar_2_010KolabEventC2ERKNS_11properties1E@Base 1.1.0
 _ZN13icalendar_2_010KolabEventC2ERKS0_N3xsd3cxx4tree5flagsEPNS5_5_typeE@Base 1.1.0
 _ZN13icalendar_2_010KolabEventC2ESt8auto_ptrINS_11properties1EE@Base 1.1.0
 _ZN13icalendar_2_010KolabEventD0Ev@Base 1.1.0
 _ZN13icalendar_2_010KolabEventD1Ev@Base 1.1.0
 _ZN13icalendar_2_010KolabEventD2Ev@Base 1.1.0
 _ZN13icalendar_2_010KolabEventaSERKS0_@Base 1.1.0
 _ZN13icalendar_2_010PeriodType3endERKN3xsd3cxx4tree8optionalINS_12DateTimeTypeELb0EEE@Base 1.1.0
 _ZN13icalendar_2_010PeriodType3endERKNS_12DateTimeTypeE@Base 1.1.0
 _ZN13icalendar_2_010PeriodType3endESt8auto_ptrINS_12DateTimeTypeEE@Base 1.1.0
 _ZN13icalendar_2_010PeriodType3endEv@Base 1.1.0
 _ZN13icalendar_2_010PeriodType5parseERN3xsd3cxx3xml3dom6parserIcEENS2_4tree5flagsE@Base 1.1.0
 _ZN13icalendar_2_010PeriodType5startERKNS_12DateTimeTypeE@Base 1.1.0
 _ZN13icalendar_2_010PeriodType5startESt8auto_ptrINS_12DateTimeTypeEE@Base 1.1.0
 _ZN13icalendar_2_010PeriodType5startEv@Base 1.1.0
 _ZN13icalendar_2_010PeriodType8durationERKN3xsd3cxx4tree8optionalINS_17DurationValueTypeELb0EEE@Base 1.1.0
 _ZN13icalendar_2_010PeriodType8durationERKNS_17DurationValueTypeE@Base 1.1.0
 _ZN13icalendar_2_010PeriodType8durationESt8auto_ptrINS_17DurationValueTypeEE@Base 1.1.0
 _ZN13icalendar_2_010PeriodType8durationEv@Base 1.1.0
 _ZN13icalendar_2_010PeriodTypeC1ERKN11xercesc_3_110DOMElementEN3xsd3cxx4tree5flagsEPNS7_5_typeE@Base 1.1.0
 _ZN13icalendar_2_010PeriodTypeC1ERKNS_12DateTimeTypeE@Base 1.1.0
 _ZN13icalendar_2_010PeriodTypeC1ERKS0_N3xsd3cxx4tree5flagsEPNS5_5_typeE@Base 1.1.0
 _ZN13icalendar_2_010PeriodTypeC2ERKN11xercesc_3_110DOMElementEN3xsd3cxx4tree5flagsEPNS7_5_typeE@Base 1.1.0
 _ZN13icalendar_2_010PeriodTypeC2ERKNS_12DateTimeTypeE@Base 1.1.0
 _ZN13icalendar_2_010PeriodTypeC2ERKS0_N3xsd3cxx4tree5flagsEPNS5_5_typeE@Base 1.1.0
 _ZN13icalendar_2_010PeriodTypeD0Ev@Base 1.1.0
 _ZN13icalendar_2_010PeriodTypeD1Ev@Base 1.1.0
 _ZN13icalendar_2_010PeriodTypeD2Ev@Base 1.1.0
 _ZN13icalendar_2_010PeriodTypeaSERKS0_@Base 1.1.0
 _ZN13icalendar_2_010ValarmType10propertiesERKNS_10propertiesE@Base 1.1.0
 _ZN13icalendar_2_010ValarmType10propertiesESt8auto_ptrINS_10propertiesEE@Base 1.1.0
 _ZN13icalendar_2_010ValarmType10propertiesEv@Base 1.1.0
 _ZN13icalendar_2_010ValarmType5parseERN3xsd3cxx3xml3dom6parserIcEENS2_4tree5flagsE@Base 1.1.0
 _ZN13icalendar_2_010ValarmTypeC1ERKN11xercesc_3_110DOMElementEN3xsd3cxx4tree5flagsEPNS7_5_typeE@Base 1.1.0
 _ZN13icalendar_2_010ValarmTypeC1ERKNS_10propertiesE@Base 1.1.0
 _ZN13icalendar_2_010ValarmTypeC1ERKS0_N3xsd3cxx4tree5flagsEPNS5_5_typeE@Base 1.1.0
 _ZN13icalendar_2_010ValarmTypeC1ESt8auto_ptrINS_10propertiesEE@Base 1.1.0
 _ZN13icalendar_2_010ValarmTypeC2ERKN11xercesc_3_110DOMElementEN3xsd3cxx4tree5flagsEPNS7_5_typeE@Base 1.1.0
 _ZN13icalendar_2_010ValarmTypeC2ERKNS_10propertiesE@Base 1.1.0
 _ZN13icalendar_2_010ValarmTypeC2ERKS0_N3xsd3cxx4tree5flagsEPNS5_5_typeE@Base 1.1.0
 _ZN13icalendar_2_010ValarmTypeC2ESt8auto_ptrINS_10propertiesEE@Base 1.1.0
 _ZN13icalendar_2_010ValarmTypeD0Ev@Base 1.1.0
 _ZN13icalendar_2_010ValarmTypeD1Ev@Base 1.1.0
 _ZN13icalendar_2_010ValarmTypeD2Ev@Base 1.1.0
 _ZN13icalendar_2_010ValarmTypeaSERKS0_@Base 1.1.0
 _ZN13icalendar_2_010components5parseERN3xsd3cxx3xml3dom6parserIcEENS2_4tree5flagsE@Base 1.1.0
 _ZN13icalendar_2_010components6valarmERKN3xsd3cxx4tree8sequenceINS_10ValarmTypeELb0EEE@Base 1.1.0
 _ZN13icalendar_2_010components6valarmEv@Base 1.1.0
 _ZN13icalendar_2_010componentsC1ERKN11xercesc_3_110DOMElementEN3xsd3cxx4tree5flagsEPNS7_5_typeE@Base 1.1.0
 _ZN13icalendar_2_010componentsC1ERKS0_N3xsd3cxx4tree5flagsEPNS5_5_typeE@Base 1.1.0
 _ZN13icalendar_2_010componentsC1Ev@Base 1.1.0
 _ZN13icalendar_2_010componentsC2ERKN11xercesc_3_110DOMElementEN3xsd3cxx4tree5flagsEPNS7_5_typeE@Base 1.1.0
 _ZN13icalendar_2_010componentsC2ERKS0_N3xsd3cxx4tree5flagsEPNS5_5_typeE@Base 1.1.0
 _ZN13icalendar_2_010componentsC2Ev@Base 1.1.0
 _ZN13icalendar_2_010componentsD0Ev@Base 1.1.0
 _ZN13icalendar_2_010componentsD1Ev@Base 1.1.0
 _ZN13icalendar_2_010componentsD2Ev@Base 1.1.0
 _ZN13icalendar_2_010componentsaSERKS0_@Base 1.1.0
 _ZN13icalendar_2_010properties11descriptionERKN3xsd3cxx4tree8optionalINS_16TextPropertyTypeELb0EEE@Base 1.1.0
 _ZN13icalendar_2_010properties11descriptionERKNS_16TextPropertyTypeE@Base 1.1.0
 _ZN13icalendar_2_010properties11descriptionESt8auto_ptrINS_16TextPropertyTypeEE@Base 1.1.0
 _ZN13icalendar_2_010properties11descriptionEv@Base 1.1.0
 _ZN13icalendar_2_010properties5parseERN3xsd3cxx3xml3dom6parserIcEENS2_4tree5flagsE@Base 1.1.0
 _ZN13icalendar_2_010properties6actionERKNS_14ActionPropTypeE@Base 1.1.0
 _ZN13icalendar_2_010properties6actionESt8auto_ptrINS_14ActionPropTypeEE@Base 1.1.0
 _ZN13icalendar_2_010properties6actionEv@Base 1.1.0
 _ZN13icalendar_2_010properties6attachERKN3xsd3cxx4tree8optionalINS_14AttachPropTypeELb0EEE@Base 1.1.0
 _ZN13icalendar_2_010properties6attachERKNS_14AttachPropTypeE@Base 1.1.0
 _ZN13icalendar_2_010properties6attachESt8auto_ptrINS_14AttachPropTypeEE@Base 1.1.0
 _ZN13icalendar_2_010properties6attachEv@Base 1.1.0
 _ZN13icalendar_2_010properties6repeatERKN3xsd3cxx4tree8optionalINS_14RepeatPropTypeELb0EEE@Base 1.1.0
 _ZN13icalendar_2_010properties6repeatERKNS_14RepeatPropTypeE@Base 1.1.0
 _ZN13icalendar_2_010properties6repeatESt8auto_ptrINS_14RepeatPropTypeEE@Base 1.1.0
 _ZN13icalendar_2_010properties6repeatEv@Base 1.1.0
 _ZN13icalendar_2_010properties7summaryERKN3xsd3cxx4tree8optionalINS_16TextPropertyTypeELb0EEE@Base 1.1.0
 _ZN13icalendar_2_010properties7summaryERKNS_16TextPropertyTypeE@Base 1.1.0
 _ZN13icalendar_2_010properties7summaryESt8auto_ptrINS_16TextPropertyTypeEE@Base 1.1.0
 _ZN13icalendar_2_010properties7summaryEv@Base 1.1.0
 _ZN13icalendar_2_010properties7triggerERKNS_15TriggerPropTypeE@Base 1.1.0
 _ZN13icalendar_2_010properties7triggerESt8auto_ptrINS_15TriggerPropTypeEE@Base 1.1.0
 _ZN13icalendar_2_010properties7triggerEv@Base 1.1.0
 _ZN13icalendar_2_010properties8attendeeERKN3xsd3cxx4tree8sequenceINS_11ContactTypeELb0EEE@Base 1.1.0
 _ZN13icalendar_2_010properties8attendeeEv@Base 1.1.0
 _ZN13icalendar_2_010properties8durationERKN3xsd3cxx4tree8optionalINS_16DurationPropTypeELb0EEE@Base 1.1.0
 _ZN13icalendar_2_010properties8durationERKNS_16DurationPropTypeE@Base 1.1.0
 _ZN13icalendar_2_010properties8durationESt8auto_ptrINS_16DurationPropTypeEE@Base 1.1.0
 _ZN13icalendar_2_010properties8durationEv@Base 1.1.0
 _ZN13icalendar_2_010propertiesC1ERKN11xercesc_3_110DOMElementEN3xsd3cxx4tree5flagsEPNS7_5_typeE@Base 1.1.0
 _ZN13icalendar_2_010propertiesC1ERKNS_14ActionPropTypeERKNS_15TriggerPropTypeE@Base 1.1.0
 _ZN13icalendar_2_010propertiesC1ERKS0_N3xsd3cxx4tree5flagsEPNS5_5_typeE@Base 1.1.0
 _ZN13icalendar_2_010propertiesC1ESt8auto_ptrINS_14ActionPropTypeEES1_INS_15TriggerPropTypeEE@Base 1.1.0
 _ZN13icalendar_2_010propertiesC2ERKN11xercesc_3_110DOMElementEN3xsd3cxx4tree5flagsEPNS7_5_typeE@Base 1.1.0
 _ZN13icalendar_2_010propertiesC2ERKNS_14ActionPropTypeERKNS_15TriggerPropTypeE@Base 1.1.0
 _ZN13icalendar_2_010propertiesC2ERKS0_N3xsd3cxx4tree5flagsEPNS5_5_typeE@Base 1.1.0
 _ZN13icalendar_2_010propertiesC2ESt8auto_ptrINS_14ActionPropTypeEES1_INS_15TriggerPropTypeEE@Base 1.1.0
 _ZN13icalendar_2_010propertiesD0Ev@Base 1.1.0
 _ZN13icalendar_2_010propertiesD1Ev@Base 1.1.0
 _ZN13icalendar_2_010propertiesD2Ev@Base 1.1.0
 _ZN13icalendar_2_010propertiesaSERKS0_@Base 1.1.0
 _ZN13icalendar_2_011CnParamTypeC1ERKN11xercesc_3_110DOMElementEN3xsd3cxx4tree5flagsEPNS7_5_typeE@Base 1.1.0
 _ZN13icalendar_2_011CnParamTypeC1ERKN3xsd3cxx4tree6stringIcNS3_11simple_typeIcNS3_5_typeEEEEE@Base 1.1.0
 _ZN13icalendar_2_011CnParamTypeC1ERKS0_N3xsd3cxx4tree5flagsEPNS5_5_typeE@Base 1.1.0
 _ZN13icalendar_2_011CnParamTypeC2ERKN11xercesc_3_110DOMElementEN3xsd3cxx4tree5flagsEPNS7_5_typeE@Base 1.1.0
 _ZN13icalendar_2_011CnParamTypeC2ERKN3xsd3cxx4tree6stringIcNS3_11simple_typeIcNS3_5_typeEEEEE@Base 1.1.0
 _ZN13icalendar_2_011CnParamTypeC2ERKS0_N3xsd3cxx4tree5flagsEPNS5_5_typeE@Base 1.1.0
 _ZN13icalendar_2_011CnParamTypeD0Ev@Base 1.1.0
 _ZN13icalendar_2_011CnParamTypeD1Ev@Base 1.1.0
 _ZN13icalendar_2_011CnParamTypeD2Ev@Base 1.1.0
 _ZN13icalendar_2_011ContactTypeC1ERKN11xercesc_3_110DOMElementEN3xsd3cxx4tree5flagsEPNS7_5_typeE@Base 1.1.0
 _ZN13icalendar_2_011ContactTypeC1ERKNS_14CalAddressTypeE@Base 1.1.0
 _ZN13icalendar_2_011ContactTypeC1ERKS0_N3xsd3cxx4tree5flagsEPNS5_5_typeE@Base 1.1.0
 _ZN13icalendar_2_011ContactTypeC2ERKN11xercesc_3_110DOMElementEN3xsd3cxx4tree5flagsEPNS7_5_typeE@Base 1.1.0
 _ZN13icalendar_2_011ContactTypeC2ERKNS_14CalAddressTypeE@Base 1.1.0
 _ZN13icalendar_2_011ContactTypeC2ERKS0_N3xsd3cxx4tree5flagsEPNS5_5_typeE@Base 1.1.0
 _ZN13icalendar_2_011ContactTypeD0Ev@Base 1.1.0
 _ZN13icalendar_2_011ContactTypeD1Ev@Base 1.1.0
 _ZN13icalendar_2_011ContactTypeD2Ev@Base 1.1.0
 _ZN13icalendar_2_011DuePropTypeC1ERKN11xercesc_3_110DOMElementEN3xsd3cxx4tree5flagsEPNS7_5_typeE@Base 1.1.0
 _ZN13icalendar_2_011DuePropTypeC1ERKS0_N3xsd3cxx4tree5flagsEPNS5_5_typeE@Base 1.1.0
 _ZN13icalendar_2_011DuePropTypeC1Ev@Base 1.1.0
 _ZN13icalendar_2_011DuePropTypeC2ERKN11xercesc_3_110DOMElementEN3xsd3cxx4tree5flagsEPNS7_5_typeE@Base 1.1.0
 _ZN13icalendar_2_011DuePropTypeC2ERKS0_N3xsd3cxx4tree5flagsEPNS5_5_typeE@Base 1.1.0
 _ZN13icalendar_2_011DuePropTypeC2Ev@Base 1.1.0
 _ZN13icalendar_2_011DuePropTypeD0Ev@Base 1.1.0
 _ZN13icalendar_2_011DuePropTypeD1Ev@Base 1.1.0
 _ZN13icalendar_2_011DuePropTypeD2Ev@Base 1.1.0
 _ZN13icalendar_2_011GeoPropType5parseERN3xsd3cxx3xml3dom6parserIcEENS2_4tree5flagsE@Base 1.1.0
 _ZN13icalendar_2_011GeoPropType8latitudeERKf@Base 1.1.0
 _ZN13icalendar_2_011GeoPropType8latitudeEv@Base 1.1.0
 _ZN13icalendar_2_011GeoPropType9longitudeERKf@Base 1.1.0
 _ZN13icalendar_2_011GeoPropType9longitudeEv@Base 1.1.0
 _ZN13icalendar_2_011GeoPropTypeC1ERKN11xercesc_3_110DOMElementEN3xsd3cxx4tree5flagsEPNS7_5_typeE@Base 1.1.0
 _ZN13icalendar_2_011GeoPropTypeC1ERKS0_N3xsd3cxx4tree5flagsEPNS5_5_typeE@Base 1.1.0
 _ZN13icalendar_2_011GeoPropTypeC1ERKfS2_@Base 1.1.0
 _ZN13icalendar_2_011GeoPropTypeC2ERKN11xercesc_3_110DOMElementEN3xsd3cxx4tree5flagsEPNS7_5_typeE@Base 1.1.0
 _ZN13icalendar_2_011GeoPropTypeC2ERKS0_N3xsd3cxx4tree5flagsEPNS5_5_typeE@Base 1.1.0
 _ZN13icalendar_2_011GeoPropTypeC2ERKfS2_@Base 1.1.0
 _ZN13icalendar_2_011GeoPropTypeD0Ev@Base 1.1.0
 _ZN13icalendar_2_011GeoPropTypeD1Ev@Base 1.1.0
 _ZN13icalendar_2_011GeoPropTypeD2Ev@Base 1.1.0
 _ZN13icalendar_2_011GeoPropTypeaSERKS0_@Base 1.1.0
 _ZN13icalendar_2_011UidPropTypeC1ERKN11xercesc_3_110DOMElementEN3xsd3cxx4tree5flagsEPNS7_5_typeE@Base 1.1.0
 _ZN13icalendar_2_011UidPropTypeC1ERKN3xsd3cxx4tree6stringIcNS3_11simple_typeIcNS3_5_typeEEEEE@Base 1.1.0
 _ZN13icalendar_2_011UidPropTypeC1ERKS0_N3xsd3cxx4tree5flagsEPNS5_5_typeE@Base 1.1.0
 _ZN13icalendar_2_011UidPropTypeC2ERKN11xercesc_3_110DOMElementEN3xsd3cxx4tree5flagsEPNS7_5_typeE@Base 1.1.0
 _ZN13icalendar_2_011UidPropTypeC2ERKN3xsd3cxx4tree6stringIcNS3_11simple_typeIcNS3_5_typeEEEEE@Base 1.1.0
 _ZN13icalendar_2_011UidPropTypeC2ERKS0_N3xsd3cxx4tree5flagsEPNS5_5_typeE@Base 1.1.0
 _ZN13icalendar_2_011UidPropTypeD0Ev@Base 1.1.0
 _ZN13icalendar_2_011UidPropTypeD1Ev@Base 1.1.0
 _ZN13icalendar_2_011UidPropTypeD2Ev@Base 1.1.0
 _ZN13icalendar_2_011UrlPropTypeC1ERKN11xercesc_3_110DOMElementEN3xsd3cxx4tree5flagsEPNS7_5_typeE@Base 1.1.0
 _ZN13icalendar_2_011UrlPropTypeC1ERKNS_7UriTypeE@Base 1.1.0
 _ZN13icalendar_2_011UrlPropTypeC1ERKS0_N3xsd3cxx4tree5flagsEPNS5_5_typeE@Base 1.1.0
 _ZN13icalendar_2_011UrlPropTypeC2ERKN11xercesc_3_110DOMElementEN3xsd3cxx4tree5flagsEPNS7_5_typeE@Base 1.1.0
 _ZN13icalendar_2_011UrlPropTypeC2ERKNS_7UriTypeE@Base 1.1.0
 _ZN13icalendar_2_011UrlPropTypeC2ERKS0_N3xsd3cxx4tree5flagsEPNS5_5_typeE@Base 1.1.0
 _ZN13icalendar_2_011UrlPropTypeD0Ev@Base 1.1.0
 _ZN13icalendar_2_011UrlPropTypeD1Ev@Base 1.1.0
 _ZN13icalendar_2_011UrlPropTypeD2Ev@Base 1.1.0
 _ZN13icalendar_2_011components15parseERN3xsd3cxx3xml3dom6parserIcEENS2_4tree5flagsE@Base 1.1.0
 _ZN13icalendar_2_011components15vtodoERKN3xsd3cxx4tree8sequenceINS_9KolabTodoELb0EEE@Base 1.1.0
 _ZN13icalendar_2_011components15vtodoEv@Base 1.1.0
 _ZN13icalendar_2_011components16veventERKN3xsd3cxx4tree8sequenceINS_10KolabEventELb0EEE@Base 1.1.0
 _ZN13icalendar_2_011components16veventEv@Base 1.1.0
 _ZN13icalendar_2_011components18vjournalERKN3xsd3cxx4tree8sequenceINS_12KolabJournalELb0EEE@Base 1.1.0
 _ZN13icalendar_2_011components18vjournalEv@Base 1.1.0
 _ZN13icalendar_2_011components19vfreebusyERKN3xsd3cxx4tree8sequenceINS_13KolabFreebusyELb0EEE@Base 1.1.0
 _ZN13icalendar_2_011components19vfreebusyEv@Base 1.1.0
 _ZN13icalendar_2_011components1C1ERKN11xercesc_3_110DOMElementEN3xsd3cxx4tree5flagsEPNS7_5_typeE@Base 1.1.0
 _ZN13icalendar_2_011components1C1ERKS0_N3xsd3cxx4tree5flagsEPNS5_5_typeE@Base 1.1.0
 _ZN13icalendar_2_011components1C1Ev@Base 1.1.0
 _ZN13icalendar_2_011components1C2ERKN11xercesc_3_110DOMElementEN3xsd3cxx4tree5flagsEPNS7_5_typeE@Base 1.1.0
 _ZN13icalendar_2_011components1C2ERKS0_N3xsd3cxx4tree5flagsEPNS5_5_typeE@Base 1.1.0
 _ZN13icalendar_2_011components1C2Ev@Base 1.1.0
 _ZN13icalendar_2_011components1D0Ev@Base 1.1.0
 _ZN13icalendar_2_011components1D1Ev@Base 1.1.0
 _ZN13icalendar_2_011components1D2Ev@Base 1.1.0
 _ZN13icalendar_2_011components1aSERKS0_@Base 1.1.0
 _ZN13icalendar_2_011properties110categoriesERKN3xsd3cxx4tree8optionalINS_18CategoriesPropTypeELb0EEE@Base 1.1.0
 _ZN13icalendar_2_011properties110categoriesERKNS_18CategoriesPropTypeE@Base 1.1.0
 _ZN13icalendar_2_011properties110categoriesESt8auto_ptrINS_18CategoriesPropTypeEE@Base 1.1.0
 _ZN13icalendar_2_011properties110categoriesEv@Base 1.1.0
 _ZN13icalendar_2_011properties111descriptionERKN3xsd3cxx4tree8optionalINS_19DescriptionPropTypeELb0EEE@Base 1.1.0
 _ZN13icalendar_2_011properties111descriptionERKNS_19DescriptionPropTypeE@Base 1.1.0
 _ZN13icalendar_2_011properties111descriptionESt8auto_ptrINS_19DescriptionPropTypeEE@Base 1.1.0
 _ZN13icalendar_2_011properties111descriptionEv@Base 1.1.0
 _ZN13icalendar_2_011properties113recurrence_idERKN3xsd3cxx4tree8optionalINS_20RecurrenceIdPropTypeELb0EEE@Base 1.1.0
 _ZN13icalendar_2_011properties113recurrence_idERKNS_20RecurrenceIdPropTypeE@Base 1.1.0
 _ZN13icalendar_2_011properties113recurrence_idESt8auto_ptrINS_20RecurrenceIdPropTypeEE@Base 1.1.0
 _ZN13icalendar_2_011properties113recurrence_idEv@Base 1.1.0
 _ZN13icalendar_2_011properties13uidERKNS_11UidPropTypeE@Base 1.1.0
 _ZN13icalendar_2_011properties13uidESt8auto_ptrINS_11UidPropTypeEE@Base 1.1.0
 _ZN13icalendar_2_011properties13uidEv@Base 1.1.0
 _ZN13icalendar_2_011properties13urlERKN3xsd3cxx4tree8optionalINS_11UrlPropTypeELb0EEE@Base 1.1.0
 _ZN13icalendar_2_011properties13urlERKNS_11UrlPropTypeE@Base 1.1.0
 _ZN13icalendar_2_011properties13urlESt8auto_ptrINS_11UrlPropTypeEE@Base 1.1.0
 _ZN13icalendar_2_011properties13urlEv@Base 1.1.0
 _ZN13icalendar_2_011properties15dtendERKN3xsd3cxx4tree8optionalINS_13DtendPropTypeELb0EEE@Base 1.1.0
 _ZN13icalendar_2_011properties15dtendERKNS_13DtendPropTypeE@Base 1.1.0
 _ZN13icalendar_2_011properties15dtendESt8auto_ptrINS_13DtendPropTypeEE@Base 1.1.0
 _ZN13icalendar_2_011properties15dtendEv@Base 1.1.0
 _ZN13icalendar_2_011properties15parseERN3xsd3cxx3xml3dom6parserIcEENS2_4tree5flagsE@Base 1.1.0
 _ZN13icalendar_2_011properties15rdateERKN3xsd3cxx4tree8optionalINS_13RdatePropTypeELb0EEE@Base 1.1.0
 _ZN13icalendar_2_011properties15rdateERKNS_13RdatePropTypeE@Base 1.1.0
 _ZN13icalendar_2_011properties15rdateESt8auto_ptrINS_13RdatePropTypeEE@Base 1.1.0
 _ZN13icalendar_2_011properties15rdateEv@Base 1.1.0
 _ZN13icalendar_2_011properties15rruleERKN3xsd3cxx4tree8optionalINS_13RrulePropTypeELb0EEE@Base 1.1.0
 _ZN13icalendar_2_011properties15rruleERKNS_13RrulePropTypeE@Base 1.1.0
 _ZN13icalendar_2_011properties15rruleESt8auto_ptrINS_13RrulePropTypeEE@Base 1.1.0
 _ZN13icalendar_2_011properties15rruleEv@Base 1.1.0
 _ZN13icalendar_2_011properties16attachERKN3xsd3cxx4tree8sequenceINS_14AttachPropTypeELb0EEE@Base 1.1.0
 _ZN13icalendar_2_011properties16attachEv@Base 1.1.0
 _ZN13icalendar_2_011properties16class_ERKN3xsd3cxx4tree8optionalINS_13ClassPropTypeELb0EEE@Base 1.1.0
 _ZN13icalendar_2_011properties16class_ERKNS_13ClassPropTypeE@Base 1.1.0
 _ZN13icalendar_2_011properties16class_ESt8auto_ptrINS_13ClassPropTypeEE@Base 1.1.0
 _ZN13icalendar_2_011properties16class_Ev@Base 1.1.0
 _ZN13icalendar_2_011properties16exdateERKN3xsd3cxx4tree8optionalINS_14ExdatePropTypeELb0EEE@Base 1.1.0
 _ZN13icalendar_2_011properties16exdateERKNS_14ExdatePropTypeE@Base 1.1.0
 _ZN13icalendar_2_011properties16exdateESt8auto_ptrINS_14ExdatePropTypeEE@Base 1.1.0
 _ZN13icalendar_2_011properties16exdateEv@Base 1.1.0
 _ZN13icalendar_2_011properties16statusERKN3xsd3cxx4tree8optionalINS_14StatusPropTypeELb0EEE@Base 1.1.0
 _ZN13icalendar_2_011properties16statusERKNS_14StatusPropTypeE@Base 1.1.0
 _ZN13icalendar_2_011properties16statusESt8auto_ptrINS_14StatusPropTypeEE@Base 1.1.0
 _ZN13icalendar_2_011properties16statusEv@Base 1.1.0
 _ZN13icalendar_2_011properties16transpERKN3xsd3cxx4tree8optionalINS_14TranspPropTypeELb0EEE@Base 1.1.0
 _ZN13icalendar_2_011properties16transpERKNS_14TranspPropTypeE@Base 1.1.0
 _ZN13icalendar_2_011properties16transpESt8auto_ptrINS_14TranspPropTypeEE@Base 1.1.0
 _ZN13icalendar_2_011properties16transpEv@Base 1.1.0
 _ZN13icalendar_2_011properties17commentERKN3xsd3cxx4tree8optionalINS_15CommentPropTypeELb0EEE@Base 1.1.0
 _ZN13icalendar_2_011properties17commentERKNS_15CommentPropTypeE@Base 1.1.0
 _ZN13icalendar_2_011properties17commentESt8auto_ptrINS_15CommentPropTypeEE@Base 1.1.0
 _ZN13icalendar_2_011properties17commentEv@Base 1.1.0
 _ZN13icalendar_2_011properties17createdERKNS_15CreatedPropTypeE@Base 1.1.0
 _ZN13icalendar_2_011properties17createdESt8auto_ptrINS_15CreatedPropTypeEE@Base 1.1.0
 _ZN13icalendar_2_011properties17createdEv@Base 1.1.0
 _ZN13icalendar_2_011properties17dtstampERKNS_15DtstampPropTypeE@Base 1.1.0
 _ZN13icalendar_2_011properties17dtstampESt8auto_ptrINS_15DtstampPropTypeEE@Base 1.1.0
 _ZN13icalendar_2_011properties17dtstampEv@Base 1.1.0
 _ZN13icalendar_2_011properties17dtstartERKN3xsd3cxx4tree8optionalINS_15DtstartPropTypeELb0EEE@Base 1.1.0
 _ZN13icalendar_2_011properties17dtstartERKNS_15DtstartPropTypeE@Base 1.1.0
 _ZN13icalendar_2_011properties17dtstartESt8auto_ptrINS_15DtstartPropTypeEE@Base 1.1.0
 _ZN13icalendar_2_011properties17dtstartEv@Base 1.1.0
 _ZN13icalendar_2_011properties17summaryERKN3xsd3cxx4tree8optionalINS_15SummaryPropTypeELb0EEE@Base 1.1.0
 _ZN13icalendar_2_011properties17summaryERKNS_15SummaryPropTypeE@Base 1.1.0
 _ZN13icalendar_2_011properties17summaryESt8auto_ptrINS_15SummaryPropTypeEE@Base 1.1.0
 _ZN13icalendar_2_011properties17summaryEv@Base 1.1.0
 _ZN13icalendar_2_011properties18attendeeERKN3xsd3cxx4tree8sequenceINS_16AttendeePropTypeELb0EEE@Base 1.1.0
 _ZN13icalendar_2_011properties18attendeeEv@Base 1.1.0
 _ZN13icalendar_2_011properties18durationERKN3xsd3cxx4tree8optionalINS_16DurationPropTypeELb0EEE@Base 1.1.0
 _ZN13icalendar_2_011properties18durationERKNS_16DurationPropTypeE@Base 1.1.0
 _ZN13icalendar_2_011properties18durationESt8auto_ptrINS_16DurationPropTypeEE@Base 1.1.0
 _ZN13icalendar_2_011properties18durationEv@Base 1.1.0
 _ZN13icalendar_2_011properties18locationERKN3xsd3cxx4tree8optionalINS_16LocationPropTypeELb0EEE@Base 1.1.0
 _ZN13icalendar_2_011properties18locationERKNS_16LocationPropTypeE@Base 1.1.0
 _ZN13icalendar_2_011properties18locationESt8auto_ptrINS_16LocationPropTypeEE@Base 1.1.0
 _ZN13icalendar_2_011properties18locationEv@Base 1.1.0
 _ZN13icalendar_2_011properties18priorityERKN3xsd3cxx4tree8optionalINS_16PriorityPropTypeELb0EEE@Base 1.1.0
 _ZN13icalendar_2_011properties18priorityERKNS_16PriorityPropTypeE@Base 1.1.0
 _ZN13icalendar_2_011properties18priorityESt8auto_ptrINS_16PriorityPropTypeEE@Base 1.1.0
 _ZN13icalendar_2_011properties18priorityEv@Base 1.1.0
 _ZN13icalendar_2_011properties18sequenceERKN3xsd3cxx4tree8optionalINS_16SequencePropTypeELb0EEE@Base 1.1.0
 _ZN13icalendar_2_011properties18sequenceERKNS_16SequencePropTypeE@Base 1.1.0
 _ZN13icalendar_2_011properties18sequenceESt8auto_ptrINS_16SequencePropTypeEE@Base 1.1.0
 _ZN13icalendar_2_011properties18sequenceEv@Base 1.1.0
 _ZN13icalendar_2_011properties18x_customERKN3xsd3cxx4tree8sequenceINS_10CustomTypeELb0EEE@Base 1.1.0
 _ZN13icalendar_2_011properties18x_customEv@Base 1.1.0
 _ZN13icalendar_2_011properties19organizerERKN3xsd3cxx4tree8optionalINS_17OrganizerPropTypeELb0EEE@Base 1.1.0
 _ZN13icalendar_2_011properties19organizerERKNS_17OrganizerPropTypeE@Base 1.1.0
 _ZN13icalendar_2_011properties19organizerESt8auto_ptrINS_17OrganizerPropTypeEE@Base 1.1.0
 _ZN13icalendar_2_011properties19organizerEv@Base 1.1.0
 _ZN13icalendar_2_011properties1C1ERKN11xercesc_3_110DOMElementEN3xsd3cxx4tree5flagsEPNS7_5_typeE@Base 1.1.0
 _ZN13icalendar_2_011properties1C1ERKNS_11UidPropTypeERKNS_15CreatedPropTypeERKNS_15DtstampPropTypeE@Base 1.1.0
 _ZN13icalendar_2_011properties1C1ERKS0_N3xsd3cxx4tree5flagsEPNS5_5_typeE@Base 1.1.0
 _ZN13icalendar_2_011properties1C1ESt8auto_ptrINS_11UidPropTypeEES1_INS_15CreatedPropTypeEES1_INS_15DtstampPropTypeEE@Base 1.1.0
 _ZN13icalendar_2_011properties1C2ERKN11xercesc_3_110DOMElementEN3xsd3cxx4tree5flagsEPNS7_5_typeE@Base 1.1.0
 _ZN13icalendar_2_011properties1C2ERKNS_11UidPropTypeERKNS_15CreatedPropTypeERKNS_15DtstampPropTypeE@Base 1.1.0
 _ZN13icalendar_2_011properties1C2ERKS0_N3xsd3cxx4tree5flagsEPNS5_5_typeE@Base 1.1.0
 _ZN13icalendar_2_011properties1C2ESt8auto_ptrINS_11UidPropTypeEES1_INS_15CreatedPropTypeEES1_INS_15DtstampPropTypeEE@Base 1.1.0
 _ZN13icalendar_2_011properties1D0Ev@Base 1.1.0
 _ZN13icalendar_2_011properties1D1Ev@Base 1.1.0
 _ZN13icalendar_2_011properties1D2Ev@Base 1.1.0
 _ZN13icalendar_2_011properties1aSERKS0_@Base 1.1.0
 _ZN13icalendar_2_011properties210categoriesERKN3xsd3cxx4tree8optionalINS_18CategoriesPropTypeELb0EEE@Base 1.1.0
 _ZN13icalendar_2_011properties210categoriesERKNS_18CategoriesPropTypeE@Base 1.1.0
 _ZN13icalendar_2_011properties210categoriesESt8auto_ptrINS_18CategoriesPropTypeEE@Base 1.1.0
 _ZN13icalendar_2_011properties210categoriesEv@Base 1.1.0
 _ZN13icalendar_2_011properties210related_toERKN3xsd3cxx4tree8sequenceINS_17RelatedToPropTypeELb0EEE@Base 1.1.0
 _ZN13icalendar_2_011properties210related_toEv@Base 1.1.0
 _ZN13icalendar_2_011properties211descriptionERKN3xsd3cxx4tree8optionalINS_19DescriptionPropTypeELb0EEE@Base 1.1.0
 _ZN13icalendar_2_011properties211descriptionERKNS_19DescriptionPropTypeE@Base 1.1.0
 _ZN13icalendar_2_011properties211descriptionESt8auto_ptrINS_19DescriptionPropTypeEE@Base 1.1.0
 _ZN13icalendar_2_011properties211descriptionEv@Base 1.1.0
 _ZN13icalendar_2_011properties213recurrence_idERKN3xsd3cxx4tree8optionalINS_20RecurrenceIdPropTypeELb0EEE@Base 1.1.0
 _ZN13icalendar_2_011properties213recurrence_idERKNS_20RecurrenceIdPropTypeE@Base 1.1.0
 _ZN13icalendar_2_011properties213recurrence_idESt8auto_ptrINS_20RecurrenceIdPropTypeEE@Base 1.1.0
 _ZN13icalendar_2_011properties213recurrence_idEv@Base 1.1.0
 _ZN13icalendar_2_011properties216percent_completeERKN3xsd3cxx4tree8optionalINS_23PercentCompletePropTypeELb0EEE@Base 1.1.0
 _ZN13icalendar_2_011properties216percent_completeERKNS_23PercentCompletePropTypeE@Base 1.1.0
 _ZN13icalendar_2_011properties216percent_completeESt8auto_ptrINS_23PercentCompletePropTypeEE@Base 1.1.0
 _ZN13icalendar_2_011properties216percent_completeEv@Base 1.1.0
 _ZN13icalendar_2_011properties23dueERKN3xsd3cxx4tree8optionalINS_11DuePropTypeELb0EEE@Base 1.1.0
 _ZN13icalendar_2_011properties23dueERKNS_11DuePropTypeE@Base 1.1.0
 _ZN13icalendar_2_011properties23dueESt8auto_ptrINS_11DuePropTypeEE@Base 1.1.0
 _ZN13icalendar_2_011properties23dueEv@Base 1.1.0
 _ZN13icalendar_2_011properties23uidERKNS_11UidPropTypeE@Base 1.1.0
 _ZN13icalendar_2_011properties23uidESt8auto_ptrINS_11UidPropTypeEE@Base 1.1.0
 _ZN13icalendar_2_011properties23uidEv@Base 1.1.0
 _ZN13icalendar_2_011properties23urlERKN3xsd3cxx4tree8optionalINS_11UrlPropTypeELb0EEE@Base 1.1.0
 _ZN13icalendar_2_011properties23urlERKNS_11UrlPropTypeE@Base 1.1.0
 _ZN13icalendar_2_011properties23urlESt8auto_ptrINS_11UrlPropTypeEE@Base 1.1.0
 _ZN13icalendar_2_011properties23urlEv@Base 1.1.0
 _ZN13icalendar_2_011properties25parseERN3xsd3cxx3xml3dom6parserIcEENS2_4tree5flagsE@Base 1.1.0
 _ZN13icalendar_2_011properties25rdateERKN3xsd3cxx4tree8optionalINS_13RdatePropTypeELb0EEE@Base 1.1.0
 _ZN13icalendar_2_011properties25rdateERKNS_13RdatePropTypeE@Base 1.1.0
 _ZN13icalendar_2_011properties25rdateESt8auto_ptrINS_13RdatePropTypeEE@Base 1.1.0
 _ZN13icalendar_2_011properties25rdateEv@Base 1.1.0
 _ZN13icalendar_2_011properties25rruleERKN3xsd3cxx4tree8optionalINS_13RrulePropTypeELb0EEE@Base 1.1.0
 _ZN13icalendar_2_011properties25rruleERKNS_13RrulePropTypeE@Base 1.1.0
 _ZN13icalendar_2_011properties25rruleESt8auto_ptrINS_13RrulePropTypeEE@Base 1.1.0
 _ZN13icalendar_2_011properties25rruleEv@Base 1.1.0
 _ZN13icalendar_2_011properties26attachERKN3xsd3cxx4tree8sequenceINS_14AttachPropTypeELb0EEE@Base 1.1.0
 _ZN13icalendar_2_011properties26attachEv@Base 1.1.0
 _ZN13icalendar_2_011properties26class_ERKN3xsd3cxx4tree8optionalINS_13ClassPropTypeELb0EEE@Base 1.1.0
 _ZN13icalendar_2_011properties26class_ERKNS_13ClassPropTypeE@Base 1.1.0
 _ZN13icalendar_2_011properties26class_ESt8auto_ptrINS_13ClassPropTypeEE@Base 1.1.0
 _ZN13icalendar_2_011properties26class_Ev@Base 1.1.0
 _ZN13icalendar_2_011properties26exdateERKN3xsd3cxx4tree8optionalINS_14ExdatePropTypeELb0EEE@Base 1.1.0
 _ZN13icalendar_2_011properties26exdateERKNS_14ExdatePropTypeE@Base 1.1.0
 _ZN13icalendar_2_011properties26exdateESt8auto_ptrINS_14ExdatePropTypeEE@Base 1.1.0
 _ZN13icalendar_2_011properties26exdateEv@Base 1.1.0
 _ZN13icalendar_2_011properties26statusERKN3xsd3cxx4tree8optionalINS_14StatusPropTypeELb0EEE@Base 1.1.0
 _ZN13icalendar_2_011properties26statusERKNS_14StatusPropTypeE@Base 1.1.0
 _ZN13icalendar_2_011properties26statusESt8auto_ptrINS_14StatusPropTypeEE@Base 1.1.0
 _ZN13icalendar_2_011properties26statusEv@Base 1.1.0
 _ZN13icalendar_2_011properties27commentERKN3xsd3cxx4tree8optionalINS_15CommentPropTypeELb0EEE@Base 1.1.0
 _ZN13icalendar_2_011properties27commentERKNS_15CommentPropTypeE@Base 1.1.0
 _ZN13icalendar_2_011properties27commentESt8auto_ptrINS_15CommentPropTypeEE@Base 1.1.0
 _ZN13icalendar_2_011properties27commentEv@Base 1.1.0
 _ZN13icalendar_2_011properties27createdERKNS_15CreatedPropTypeE@Base 1.1.0
 _ZN13icalendar_2_011properties27createdESt8auto_ptrINS_15CreatedPropTypeEE@Base 1.1.0
 _ZN13icalendar_2_011properties27createdEv@Base 1.1.0
 _ZN13icalendar_2_011properties27dtstampERKNS_15DtstampPropTypeE@Base 1.1.0
 _ZN13icalendar_2_011properties27dtstampESt8auto_ptrINS_15DtstampPropTypeEE@Base 1.1.0
 _ZN13icalendar_2_011properties27dtstampEv@Base 1.1.0
 _ZN13icalendar_2_011properties27dtstartERKN3xsd3cxx4tree8optionalINS_15DtstartPropTypeELb0EEE@Base 1.1.0
 _ZN13icalendar_2_011properties27dtstartERKNS_15DtstartPropTypeE@Base 1.1.0
 _ZN13icalendar_2_011properties27dtstartESt8auto_ptrINS_15DtstartPropTypeEE@Base 1.1.0
 _ZN13icalendar_2_011properties27dtstartEv@Base 1.1.0
 _ZN13icalendar_2_011properties27summaryERKN3xsd3cxx4tree8optionalINS_15SummaryPropTypeELb0EEE@Base 1.1.0
 _ZN13icalendar_2_011properties27summaryERKNS_15SummaryPropTypeE@Base 1.1.0
 _ZN13icalendar_2_011properties27summaryESt8auto_ptrINS_15SummaryPropTypeEE@Base 1.1.0
 _ZN13icalendar_2_011properties27summaryEv@Base 1.1.0
 _ZN13icalendar_2_011properties28attendeeERKN3xsd3cxx4tree8sequenceINS_16AttendeePropTypeELb0EEE@Base 1.1.0
 _ZN13icalendar_2_011properties28attendeeEv@Base 1.1.0
 _ZN13icalendar_2_011properties28locationERKN3xsd3cxx4tree8optionalINS_16LocationPropTypeELb0EEE@Base 1.1.0
 _ZN13icalendar_2_011properties28locationERKNS_16LocationPropTypeE@Base 1.1.0
 _ZN13icalendar_2_011properties28locationESt8auto_ptrINS_16LocationPropTypeEE@Base 1.1.0
 _ZN13icalendar_2_011properties28locationEv@Base 1.1.0
 _ZN13icalendar_2_011properties28priorityERKN3xsd3cxx4tree8optionalINS_16PriorityPropTypeELb0EEE@Base 1.1.0
 _ZN13icalendar_2_011properties28priorityERKNS_16PriorityPropTypeE@Base 1.1.0
 _ZN13icalendar_2_011properties28priorityESt8auto_ptrINS_16PriorityPropTypeEE@Base 1.1.0
 _ZN13icalendar_2_011properties28priorityEv@Base 1.1.0
 _ZN13icalendar_2_011properties28sequenceERKN3xsd3cxx4tree8optionalINS_16SequencePropTypeELb0EEE@Base 1.1.0
 _ZN13icalendar_2_011properties28sequenceERKNS_16SequencePropTypeE@Base 1.1.0
 _ZN13icalendar_2_011properties28sequenceESt8auto_ptrINS_16SequencePropTypeEE@Base 1.1.0
 _ZN13icalendar_2_011properties28sequenceEv@Base 1.1.0
 _ZN13icalendar_2_011properties28x_customERKN3xsd3cxx4tree8sequenceINS_10CustomTypeELb0EEE@Base 1.1.0
 _ZN13icalendar_2_011properties28x_customEv@Base 1.1.0
 _ZN13icalendar_2_011properties29organizerERKN3xsd3cxx4tree8optionalINS_17OrganizerPropTypeELb0EEE@Base 1.1.0
 _ZN13icalendar_2_011properties29organizerERKNS_17OrganizerPropTypeE@Base 1.1.0
 _ZN13icalendar_2_011properties29organizerESt8auto_ptrINS_17OrganizerPropTypeEE@Base 1.1.0
 _ZN13icalendar_2_011properties29organizerEv@Base 1.1.0
 _ZN13icalendar_2_011properties2C1ERKN11xercesc_3_110DOMElementEN3xsd3cxx4tree5flagsEPNS7_5_typeE@Base 1.1.0
 _ZN13icalendar_2_011properties2C1ERKNS_11UidPropTypeERKNS_15CreatedPropTypeERKNS_15DtstampPropTypeE@Base 1.1.0
 _ZN13icalendar_2_011properties2C1ERKS0_N3xsd3cxx4tree5flagsEPNS5_5_typeE@Base 1.1.0
 _ZN13icalendar_2_011properties2C1ESt8auto_ptrINS_11UidPropTypeEES1_INS_15CreatedPropTypeEES1_INS_15DtstampPropTypeEE@Base 1.1.0
 _ZN13icalendar_2_011properties2C2ERKN11xercesc_3_110DOMElementEN3xsd3cxx4tree5flagsEPNS7_5_typeE@Base 1.1.0
 _ZN13icalendar_2_011properties2C2ERKNS_11UidPropTypeERKNS_15CreatedPropTypeERKNS_15DtstampPropTypeE@Base 1.1.0
 _ZN13icalendar_2_011properties2C2ERKS0_N3xsd3cxx4tree5flagsEPNS5_5_typeE@Base 1.1.0
 _ZN13icalendar_2_011properties2C2ESt8auto_ptrINS_11UidPropTypeEES1_INS_15CreatedPropTypeEES1_INS_15DtstampPropTypeEE@Base 1.1.0
 _ZN13icalendar_2_011properties2D0Ev@Base 1.1.0
 _ZN13icalendar_2_011properties2D1Ev@Base 1.1.0
 _ZN13icalendar_2_011properties2D2Ev@Base 1.1.0
 _ZN13icalendar_2_011properties2aSERKS0_@Base 1.1.0
 _ZN13icalendar_2_011properties310categoriesERKN3xsd3cxx4tree8optionalINS_18CategoriesPropTypeELb0EEE@Base 1.1.0
 _ZN13icalendar_2_011properties310categoriesERKNS_18CategoriesPropTypeE@Base 1.1.0
 _ZN13icalendar_2_011properties310categoriesESt8auto_ptrINS_18CategoriesPropTypeEE@Base 1.1.0
 _ZN13icalendar_2_011properties310categoriesEv@Base 1.1.0
 _ZN13icalendar_2_011properties310related_toERKN3xsd3cxx4tree8sequenceINS_17RelatedToPropTypeELb0EEE@Base 1.1.0
 _ZN13icalendar_2_011properties310related_toEv@Base 1.1.0
 _ZN13icalendar_2_011properties311descriptionERKN3xsd3cxx4tree8optionalINS_19DescriptionPropTypeELb0EEE@Base 1.1.0
 _ZN13icalendar_2_011properties311descriptionERKNS_19DescriptionPropTypeE@Base 1.1.0
 _ZN13icalendar_2_011properties311descriptionESt8auto_ptrINS_19DescriptionPropTypeEE@Base 1.1.0
 _ZN13icalendar_2_011properties311descriptionEv@Base 1.1.0
 _ZN13icalendar_2_011properties33uidERKNS_11UidPropTypeE@Base 1.1.0
 _ZN13icalendar_2_011properties33uidESt8auto_ptrINS_11UidPropTypeEE@Base 1.1.0
 _ZN13icalendar_2_011properties33uidEv@Base 1.1.0
 _ZN13icalendar_2_011properties35parseERN3xsd3cxx3xml3dom6parserIcEENS2_4tree5flagsE@Base 1.1.0
 _ZN13icalendar_2_011properties36attachERKN3xsd3cxx4tree8sequenceINS_14AttachPropTypeELb0EEE@Base 1.1.0
 _ZN13icalendar_2_011properties36attachEv@Base 1.1.0
 _ZN13icalendar_2_011properties36class_ERKN3xsd3cxx4tree8optionalINS_13ClassPropTypeELb0EEE@Base 1.1.0
 _ZN13icalendar_2_011properties36class_ERKNS_13ClassPropTypeE@Base 1.1.0
 _ZN13icalendar_2_011properties36class_ESt8auto_ptrINS_13ClassPropTypeEE@Base 1.1.0
 _ZN13icalendar_2_011properties36class_Ev@Base 1.1.0
 _ZN13icalendar_2_011properties36statusERKN3xsd3cxx4tree8optionalINS_14StatusPropTypeELb0EEE@Base 1.1.0
 _ZN13icalendar_2_011properties36statusERKNS_14StatusPropTypeE@Base 1.1.0
 _ZN13icalendar_2_011properties36statusESt8auto_ptrINS_14StatusPropTypeEE@Base 1.1.0
 _ZN13icalendar_2_011properties36statusEv@Base 1.1.0
 _ZN13icalendar_2_011properties37commentERKN3xsd3cxx4tree8optionalINS_15CommentPropTypeELb0EEE@Base 1.1.0
 _ZN13icalendar_2_011properties37commentERKNS_15CommentPropTypeE@Base 1.1.0
 _ZN13icalendar_2_011properties37commentESt8auto_ptrINS_15CommentPropTypeEE@Base 1.1.0
 _ZN13icalendar_2_011properties37commentEv@Base 1.1.0
 _ZN13icalendar_2_011properties37contactERKN3xsd3cxx4tree8optionalINS_15ContactPropTypeELb0EEE@Base 1.1.0
 _ZN13icalendar_2_011properties37contactERKNS_15ContactPropTypeE@Base 1.1.0
 _ZN13icalendar_2_011properties37contactESt8auto_ptrINS_15ContactPropTypeEE@Base 1.1.0
 _ZN13icalendar_2_011properties37contactEv@Base 1.1.0
 _ZN13icalendar_2_011properties37createdERKNS_15CreatedPropTypeE@Base 1.1.0
 _ZN13icalendar_2_011properties37createdESt8auto_ptrINS_15CreatedPropTypeEE@Base 1.1.0
 _ZN13icalendar_2_011properties37createdEv@Base 1.1.0
 _ZN13icalendar_2_011properties37dtstampERKNS_15DtstampPropTypeE@Base 1.1.0
 _ZN13icalendar_2_011properties37dtstampESt8auto_ptrINS_15DtstampPropTypeEE@Base 1.1.0
 _ZN13icalendar_2_011properties37dtstampEv@Base 1.1.0
 _ZN13icalendar_2_011properties37dtstartERKN3xsd3cxx4tree8optionalINS_15DtstartPropTypeELb0EEE@Base 1.1.0
 _ZN13icalendar_2_011properties37dtstartERKNS_15DtstartPropTypeE@Base 1.1.0
 _ZN13icalendar_2_011properties37dtstartESt8auto_ptrINS_15DtstartPropTypeEE@Base 1.1.0
 _ZN13icalendar_2_011properties37dtstartEv@Base 1.1.0
 _ZN13icalendar_2_011properties37summaryERKN3xsd3cxx4tree8optionalINS_15SummaryPropTypeELb0EEE@Base 1.1.0
 _ZN13icalendar_2_011properties37summaryERKNS_15SummaryPropTypeE@Base 1.1.0
 _ZN13icalendar_2_011properties37summaryESt8auto_ptrINS_15SummaryPropTypeEE@Base 1.1.0
 _ZN13icalendar_2_011properties37summaryEv@Base 1.1.0
 _ZN13icalendar_2_011properties38attendeeERKN3xsd3cxx4tree8sequenceINS_16AttendeePropTypeELb0EEE@Base 1.1.0
 _ZN13icalendar_2_011properties38attendeeEv@Base 1.1.0
 _ZN13icalendar_2_011properties38sequenceERKN3xsd3cxx4tree8optionalINS_16SequencePropTypeELb0EEE@Base 1.1.0
 _ZN13icalendar_2_011properties38sequenceERKNS_16SequencePropTypeE@Base 1.1.0
 _ZN13icalendar_2_011properties38sequenceESt8auto_ptrINS_16SequencePropTypeEE@Base 1.1.0
 _ZN13icalendar_2_011properties38sequenceEv@Base 1.1.0
 _ZN13icalendar_2_011properties38x_customERKN3xsd3cxx4tree8sequenceINS_10CustomTypeELb0EEE@Base 1.1.0
 _ZN13icalendar_2_011properties38x_customEv@Base 1.1.0
 _ZN13icalendar_2_011properties3C1ERKN11xercesc_3_110DOMElementEN3xsd3cxx4tree5flagsEPNS7_5_typeE@Base 1.1.0
 _ZN13icalendar_2_011properties3C1ERKNS_11UidPropTypeERKNS_15CreatedPropTypeERKNS_15DtstampPropTypeE@Base 1.1.0
 _ZN13icalendar_2_011properties3C1ERKS0_N3xsd3cxx4tree5flagsEPNS5_5_typeE@Base 1.1.0
 _ZN13icalendar_2_011properties3C1ESt8auto_ptrINS_11UidPropTypeEES1_INS_15CreatedPropTypeEES1_INS_15DtstampPropTypeEE@Base 1.1.0
 _ZN13icalendar_2_011properties3C2ERKN11xercesc_3_110DOMElementEN3xsd3cxx4tree5flagsEPNS7_5_typeE@Base 1.1.0
 _ZN13icalendar_2_011properties3C2ERKNS_11UidPropTypeERKNS_15CreatedPropTypeERKNS_15DtstampPropTypeE@Base 1.1.0
 _ZN13icalendar_2_011properties3C2ERKS0_N3xsd3cxx4tree5flagsEPNS5_5_typeE@Base 1.1.0
 _ZN13icalendar_2_011properties3C2ESt8auto_ptrINS_11UidPropTypeEES1_INS_15CreatedPropTypeEES1_INS_15DtstampPropTypeEE@Base 1.1.0
 _ZN13icalendar_2_011properties3D0Ev@Base 1.1.0
 _ZN13icalendar_2_011properties3D1Ev@Base 1.1.0
 _ZN13icalendar_2_011properties3D2Ev@Base 1.1.0
 _ZN13icalendar_2_011properties3aSERKS0_@Base 1.1.0
 _ZN13icalendar_2_011properties43uidERKNS_11UidPropTypeE@Base 1.1.0
 _ZN13icalendar_2_011properties43uidESt8auto_ptrINS_11UidPropTypeEE@Base 1.1.0
 _ZN13icalendar_2_011properties43uidEv@Base 1.1.0
 _ZN13icalendar_2_011properties45dtendERKN3xsd3cxx4tree8optionalINS_13DtendPropTypeELb0EEE@Base 1.1.0
 _ZN13icalendar_2_011properties45dtendERKNS_13DtendPropTypeE@Base 1.1.0
 _ZN13icalendar_2_011properties45dtendESt8auto_ptrINS_13DtendPropTypeEE@Base 1.1.0
 _ZN13icalendar_2_011properties45dtendEv@Base 1.1.0
 _ZN13icalendar_2_011properties45parseERN3xsd3cxx3xml3dom6parserIcEENS2_4tree5flagsE@Base 1.1.0
 _ZN13icalendar_2_011properties47dtstampERKNS_15DtstampPropTypeE@Base 1.1.0
 _ZN13icalendar_2_011properties47dtstampESt8auto_ptrINS_15DtstampPropTypeEE@Base 1.1.0
 _ZN13icalendar_2_011properties47dtstampEv@Base 1.1.0
 _ZN13icalendar_2_011properties47dtstartERKN3xsd3cxx4tree8optionalINS_15DtstartPropTypeELb0EEE@Base 1.1.0
 _ZN13icalendar_2_011properties47dtstartERKNS_15DtstartPropTypeE@Base 1.1.0
 _ZN13icalendar_2_011properties47dtstartESt8auto_ptrINS_15DtstartPropTypeEE@Base 1.1.0
 _ZN13icalendar_2_011properties47dtstartEv@Base 1.1.0
 _ZN13icalendar_2_011properties48freebusyERKN3xsd3cxx4tree8sequenceINS_16FreebusyPropTypeELb0EEE@Base 1.1.0
 _ZN13icalendar_2_011properties48freebusyEv@Base 1.1.0
 _ZN13icalendar_2_011properties49organizerERKN3xsd3cxx4tree8optionalINS_17OrganizerPropTypeELb0EEE@Base 1.1.0
 _ZN13icalendar_2_011properties49organizerERKNS_17OrganizerPropTypeE@Base 1.1.0
 _ZN13icalendar_2_011properties49organizerESt8auto_ptrINS_17OrganizerPropTypeEE@Base 1.1.0
 _ZN13icalendar_2_011properties49organizerEv@Base 1.1.0
 _ZN13icalendar_2_011properties4C1ERKN11xercesc_3_110DOMElementEN3xsd3cxx4tree5flagsEPNS7_5_typeE@Base 1.1.0
 _ZN13icalendar_2_011properties4C1ERKNS_11UidPropTypeERKNS_15DtstampPropTypeE@Base 1.1.0
 _ZN13icalendar_2_011properties4C1ERKS0_N3xsd3cxx4tree5flagsEPNS5_5_typeE@Base 1.1.0
 _ZN13icalendar_2_011properties4C1ESt8auto_ptrINS_11UidPropTypeEES1_INS_15DtstampPropTypeEE@Base 1.1.0
 _ZN13icalendar_2_011properties4C2ERKN11xercesc_3_110DOMElementEN3xsd3cxx4tree5flagsEPNS7_5_typeE@Base 1.1.0
 _ZN13icalendar_2_011properties4C2ERKNS_11UidPropTypeERKNS_15DtstampPropTypeE@Base 1.1.0
 _ZN13icalendar_2_011properties4C2ERKS0_N3xsd3cxx4tree5flagsEPNS5_5_typeE@Base 1.1.0
 _ZN13icalendar_2_011properties4C2ESt8auto_ptrINS_11UidPropTypeEES1_INS_15DtstampPropTypeEE@Base 1.1.0
 _ZN13icalendar_2_011properties4D0Ev@Base 1.1.0
 _ZN13icalendar_2_011properties4D1Ev@Base 1.1.0
 _ZN13icalendar_2_011properties4D2Ev@Base 1.1.0
 _ZN13icalendar_2_011properties4aSERKS0_@Base 1.1.0
 _ZN13icalendar_2_011properties515x_kolab_versionERKNS_12KolabVersionE@Base 1.1.0
 _ZN13icalendar_2_011properties515x_kolab_versionESt8auto_ptrINS_12KolabVersionEE@Base 1.1.0
 _ZN13icalendar_2_011properties515x_kolab_versionEv@Base 1.1.0
 _ZN13icalendar_2_011properties55parseERN3xsd3cxx3xml3dom6parserIcEENS2_4tree5flagsE@Base 1.1.0
 _ZN13icalendar_2_011properties56prodidERKNS_14ProdidPropTypeE@Base 1.1.0
 _ZN13icalendar_2_011properties56prodidESt8auto_ptrINS_14ProdidPropTypeEE@Base 1.1.0
 _ZN13icalendar_2_011properties56prodidEv@Base 1.1.0
 _ZN13icalendar_2_011properties57versionERKNS_15VersionPropTypeE@Base 1.1.0
 _ZN13icalendar_2_011properties57versionESt8auto_ptrINS_15VersionPropTypeEE@Base 1.1.0
 _ZN13icalendar_2_011properties57versionEv@Base 1.1.0
 _ZN13icalendar_2_011properties5C1ERKN11xercesc_3_110DOMElementEN3xsd3cxx4tree5flagsEPNS7_5_typeE@Base 1.1.0
 _ZN13icalendar_2_011properties5C1ERKNS_14ProdidPropTypeERKNS_15VersionPropTypeERKNS_12KolabVersionE@Base 1.1.0
 _ZN13icalendar_2_011properties5C1ERKS0_N3xsd3cxx4tree5flagsEPNS5_5_typeE@Base 1.1.0
 _ZN13icalendar_2_011properties5C1ESt8auto_ptrINS_14ProdidPropTypeEES1_INS_15VersionPropTypeEES1_INS_12KolabVersionEE@Base 1.1.0
 _ZN13icalendar_2_011properties5C2ERKN11xercesc_3_110DOMElementEN3xsd3cxx4tree5flagsEPNS7_5_typeE@Base 1.1.0
 _ZN13icalendar_2_011properties5C2ERKNS_14ProdidPropTypeERKNS_15VersionPropTypeERKNS_12KolabVersionE@Base 1.1.0
 _ZN13icalendar_2_011properties5C2ERKS0_N3xsd3cxx4tree5flagsEPNS5_5_typeE@Base 1.1.0
 _ZN13icalendar_2_011properties5C2ESt8auto_ptrINS_14ProdidPropTypeEES1_INS_15VersionPropTypeEES1_INS_12KolabVersionEE@Base 1.1.0
 _ZN13icalendar_2_011properties5D0Ev@Base 1.1.0
 _ZN13icalendar_2_011properties5D1Ev@Base 1.1.0
 _ZN13icalendar_2_011properties5D2Ev@Base 1.1.0
 _ZN13icalendar_2_011properties5aSERKS0_@Base 1.1.0
 _ZN13icalendar_2_012DateTimeTypeC1ERKN11xercesc_3_110DOMElementEN3xsd3cxx4tree5flagsEPNS7_5_typeE@Base 1.1.0
 _ZN13icalendar_2_012DateTimeTypeC1ERKN11xercesc_3_17DOMAttrEN3xsd3cxx4tree5flagsEPNS7_5_typeE@Base 1.1.0
 _ZN13icalendar_2_012DateTimeTypeC1ERKN3xsd3cxx4tree9date_timeIcNS3_11simple_typeIcNS3_5_typeEEEEE@Base 1.1.0
 _ZN13icalendar_2_012DateTimeTypeC1ERKNSt7__cxx1112basic_stringIcSt11char_traitsIcESaIcEEEPKN11xercesc_3_110DOMElementEN3xsd3cxx4tree5flagsEPNSF_5_typeE@Base 1.1.0
 _ZN13icalendar_2_012DateTimeTypeC1ERKS0_N3xsd3cxx4tree5flagsEPNS5_5_typeE@Base 1.1.0
 _ZN13icalendar_2_012DateTimeTypeC2ERKN11xercesc_3_110DOMElementEN3xsd3cxx4tree5flagsEPNS7_5_typeE@Base 1.1.0
 _ZN13icalendar_2_012DateTimeTypeC2ERKN11xercesc_3_17DOMAttrEN3xsd3cxx4tree5flagsEPNS7_5_typeE@Base 1.1.0
 _ZN13icalendar_2_012DateTimeTypeC2ERKN3xsd3cxx4tree9date_timeIcNS3_11simple_typeIcNS3_5_typeEEEEE@Base 1.1.0
 _ZN13icalendar_2_012DateTimeTypeC2ERKNSt7__cxx1112basic_stringIcSt11char_traitsIcESaIcEEEPKN11xercesc_3_110DOMElementEN3xsd3cxx4tree5flagsEPNSF_5_typeE@Base 1.1.0
 _ZN13icalendar_2_012DateTimeTypeC2ERKS0_N3xsd3cxx4tree5flagsEPNS5_5_typeE@Base 1.1.0
 _ZN13icalendar_2_012DateTimeTypeD0Ev@Base 1.1.0
 _ZN13icalendar_2_012DateTimeTypeD1Ev@Base 1.1.0
 _ZN13icalendar_2_012DateTimeTypeD2Ev@Base 1.1.0
 _ZN13icalendar_2_012DirParamTypeC1ERKN11xercesc_3_110DOMElementEN3xsd3cxx4tree5flagsEPNS7_5_typeE@Base 1.1.0
 _ZN13icalendar_2_012DirParamTypeC1ERKNS_7UriTypeE@Base 1.1.0
 _ZN13icalendar_2_012DirParamTypeC1ERKS0_N3xsd3cxx4tree5flagsEPNS5_5_typeE@Base 1.1.0
 _ZN13icalendar_2_012DirParamTypeC2ERKN11xercesc_3_110DOMElementEN3xsd3cxx4tree5flagsEPNS7_5_typeE@Base 1.1.0
 _ZN13icalendar_2_012DirParamTypeC2ERKNS_7UriTypeE@Base 1.1.0
 _ZN13icalendar_2_012DirParamTypeC2ERKS0_N3xsd3cxx4tree5flagsEPNS5_5_typeE@Base 1.1.0
 _ZN13icalendar_2_012DirParamTypeD0Ev@Base 1.1.0
 _ZN13icalendar_2_012DirParamTypeD1Ev@Base 1.1.0
 _ZN13icalendar_2_012DirParamTypeD2Ev@Base 1.1.0
 _ZN13icalendar_2_012KolabJournal10propertiesERKNS_11properties3E@Base 1.1.0
 _ZN13icalendar_2_012KolabJournal10propertiesESt8auto_ptrINS_11properties3EE@Base 1.1.0
 _ZN13icalendar_2_012KolabJournal10propertiesEv@Base 1.1.0
 _ZN13icalendar_2_012KolabJournal5parseERN3xsd3cxx3xml3dom6parserIcEENS2_4tree5flagsE@Base 1.1.0
 _ZN13icalendar_2_012KolabJournalC1ERKN11xercesc_3_110DOMElementEN3xsd3cxx4tree5flagsEPNS7_5_typeE@Base 1.1.0
 _ZN13icalendar_2_012KolabJournalC1ERKNS_11properties3E@Base 1.1.0
 _ZN13icalendar_2_012KolabJournalC1ERKS0_N3xsd3cxx4tree5flagsEPNS5_5_typeE@Base 1.1.0
 _ZN13icalendar_2_012KolabJournalC1ESt8auto_ptrINS_11properties3EE@Base 1.1.0
 _ZN13icalendar_2_012KolabJournalC2ERKN11xercesc_3_110DOMElementEN3xsd3cxx4tree5flagsEPNS7_5_typeE@Base 1.1.0
 _ZN13icalendar_2_012KolabJournalC2ERKNS_11properties3E@Base 1.1.0
 _ZN13icalendar_2_012KolabJournalC2ERKS0_N3xsd3cxx4tree5flagsEPNS5_5_typeE@Base 1.1.0
 _ZN13icalendar_2_012KolabJournalC2ESt8auto_ptrINS_11properties3EE@Base 1.1.0
 _ZN13icalendar_2_012KolabJournalD0Ev@Base 1.1.0
 _ZN13icalendar_2_012KolabJournalD1Ev@Base 1.1.0
 _ZN13icalendar_2_012KolabJournalD2Ev@Base 1.1.0
 _ZN13icalendar_2_012KolabJournalaSERKS0_@Base 1.1.0
 _ZN13icalendar_2_012KolabVersion18text_default_valueEv@Base 1.1.0
 _ZN13icalendar_2_012KolabVersion19text_default_value_E@Base 1.1.0
 _ZN13icalendar_2_012KolabVersion4textERKN3xsd3cxx4tree6stringIcNS3_11simple_typeIcNS3_5_typeEEEEE@Base 1.1.0
 _ZN13icalendar_2_012KolabVersion4textESt8auto_ptrIN3xsd3cxx4tree6stringIcNS4_11simple_typeIcNS4_5_typeEEEEEE@Base 1.1.0
 _ZN13icalendar_2_012KolabVersion4textEv@Base 1.1.0
 _ZN13icalendar_2_012KolabVersion5parseERN3xsd3cxx3xml3dom6parserIcEENS2_4tree5flagsE@Base 1.1.0
 _ZN13icalendar_2_012KolabVersionC1ERKN11xercesc_3_110DOMElementEN3xsd3cxx4tree5flagsEPNS7_5_typeE@Base 1.1.0
 _ZN13icalendar_2_012KolabVersionC1ERKN3xsd3cxx4tree6stringIcNS3_11simple_typeIcNS3_5_typeEEEEE@Base 1.1.0
 _ZN13icalendar_2_012KolabVersionC1ERKS0_N3xsd3cxx4tree5flagsEPNS5_5_typeE@Base 1.1.0
 _ZN13icalendar_2_012KolabVersionC2ERKN11xercesc_3_110DOMElementEN3xsd3cxx4tree5flagsEPNS7_5_typeE@Base 1.1.0
 _ZN13icalendar_2_012KolabVersionC2ERKN3xsd3cxx4tree6stringIcNS3_11simple_typeIcNS3_5_typeEEEEE@Base 1.1.0
 _ZN13icalendar_2_012KolabVersionC2ERKS0_N3xsd3cxx4tree5flagsEPNS5_5_typeE@Base 1.1.0
 _ZN13icalendar_2_012KolabVersionD0Ev@Base 1.1.0
 _ZN13icalendar_2_012KolabVersionD1Ev@Base 1.1.0
 _ZN13icalendar_2_012KolabVersionD2Ev@Base 1.1.0
 _ZN13icalendar_2_012KolabVersionaSERKS0_@Base 1.1.0
 _ZN13icalendar_2_012TzidPropTypeC1ERKN11xercesc_3_110DOMElementEN3xsd3cxx4tree5flagsEPNS7_5_typeE@Base 1.1.0
 _ZN13icalendar_2_012TzidPropTypeC1ERKN3xsd3cxx4tree6stringIcNS3_11simple_typeIcNS3_5_typeEEEEE@Base 1.1.0
 _ZN13icalendar_2_012TzidPropTypeC1ERKS0_N3xsd3cxx4tree5flagsEPNS5_5_typeE@Base 1.1.0
 _ZN13icalendar_2_012TzidPropTypeC2ERKN11xercesc_3_110DOMElementEN3xsd3cxx4tree5flagsEPNS7_5_typeE@Base 1.1.0
 _ZN13icalendar_2_012TzidPropTypeC2ERKN3xsd3cxx4tree6stringIcNS3_11simple_typeIcNS3_5_typeEEEEE@Base 1.1.0
 _ZN13icalendar_2_012TzidPropTypeC2ERKS0_N3xsd3cxx4tree5flagsEPNS5_5_typeE@Base 1.1.0
 _ZN13icalendar_2_012TzidPropTypeD0Ev@Base 1.1.0
 _ZN13icalendar_2_012TzidPropTypeD1Ev@Base 1.1.0
 _ZN13icalendar_2_012TzidPropTypeD2Ev@Base 1.1.0
 _ZN13icalendar_2_013ClassPropTypeC1ERKN11xercesc_3_110DOMElementEN3xsd3cxx4tree5flagsEPNS7_5_typeE@Base 1.1.0
 _ZN13icalendar_2_013ClassPropTypeC1ERKN3xsd3cxx4tree6stringIcNS3_11simple_typeIcNS3_5_typeEEEEE@Base 1.1.0
 _ZN13icalendar_2_013ClassPropTypeC1ERKS0_N3xsd3cxx4tree5flagsEPNS5_5_typeE@Base 1.1.0
 _ZN13icalendar_2_013ClassPropTypeC2ERKN11xercesc_3_110DOMElementEN3xsd3cxx4tree5flagsEPNS7_5_typeE@Base 1.1.0
 _ZN13icalendar_2_013ClassPropTypeC2ERKN3xsd3cxx4tree6stringIcNS3_11simple_typeIcNS3_5_typeEEEEE@Base 1.1.0
 _ZN13icalendar_2_013ClassPropTypeC2ERKS0_N3xsd3cxx4tree5flagsEPNS5_5_typeE@Base 1.1.0
 _ZN13icalendar_2_013ClassPropTypeD0Ev@Base 1.1.0
 _ZN13icalendar_2_013ClassPropTypeD1Ev@Base 1.1.0
 _ZN13icalendar_2_013ClassPropTypeD2Ev@Base 1.1.0
 _ZN13icalendar_2_013DtendPropTypeC1ERKN11xercesc_3_110DOMElementEN3xsd3cxx4tree5flagsEPNS7_5_typeE@Base 1.1.0
 _ZN13icalendar_2_013DtendPropTypeC1ERKS0_N3xsd3cxx4tree5flagsEPNS5_5_typeE@Base 1.1.0
 _ZN13icalendar_2_013DtendPropTypeC1Ev@Base 1.1.0
 _ZN13icalendar_2_013DtendPropTypeC2ERKN11xercesc_3_110DOMElementEN3xsd3cxx4tree5flagsEPNS7_5_typeE@Base 1.1.0
 _ZN13icalendar_2_013DtendPropTypeC2ERKS0_N3xsd3cxx4tree5flagsEPNS5_5_typeE@Base 1.1.0
 _ZN13icalendar_2_013DtendPropTypeC2Ev@Base 1.1.0
 _ZN13icalendar_2_013DtendPropTypeD0Ev@Base 1.1.0
 _ZN13icalendar_2_013DtendPropTypeD1Ev@Base 1.1.0
 _ZN13icalendar_2_013DtendPropTypeD2Ev@Base 1.1.0
 _ZN13icalendar_2_013FreqRecurType27_xsd_FreqRecurType_indexes_E@Base 1.1.0
 _ZN13icalendar_2_013FreqRecurType28_xsd_FreqRecurType_literals_E@Base 1.1.0
 _ZN13icalendar_2_013FreqRecurTypeC1ENS0_5valueE@Base 1.1.0
 _ZN13icalendar_2_013FreqRecurTypeC1EPKc@Base 1.1.0
 _ZN13icalendar_2_013FreqRecurTypeC1ERKN11xercesc_3_110DOMElementEN3xsd3cxx4tree5flagsEPNS7_5_typeE@Base 1.1.0
 _ZN13icalendar_2_013FreqRecurTypeC1ERKN11xercesc_3_17DOMAttrEN3xsd3cxx4tree5flagsEPNS7_5_typeE@Base 1.1.0
 _ZN13icalendar_2_013FreqRecurTypeC1ERKN3xsd3cxx4tree5tokenIcNS3_17normalized_stringIcNS3_6stringIcNS3_11simple_typeIcNS3_5_typeEEEEEEEEE@Base 1.1.0
 _ZN13icalendar_2_013FreqRecurTypeC1ERKNSt7__cxx1112basic_stringIcSt11char_traitsIcESaIcEEE@Base 1.1.0
 _ZN13icalendar_2_013FreqRecurTypeC1ERKNSt7__cxx1112basic_stringIcSt11char_traitsIcESaIcEEEPKN11xercesc_3_110DOMElementEN3xsd3cxx4tree5flagsEPNSF_5_typeE@Base 1.1.0
 _ZN13icalendar_2_013FreqRecurTypeC1ERKS0_N3xsd3cxx4tree5flagsEPNS5_5_typeE@Base 1.1.0
 _ZN13icalendar_2_013FreqRecurTypeC2ENS0_5valueE@Base 1.1.0
 _ZN13icalendar_2_013FreqRecurTypeC2EPKc@Base 1.1.0
 _ZN13icalendar_2_013FreqRecurTypeC2ERKN11xercesc_3_110DOMElementEN3xsd3cxx4tree5flagsEPNS7_5_typeE@Base 1.1.0
 _ZN13icalendar_2_013FreqRecurTypeC2ERKN11xercesc_3_17DOMAttrEN3xsd3cxx4tree5flagsEPNS7_5_typeE@Base 1.1.0
 _ZN13icalendar_2_013FreqRecurTypeC2ERKN3xsd3cxx4tree5tokenIcNS3_17normalized_stringIcNS3_6stringIcNS3_11simple_typeIcNS3_5_typeEEEEEEEEE@Base 1.1.0
 _ZN13icalendar_2_013FreqRecurTypeC2ERKNSt7__cxx1112basic_stringIcSt11char_traitsIcESaIcEEE@Base 1.1.0
 _ZN13icalendar_2_013FreqRecurTypeC2ERKNSt7__cxx1112basic_stringIcSt11char_traitsIcESaIcEEEPKN11xercesc_3_110DOMElementEN3xsd3cxx4tree5flagsEPNSF_5_typeE@Base 1.1.0
 _ZN13icalendar_2_013FreqRecurTypeC2ERKS0_N3xsd3cxx4tree5flagsEPNS5_5_typeE@Base 1.1.0
 _ZN13icalendar_2_013FreqRecurTypeD0Ev@Base 1.1.0
 _ZN13icalendar_2_013FreqRecurTypeD1Ev@Base 1.1.0
 _ZN13icalendar_2_013FreqRecurTypeD2Ev@Base 1.1.0
 _ZN13icalendar_2_013FreqRecurTypeaSENS0_5valueE@Base 1.1.0
 _ZN13icalendar_2_013IcalendarType5parseERN3xsd3cxx3xml3dom6parserIcEENS2_4tree5flagsE@Base 1.1.0
 _ZN13icalendar_2_013IcalendarType9vcalendarERKNS_13VcalendarTypeE@Base 1.1.0
 _ZN13icalendar_2_013IcalendarType9vcalendarESt8auto_ptrINS_13VcalendarTypeEE@Base 1.1.0
 _ZN13icalendar_2_013IcalendarType9vcalendarEv@Base 1.1.0
 _ZN13icalendar_2_013IcalendarTypeC1ERKN11xercesc_3_110DOMElementEN3xsd3cxx4tree5flagsEPNS7_5_typeE@Base 1.1.0
 _ZN13icalendar_2_013IcalendarTypeC1ERKNS_13VcalendarTypeE@Base 1.1.0
 _ZN13icalendar_2_013IcalendarTypeC1ERKS0_N3xsd3cxx4tree5flagsEPNS5_5_typeE@Base 1.1.0
 _ZN13icalendar_2_013IcalendarTypeC1ESt8auto_ptrINS_13VcalendarTypeEE@Base 1.1.0
 _ZN13icalendar_2_013IcalendarTypeC2ERKN11xercesc_3_110DOMElementEN3xsd3cxx4tree5flagsEPNS7_5_typeE@Base 1.1.0
 _ZN13icalendar_2_013IcalendarTypeC2ERKNS_13VcalendarTypeE@Base 1.1.0
 _ZN13icalendar_2_013IcalendarTypeC2ERKS0_N3xsd3cxx4tree5flagsEPNS5_5_typeE@Base 1.1.0
 _ZN13icalendar_2_013IcalendarTypeC2ESt8auto_ptrINS_13VcalendarTypeEE@Base 1.1.0
 _ZN13icalendar_2_013IcalendarTypeD0Ev@Base 1.1.0
 _ZN13icalendar_2_013IcalendarTypeD1Ev@Base 1.1.0
 _ZN13icalendar_2_013IcalendarTypeD2Ev@Base 1.1.0
 _ZN13icalendar_2_013IcalendarTypeaSERKS0_@Base 1.1.0
 _ZN13icalendar_2_013KolabFreebusy10propertiesERKNS_11properties4E@Base 1.1.0
 _ZN13icalendar_2_013KolabFreebusy10propertiesESt8auto_ptrINS_11properties4EE@Base 1.1.0
 _ZN13icalendar_2_013KolabFreebusy10propertiesEv@Base 1.1.0
 _ZN13icalendar_2_013KolabFreebusy5parseERN3xsd3cxx3xml3dom6parserIcEENS2_4tree5flagsE@Base 1.1.0
 _ZN13icalendar_2_013KolabFreebusyC1ERKN11xercesc_3_110DOMElementEN3xsd3cxx4tree5flagsEPNS7_5_typeE@Base 1.1.0
 _ZN13icalendar_2_013KolabFreebusyC1ERKNS_11properties4E@Base 1.1.0
 _ZN13icalendar_2_013KolabFreebusyC1ERKS0_N3xsd3cxx4tree5flagsEPNS5_5_typeE@Base 1.1.0
 _ZN13icalendar_2_013KolabFreebusyC1ESt8auto_ptrINS_11properties4EE@Base 1.1.0
 _ZN13icalendar_2_013KolabFreebusyC2ERKN11xercesc_3_110DOMElementEN3xsd3cxx4tree5flagsEPNS7_5_typeE@Base 1.1.0
 _ZN13icalendar_2_013KolabFreebusyC2ERKNS_11properties4E@Base 1.1.0
 _ZN13icalendar_2_013KolabFreebusyC2ERKS0_N3xsd3cxx4tree5flagsEPNS5_5_typeE@Base 1.1.0
 _ZN13icalendar_2_013KolabFreebusyC2ESt8auto_ptrINS_11properties4EE@Base 1.1.0
 _ZN13icalendar_2_013KolabFreebusyD0Ev@Base 1.1.0
 _ZN13icalendar_2_013KolabFreebusyD1Ev@Base 1.1.0
 _ZN13icalendar_2_013KolabFreebusyD2Ev@Base 1.1.0
 _ZN13icalendar_2_013KolabFreebusyaSERKS0_@Base 1.1.0
 _ZN13icalendar_2_013RdatePropType4dateERKN3xsd3cxx4tree8sequenceINS3_4dateIcNS3_11simple_typeIcNS3_5_typeEEEEELb0EEE@Base 1.1.0
 _ZN13icalendar_2_013RdatePropType4dateEv@Base 1.1.0
 _ZN13icalendar_2_013RdatePropType5parseERN3xsd3cxx3xml3dom6parserIcEENS2_4tree5flagsE@Base 1.1.0
 _ZN13icalendar_2_013RdatePropType6periodERKN3xsd3cxx4tree8sequenceINS_10PeriodTypeELb0EEE@Base 1.1.0
 _ZN13icalendar_2_013RdatePropType6periodEv@Base 1.1.0
 _ZN13icalendar_2_013RdatePropType9date_timeERKN3xsd3cxx4tree8sequenceINS_12DateTimeTypeELb0EEE@Base 1.1.0
 _ZN13icalendar_2_013RdatePropType9date_timeEv@Base 1.1.0
 _ZN13icalendar_2_013RdatePropTypeC1ERKN11xercesc_3_110DOMElementEN3xsd3cxx4tree5flagsEPNS7_5_typeE@Base 1.1.0
 _ZN13icalendar_2_013RdatePropTypeC1ERKS0_N3xsd3cxx4tree5flagsEPNS5_5_typeE@Base 1.1.0
 _ZN13icalendar_2_013RdatePropTypeC1Ev@Base 1.1.0
 _ZN13icalendar_2_013RdatePropTypeC2ERKN11xercesc_3_110DOMElementEN3xsd3cxx4tree5flagsEPNS7_5_typeE@Base 1.1.0
 _ZN13icalendar_2_013RdatePropTypeC2ERKS0_N3xsd3cxx4tree5flagsEPNS5_5_typeE@Base 1.1.0
 _ZN13icalendar_2_013RdatePropTypeC2Ev@Base 1.1.0
 _ZN13icalendar_2_013RdatePropTypeD0Ev@Base 1.1.0
 _ZN13icalendar_2_013RdatePropTypeD1Ev@Base 1.1.0
 _ZN13icalendar_2_013RdatePropTypeD2Ev@Base 1.1.0
 _ZN13icalendar_2_013RdatePropTypeaSERKS0_@Base 1.1.0
 _ZN13icalendar_2_013RoleParamTypeC1ERKN11xercesc_3_110DOMElementEN3xsd3cxx4tree5flagsEPNS7_5_typeE@Base 1.1.0
 _ZN13icalendar_2_013RoleParamTypeC1ERKN3xsd3cxx4tree6stringIcNS3_11simple_typeIcNS3_5_typeEEEEE@Base 1.1.0
 _ZN13icalendar_2_013RoleParamTypeC1ERKS0_N3xsd3cxx4tree5flagsEPNS5_5_typeE@Base 1.1.0
 _ZN13icalendar_2_013RoleParamTypeC2ERKN11xercesc_3_110DOMElementEN3xsd3cxx4tree5flagsEPNS7_5_typeE@Base 1.1.0
 _ZN13icalendar_2_013RoleParamTypeC2ERKN3xsd3cxx4tree6stringIcNS3_11simple_typeIcNS3_5_typeEEEEE@Base 1.1.0
 _ZN13icalendar_2_013RoleParamTypeC2ERKS0_N3xsd3cxx4tree5flagsEPNS5_5_typeE@Base 1.1.0
 _ZN13icalendar_2_013RoleParamTypeD0Ev@Base 1.1.0
 _ZN13icalendar_2_013RoleParamTypeD1Ev@Base 1.1.0
 _ZN13icalendar_2_013RoleParamTypeD2Ev@Base 1.1.0
 _ZN13icalendar_2_013RrulePropTypeC1ERKN11xercesc_3_110DOMElementEN3xsd3cxx4tree5flagsEPNS7_5_typeE@Base 1.1.0
 _ZN13icalendar_2_013RrulePropTypeC1ERKNS_9RecurTypeE@Base 1.1.0
 _ZN13icalendar_2_013RrulePropTypeC1ERKS0_N3xsd3cxx4tree5flagsEPNS5_5_typeE@Base 1.1.0
 _ZN13icalendar_2_013RrulePropTypeC1ESt8auto_ptrINS_9RecurTypeEE@Base 1.1.0
 _ZN13icalendar_2_013RrulePropTypeC2ERKN11xercesc_3_110DOMElementEN3xsd3cxx4tree5flagsEPNS7_5_typeE@Base 1.1.0
 _ZN13icalendar_2_013RrulePropTypeC2ERKNS_9RecurTypeE@Base 1.1.0
 _ZN13icalendar_2_013RrulePropTypeC2ERKS0_N3xsd3cxx4tree5flagsEPNS5_5_typeE@Base 1.1.0
 _ZN13icalendar_2_013RrulePropTypeC2ESt8auto_ptrINS_9RecurTypeEE@Base 1.1.0
 _ZN13icalendar_2_013RrulePropTypeD0Ev@Base 1.1.0
 _ZN13icalendar_2_013RrulePropTypeD1Ev@Base 1.1.0
 _ZN13icalendar_2_013RrulePropTypeD2Ev@Base 1.1.0
 _ZN13icalendar_2_013RsvpParamTypeC1ERKN11xercesc_3_110DOMElementEN3xsd3cxx4tree5flagsEPNS7_5_typeE@Base 1.1.0
 _ZN13icalendar_2_013RsvpParamTypeC1ERKS0_N3xsd3cxx4tree5flagsEPNS5_5_typeE@Base 1.1.0
 _ZN13icalendar_2_013RsvpParamTypeC1ERKb@Base 1.1.0
 _ZN13icalendar_2_013RsvpParamTypeC2ERKN11xercesc_3_110DOMElementEN3xsd3cxx4tree5flagsEPNS7_5_typeE@Base 1.1.0
 _ZN13icalendar_2_013RsvpParamTypeC2ERKS0_N3xsd3cxx4tree5flagsEPNS5_5_typeE@Base 1.1.0
 _ZN13icalendar_2_013RsvpParamTypeC2ERKb@Base 1.1.0
 _ZN13icalendar_2_013RsvpParamTypeD0Ev@Base 1.1.0
 _ZN13icalendar_2_013RsvpParamTypeD1Ev@Base 1.1.0
 _ZN13icalendar_2_013RsvpParamTypeD2Ev@Base 1.1.0
 _ZN13icalendar_2_013TzidParamTypeC1ERKN11xercesc_3_110DOMElementEN3xsd3cxx4tree5flagsEPNS7_5_typeE@Base 1.1.0
 _ZN13icalendar_2_013TzidParamTypeC1ERKN3xsd3cxx4tree6stringIcNS3_11simple_typeIcNS3_5_typeEEEEE@Base 1.1.0
 _ZN13icalendar_2_013TzidParamTypeC1ERKS0_N3xsd3cxx4tree5flagsEPNS5_5_typeE@Base 1.1.0
 _ZN13icalendar_2_013TzidParamTypeC2ERKN11xercesc_3_110DOMElementEN3xsd3cxx4tree5flagsEPNS7_5_typeE@Base 1.1.0
 _ZN13icalendar_2_013TzidParamTypeC2ERKN3xsd3cxx4tree6stringIcNS3_11simple_typeIcNS3_5_typeEEEEE@Base 1.1.0
 _ZN13icalendar_2_013TzidParamTypeC2ERKS0_N3xsd3cxx4tree5flagsEPNS5_5_typeE@Base 1.1.0
 _ZN13icalendar_2_013TzidParamTypeD0Ev@Base 1.1.0
 _ZN13icalendar_2_013TzidParamTypeD1Ev@Base 1.1.0
 _ZN13icalendar_2_013TzidParamTypeD2Ev@Base 1.1.0
 _ZN13icalendar_2_013TzurlPropTypeC1ERKN11xercesc_3_110DOMElementEN3xsd3cxx4tree5flagsEPNS7_5_typeE@Base 1.1.0
 _ZN13icalendar_2_013TzurlPropTypeC1ERKNS_7UriTypeE@Base 1.1.0
 _ZN13icalendar_2_013TzurlPropTypeC1ERKS0_N3xsd3cxx4tree5flagsEPNS5_5_typeE@Base 1.1.0
 _ZN13icalendar_2_013TzurlPropTypeC2ERKN11xercesc_3_110DOMElementEN3xsd3cxx4tree5flagsEPNS7_5_typeE@Base 1.1.0
 _ZN13icalendar_2_013TzurlPropTypeC2ERKNS_7UriTypeE@Base 1.1.0
 _ZN13icalendar_2_013TzurlPropTypeC2ERKS0_N3xsd3cxx4tree5flagsEPNS5_5_typeE@Base 1.1.0
 _ZN13icalendar_2_013TzurlPropTypeD0Ev@Base 1.1.0
 _ZN13icalendar_2_013TzurlPropTypeD1Ev@Base 1.1.0
 _ZN13icalendar_2_013TzurlPropTypeD2Ev@Base 1.1.0
 _ZN13icalendar_2_013UtcOffsetTypeC1EPKc@Base 1.1.0
 _ZN13icalendar_2_013UtcOffsetTypeC1ERKN11xercesc_3_110DOMElementEN3xsd3cxx4tree5flagsEPNS7_5_typeE@Base 1.1.0
 _ZN13icalendar_2_013UtcOffsetTypeC1ERKN11xercesc_3_17DOMAttrEN3xsd3cxx4tree5flagsEPNS7_5_typeE@Base 1.1.0
 _ZN13icalendar_2_013UtcOffsetTypeC1ERKN3xsd3cxx4tree6stringIcNS3_11simple_typeIcNS3_5_typeEEEEE@Base 1.1.0
 _ZN13icalendar_2_013UtcOffsetTypeC1ERKNSt7__cxx1112basic_stringIcSt11char_traitsIcESaIcEEE@Base 1.1.0
 _ZN13icalendar_2_013UtcOffsetTypeC1ERKNSt7__cxx1112basic_stringIcSt11char_traitsIcESaIcEEEPKN11xercesc_3_110DOMElementEN3xsd3cxx4tree5flagsEPNSF_5_typeE@Base 1.1.0
 _ZN13icalendar_2_013UtcOffsetTypeC1ERKS0_N3xsd3cxx4tree5flagsEPNS5_5_typeE@Base 1.1.0
 _ZN13icalendar_2_013UtcOffsetTypeC1Ev@Base 1.1.0
 _ZN13icalendar_2_013UtcOffsetTypeC2EPKc@Base 1.1.0
 _ZN13icalendar_2_013UtcOffsetTypeC2ERKN11xercesc_3_110DOMElementEN3xsd3cxx4tree5flagsEPNS7_5_typeE@Base 1.1.0
 _ZN13icalendar_2_013UtcOffsetTypeC2ERKN11xercesc_3_17DOMAttrEN3xsd3cxx4tree5flagsEPNS7_5_typeE@Base 1.1.0
 _ZN13icalendar_2_013UtcOffsetTypeC2ERKN3xsd3cxx4tree6stringIcNS3_11simple_typeIcNS3_5_typeEEEEE@Base 1.1.0
 _ZN13icalendar_2_013UtcOffsetTypeC2ERKNSt7__cxx1112basic_stringIcSt11char_traitsIcESaIcEEE@Base 1.1.0
 _ZN13icalendar_2_013UtcOffsetTypeC2ERKNSt7__cxx1112basic_stringIcSt11char_traitsIcESaIcEEEPKN11xercesc_3_110DOMElementEN3xsd3cxx4tree5flagsEPNSF_5_typeE@Base 1.1.0
 _ZN13icalendar_2_013UtcOffsetTypeC2ERKS0_N3xsd3cxx4tree5flagsEPNS5_5_typeE@Base 1.1.0
 _ZN13icalendar_2_013UtcOffsetTypeC2Ev@Base 1.1.0
 _ZN13icalendar_2_013UtcOffsetTypeD0Ev@Base 1.1.0
 _ZN13icalendar_2_013UtcOffsetTypeD1Ev@Base 1.1.0
 _ZN13icalendar_2_013UtcOffsetTypeD2Ev@Base 1.1.0
 _ZN13icalendar_2_013VcalendarType10componentsERKNS_11components1E@Base 1.1.0
 _ZN13icalendar_2_013VcalendarType10componentsESt8auto_ptrINS_11components1EE@Base 1.1.0
 _ZN13icalendar_2_013VcalendarType10componentsEv@Base 1.1.0
 _ZN13icalendar_2_013VcalendarType10propertiesERKNS_11properties5E@Base 1.1.0
 _ZN13icalendar_2_013VcalendarType10propertiesESt8auto_ptrINS_11properties5EE@Base 1.1.0
 _ZN13icalendar_2_013VcalendarType10propertiesEv@Base 1.1.0
 _ZN13icalendar_2_013VcalendarType5parseERN3xsd3cxx3xml3dom6parserIcEENS2_4tree5flagsE@Base 1.1.0
 _ZN13icalendar_2_013VcalendarTypeC1ERKN11xercesc_3_110DOMElementEN3xsd3cxx4tree5flagsEPNS7_5_typeE@Base 1.1.0
 _ZN13icalendar_2_013VcalendarTypeC1ERKNS_11properties5ERKNS_11components1E@Base 1.1.0
 _ZN13icalendar_2_013VcalendarTypeC1ERKS0_N3xsd3cxx4tree5flagsEPNS5_5_typeE@Base 1.1.0
 _ZN13icalendar_2_013VcalendarTypeC1ESt8auto_ptrINS_11properties5EES1_INS_11components1EE@Base 1.1.0
 _ZN13icalendar_2_013VcalendarTypeC2ERKN11xercesc_3_110DOMElementEN3xsd3cxx4tree5flagsEPNS7_5_typeE@Base 1.1.0
 _ZN13icalendar_2_013VcalendarTypeC2ERKNS_11properties5ERKNS_11components1E@Base 1.1.0
 _ZN13icalendar_2_013VcalendarTypeC2ERKS0_N3xsd3cxx4tree5flagsEPNS5_5_typeE@Base 1.1.0
 _ZN13icalendar_2_013VcalendarTypeC2ESt8auto_ptrINS_11properties5EES1_INS_11components1EE@Base 1.1.0
 _ZN13icalendar_2_013VcalendarTypeD0Ev@Base 1.1.0
 _ZN13icalendar_2_013VcalendarTypeD1Ev@Base 1.1.0
 _ZN13icalendar_2_013VcalendarTypeD2Ev@Base 1.1.0
 _ZN13icalendar_2_013VcalendarTypeaSERKS0_@Base 1.1.0
 _ZN13icalendar_2_013XuidParamTypeC1ERKN11xercesc_3_110DOMElementEN3xsd3cxx4tree5flagsEPNS7_5_typeE@Base 1.1.0
 _ZN13icalendar_2_013XuidParamTypeC1ERKN3xsd3cxx4tree6stringIcNS3_11simple_typeIcNS3_5_typeEEEEE@Base 1.1.0
 _ZN13icalendar_2_013XuidParamTypeC1ERKS0_N3xsd3cxx4tree5flagsEPNS5_5_typeE@Base 1.1.0
 _ZN13icalendar_2_013XuidParamTypeC2ERKN11xercesc_3_110DOMElementEN3xsd3cxx4tree5flagsEPNS7_5_typeE@Base 1.1.0
 _ZN13icalendar_2_013XuidParamTypeC2ERKN3xsd3cxx4tree6stringIcNS3_11simple_typeIcNS3_5_typeEEEEE@Base 1.1.0
 _ZN13icalendar_2_013XuidParamTypeC2ERKS0_N3xsd3cxx4tree5flagsEPNS5_5_typeE@Base 1.1.0
 _ZN13icalendar_2_013XuidParamTypeD0Ev@Base 1.1.0
 _ZN13icalendar_2_013XuidParamTypeD1Ev@Base 1.1.0
 _ZN13icalendar_2_013XuidParamTypeD2Ev@Base 1.1.0
 _ZN13icalendar_2_014ActionPropTypeC1ERKN11xercesc_3_110DOMElementEN3xsd3cxx4tree5flagsEPNS7_5_typeE@Base 1.1.0
 _ZN13icalendar_2_014ActionPropTypeC1ERKN3xsd3cxx4tree6stringIcNS3_11simple_typeIcNS3_5_typeEEEEE@Base 1.1.0
 _ZN13icalendar_2_014ActionPropTypeC1ERKS0_N3xsd3cxx4tree5flagsEPNS5_5_typeE@Base 1.1.0
 _ZN13icalendar_2_014ActionPropTypeC2ERKN11xercesc_3_110DOMElementEN3xsd3cxx4tree5flagsEPNS7_5_typeE@Base 1.1.0
 _ZN13icalendar_2_014ActionPropTypeC2ERKN3xsd3cxx4tree6stringIcNS3_11simple_typeIcNS3_5_typeEEEEE@Base 1.1.0
 _ZN13icalendar_2_014ActionPropTypeC2ERKS0_N3xsd3cxx4tree5flagsEPNS5_5_typeE@Base 1.1.0
 _ZN13icalendar_2_014ActionPropTypeD0Ev@Base 1.1.0
 _ZN13icalendar_2_014ActionPropTypeD1Ev@Base 1.1.0
 _ZN13icalendar_2_014ActionPropTypeD2Ev@Base 1.1.0
 _ZN13icalendar_2_014AttachPropType3uriERKN3xsd3cxx4tree8optionalINS_7UriTypeELb0EEE@Base 1.1.0
 _ZN13icalendar_2_014AttachPropType3uriERKNS_7UriTypeE@Base 1.1.0
 _ZN13icalendar_2_014AttachPropType3uriESt8auto_ptrINS_7UriTypeEE@Base 1.1.0
 _ZN13icalendar_2_014AttachPropType3uriEv@Base 1.1.0
 _ZN13icalendar_2_014AttachPropType5parseERN3xsd3cxx3xml3dom6parserIcEENS2_4tree5flagsE@Base 1.1.0
 _ZN13icalendar_2_014AttachPropType6binaryERKN3xsd3cxx4tree6stringIcNS3_11simple_typeIcNS3_5_typeEEEEE@Base 1.1.0
 _ZN13icalendar_2_014AttachPropType6binaryERKN3xsd3cxx4tree8optionalINS3_6stringIcNS3_11simple_typeIcNS3_5_typeEEEEELb0EEE@Base 1.1.0
 _ZN13icalendar_2_014AttachPropType6binaryESt8auto_ptrIN3xsd3cxx4tree6stringIcNS4_11simple_typeIcNS4_5_typeEEEEEE@Base 1.1.0
 _ZN13icalendar_2_014AttachPropType6binaryEv@Base 1.1.0
 _ZN13icalendar_2_014AttachPropTypeC1ERKN11xercesc_3_110DOMElementEN3xsd3cxx4tree5flagsEPNS7_5_typeE@Base 1.1.0
 _ZN13icalendar_2_014AttachPropTypeC1ERKS0_N3xsd3cxx4tree5flagsEPNS5_5_typeE@Base 1.1.0
 _ZN13icalendar_2_014AttachPropTypeC1Ev@Base 1.1.0
 _ZN13icalendar_2_014AttachPropTypeC2ERKN11xercesc_3_110DOMElementEN3xsd3cxx4tree5flagsEPNS7_5_typeE@Base 1.1.0
 _ZN13icalendar_2_014AttachPropTypeC2ERKS0_N3xsd3cxx4tree5flagsEPNS5_5_typeE@Base 1.1.0
 _ZN13icalendar_2_014AttachPropTypeC2Ev@Base 1.1.0
 _ZN13icalendar_2_014AttachPropTypeD0Ev@Base 1.1.0
 _ZN13icalendar_2_014AttachPropTypeD1Ev@Base 1.1.0
 _ZN13icalendar_2_014AttachPropTypeD2Ev@Base 1.1.0
 _ZN13icalendar_2_014AttachPropTypeaSERKS0_@Base 1.1.0
 _ZN13icalendar_2_014BydayRecurTypeC1EPKc@Base 1.1.0
 _ZN13icalendar_2_014BydayRecurTypeC1ERKN11xercesc_3_110DOMElementEN3xsd3cxx4tree5flagsEPNS7_5_typeE@Base 1.1.0
 _ZN13icalendar_2_014BydayRecurTypeC1ERKN11xercesc_3_17DOMAttrEN3xsd3cxx4tree5flagsEPNS7_5_typeE@Base 1.1.0
 _ZN13icalendar_2_014BydayRecurTypeC1ERKN3xsd3cxx4tree6stringIcNS3_11simple_typeIcNS3_5_typeEEEEE@Base 1.1.0
 _ZN13icalendar_2_014BydayRecurTypeC1ERKNSt7__cxx1112basic_stringIcSt11char_traitsIcESaIcEEE@Base 1.1.0
 _ZN13icalendar_2_014BydayRecurTypeC1ERKNSt7__cxx1112basic_stringIcSt11char_traitsIcESaIcEEEPKN11xercesc_3_110DOMElementEN3xsd3cxx4tree5flagsEPNSF_5_typeE@Base 1.1.0
 _ZN13icalendar_2_014BydayRecurTypeC1ERKS0_N3xsd3cxx4tree5flagsEPNS5_5_typeE@Base 1.1.0
 _ZN13icalendar_2_014BydayRecurTypeC1Ev@Base 1.1.0
 _ZN13icalendar_2_014BydayRecurTypeC2EPKc@Base 1.1.0
 _ZN13icalendar_2_014BydayRecurTypeC2ERKN11xercesc_3_110DOMElementEN3xsd3cxx4tree5flagsEPNS7_5_typeE@Base 1.1.0
 _ZN13icalendar_2_014BydayRecurTypeC2ERKN11xercesc_3_17DOMAttrEN3xsd3cxx4tree5flagsEPNS7_5_typeE@Base 1.1.0
 _ZN13icalendar_2_014BydayRecurTypeC2ERKN3xsd3cxx4tree6stringIcNS3_11simple_typeIcNS3_5_typeEEEEE@Base 1.1.0
 _ZN13icalendar_2_014BydayRecurTypeC2ERKNSt7__cxx1112basic_stringIcSt11char_traitsIcESaIcEEE@Base 1.1.0
 _ZN13icalendar_2_014BydayRecurTypeC2ERKNSt7__cxx1112basic_stringIcSt11char_traitsIcESaIcEEEPKN11xercesc_3_110DOMElementEN3xsd3cxx4tree5flagsEPNSF_5_typeE@Base 1.1.0
 _ZN13icalendar_2_014BydayRecurTypeC2ERKS0_N3xsd3cxx4tree5flagsEPNS5_5_typeE@Base 1.1.0
 _ZN13icalendar_2_014BydayRecurTypeC2Ev@Base 1.1.0
 _ZN13icalendar_2_014BydayRecurTypeD0Ev@Base 1.1.0
 _ZN13icalendar_2_014BydayRecurTypeD1Ev@Base 1.1.0
 _ZN13icalendar_2_014BydayRecurTypeD2Ev@Base 1.1.0
 _ZN13icalendar_2_014CalAddressTypeC1EPKc@Base 1.1.0
 _ZN13icalendar_2_014CalAddressTypeC1ERKN11xercesc_3_110DOMElementEN3xsd3cxx4tree5flagsEPNS7_5_typeE@Base 1.1.0
 _ZN13icalendar_2_014CalAddressTypeC1ERKN11xercesc_3_17DOMAttrEN3xsd3cxx4tree5flagsEPNS7_5_typeE@Base 1.1.0
 _ZN13icalendar_2_014CalAddressTypeC1ERKN3xsd3cxx4tree6stringIcNS3_11simple_typeIcNS3_5_typeEEEEE@Base 1.1.0
 _ZN13icalendar_2_014CalAddressTypeC1ERKNSt7__cxx1112basic_stringIcSt11char_traitsIcESaIcEEE@Base 1.1.0
 _ZN13icalendar_2_014CalAddressTypeC1ERKNSt7__cxx1112basic_stringIcSt11char_traitsIcESaIcEEEPKN11xercesc_3_110DOMElementEN3xsd3cxx4tree5flagsEPNSF_5_typeE@Base 1.1.0
 _ZN13icalendar_2_014CalAddressTypeC1ERKS0_N3xsd3cxx4tree5flagsEPNS5_5_typeE@Base 1.1.0
 _ZN13icalendar_2_014CalAddressTypeC1Ev@Base 1.1.0
 _ZN13icalendar_2_014CalAddressTypeC2EPKc@Base 1.1.0
 _ZN13icalendar_2_014CalAddressTypeC2ERKN11xercesc_3_110DOMElementEN3xsd3cxx4tree5flagsEPNS7_5_typeE@Base 1.1.0
 _ZN13icalendar_2_014CalAddressTypeC2ERKN11xercesc_3_17DOMAttrEN3xsd3cxx4tree5flagsEPNS7_5_typeE@Base 1.1.0
 _ZN13icalendar_2_014CalAddressTypeC2ERKN3xsd3cxx4tree6stringIcNS3_11simple_typeIcNS3_5_typeEEEEE@Base 1.1.0
 _ZN13icalendar_2_014CalAddressTypeC2ERKNSt7__cxx1112basic_stringIcSt11char_traitsIcESaIcEEE@Base 1.1.0
 _ZN13icalendar_2_014CalAddressTypeC2ERKNSt7__cxx1112basic_stringIcSt11char_traitsIcESaIcEEEPKN11xercesc_3_110DOMElementEN3xsd3cxx4tree5flagsEPNSF_5_typeE@Base 1.1.0
 _ZN13icalendar_2_014CalAddressTypeC2ERKS0_N3xsd3cxx4tree5flagsEPNS5_5_typeE@Base 1.1.0
 _ZN13icalendar_2_014CalAddressTypeC2Ev@Base 1.1.0
 _ZN13icalendar_2_014CalAddressTypeD0Ev@Base 1.1.0
 _ZN13icalendar_2_014CalAddressTypeD1Ev@Base 1.1.0
 _ZN13icalendar_2_014CalAddressTypeD2Ev@Base 1.1.0
 _ZN13icalendar_2_014ExdatePropType4dateERKN3xsd3cxx4tree8sequenceINS3_4dateIcNS3_11simple_typeIcNS3_5_typeEEEEELb0EEE@Base 1.1.0
 _ZN13icalendar_2_014ExdatePropType4dateEv@Base 1.1.0
 _ZN13icalendar_2_014ExdatePropType5parseERN3xsd3cxx3xml3dom6parserIcEENS2_4tree5flagsE@Base 1.1.0
 _ZN13icalendar_2_014ExdatePropType9date_timeERKN3xsd3cxx4tree8sequenceINS_12DateTimeTypeELb0EEE@Base 1.1.0
 _ZN13icalendar_2_014ExdatePropType9date_timeEv@Base 1.1.0
 _ZN13icalendar_2_014ExdatePropTypeC1ERKN11xercesc_3_110DOMElementEN3xsd3cxx4tree5flagsEPNS7_5_typeE@Base 1.1.0
 _ZN13icalendar_2_014ExdatePropTypeC1ERKS0_N3xsd3cxx4tree5flagsEPNS5_5_typeE@Base 1.1.0
 _ZN13icalendar_2_014ExdatePropTypeC1Ev@Base 1.1.0
 _ZN13icalendar_2_014ExdatePropTypeC2ERKN11xercesc_3_110DOMElementEN3xsd3cxx4tree5flagsEPNS7_5_typeE@Base 1.1.0
 _ZN13icalendar_2_014ExdatePropTypeC2ERKS0_N3xsd3cxx4tree5flagsEPNS5_5_typeE@Base 1.1.0
 _ZN13icalendar_2_014ExdatePropTypeC2Ev@Base 1.1.0
 _ZN13icalendar_2_014ExdatePropTypeD0Ev@Base 1.1.0
 _ZN13icalendar_2_014ExdatePropTypeD1Ev@Base 1.1.0
 _ZN13icalendar_2_014ExdatePropTypeD2Ev@Base 1.1.0
 _ZN13icalendar_2_014ExdatePropTypeaSERKS0_@Base 1.1.0
 _ZN13icalendar_2_014ExrulePropTypeC1ERKN11xercesc_3_110DOMElementEN3xsd3cxx4tree5flagsEPNS7_5_typeE@Base 1.1.0
 _ZN13icalendar_2_014ExrulePropTypeC1ERKNS_9RecurTypeE@Base 1.1.0
 _ZN13icalendar_2_014ExrulePropTypeC1ERKS0_N3xsd3cxx4tree5flagsEPNS5_5_typeE@Base 1.1.0
 _ZN13icalendar_2_014ExrulePropTypeC1ESt8auto_ptrINS_9RecurTypeEE@Base 1.1.0
 _ZN13icalendar_2_014ExrulePropTypeC2ERKN11xercesc_3_110DOMElementEN3xsd3cxx4tree5flagsEPNS7_5_typeE@Base 1.1.0
 _ZN13icalendar_2_014ExrulePropTypeC2ERKNS_9RecurTypeE@Base 1.1.0
 _ZN13icalendar_2_014ExrulePropTypeC2ERKS0_N3xsd3cxx4tree5flagsEPNS5_5_typeE@Base 1.1.0
 _ZN13icalendar_2_014ExrulePropTypeC2ESt8auto_ptrINS_9RecurTypeEE@Base 1.1.0
 _ZN13icalendar_2_014ExrulePropTypeD0Ev@Base 1.1.0
 _ZN13icalendar_2_014ExrulePropTypeD1Ev@Base 1.1.0
 _ZN13icalendar_2_014ExrulePropTypeD2Ev@Base 1.1.0
 _ZN13icalendar_2_014MethodPropTypeC1ERKN11xercesc_3_110DOMElementEN3xsd3cxx4tree5flagsEPNS7_5_typeE@Base 1.1.0
 _ZN13icalendar_2_014MethodPropTypeC1ERKN3xsd3cxx4tree6stringIcNS3_11simple_typeIcNS3_5_typeEEEEE@Base 1.1.0
 _ZN13icalendar_2_014MethodPropTypeC1ERKS0_N3xsd3cxx4tree5flagsEPNS5_5_typeE@Base 1.1.0
 _ZN13icalendar_2_014MethodPropTypeC2ERKN11xercesc_3_110DOMElementEN3xsd3cxx4tree5flagsEPNS7_5_typeE@Base 1.1.0
 _ZN13icalendar_2_014MethodPropTypeC2ERKN3xsd3cxx4tree6stringIcNS3_11simple_typeIcNS3_5_typeEEEEE@Base 1.1.0
 _ZN13icalendar_2_014MethodPropTypeC2ERKS0_N3xsd3cxx4tree5flagsEPNS5_5_typeE@Base 1.1.0
 _ZN13icalendar_2_014MethodPropTypeD0Ev@Base 1.1.0
 _ZN13icalendar_2_014MethodPropTypeD1Ev@Base 1.1.0
 _ZN13icalendar_2_014MethodPropTypeD2Ev@Base 1.1.0
 _ZN13icalendar_2_014ProdidPropTypeC1ERKN11xercesc_3_110DOMElementEN3xsd3cxx4tree5flagsEPNS7_5_typeE@Base 1.1.0
 _ZN13icalendar_2_014ProdidPropTypeC1ERKN3xsd3cxx4tree6stringIcNS3_11simple_typeIcNS3_5_typeEEEEE@Base 1.1.0
 _ZN13icalendar_2_014ProdidPropTypeC1ERKS0_N3xsd3cxx4tree5flagsEPNS5_5_typeE@Base 1.1.0
 _ZN13icalendar_2_014ProdidPropTypeC2ERKN11xercesc_3_110DOMElementEN3xsd3cxx4tree5flagsEPNS7_5_typeE@Base 1.1.0
 _ZN13icalendar_2_014ProdidPropTypeC2ERKN3xsd3cxx4tree6stringIcNS3_11simple_typeIcNS3_5_typeEEEEE@Base 1.1.0
 _ZN13icalendar_2_014ProdidPropTypeC2ERKS0_N3xsd3cxx4tree5flagsEPNS5_5_typeE@Base 1.1.0
 _ZN13icalendar_2_014ProdidPropTypeD0Ev@Base 1.1.0
 _ZN13icalendar_2_014ProdidPropTypeD1Ev@Base 1.1.0
 _ZN13icalendar_2_014ProdidPropTypeD2Ev@Base 1.1.0
 _ZN13icalendar_2_014RangeParamType4textERKNS_14RangeValueTypeE@Base 1.1.0
 _ZN13icalendar_2_014RangeParamType4textESt8auto_ptrINS_14RangeValueTypeEE@Base 1.1.0
 _ZN13icalendar_2_014RangeParamType4textEv@Base 1.1.0
 _ZN13icalendar_2_014RangeParamType5parseERN3xsd3cxx3xml3dom6parserIcEENS2_4tree5flagsE@Base 1.1.0
 _ZN13icalendar_2_014RangeParamTypeC1ERKN11xercesc_3_110DOMElementEN3xsd3cxx4tree5flagsEPNS7_5_typeE@Base 1.1.0
 _ZN13icalendar_2_014RangeParamTypeC1ERKNS_14RangeValueTypeE@Base 1.1.0
 _ZN13icalendar_2_014RangeParamTypeC1ERKS0_N3xsd3cxx4tree5flagsEPNS5_5_typeE@Base 1.1.0
 _ZN13icalendar_2_014RangeParamTypeC2ERKN11xercesc_3_110DOMElementEN3xsd3cxx4tree5flagsEPNS7_5_typeE@Base 1.1.0
 _ZN13icalendar_2_014RangeParamTypeC2ERKNS_14RangeValueTypeE@Base 1.1.0
 _ZN13icalendar_2_014RangeParamTypeC2ERKS0_N3xsd3cxx4tree5flagsEPNS5_5_typeE@Base 1.1.0
 _ZN13icalendar_2_014RangeParamTypeD0Ev@Base 1.1.0
 _ZN13icalendar_2_014RangeParamTypeD1Ev@Base 1.1.0
 _ZN13icalendar_2_014RangeParamTypeD2Ev@Base 1.1.0
 _ZN13icalendar_2_014RangeParamTypeaSERKS0_@Base 1.1.0
 _ZN13icalendar_2_014RangeValueType28_xsd_RangeValueType_indexes_E@Base 1.1.0
 _ZN13icalendar_2_014RangeValueType29_xsd_RangeValueType_literals_E@Base 1.1.0
 _ZN13icalendar_2_014RangeValueTypeC1ENS0_5valueE@Base 1.1.0
 _ZN13icalendar_2_014RangeValueTypeC1EPKc@Base 1.1.0
 _ZN13icalendar_2_014RangeValueTypeC1ERKN11xercesc_3_110DOMElementEN3xsd3cxx4tree5flagsEPNS7_5_typeE@Base 1.1.0
 _ZN13icalendar_2_014RangeValueTypeC1ERKN11xercesc_3_17DOMAttrEN3xsd3cxx4tree5flagsEPNS7_5_typeE@Base 1.1.0
 _ZN13icalendar_2_014RangeValueTypeC1ERKN3xsd3cxx4tree5tokenIcNS3_17normalized_stringIcNS3_6stringIcNS3_11simple_typeIcNS3_5_typeEEEEEEEEE@Base 1.1.0
 _ZN13icalendar_2_014RangeValueTypeC1ERKNSt7__cxx1112basic_stringIcSt11char_traitsIcESaIcEEE@Base 1.1.0
 _ZN13icalendar_2_014RangeValueTypeC1ERKNSt7__cxx1112basic_stringIcSt11char_traitsIcESaIcEEEPKN11xercesc_3_110DOMElementEN3xsd3cxx4tree5flagsEPNSF_5_typeE@Base 1.1.0
 _ZN13icalendar_2_014RangeValueTypeC1ERKS0_N3xsd3cxx4tree5flagsEPNS5_5_typeE@Base 1.1.0
 _ZN13icalendar_2_014RangeValueTypeC2ENS0_5valueE@Base 1.1.0
 _ZN13icalendar_2_014RangeValueTypeC2EPKc@Base 1.1.0
 _ZN13icalendar_2_014RangeValueTypeC2ERKN11xercesc_3_110DOMElementEN3xsd3cxx4tree5flagsEPNS7_5_typeE@Base 1.1.0
 _ZN13icalendar_2_014RangeValueTypeC2ERKN11xercesc_3_17DOMAttrEN3xsd3cxx4tree5flagsEPNS7_5_typeE@Base 1.1.0
 _ZN13icalendar_2_014RangeValueTypeC2ERKN3xsd3cxx4tree5tokenIcNS3_17normalized_stringIcNS3_6stringIcNS3_11simple_typeIcNS3_5_typeEEEEEEEEE@Base 1.1.0
 _ZN13icalendar_2_014RangeValueTypeC2ERKNSt7__cxx1112basic_stringIcSt11char_traitsIcESaIcEEE@Base 1.1.0
 _ZN13icalendar_2_014RangeValueTypeC2ERKNSt7__cxx1112basic_stringIcSt11char_traitsIcESaIcEEEPKN11xercesc_3_110DOMElementEN3xsd3cxx4tree5flagsEPNSF_5_typeE@Base 1.1.0
 _ZN13icalendar_2_014RangeValueTypeC2ERKS0_N3xsd3cxx4tree5flagsEPNS5_5_typeE@Base 1.1.0
 _ZN13icalendar_2_014RangeValueTypeD0Ev@Base 1.1.0
 _ZN13icalendar_2_014RangeValueTypeD1Ev@Base 1.1.0
 _ZN13icalendar_2_014RangeValueTypeD2Ev@Base 1.1.0
 _ZN13icalendar_2_014RangeValueTypeaSENS0_5valueE@Base 1.1.0
 _ZN13icalendar_2_014RepeatPropTypeC1ERKN11xercesc_3_110DOMElementEN3xsd3cxx4tree5flagsEPNS7_5_typeE@Base 1.1.0
 _ZN13icalendar_2_014RepeatPropTypeC1ERKS0_N3xsd3cxx4tree5flagsEPNS5_5_typeE@Base 1.1.0
 _ZN13icalendar_2_014RepeatPropTypeC1ERKx@Base 1.1.0
 _ZN13icalendar_2_014RepeatPropTypeC2ERKN11xercesc_3_110DOMElementEN3xsd3cxx4tree5flagsEPNS7_5_typeE@Base 1.1.0
 _ZN13icalendar_2_014RepeatPropTypeC2ERKS0_N3xsd3cxx4tree5flagsEPNS5_5_typeE@Base 1.1.0
 _ZN13icalendar_2_014RepeatPropTypeC2ERKx@Base 1.1.0
 _ZN13icalendar_2_014RepeatPropTypeD0Ev@Base 1.1.0
 _ZN13icalendar_2_014RepeatPropTypeD1Ev@Base 1.1.0
 _ZN13icalendar_2_014RepeatPropTypeD2Ev@Base 1.1.0
 _ZN13icalendar_2_014StatusPropTypeC1ERKN11xercesc_3_110DOMElementEN3xsd3cxx4tree5flagsEPNS7_5_typeE@Base 1.1.0
 _ZN13icalendar_2_014StatusPropTypeC1ERKN3xsd3cxx4tree6stringIcNS3_11simple_typeIcNS3_5_typeEEEEE@Base 1.1.0
 _ZN13icalendar_2_014StatusPropTypeC1ERKS0_N3xsd3cxx4tree5flagsEPNS5_5_typeE@Base 1.1.0
 _ZN13icalendar_2_014StatusPropTypeC2ERKN11xercesc_3_110DOMElementEN3xsd3cxx4tree5flagsEPNS7_5_typeE@Base 1.1.0
 _ZN13icalendar_2_014StatusPropTypeC2ERKN3xsd3cxx4tree6stringIcNS3_11simple_typeIcNS3_5_typeEEEEE@Base 1.1.0
 _ZN13icalendar_2_014StatusPropTypeC2ERKS0_N3xsd3cxx4tree5flagsEPNS5_5_typeE@Base 1.1.0
 _ZN13icalendar_2_014StatusPropTypeD0Ev@Base 1.1.0
 _ZN13icalendar_2_014StatusPropTypeD1Ev@Base 1.1.0
 _ZN13icalendar_2_014StatusPropTypeD2Ev@Base 1.1.0
 _ZN13icalendar_2_014TranspPropTypeC1ERKN11xercesc_3_110DOMElementEN3xsd3cxx4tree5flagsEPNS7_5_typeE@Base 1.1.0
 _ZN13icalendar_2_014TranspPropTypeC1ERKN3xsd3cxx4tree6stringIcNS3_11simple_typeIcNS3_5_typeEEEEE@Base 1.1.0
 _ZN13icalendar_2_014TranspPropTypeC1ERKS0_N3xsd3cxx4tree5flagsEPNS5_5_typeE@Base 1.1.0
 _ZN13icalendar_2_014TranspPropTypeC2ERKN11xercesc_3_110DOMElementEN3xsd3cxx4tree5flagsEPNS7_5_typeE@Base 1.1.0
 _ZN13icalendar_2_014TranspPropTypeC2ERKN3xsd3cxx4tree6stringIcNS3_11simple_typeIcNS3_5_typeEEEEE@Base 1.1.0
 _ZN13icalendar_2_014TranspPropTypeC2ERKS0_N3xsd3cxx4tree5flagsEPNS5_5_typeE@Base 1.1.0
 _ZN13icalendar_2_014TranspPropTypeD0Ev@Base 1.1.0
 _ZN13icalendar_2_014TranspPropTypeD1Ev@Base 1.1.0
 _ZN13icalendar_2_014TranspPropTypeD2Ev@Base 1.1.0
 _ZN13icalendar_2_014TznamePropTypeC1ERKN11xercesc_3_110DOMElementEN3xsd3cxx4tree5flagsEPNS7_5_typeE@Base 1.1.0
 _ZN13icalendar_2_014TznamePropTypeC1ERKN3xsd3cxx4tree6stringIcNS3_11simple_typeIcNS3_5_typeEEEEE@Base 1.1.0
 _ZN13icalendar_2_014TznamePropTypeC1ERKS0_N3xsd3cxx4tree5flagsEPNS5_5_typeE@Base 1.1.0
 _ZN13icalendar_2_014TznamePropTypeC2ERKN11xercesc_3_110DOMElementEN3xsd3cxx4tree5flagsEPNS7_5_typeE@Base 1.1.0
 _ZN13icalendar_2_014TznamePropTypeC2ERKN3xsd3cxx4tree6stringIcNS3_11simple_typeIcNS3_5_typeEEEEE@Base 1.1.0
 _ZN13icalendar_2_014TznamePropTypeC2ERKS0_N3xsd3cxx4tree5flagsEPNS5_5_typeE@Base 1.1.0
 _ZN13icalendar_2_014TznamePropTypeD0Ev@Base 1.1.0
 _ZN13icalendar_2_014TznamePropTypeD1Ev@Base 1.1.0
 _ZN13icalendar_2_014TznamePropTypeD2Ev@Base 1.1.0
 _ZN13icalendar_2_014UntilRecurType4dateERKN3xsd3cxx4tree4dateIcNS3_11simple_typeIcNS3_5_typeEEEEE@Base 1.1.0
 _ZN13icalendar_2_014UntilRecurType4dateERKN3xsd3cxx4tree8optionalINS3_4dateIcNS3_11simple_typeIcNS3_5_typeEEEEELb0EEE@Base 1.1.0
 _ZN13icalendar_2_014UntilRecurType4dateESt8auto_ptrIN3xsd3cxx4tree4dateIcNS4_11simple_typeIcNS4_5_typeEEEEEE@Base 1.1.0
 _ZN13icalendar_2_014UntilRecurType4dateEv@Base 1.1.0
 _ZN13icalendar_2_014UntilRecurType5parseERN3xsd3cxx3xml3dom6parserIcEENS2_4tree5flagsE@Base 1.1.0
 _ZN13icalendar_2_014UntilRecurType9date_timeERKN3xsd3cxx4tree8optionalINS_12DateTimeTypeELb0EEE@Base 1.1.0
 _ZN13icalendar_2_014UntilRecurType9date_timeERKNS_12DateTimeTypeE@Base 1.1.0
 _ZN13icalendar_2_014UntilRecurType9date_timeESt8auto_ptrINS_12DateTimeTypeEE@Base 1.1.0
 _ZN13icalendar_2_014UntilRecurType9date_timeEv@Base 1.1.0
 _ZN13icalendar_2_014UntilRecurTypeC1ERKN11xercesc_3_110DOMElementEN3xsd3cxx4tree5flagsEPNS7_5_typeE@Base 1.1.0
 _ZN13icalendar_2_014UntilRecurTypeC1ERKS0_N3xsd3cxx4tree5flagsEPNS5_5_typeE@Base 1.1.0
 _ZN13icalendar_2_014UntilRecurTypeC1Ev@Base 1.1.0
 _ZN13icalendar_2_014UntilRecurTypeC2ERKN11xercesc_3_110DOMElementEN3xsd3cxx4tree5flagsEPNS7_5_typeE@Base 1.1.0
 _ZN13icalendar_2_014UntilRecurTypeC2ERKS0_N3xsd3cxx4tree5flagsEPNS5_5_typeE@Base 1.1.0
 _ZN13icalendar_2_014UntilRecurTypeC2Ev@Base 1.1.0
 _ZN13icalendar_2_014UntilRecurTypeD0Ev@Base 1.1.0
 _ZN13icalendar_2_014UntilRecurTypeD1Ev@Base 1.1.0
 _ZN13icalendar_2_014UntilRecurTypeD2Ev@Base 1.1.0
 _ZN13icalendar_2_014UntilRecurTypeaSERKS0_@Base 1.1.0
 _ZN13icalendar_2_015AltrepParamTypeC1ERKN11xercesc_3_110DOMElementEN3xsd3cxx4tree5flagsEPNS7_5_typeE@Base 1.1.0
 _ZN13icalendar_2_015AltrepParamTypeC1ERKNS_7UriTypeE@Base 1.1.0
 _ZN13icalendar_2_015AltrepParamTypeC1ERKS0_N3xsd3cxx4tree5flagsEPNS5_5_typeE@Base 1.1.0
 _ZN13icalendar_2_015AltrepParamTypeC2ERKN11xercesc_3_110DOMElementEN3xsd3cxx4tree5flagsEPNS7_5_typeE@Base 1.1.0
 _ZN13icalendar_2_015AltrepParamTypeC2ERKNS_7UriTypeE@Base 1.1.0
 _ZN13icalendar_2_015AltrepParamTypeC2ERKS0_N3xsd3cxx4tree5flagsEPNS5_5_typeE@Base 1.1.0
 _ZN13icalendar_2_015AltrepParamTypeD0Ev@Base 1.1.0
 _ZN13icalendar_2_015AltrepParamTypeD1Ev@Base 1.1.0
 _ZN13icalendar_2_015AltrepParamTypeD2Ev@Base 1.1.0
 _ZN13icalendar_2_015ByhourRecurTypeC1ERKN11xercesc_3_110DOMElementEN3xsd3cxx4tree5flagsEPNS7_5_typeE@Base 1.1.0
 _ZN13icalendar_2_015ByhourRecurTypeC1ERKN11xercesc_3_17DOMAttrEN3xsd3cxx4tree5flagsEPNS7_5_typeE@Base 1.1.0
 _ZN13icalendar_2_015ByhourRecurTypeC1ERKNSt7__cxx1112basic_stringIcSt11char_traitsIcESaIcEEEPKN11xercesc_3_110DOMElementEN3xsd3cxx4tree5flagsEPNSF_5_typeE@Base 1.1.0
 _ZN13icalendar_2_015ByhourRecurTypeC1ERKS0_N3xsd3cxx4tree5flagsEPNS5_5_typeE@Base 1.1.0
 _ZN13icalendar_2_015ByhourRecurTypeC1ERKy@Base 1.1.0
 _ZN13icalendar_2_015ByhourRecurTypeC2ERKN11xercesc_3_110DOMElementEN3xsd3cxx4tree5flagsEPNS7_5_typeE@Base 1.1.0
 _ZN13icalendar_2_015ByhourRecurTypeC2ERKN11xercesc_3_17DOMAttrEN3xsd3cxx4tree5flagsEPNS7_5_typeE@Base 1.1.0
 _ZN13icalendar_2_015ByhourRecurTypeC2ERKNSt7__cxx1112basic_stringIcSt11char_traitsIcESaIcEEEPKN11xercesc_3_110DOMElementEN3xsd3cxx4tree5flagsEPNSF_5_typeE@Base 1.1.0
 _ZN13icalendar_2_015ByhourRecurTypeC2ERKS0_N3xsd3cxx4tree5flagsEPNS5_5_typeE@Base 1.1.0
 _ZN13icalendar_2_015ByhourRecurTypeC2ERKy@Base 1.1.0
 _ZN13icalendar_2_015ByhourRecurTypeD0Ev@Base 1.1.0
 _ZN13icalendar_2_015ByhourRecurTypeD1Ev@Base 1.1.0
 _ZN13icalendar_2_015ByhourRecurTypeD2Ev@Base 1.1.0
 _ZN13icalendar_2_015CommentPropTypeC1ERKN11xercesc_3_110DOMElementEN3xsd3cxx4tree5flagsEPNS7_5_typeE@Base 1.1.0
 _ZN13icalendar_2_015CommentPropTypeC1ERKN3xsd3cxx4tree6stringIcNS3_11simple_typeIcNS3_5_typeEEEEE@Base 1.1.0
 _ZN13icalendar_2_015CommentPropTypeC1ERKS0_N3xsd3cxx4tree5flagsEPNS5_5_typeE@Base 1.1.0
 _ZN13icalendar_2_015CommentPropTypeC2ERKN11xercesc_3_110DOMElementEN3xsd3cxx4tree5flagsEPNS7_5_typeE@Base 1.1.0
 _ZN13icalendar_2_015CommentPropTypeC2ERKN3xsd3cxx4tree6stringIcNS3_11simple_typeIcNS3_5_typeEEEEE@Base 1.1.0
 _ZN13icalendar_2_015CommentPropTypeC2ERKS0_N3xsd3cxx4tree5flagsEPNS5_5_typeE@Base 1.1.0
 _ZN13icalendar_2_015CommentPropTypeD0Ev@Base 1.1.0
 _ZN13icalendar_2_015CommentPropTypeD1Ev@Base 1.1.0
 _ZN13icalendar_2_015CommentPropTypeD2Ev@Base 1.1.0
 _ZN13icalendar_2_015ContactPropTypeC1ERKN11xercesc_3_110DOMElementEN3xsd3cxx4tree5flagsEPNS7_5_typeE@Base 1.1.0
 _ZN13icalendar_2_015ContactPropTypeC1ERKN3xsd3cxx4tree6stringIcNS3_11simple_typeIcNS3_5_typeEEEEE@Base 1.1.0
 _ZN13icalendar_2_015ContactPropTypeC1ERKS0_N3xsd3cxx4tree5flagsEPNS5_5_typeE@Base 1.1.0
 _ZN13icalendar_2_015ContactPropTypeC2ERKN11xercesc_3_110DOMElementEN3xsd3cxx4tree5flagsEPNS7_5_typeE@Base 1.1.0
 _ZN13icalendar_2_015ContactPropTypeC2ERKN3xsd3cxx4tree6stringIcNS3_11simple_typeIcNS3_5_typeEEEEE@Base 1.1.0
 _ZN13icalendar_2_015ContactPropTypeC2ERKS0_N3xsd3cxx4tree5flagsEPNS5_5_typeE@Base 1.1.0
 _ZN13icalendar_2_015ContactPropTypeD0Ev@Base 1.1.0
 _ZN13icalendar_2_015ContactPropTypeD1Ev@Base 1.1.0
 _ZN13icalendar_2_015ContactPropTypeD2Ev@Base 1.1.0
 _ZN13icalendar_2_015CreatedPropTypeC1ERKN11xercesc_3_110DOMElementEN3xsd3cxx4tree5flagsEPNS7_5_typeE@Base 1.1.0
 _ZN13icalendar_2_015CreatedPropTypeC1ERKS0_N3xsd3cxx4tree5flagsEPNS5_5_typeE@Base 1.1.0
 _ZN13icalendar_2_015CreatedPropTypeC1Ev@Base 1.1.0
 _ZN13icalendar_2_015CreatedPropTypeC2ERKN11xercesc_3_110DOMElementEN3xsd3cxx4tree5flagsEPNS7_5_typeE@Base 1.1.0
 _ZN13icalendar_2_015CreatedPropTypeC2ERKS0_N3xsd3cxx4tree5flagsEPNS5_5_typeE@Base 1.1.0
 _ZN13icalendar_2_015CreatedPropTypeC2Ev@Base 1.1.0
 _ZN13icalendar_2_015CreatedPropTypeD0Ev@Base 1.1.0
 _ZN13icalendar_2_015CreatedPropTypeD1Ev@Base 1.1.0
 _ZN13icalendar_2_015CreatedPropTypeD2Ev@Base 1.1.0
 _ZN13icalendar_2_015CutypeParamTypeC1ERKN11xercesc_3_110DOMElementEN3xsd3cxx4tree5flagsEPNS7_5_typeE@Base 1.1.0
 _ZN13icalendar_2_015CutypeParamTypeC1ERKN3xsd3cxx4tree6stringIcNS3_11simple_typeIcNS3_5_typeEEEEE@Base 1.1.0
 _ZN13icalendar_2_015CutypeParamTypeC1ERKS0_N3xsd3cxx4tree5flagsEPNS5_5_typeE@Base 1.1.0
 _ZN13icalendar_2_015CutypeParamTypeC2ERKN11xercesc_3_110DOMElementEN3xsd3cxx4tree5flagsEPNS7_5_typeE@Base 1.1.0
 _ZN13icalendar_2_015CutypeParamTypeC2ERKN3xsd3cxx4tree6stringIcNS3_11simple_typeIcNS3_5_typeEEEEE@Base 1.1.0
 _ZN13icalendar_2_015CutypeParamTypeC2ERKS0_N3xsd3cxx4tree5flagsEPNS5_5_typeE@Base 1.1.0
 _ZN13icalendar_2_015CutypeParamTypeD0Ev@Base 1.1.0
 _ZN13icalendar_2_015CutypeParamTypeD1Ev@Base 1.1.0
 _ZN13icalendar_2_015CutypeParamTypeD2Ev@Base 1.1.0
 _ZN13icalendar_2_015DtstampPropTypeC1ERKN11xercesc_3_110DOMElementEN3xsd3cxx4tree5flagsEPNS7_5_typeE@Base 1.1.0
 _ZN13icalendar_2_015DtstampPropTypeC1ERKS0_N3xsd3cxx4tree5flagsEPNS5_5_typeE@Base 1.1.0
 _ZN13icalendar_2_015DtstampPropTypeC1Ev@Base 1.1.0
 _ZN13icalendar_2_015DtstampPropTypeC2ERKN11xercesc_3_110DOMElementEN3xsd3cxx4tree5flagsEPNS7_5_typeE@Base 1.1.0
 _ZN13icalendar_2_015DtstampPropTypeC2ERKS0_N3xsd3cxx4tree5flagsEPNS5_5_typeE@Base 1.1.0
 _ZN13icalendar_2_015DtstampPropTypeC2Ev@Base 1.1.0
 _ZN13icalendar_2_015DtstampPropTypeD0Ev@Base 1.1.0
 _ZN13icalendar_2_015DtstampPropTypeD1Ev@Base 1.1.0
 _ZN13icalendar_2_015DtstampPropTypeD2Ev@Base 1.1.0
 _ZN13icalendar_2_015DtstartPropTypeC1ERKN11xercesc_3_110DOMElementEN3xsd3cxx4tree5flagsEPNS7_5_typeE@Base 1.1.0
 _ZN13icalendar_2_015DtstartPropTypeC1ERKS0_N3xsd3cxx4tree5flagsEPNS5_5_typeE@Base 1.1.0
 _ZN13icalendar_2_015DtstartPropTypeC1Ev@Base 1.1.0
 _ZN13icalendar_2_015DtstartPropTypeC2ERKN11xercesc_3_110DOMElementEN3xsd3cxx4tree5flagsEPNS7_5_typeE@Base 1.1.0
 _ZN13icalendar_2_015DtstartPropTypeC2ERKS0_N3xsd3cxx4tree5flagsEPNS5_5_typeE@Base 1.1.0
 _ZN13icalendar_2_015DtstartPropTypeC2Ev@Base 1.1.0
 _ZN13icalendar_2_015DtstartPropTypeD0Ev@Base 1.1.0
 _ZN13icalendar_2_015DtstartPropTypeD1Ev@Base 1.1.0
 _ZN13icalendar_2_015DtstartPropTypeD2Ev@Base 1.1.0
 _ZN13icalendar_2_015FbtypeParamTypeC1ERKN11xercesc_3_110DOMElementEN3xsd3cxx4tree5flagsEPNS7_5_typeE@Base 1.1.0
 _ZN13icalendar_2_015FbtypeParamTypeC1ERKN3xsd3cxx4tree6stringIcNS3_11simple_typeIcNS3_5_typeEEEEE@Base 1.1.0
 _ZN13icalendar_2_015FbtypeParamTypeC1ERKS0_N3xsd3cxx4tree5flagsEPNS5_5_typeE@Base 1.1.0
 _ZN13icalendar_2_015FbtypeParamTypeC2ERKN11xercesc_3_110DOMElementEN3xsd3cxx4tree5flagsEPNS7_5_typeE@Base 1.1.0
 _ZN13icalendar_2_015FbtypeParamTypeC2ERKN3xsd3cxx4tree6stringIcNS3_11simple_typeIcNS3_5_typeEEEEE@Base 1.1.0
 _ZN13icalendar_2_015FbtypeParamTypeC2ERKS0_N3xsd3cxx4tree5flagsEPNS5_5_typeE@Base 1.1.0
 _ZN13icalendar_2_015FbtypeParamTypeD0Ev@Base 1.1.0
 _ZN13icalendar_2_015FbtypeParamTypeD1Ev@Base 1.1.0
 _ZN13icalendar_2_015FbtypeParamTypeD2Ev@Base 1.1.0
 _ZN13icalendar_2_015MemberParamTypeC1ERKN11xercesc_3_110DOMElementEN3xsd3cxx4tree5flagsEPNS7_5_typeE@Base 1.1.0
 _ZN13icalendar_2_015MemberParamTypeC1ERKS0_N3xsd3cxx4tree5flagsEPNS5_5_typeE@Base 1.1.0
 _ZN13icalendar_2_015MemberParamTypeC1Ev@Base 1.1.0
 _ZN13icalendar_2_015MemberParamTypeC2ERKN11xercesc_3_110DOMElementEN3xsd3cxx4tree5flagsEPNS7_5_typeE@Base 1.1.0
 _ZN13icalendar_2_015MemberParamTypeC2ERKS0_N3xsd3cxx4tree5flagsEPNS5_5_typeE@Base 1.1.0
 _ZN13icalendar_2_015MemberParamTypeC2Ev@Base 1.1.0
 _ZN13icalendar_2_015MemberParamTypeD0Ev@Base 1.1.0
 _ZN13icalendar_2_015MemberParamTypeD1Ev@Base 1.1.0
 _ZN13icalendar_2_015MemberParamTypeD2Ev@Base 1.1.0
 _ZN13icalendar_2_015SentByParamTypeC1ERKN11xercesc_3_110DOMElementEN3xsd3cxx4tree5flagsEPNS7_5_typeE@Base 1.1.0
 _ZN13icalendar_2_015SentByParamTypeC1ERKNS_14CalAddressTypeE@Base 1.1.0
 _ZN13icalendar_2_015SentByParamTypeC1ERKS0_N3xsd3cxx4tree5flagsEPNS5_5_typeE@Base 1.1.0
 _ZN13icalendar_2_015SentByParamTypeC2ERKN11xercesc_3_110DOMElementEN3xsd3cxx4tree5flagsEPNS7_5_typeE@Base 1.1.0
 _ZN13icalendar_2_015SentByParamTypeC2ERKNS_14CalAddressTypeE@Base 1.1.0
 _ZN13icalendar_2_015SentByParamTypeC2ERKS0_N3xsd3cxx4tree5flagsEPNS5_5_typeE@Base 1.1.0
 _ZN13icalendar_2_015SentByParamTypeD0Ev@Base 1.1.0
 _ZN13icalendar_2_015SentByParamTypeD1Ev@Base 1.1.0
 _ZN13icalendar_2_015SentByParamTypeD2Ev@Base 1.1.0
 _ZN13icalendar_2_015SummaryPropTypeC1ERKN11xercesc_3_110DOMElementEN3xsd3cxx4tree5flagsEPNS7_5_typeE@Base 1.1.0
 _ZN13icalendar_2_015SummaryPropTypeC1ERKN3xsd3cxx4tree6stringIcNS3_11simple_typeIcNS3_5_typeEEEEE@Base 1.1.0
 _ZN13icalendar_2_015SummaryPropTypeC1ERKS0_N3xsd3cxx4tree5flagsEPNS5_5_typeE@Base 1.1.0
 _ZN13icalendar_2_015SummaryPropTypeC2ERKN11xercesc_3_110DOMElementEN3xsd3cxx4tree5flagsEPNS7_5_typeE@Base 1.1.0
 _ZN13icalendar_2_015SummaryPropTypeC2ERKN3xsd3cxx4tree6stringIcNS3_11simple_typeIcNS3_5_typeEEEEE@Base 1.1.0
 _ZN13icalendar_2_015SummaryPropTypeC2ERKS0_N3xsd3cxx4tree5flagsEPNS5_5_typeE@Base 1.1.0
 _ZN13icalendar_2_015SummaryPropTypeD0Ev@Base 1.1.0
 _ZN13icalendar_2_015SummaryPropTypeD1Ev@Base 1.1.0
 _ZN13icalendar_2_015SummaryPropTypeD2Ev@Base 1.1.0
 _ZN13icalendar_2_015TriggerPropType5parseERN3xsd3cxx3xml3dom6parserIcEENS2_4tree5flagsE@Base 1.1.0
 _ZN13icalendar_2_015TriggerPropType8durationERKN3xsd3cxx4tree8optionalINS_17DurationValueTypeELb0EEE@Base 1.1.0
 _ZN13icalendar_2_015TriggerPropType8durationERKNS_17DurationValueTypeE@Base 1.1.0
 _ZN13icalendar_2_015TriggerPropType8durationESt8auto_ptrINS_17DurationValueTypeEE@Base 1.1.0
 _ZN13icalendar_2_015TriggerPropType8durationEv@Base 1.1.0
 _ZN13icalendar_2_015TriggerPropType9date_timeERKN3xsd3cxx4tree8optionalINS_12DateTimeTypeELb0EEE@Base 1.1.0
 _ZN13icalendar_2_015TriggerPropType9date_timeERKNS_12DateTimeTypeE@Base 1.1.0
 _ZN13icalendar_2_015TriggerPropType9date_timeESt8auto_ptrINS_12DateTimeTypeEE@Base 1.1.0
 _ZN13icalendar_2_015TriggerPropType9date_timeEv@Base 1.1.0
 _ZN13icalendar_2_015TriggerPropTypeC1ERKN11xercesc_3_110DOMElementEN3xsd3cxx4tree5flagsEPNS7_5_typeE@Base 1.1.0
 _ZN13icalendar_2_015TriggerPropTypeC1ERKS0_N3xsd3cxx4tree5flagsEPNS5_5_typeE@Base 1.1.0
 _ZN13icalendar_2_015TriggerPropTypeC1Ev@Base 1.1.0
 _ZN13icalendar_2_015TriggerPropTypeC2ERKN11xercesc_3_110DOMElementEN3xsd3cxx4tree5flagsEPNS7_5_typeE@Base 1.1.0
 _ZN13icalendar_2_015TriggerPropTypeC2ERKS0_N3xsd3cxx4tree5flagsEPNS5_5_typeE@Base 1.1.0
 _ZN13icalendar_2_015TriggerPropTypeC2Ev@Base 1.1.0
 _ZN13icalendar_2_015TriggerPropTypeD0Ev@Base 1.1.0
 _ZN13icalendar_2_015TriggerPropTypeD1Ev@Base 1.1.0
 _ZN13icalendar_2_015TriggerPropTypeD2Ev@Base 1.1.0
 _ZN13icalendar_2_015TriggerPropTypeaSERKS0_@Base 1.1.0
 _ZN13icalendar_2_015UTCDateTimeTypeC1ERKN11xercesc_3_110DOMElementEN3xsd3cxx4tree5flagsEPNS7_5_typeE@Base 1.1.0
 _ZN13icalendar_2_015UTCDateTimeTypeC1ERKN11xercesc_3_17DOMAttrEN3xsd3cxx4tree5flagsEPNS7_5_typeE@Base 1.1.0
 _ZN13icalendar_2_015UTCDateTimeTypeC1ERKN3xsd3cxx4tree9date_timeIcNS3_11simple_typeIcNS3_5_typeEEEEE@Base 1.1.0
 _ZN13icalendar_2_015UTCDateTimeTypeC1ERKNSt7__cxx1112basic_stringIcSt11char_traitsIcESaIcEEEPKN11xercesc_3_110DOMElementEN3xsd3cxx4tree5flagsEPNSF_5_typeE@Base 1.1.0
 _ZN13icalendar_2_015UTCDateTimeTypeC1ERKS0_N3xsd3cxx4tree5flagsEPNS5_5_typeE@Base 1.1.0
 _ZN13icalendar_2_015UTCDateTimeTypeC2ERKN11xercesc_3_110DOMElementEN3xsd3cxx4tree5flagsEPNS7_5_typeE@Base 1.1.0
 _ZN13icalendar_2_015UTCDateTimeTypeC2ERKN11xercesc_3_17DOMAttrEN3xsd3cxx4tree5flagsEPNS7_5_typeE@Base 1.1.0
 _ZN13icalendar_2_015UTCDateTimeTypeC2ERKN3xsd3cxx4tree9date_timeIcNS3_11simple_typeIcNS3_5_typeEEEEE@Base 1.1.0
 _ZN13icalendar_2_015UTCDateTimeTypeC2ERKNSt7__cxx1112basic_stringIcSt11char_traitsIcESaIcEEEPKN11xercesc_3_110DOMElementEN3xsd3cxx4tree5flagsEPNSF_5_typeE@Base 1.1.0
 _ZN13icalendar_2_015UTCDateTimeTypeC2ERKS0_N3xsd3cxx4tree5flagsEPNS5_5_typeE@Base 1.1.0
 _ZN13icalendar_2_015UTCDateTimeTypeD0Ev@Base 1.1.0
 _ZN13icalendar_2_015UTCDateTimeTypeD1Ev@Base 1.1.0
 _ZN13icalendar_2_015UTCDateTimeTypeD2Ev@Base 1.1.0
 _ZN13icalendar_2_015UriPropertyType3uriERKNS_7UriTypeE@Base 1.1.0
 _ZN13icalendar_2_015UriPropertyType3uriESt8auto_ptrINS_7UriTypeEE@Base 1.1.0
 _ZN13icalendar_2_015UriPropertyType3uriEv@Base 1.1.0
 _ZN13icalendar_2_015UriPropertyType5parseERN3xsd3cxx3xml3dom6parserIcEENS2_4tree5flagsE@Base 1.1.0
 _ZN13icalendar_2_015UriPropertyTypeC1ERKN11xercesc_3_110DOMElementEN3xsd3cxx4tree5flagsEPNS7_5_typeE@Base 1.1.0
 _ZN13icalendar_2_015UriPropertyTypeC1ERKNS_7UriTypeE@Base 1.1.0
 _ZN13icalendar_2_015UriPropertyTypeC1ERKS0_N3xsd3cxx4tree5flagsEPNS5_5_typeE@Base 1.1.0
 _ZN13icalendar_2_015UriPropertyTypeC2ERKN11xercesc_3_110DOMElementEN3xsd3cxx4tree5flagsEPNS7_5_typeE@Base 1.1.0
 _ZN13icalendar_2_015UriPropertyTypeC2ERKNS_7UriTypeE@Base 1.1.0
 _ZN13icalendar_2_015UriPropertyTypeC2ERKS0_N3xsd3cxx4tree5flagsEPNS5_5_typeE@Base 1.1.0
 _ZN13icalendar_2_015UriPropertyTypeD0Ev@Base 1.1.0
 _ZN13icalendar_2_015UriPropertyTypeD1Ev@Base 1.1.0
 _ZN13icalendar_2_015UriPropertyTypeD2Ev@Base 1.1.0
 _ZN13icalendar_2_015UriPropertyTypeaSERKS0_@Base 1.1.0
 _ZN13icalendar_2_015VersionPropTypeC1ERKN11xercesc_3_110DOMElementEN3xsd3cxx4tree5flagsEPNS7_5_typeE@Base 1.1.0
 _ZN13icalendar_2_015VersionPropTypeC1ERKN3xsd3cxx4tree6stringIcNS3_11simple_typeIcNS3_5_typeEEEEE@Base 1.1.0
 _ZN13icalendar_2_015VersionPropTypeC1ERKS0_N3xsd3cxx4tree5flagsEPNS5_5_typeE@Base 1.1.0
 _ZN13icalendar_2_015VersionPropTypeC2ERKN11xercesc_3_110DOMElementEN3xsd3cxx4tree5flagsEPNS7_5_typeE@Base 1.1.0
 _ZN13icalendar_2_015VersionPropTypeC2ERKN3xsd3cxx4tree6stringIcNS3_11simple_typeIcNS3_5_typeEEEEE@Base 1.1.0
 _ZN13icalendar_2_015VersionPropTypeC2ERKS0_N3xsd3cxx4tree5flagsEPNS5_5_typeE@Base 1.1.0
 _ZN13icalendar_2_015VersionPropTypeD0Ev@Base 1.1.0
 _ZN13icalendar_2_015VersionPropTypeD1Ev@Base 1.1.0
 _ZN13icalendar_2_015VersionPropTypeD2Ev@Base 1.1.0
 _ZN13icalendar_2_015XlabelParamTypeC1ERKN11xercesc_3_110DOMElementEN3xsd3cxx4tree5flagsEPNS7_5_typeE@Base 1.1.0
 _ZN13icalendar_2_015XlabelParamTypeC1ERKN3xsd3cxx4tree6stringIcNS3_11simple_typeIcNS3_5_typeEEEEE@Base 1.1.0
 _ZN13icalendar_2_015XlabelParamTypeC1ERKS0_N3xsd3cxx4tree5flagsEPNS5_5_typeE@Base 1.1.0
 _ZN13icalendar_2_015XlabelParamTypeC2ERKN11xercesc_3_110DOMElementEN3xsd3cxx4tree5flagsEPNS7_5_typeE@Base 1.1.0
 _ZN13icalendar_2_015XlabelParamTypeC2ERKN3xsd3cxx4tree6stringIcNS3_11simple_typeIcNS3_5_typeEEEEE@Base 1.1.0
 _ZN13icalendar_2_015XlabelParamTypeC2ERKS0_N3xsd3cxx4tree5flagsEPNS5_5_typeE@Base 1.1.0
 _ZN13icalendar_2_015XlabelParamTypeD0Ev@Base 1.1.0
 _ZN13icalendar_2_015XlabelParamTypeD1Ev@Base 1.1.0
 _ZN13icalendar_2_015XlabelParamTypeD2Ev@Base 1.1.0
 _ZN13icalendar_2_016AttendeePropTypeC1ERKN11xercesc_3_110DOMElementEN3xsd3cxx4tree5flagsEPNS7_5_typeE@Base 1.1.0
 _ZN13icalendar_2_016AttendeePropTypeC1ERKNS_14CalAddressTypeE@Base 1.1.0
 _ZN13icalendar_2_016AttendeePropTypeC1ERKS0_N3xsd3cxx4tree5flagsEPNS5_5_typeE@Base 1.1.0
 _ZN13icalendar_2_016AttendeePropTypeC2ERKN11xercesc_3_110DOMElementEN3xsd3cxx4tree5flagsEPNS7_5_typeE@Base 1.1.0
 _ZN13icalendar_2_016AttendeePropTypeC2ERKNS_14CalAddressTypeE@Base 1.1.0
 _ZN13icalendar_2_016AttendeePropTypeC2ERKS0_N3xsd3cxx4tree5flagsEPNS5_5_typeE@Base 1.1.0
 _ZN13icalendar_2_016AttendeePropTypeD0Ev@Base 1.1.0
 _ZN13icalendar_2_016AttendeePropTypeD1Ev@Base 1.1.0
 _ZN13icalendar_2_016AttendeePropTypeD2Ev@Base 1.1.0
 _ZN13icalendar_2_016BasePropertyType10parametersERKN3xsd3cxx4tree8optionalINS_17ArrayOfParametersELb0EEE@Base 1.1.0
 _ZN13icalendar_2_016BasePropertyType10parametersERKNS_17ArrayOfParametersE@Base 1.1.0
 _ZN13icalendar_2_016BasePropertyType10parametersESt8auto_ptrINS_17ArrayOfParametersEE@Base 1.1.0
 _ZN13icalendar_2_016BasePropertyType10parametersEv@Base 1.1.0
 _ZN13icalendar_2_016BasePropertyType5parseERN3xsd3cxx3xml3dom6parserIcEENS2_4tree5flagsE@Base 1.1.0
 _ZN13icalendar_2_016BasePropertyTypeC1ERKN11xercesc_3_110DOMElementEN3xsd3cxx4tree5flagsEPNS7_5_typeE@Base 1.1.0
 _ZN13icalendar_2_016BasePropertyTypeC1ERKS0_N3xsd3cxx4tree5flagsEPNS5_5_typeE@Base 1.1.0
 _ZN13icalendar_2_016BasePropertyTypeC1Ev@Base 1.1.0
 _ZN13icalendar_2_016BasePropertyTypeC2ERKN11xercesc_3_110DOMElementEN3xsd3cxx4tree5flagsEPNS7_5_typeE@Base 1.1.0
 _ZN13icalendar_2_016BasePropertyTypeC2ERKS0_N3xsd3cxx4tree5flagsEPNS5_5_typeE@Base 1.1.0
 _ZN13icalendar_2_016BasePropertyTypeC2Ev@Base 1.1.0
 _ZN13icalendar_2_016BasePropertyTypeD0Ev@Base 1.1.0
 _ZN13icalendar_2_016BasePropertyTypeD1Ev@Base 1.1.0
 _ZN13icalendar_2_016BasePropertyTypeD2Ev@Base 1.1.0
 _ZN13icalendar_2_016BasePropertyTypeaSERKS0_@Base 1.1.0
 _ZN13icalendar_2_016BymonthRecurTypeC1ERKN11xercesc_3_110DOMElementEN3xsd3cxx4tree5flagsEPNS7_5_typeE@Base 1.1.0
 _ZN13icalendar_2_016BymonthRecurTypeC1ERKN11xercesc_3_17DOMAttrEN3xsd3cxx4tree5flagsEPNS7_5_typeE@Base 1.1.0
 _ZN13icalendar_2_016BymonthRecurTypeC1ERKNSt7__cxx1112basic_stringIcSt11char_traitsIcESaIcEEEPKN11xercesc_3_110DOMElementEN3xsd3cxx4tree5flagsEPNSF_5_typeE@Base 1.1.0
 _ZN13icalendar_2_016BymonthRecurTypeC1ERKS0_N3xsd3cxx4tree5flagsEPNS5_5_typeE@Base 1.1.0
 _ZN13icalendar_2_016BymonthRecurTypeC1ERKx@Base 1.1.0
 _ZN13icalendar_2_016BymonthRecurTypeC2ERKN11xercesc_3_110DOMElementEN3xsd3cxx4tree5flagsEPNS7_5_typeE@Base 1.1.0
 _ZN13icalendar_2_016BymonthRecurTypeC2ERKN11xercesc_3_17DOMAttrEN3xsd3cxx4tree5flagsEPNS7_5_typeE@Base 1.1.0
 _ZN13icalendar_2_016BymonthRecurTypeC2ERKNSt7__cxx1112basic_stringIcSt11char_traitsIcESaIcEEEPKN11xercesc_3_110DOMElementEN3xsd3cxx4tree5flagsEPNSF_5_typeE@Base 1.1.0
 _ZN13icalendar_2_016BymonthRecurTypeC2ERKS0_N3xsd3cxx4tree5flagsEPNS5_5_typeE@Base 1.1.0
 _ZN13icalendar_2_016BymonthRecurTypeC2ERKx@Base 1.1.0
 _ZN13icalendar_2_016BymonthRecurTypeD0Ev@Base 1.1.0
 _ZN13icalendar_2_016BymonthRecurTypeD1Ev@Base 1.1.0
 _ZN13icalendar_2_016BymonthRecurTypeD2Ev@Base 1.1.0
 _ZN13icalendar_2_016CalscalePropType4textERKNS_17CalscaleValueTypeE@Base 1.1.0
 _ZN13icalendar_2_016CalscalePropType4textESt8auto_ptrINS_17CalscaleValueTypeEE@Base 1.1.0
 _ZN13icalendar_2_016CalscalePropType4textEv@Base 1.1.0
 _ZN13icalendar_2_016CalscalePropType5parseERN3xsd3cxx3xml3dom6parserIcEENS2_4tree5flagsE@Base 1.1.0
 _ZN13icalendar_2_016CalscalePropTypeC1ERKN11xercesc_3_110DOMElementEN3xsd3cxx4tree5flagsEPNS7_5_typeE@Base 1.1.0
 _ZN13icalendar_2_016CalscalePropTypeC1ERKNS_17CalscaleValueTypeE@Base 1.1.0
 _ZN13icalendar_2_016CalscalePropTypeC1ERKS0_N3xsd3cxx4tree5flagsEPNS5_5_typeE@Base 1.1.0
 _ZN13icalendar_2_016CalscalePropTypeC2ERKN11xercesc_3_110DOMElementEN3xsd3cxx4tree5flagsEPNS7_5_typeE@Base 1.1.0
 _ZN13icalendar_2_016CalscalePropTypeC2ERKNS_17CalscaleValueTypeE@Base 1.1.0
 _ZN13icalendar_2_016CalscalePropTypeC2ERKS0_N3xsd3cxx4tree5flagsEPNS5_5_typeE@Base 1.1.0
 _ZN13icalendar_2_016CalscalePropTypeD0Ev@Base 1.1.0
 _ZN13icalendar_2_016CalscalePropTypeD1Ev@Base 1.1.0
 _ZN13icalendar_2_016CalscalePropTypeD2Ev@Base 1.1.0
 _ZN13icalendar_2_016CalscalePropTypeaSERKS0_@Base 1.1.0
 _ZN13icalendar_2_016DurationPropType5parseERN3xsd3cxx3xml3dom6parserIcEENS2_4tree5flagsE@Base 1.1.0
 _ZN13icalendar_2_016DurationPropType8durationERKNS_17DurationValueTypeE@Base 1.1.0
 _ZN13icalendar_2_016DurationPropType8durationESt8auto_ptrINS_17DurationValueTypeEE@Base 1.1.0
 _ZN13icalendar_2_016DurationPropType8durationEv@Base 1.1.0
 _ZN13icalendar_2_016DurationPropTypeC1ERKN11xercesc_3_110DOMElementEN3xsd3cxx4tree5flagsEPNS7_5_typeE@Base 1.1.0
 _ZN13icalendar_2_016DurationPropTypeC1ERKNS_17DurationValueTypeE@Base 1.1.0
 _ZN13icalendar_2_016DurationPropTypeC1ERKS0_N3xsd3cxx4tree5flagsEPNS5_5_typeE@Base 1.1.0
 _ZN13icalendar_2_016DurationPropTypeC2ERKN11xercesc_3_110DOMElementEN3xsd3cxx4tree5flagsEPNS7_5_typeE@Base 1.1.0
 _ZN13icalendar_2_016DurationPropTypeC2ERKNS_17DurationValueTypeE@Base 1.1.0
 _ZN13icalendar_2_016DurationPropTypeC2ERKS0_N3xsd3cxx4tree5flagsEPNS5_5_typeE@Base 1.1.0
 _ZN13icalendar_2_016DurationPropTypeD0Ev@Base 1.1.0
 _ZN13icalendar_2_016DurationPropTypeD1Ev@Base 1.1.0
 _ZN13icalendar_2_016DurationPropTypeD2Ev@Base 1.1.0
 _ZN13icalendar_2_016DurationPropTypeaSERKS0_@Base 1.1.0
 _ZN13icalendar_2_016FmttypeParamTypeC1ERKN11xercesc_3_110DOMElementEN3xsd3cxx4tree5flagsEPNS7_5_typeE@Base 1.1.0
 _ZN13icalendar_2_016FmttypeParamTypeC1ERKN3xsd3cxx4tree6stringIcNS3_11simple_typeIcNS3_5_typeEEEEE@Base 1.1.0
 _ZN13icalendar_2_016FmttypeParamTypeC1ERKS0_N3xsd3cxx4tree5flagsEPNS5_5_typeE@Base 1.1.0
 _ZN13icalendar_2_016FmttypeParamTypeC2ERKN11xercesc_3_110DOMElementEN3xsd3cxx4tree5flagsEPNS7_5_typeE@Base 1.1.0
 _ZN13icalendar_2_016FmttypeParamTypeC2ERKN3xsd3cxx4tree6stringIcNS3_11simple_typeIcNS3_5_typeEEEEE@Base 1.1.0
 _ZN13icalendar_2_016FmttypeParamTypeC2ERKS0_N3xsd3cxx4tree5flagsEPNS5_5_typeE@Base 1.1.0
 _ZN13icalendar_2_016FmttypeParamTypeD0Ev@Base 1.1.0
 _ZN13icalendar_2_016FmttypeParamTypeD1Ev@Base 1.1.0
 _ZN13icalendar_2_016FmttypeParamTypeD2Ev@Base 1.1.0
 _ZN13icalendar_2_016FreebusyPropType5parseERN3xsd3cxx3xml3dom6parserIcEENS2_4tree5flagsE@Base 1.1.0
 _ZN13icalendar_2_016FreebusyPropType6periodERKN3xsd3cxx4tree8sequenceINS_10PeriodTypeELb0EEE@Base 1.1.0
 _ZN13icalendar_2_016FreebusyPropType6periodEv@Base 1.1.0
 _ZN13icalendar_2_016FreebusyPropTypeC1ERKN11xercesc_3_110DOMElementEN3xsd3cxx4tree5flagsEPNS7_5_typeE@Base 1.1.0
 _ZN13icalendar_2_016FreebusyPropTypeC1ERKS0_N3xsd3cxx4tree5flagsEPNS5_5_typeE@Base 1.1.0
 _ZN13icalendar_2_016FreebusyPropTypeC1Ev@Base 1.1.0
 _ZN13icalendar_2_016FreebusyPropTypeC2ERKN11xercesc_3_110DOMElementEN3xsd3cxx4tree5flagsEPNS7_5_typeE@Base 1.1.0
 _ZN13icalendar_2_016FreebusyPropTypeC2ERKS0_N3xsd3cxx4tree5flagsEPNS5_5_typeE@Base 1.1.0
 _ZN13icalendar_2_016FreebusyPropTypeC2Ev@Base 1.1.0
 _ZN13icalendar_2_016FreebusyPropTypeD0Ev@Base 1.1.0
 _ZN13icalendar_2_016FreebusyPropTypeD1Ev@Base 1.1.0
 _ZN13icalendar_2_016FreebusyPropTypeD2Ev@Base 1.1.0
 _ZN13icalendar_2_016FreebusyPropTypeaSERKS0_@Base 1.1.0
 _ZN13icalendar_2_016LocationPropTypeC1ERKN11xercesc_3_110DOMElementEN3xsd3cxx4tree5flagsEPNS7_5_typeE@Base 1.1.0
 _ZN13icalendar_2_016LocationPropTypeC1ERKN3xsd3cxx4tree6stringIcNS3_11simple_typeIcNS3_5_typeEEEEE@Base 1.1.0
 _ZN13icalendar_2_016LocationPropTypeC1ERKS0_N3xsd3cxx4tree5flagsEPNS5_5_typeE@Base 1.1.0
 _ZN13icalendar_2_016LocationPropTypeC2ERKN11xercesc_3_110DOMElementEN3xsd3cxx4tree5flagsEPNS7_5_typeE@Base 1.1.0
 _ZN13icalendar_2_016LocationPropTypeC2ERKN3xsd3cxx4tree6stringIcNS3_11simple_typeIcNS3_5_typeEEEEE@Base 1.1.0
 _ZN13icalendar_2_016LocationPropTypeC2ERKS0_N3xsd3cxx4tree5flagsEPNS5_5_typeE@Base 1.1.0
 _ZN13icalendar_2_016LocationPropTypeD0Ev@Base 1.1.0
 _ZN13icalendar_2_016LocationPropTypeD1Ev@Base 1.1.0
 _ZN13icalendar_2_016LocationPropTypeD2Ev@Base 1.1.0
 _ZN13icalendar_2_016PriorityPropTypeC1ERKN11xercesc_3_110DOMElementEN3xsd3cxx4tree5flagsEPNS7_5_typeE@Base 1.1.0
 _ZN13icalendar_2_016PriorityPropTypeC1ERKS0_N3xsd3cxx4tree5flagsEPNS5_5_typeE@Base 1.1.0
 _ZN13icalendar_2_016PriorityPropTypeC1ERKx@Base 1.1.0
 _ZN13icalendar_2_016PriorityPropTypeC2ERKN11xercesc_3_110DOMElementEN3xsd3cxx4tree5flagsEPNS7_5_typeE@Base 1.1.0
 _ZN13icalendar_2_016PriorityPropTypeC2ERKS0_N3xsd3cxx4tree5flagsEPNS5_5_typeE@Base 1.1.0
 _ZN13icalendar_2_016PriorityPropTypeC2ERKx@Base 1.1.0
 _ZN13icalendar_2_016PriorityPropTypeD0Ev@Base 1.1.0
 _ZN13icalendar_2_016PriorityPropTypeD1Ev@Base 1.1.0
 _ZN13icalendar_2_016PriorityPropTypeD2Ev@Base 1.1.0
 _ZN13icalendar_2_016RelatedParamTypeC1ERKN11xercesc_3_110DOMElementEN3xsd3cxx4tree5flagsEPNS7_5_typeE@Base 1.1.0
 _ZN13icalendar_2_016RelatedParamTypeC1ERKN3xsd3cxx4tree6stringIcNS3_11simple_typeIcNS3_5_typeEEEEE@Base 1.1.0
 _ZN13icalendar_2_016RelatedParamTypeC1ERKS0_N3xsd3cxx4tree5flagsEPNS5_5_typeE@Base 1.1.0
 _ZN13icalendar_2_016RelatedParamTypeC2ERKN11xercesc_3_110DOMElementEN3xsd3cxx4tree5flagsEPNS7_5_typeE@Base 1.1.0
 _ZN13icalendar_2_016RelatedParamTypeC2ERKN3xsd3cxx4tree6stringIcNS3_11simple_typeIcNS3_5_typeEEEEE@Base 1.1.0
 _ZN13icalendar_2_016RelatedParamTypeC2ERKS0_N3xsd3cxx4tree5flagsEPNS5_5_typeE@Base 1.1.0
 _ZN13icalendar_2_016RelatedParamTypeD0Ev@Base 1.1.0
 _ZN13icalendar_2_016RelatedParamTypeD1Ev@Base 1.1.0
 _ZN13icalendar_2_016RelatedParamTypeD2Ev@Base 1.1.0
 _ZN13icalendar_2_016ReltypeParamTypeC1ERKN11xercesc_3_110DOMElementEN3xsd3cxx4tree5flagsEPNS7_5_typeE@Base 1.1.0
 _ZN13icalendar_2_016ReltypeParamTypeC1ERKN3xsd3cxx4tree6stringIcNS3_11simple_typeIcNS3_5_typeEEEEE@Base 1.1.0
 _ZN13icalendar_2_016ReltypeParamTypeC1ERKS0_N3xsd3cxx4tree5flagsEPNS5_5_typeE@Base 1.1.0
 _ZN13icalendar_2_016ReltypeParamTypeC2ERKN11xercesc_3_110DOMElementEN3xsd3cxx4tree5flagsEPNS7_5_typeE@Base 1.1.0
 _ZN13icalendar_2_016ReltypeParamTypeC2ERKN3xsd3cxx4tree6stringIcNS3_11simple_typeIcNS3_5_typeEEEEE@Base 1.1.0
 _ZN13icalendar_2_016ReltypeParamTypeC2ERKS0_N3xsd3cxx4tree5flagsEPNS5_5_typeE@Base 1.1.0
 _ZN13icalendar_2_016ReltypeParamTypeD0Ev@Base 1.1.0
 _ZN13icalendar_2_016ReltypeParamTypeD1Ev@Base 1.1.0
 _ZN13icalendar_2_016ReltypeParamTypeD2Ev@Base 1.1.0
 _ZN13icalendar_2_016SequencePropTypeC1ERKN11xercesc_3_110DOMElementEN3xsd3cxx4tree5flagsEPNS7_5_typeE@Base 1.1.0
 _ZN13icalendar_2_016SequencePropTypeC1ERKS0_N3xsd3cxx4tree5flagsEPNS5_5_typeE@Base 1.1.0
 _ZN13icalendar_2_016SequencePropTypeC1ERKx@Base 1.1.0
 _ZN13icalendar_2_016SequencePropTypeC2ERKN11xercesc_3_110DOMElementEN3xsd3cxx4tree5flagsEPNS7_5_typeE@Base 1.1.0
 _ZN13icalendar_2_016SequencePropTypeC2ERKS0_N3xsd3cxx4tree5flagsEPNS5_5_typeE@Base 1.1.0
 _ZN13icalendar_2_016SequencePropTypeC2ERKx@Base 1.1.0
 _ZN13icalendar_2_016SequencePropTypeD0Ev@Base 1.1.0
 _ZN13icalendar_2_016SequencePropTypeD1Ev@Base 1.1.0
 _ZN13icalendar_2_016SequencePropTypeD2Ev@Base 1.1.0
 _ZN13icalendar_2_016TextPropertyType4textERKN3xsd3cxx4tree6stringIcNS3_11simple_typeIcNS3_5_typeEEEEE@Base 1.1.0
 _ZN13icalendar_2_016TextPropertyType4textESt8auto_ptrIN3xsd3cxx4tree6stringIcNS4_11simple_typeIcNS4_5_typeEEEEEE@Base 1.1.0
 _ZN13icalendar_2_016TextPropertyType4textEv@Base 1.1.0
 _ZN13icalendar_2_016TextPropertyType5parseERN3xsd3cxx3xml3dom6parserIcEENS2_4tree5flagsE@Base 1.1.0
 _ZN13icalendar_2_016TextPropertyTypeC1ERKN11xercesc_3_110DOMElementEN3xsd3cxx4tree5flagsEPNS7_5_typeE@Base 1.1.0
 _ZN13icalendar_2_016TextPropertyTypeC1ERKN3xsd3cxx4tree6stringIcNS3_11simple_typeIcNS3_5_typeEEEEE@Base 1.1.0
 _ZN13icalendar_2_016TextPropertyTypeC1ERKS0_N3xsd3cxx4tree5flagsEPNS5_5_typeE@Base 1.1.0
 _ZN13icalendar_2_016TextPropertyTypeC2ERKN11xercesc_3_110DOMElementEN3xsd3cxx4tree5flagsEPNS7_5_typeE@Base 1.1.0
 _ZN13icalendar_2_016TextPropertyTypeC2ERKN3xsd3cxx4tree6stringIcNS3_11simple_typeIcNS3_5_typeEEEEE@Base 1.1.0
 _ZN13icalendar_2_016TextPropertyTypeC2ERKS0_N3xsd3cxx4tree5flagsEPNS5_5_typeE@Base 1.1.0
 _ZN13icalendar_2_016TextPropertyTypeD0Ev@Base 1.1.0
 _ZN13icalendar_2_016TextPropertyTypeD1Ev@Base 1.1.0
 _ZN13icalendar_2_016TextPropertyTypeD2Ev@Base 1.1.0
 _ZN13icalendar_2_016TextPropertyTypeaSERKS0_@Base 1.1.0
 _ZN13icalendar_2_016UriParameterType3uriERKNS_7UriTypeE@Base 1.1.0
 _ZN13icalendar_2_016UriParameterType3uriESt8auto_ptrINS_7UriTypeEE@Base 1.1.0
 _ZN13icalendar_2_016UriParameterType3uriEv@Base 1.1.0
 _ZN13icalendar_2_016UriParameterType5parseERN3xsd3cxx3xml3dom6parserIcEENS2_4tree5flagsE@Base 1.1.0
 _ZN13icalendar_2_016UriParameterTypeC1ERKN11xercesc_3_110DOMElementEN3xsd3cxx4tree5flagsEPNS7_5_typeE@Base 1.1.0
 _ZN13icalendar_2_016UriParameterTypeC1ERKNS_7UriTypeE@Base 1.1.0
 _ZN13icalendar_2_016UriParameterTypeC1ERKS0_N3xsd3cxx4tree5flagsEPNS5_5_typeE@Base 1.1.0
 _ZN13icalendar_2_016UriParameterTypeC2ERKN11xercesc_3_110DOMElementEN3xsd3cxx4tree5flagsEPNS7_5_typeE@Base 1.1.0
 _ZN13icalendar_2_016UriParameterTypeC2ERKNS_7UriTypeE@Base 1.1.0
 _ZN13icalendar_2_016UriParameterTypeC2ERKS0_N3xsd3cxx4tree5flagsEPNS5_5_typeE@Base 1.1.0
 _ZN13icalendar_2_016UriParameterTypeD0Ev@Base 1.1.0
 _ZN13icalendar_2_016UriParameterTypeD1Ev@Base 1.1.0
 _ZN13icalendar_2_016UriParameterTypeD2Ev@Base 1.1.0
 _ZN13icalendar_2_016UriParameterTypeaSERKS0_@Base 1.1.0
 _ZN13icalendar_2_016WeekdayRecurType30_xsd_WeekdayRecurType_indexes_E@Base 1.1.0
 _ZN13icalendar_2_016WeekdayRecurType31_xsd_WeekdayRecurType_literals_E@Base 1.1.0
 _ZN13icalendar_2_016WeekdayRecurTypeC1ENS0_5valueE@Base 1.1.0
 _ZN13icalendar_2_016WeekdayRecurTypeC1EPKc@Base 1.1.0
 _ZN13icalendar_2_016WeekdayRecurTypeC1ERKN11xercesc_3_110DOMElementEN3xsd3cxx4tree5flagsEPNS7_5_typeE@Base 1.1.0
 _ZN13icalendar_2_016WeekdayRecurTypeC1ERKN11xercesc_3_17DOMAttrEN3xsd3cxx4tree5flagsEPNS7_5_typeE@Base 1.1.0
 _ZN13icalendar_2_016WeekdayRecurTypeC1ERKN3xsd3cxx4tree5tokenIcNS3_17normalized_stringIcNS3_6stringIcNS3_11simple_typeIcNS3_5_typeEEEEEEEEE@Base 1.1.0
 _ZN13icalendar_2_016WeekdayRecurTypeC1ERKNSt7__cxx1112basic_stringIcSt11char_traitsIcESaIcEEE@Base 1.1.0
 _ZN13icalendar_2_016WeekdayRecurTypeC1ERKNSt7__cxx1112basic_stringIcSt11char_traitsIcESaIcEEEPKN11xercesc_3_110DOMElementEN3xsd3cxx4tree5flagsEPNSF_5_typeE@Base 1.1.0
 _ZN13icalendar_2_016WeekdayRecurTypeC1ERKS0_N3xsd3cxx4tree5flagsEPNS5_5_typeE@Base 1.1.0
 _ZN13icalendar_2_016WeekdayRecurTypeC2ENS0_5valueE@Base 1.1.0
 _ZN13icalendar_2_016WeekdayRecurTypeC2EPKc@Base 1.1.0
 _ZN13icalendar_2_016WeekdayRecurTypeC2ERKN11xercesc_3_110DOMElementEN3xsd3cxx4tree5flagsEPNS7_5_typeE@Base 1.1.0
 _ZN13icalendar_2_016WeekdayRecurTypeC2ERKN11xercesc_3_17DOMAttrEN3xsd3cxx4tree5flagsEPNS7_5_typeE@Base 1.1.0
 _ZN13icalendar_2_016WeekdayRecurTypeC2ERKN3xsd3cxx4tree5tokenIcNS3_17normalized_stringIcNS3_6stringIcNS3_11simple_typeIcNS3_5_typeEEEEEEEEE@Base 1.1.0
 _ZN13icalendar_2_016WeekdayRecurTypeC2ERKNSt7__cxx1112basic_stringIcSt11char_traitsIcESaIcEEE@Base 1.1.0
 _ZN13icalendar_2_016WeekdayRecurTypeC2ERKNSt7__cxx1112basic_stringIcSt11char_traitsIcESaIcEEEPKN11xercesc_3_110DOMElementEN3xsd3cxx4tree5flagsEPNSF_5_typeE@Base 1.1.0
 _ZN13icalendar_2_016WeekdayRecurTypeC2ERKS0_N3xsd3cxx4tree5flagsEPNS5_5_typeE@Base 1.1.0
 _ZN13icalendar_2_016WeekdayRecurTypeD0Ev@Base 1.1.0
 _ZN13icalendar_2_016WeekdayRecurTypeD1Ev@Base 1.1.0
 _ZN13icalendar_2_016WeekdayRecurTypeD2Ev@Base 1.1.0
 _ZN13icalendar_2_016WeekdayRecurTypeaSENS0_5valueE@Base 1.1.0
 _ZN13icalendar_2_017ArrayOfParameters13baseParameterERKN3xsd3cxx4tree8sequenceINS_17BaseParameterTypeELb0EEE@Base 1.1.0
 _ZN13icalendar_2_017ArrayOfParameters13baseParameterEv@Base 1.1.0
 _ZN13icalendar_2_017ArrayOfParameters5parseERN3xsd3cxx3xml3dom6parserIcEENS2_4tree5flagsE@Base 1.1.0
 _ZN13icalendar_2_017ArrayOfParametersC1ERKN11xercesc_3_110DOMElementEN3xsd3cxx4tree5flagsEPNS7_5_typeE@Base 1.1.0
 _ZN13icalendar_2_017ArrayOfParametersC1ERKS0_N3xsd3cxx4tree5flagsEPNS5_5_typeE@Base 1.1.0
 _ZN13icalendar_2_017ArrayOfParametersC1Ev@Base 1.1.0
 _ZN13icalendar_2_017ArrayOfParametersC2ERKN11xercesc_3_110DOMElementEN3xsd3cxx4tree5flagsEPNS7_5_typeE@Base 1.1.0
 _ZN13icalendar_2_017ArrayOfParametersC2ERKS0_N3xsd3cxx4tree5flagsEPNS5_5_typeE@Base 1.1.0
 _ZN13icalendar_2_017ArrayOfParametersC2Ev@Base 1.1.0
 _ZN13icalendar_2_017ArrayOfParametersD0Ev@Base 1.1.0
 _ZN13icalendar_2_017ArrayOfParametersD1Ev@Base 1.1.0
 _ZN13icalendar_2_017ArrayOfParametersD2Ev@Base 1.1.0
 _ZN13icalendar_2_017ArrayOfParametersaSERKS0_@Base 1.1.0
 _ZN13icalendar_2_017ArrayOfProperties12basePropertyERKN3xsd3cxx4tree8sequenceINS_16BasePropertyTypeELb0EEE@Base 1.1.0
 _ZN13icalendar_2_017ArrayOfProperties12basePropertyEv@Base 1.1.0
 _ZN13icalendar_2_017ArrayOfProperties5parseERN3xsd3cxx3xml3dom6parserIcEENS2_4tree5flagsE@Base 1.1.0
 _ZN13icalendar_2_017ArrayOfPropertiesC1ERKN11xercesc_3_110DOMElementEN3xsd3cxx4tree5flagsEPNS7_5_typeE@Base 1.1.0
 _ZN13icalendar_2_017ArrayOfPropertiesC1ERKS0_N3xsd3cxx4tree5flagsEPNS5_5_typeE@Base 1.1.0
 _ZN13icalendar_2_017ArrayOfPropertiesC1Ev@Base 1.1.0
 _ZN13icalendar_2_017ArrayOfPropertiesC2ERKN11xercesc_3_110DOMElementEN3xsd3cxx4tree5flagsEPNS7_5_typeE@Base 1.1.0
 _ZN13icalendar_2_017ArrayOfPropertiesC2ERKS0_N3xsd3cxx4tree5flagsEPNS5_5_typeE@Base 1.1.0
 _ZN13icalendar_2_017ArrayOfPropertiesC2Ev@Base 1.1.0
 _ZN13icalendar_2_017ArrayOfPropertiesD0Ev@Base 1.1.0
 _ZN13icalendar_2_017ArrayOfPropertiesD1Ev@Base 1.1.0
 _ZN13icalendar_2_017ArrayOfPropertiesD2Ev@Base 1.1.0
 _ZN13icalendar_2_017ArrayOfPropertiesaSERKS0_@Base 1.1.0
 _ZN13icalendar_2_017BaseParameterTypeC1ERKN11xercesc_3_110DOMElementEN3xsd3cxx4tree5flagsEPNS7_5_typeE@Base 1.1.0
 _ZN13icalendar_2_017BaseParameterTypeC1ERKN11xercesc_3_17DOMAttrEN3xsd3cxx4tree5flagsEPNS7_5_typeE@Base 1.1.0
 _ZN13icalendar_2_017BaseParameterTypeC1ERKNSt7__cxx1112basic_stringIcSt11char_traitsIcESaIcEEEPKN11xercesc_3_110DOMElementEN3xsd3cxx4tree5flagsEPNSF_5_typeE@Base 1.1.0
 _ZN13icalendar_2_017BaseParameterTypeC1ERKS0_N3xsd3cxx4tree5flagsEPNS5_5_typeE@Base 1.1.0
 _ZN13icalendar_2_017BaseParameterTypeC1Ev@Base 1.1.0
 _ZN13icalendar_2_017BaseParameterTypeC2ERKN11xercesc_3_110DOMElementEN3xsd3cxx4tree5flagsEPNS7_5_typeE@Base 1.1.0
 _ZN13icalendar_2_017BaseParameterTypeC2ERKN11xercesc_3_17DOMAttrEN3xsd3cxx4tree5flagsEPNS7_5_typeE@Base 1.1.0
 _ZN13icalendar_2_017BaseParameterTypeC2ERKNSt7__cxx1112basic_stringIcSt11char_traitsIcESaIcEEEPKN11xercesc_3_110DOMElementEN3xsd3cxx4tree5flagsEPNSF_5_typeE@Base 1.1.0
 _ZN13icalendar_2_017BaseParameterTypeC2ERKS0_N3xsd3cxx4tree5flagsEPNS5_5_typeE@Base 1.1.0
 _ZN13icalendar_2_017BaseParameterTypeC2Ev@Base 1.1.0
 _ZN13icalendar_2_017BaseParameterTypeD0Ev@Base 1.1.0
 _ZN13icalendar_2_017BaseParameterTypeD1Ev@Base 1.1.0
 _ZN13icalendar_2_017BaseParameterTypeD2Ev@Base 1.1.0
 _ZN13icalendar_2_017ByminuteRecurTypeC1ERKN11xercesc_3_110DOMElementEN3xsd3cxx4tree5flagsEPNS7_5_typeE@Base 1.1.0
 _ZN13icalendar_2_017ByminuteRecurTypeC1ERKN11xercesc_3_17DOMAttrEN3xsd3cxx4tree5flagsEPNS7_5_typeE@Base 1.1.0
 _ZN13icalendar_2_017ByminuteRecurTypeC1ERKNSt7__cxx1112basic_stringIcSt11char_traitsIcESaIcEEEPKN11xercesc_3_110DOMElementEN3xsd3cxx4tree5flagsEPNSF_5_typeE@Base 1.1.0
 _ZN13icalendar_2_017ByminuteRecurTypeC1ERKS0_N3xsd3cxx4tree5flagsEPNS5_5_typeE@Base 1.1.0
 _ZN13icalendar_2_017ByminuteRecurTypeC1ERKy@Base 1.1.0
 _ZN13icalendar_2_017ByminuteRecurTypeC2ERKN11xercesc_3_110DOMElementEN3xsd3cxx4tree5flagsEPNS7_5_typeE@Base 1.1.0
 _ZN13icalendar_2_017ByminuteRecurTypeC2ERKN11xercesc_3_17DOMAttrEN3xsd3cxx4tree5flagsEPNS7_5_typeE@Base 1.1.0
 _ZN13icalendar_2_017ByminuteRecurTypeC2ERKNSt7__cxx1112basic_stringIcSt11char_traitsIcESaIcEEEPKN11xercesc_3_110DOMElementEN3xsd3cxx4tree5flagsEPNSF_5_typeE@Base 1.1.0
 _ZN13icalendar_2_017ByminuteRecurTypeC2ERKS0_N3xsd3cxx4tree5flagsEPNS5_5_typeE@Base 1.1.0
 _ZN13icalendar_2_017ByminuteRecurTypeC2ERKy@Base 1.1.0
 _ZN13icalendar_2_017ByminuteRecurTypeD0Ev@Base 1.1.0
 _ZN13icalendar_2_017ByminuteRecurTypeD1Ev@Base 1.1.0
 _ZN13icalendar_2_017ByminuteRecurTypeD2Ev@Base 1.1.0
 _ZN13icalendar_2_017BysecondRecurTypeC1ERKN11xercesc_3_110DOMElementEN3xsd3cxx4tree5flagsEPNS7_5_typeE@Base 1.1.0
 _ZN13icalendar_2_017BysecondRecurTypeC1ERKN11xercesc_3_17DOMAttrEN3xsd3cxx4tree5flagsEPNS7_5_typeE@Base 1.1.0
 _ZN13icalendar_2_017BysecondRecurTypeC1ERKNSt7__cxx1112basic_stringIcSt11char_traitsIcESaIcEEEPKN11xercesc_3_110DOMElementEN3xsd3cxx4tree5flagsEPNSF_5_typeE@Base 1.1.0
 _ZN13icalendar_2_017BysecondRecurTypeC1ERKS0_N3xsd3cxx4tree5flagsEPNS5_5_typeE@Base 1.1.0
 _ZN13icalendar_2_017BysecondRecurTypeC1ERKy@Base 1.1.0
 _ZN13icalendar_2_017BysecondRecurTypeC2ERKN11xercesc_3_110DOMElementEN3xsd3cxx4tree5flagsEPNS7_5_typeE@Base 1.1.0
 _ZN13icalendar_2_017BysecondRecurTypeC2ERKN11xercesc_3_17DOMAttrEN3xsd3cxx4tree5flagsEPNS7_5_typeE@Base 1.1.0
 _ZN13icalendar_2_017BysecondRecurTypeC2ERKNSt7__cxx1112basic_stringIcSt11char_traitsIcESaIcEEEPKN11xercesc_3_110DOMElementEN3xsd3cxx4tree5flagsEPNSF_5_typeE@Base 1.1.0
 _ZN13icalendar_2_017BysecondRecurTypeC2ERKS0_N3xsd3cxx4tree5flagsEPNS5_5_typeE@Base 1.1.0
 _ZN13icalendar_2_017BysecondRecurTypeC2ERKy@Base 1.1.0
 _ZN13icalendar_2_017BysecondRecurTypeD0Ev@Base 1.1.0
 _ZN13icalendar_2_017BysecondRecurTypeD1Ev@Base 1.1.0
 _ZN13icalendar_2_017BysecondRecurTypeD2Ev@Base 1.1.0
 _ZN13icalendar_2_017ByweeknoRecurTypeC1ERKN11xercesc_3_110DOMElementEN3xsd3cxx4tree5flagsEPNS7_5_typeE@Base 1.1.0
 _ZN13icalendar_2_017ByweeknoRecurTypeC1ERKN11xercesc_3_17DOMAttrEN3xsd3cxx4tree5flagsEPNS7_5_typeE@Base 1.1.0
 _ZN13icalendar_2_017ByweeknoRecurTypeC1ERKNSt7__cxx1112basic_stringIcSt11char_traitsIcESaIcEEEPKN11xercesc_3_110DOMElementEN3xsd3cxx4tree5flagsEPNSF_5_typeE@Base 1.1.0
 _ZN13icalendar_2_017ByweeknoRecurTypeC1ERKS0_N3xsd3cxx4tree5flagsEPNS5_5_typeE@Base 1.1.0
 _ZN13icalendar_2_017ByweeknoRecurTypeC1ERKx@Base 1.1.0
 _ZN13icalendar_2_017ByweeknoRecurTypeC2ERKN11xercesc_3_110DOMElementEN3xsd3cxx4tree5flagsEPNS7_5_typeE@Base 1.1.0
 _ZN13icalendar_2_017ByweeknoRecurTypeC2ERKN11xercesc_3_17DOMAttrEN3xsd3cxx4tree5flagsEPNS7_5_typeE@Base 1.1.0
 _ZN13icalendar_2_017ByweeknoRecurTypeC2ERKNSt7__cxx1112basic_stringIcSt11char_traitsIcESaIcEEEPKN11xercesc_3_110DOMElementEN3xsd3cxx4tree5flagsEPNSF_5_typeE@Base 1.1.0
 _ZN13icalendar_2_017ByweeknoRecurTypeC2ERKS0_N3xsd3cxx4tree5flagsEPNS5_5_typeE@Base 1.1.0
 _ZN13icalendar_2_017ByweeknoRecurTypeC2ERKx@Base 1.1.0
 _ZN13icalendar_2_017ByweeknoRecurTypeD0Ev@Base 1.1.0
 _ZN13icalendar_2_017ByweeknoRecurTypeD1Ev@Base 1.1.0
 _ZN13icalendar_2_017ByweeknoRecurTypeD2Ev@Base 1.1.0
 _ZN13icalendar_2_017CalscaleValueType31_xsd_CalscaleValueType_indexes_E@Base 1.1.0
 _ZN13icalendar_2_017CalscaleValueType32_xsd_CalscaleValueType_literals_E@Base 1.1.0
 _ZN13icalendar_2_017CalscaleValueTypeC1ENS0_5valueE@Base 1.1.0
 _ZN13icalendar_2_017CalscaleValueTypeC1EPKc@Base 1.1.0
 _ZN13icalendar_2_017CalscaleValueTypeC1ERKN11xercesc_3_110DOMElementEN3xsd3cxx4tree5flagsEPNS7_5_typeE@Base 1.1.0
 _ZN13icalendar_2_017CalscaleValueTypeC1ERKN11xercesc_3_17DOMAttrEN3xsd3cxx4tree5flagsEPNS7_5_typeE@Base 1.1.0
 _ZN13icalendar_2_017CalscaleValueTypeC1ERKN3xsd3cxx4tree6stringIcNS3_11simple_typeIcNS3_5_typeEEEEE@Base 1.1.0
 _ZN13icalendar_2_017CalscaleValueTypeC1ERKNSt7__cxx1112basic_stringIcSt11char_traitsIcESaIcEEE@Base 1.1.0
 _ZN13icalendar_2_017CalscaleValueTypeC1ERKNSt7__cxx1112basic_stringIcSt11char_traitsIcESaIcEEEPKN11xercesc_3_110DOMElementEN3xsd3cxx4tree5flagsEPNSF_5_typeE@Base 1.1.0
 _ZN13icalendar_2_017CalscaleValueTypeC1ERKS0_N3xsd3cxx4tree5flagsEPNS5_5_typeE@Base 1.1.0
 _ZN13icalendar_2_017CalscaleValueTypeC2ENS0_5valueE@Base 1.1.0
 _ZN13icalendar_2_017CalscaleValueTypeC2EPKc@Base 1.1.0
 _ZN13icalendar_2_017CalscaleValueTypeC2ERKN11xercesc_3_110DOMElementEN3xsd3cxx4tree5flagsEPNS7_5_typeE@Base 1.1.0
 _ZN13icalendar_2_017CalscaleValueTypeC2ERKN11xercesc_3_17DOMAttrEN3xsd3cxx4tree5flagsEPNS7_5_typeE@Base 1.1.0
 _ZN13icalendar_2_017CalscaleValueTypeC2ERKN3xsd3cxx4tree6stringIcNS3_11simple_typeIcNS3_5_typeEEEEE@Base 1.1.0
 _ZN13icalendar_2_017CalscaleValueTypeC2ERKNSt7__cxx1112basic_stringIcSt11char_traitsIcESaIcEEE@Base 1.1.0
 _ZN13icalendar_2_017CalscaleValueTypeC2ERKNSt7__cxx1112basic_stringIcSt11char_traitsIcESaIcEEEPKN11xercesc_3_110DOMElementEN3xsd3cxx4tree5flagsEPNSF_5_typeE@Base 1.1.0
 _ZN13icalendar_2_017CalscaleValueTypeC2ERKS0_N3xsd3cxx4tree5flagsEPNS5_5_typeE@Base 1.1.0
 _ZN13icalendar_2_017CalscaleValueTypeD0Ev@Base 1.1.0
 _ZN13icalendar_2_017CalscaleValueTypeD1Ev@Base 1.1.0
 _ZN13icalendar_2_017CalscaleValueTypeD2Ev@Base 1.1.0
 _ZN13icalendar_2_017CalscaleValueTypeaSENS0_5valueE@Base 1.1.0
 _ZN13icalendar_2_017CompletedPropTypeC1ERKN11xercesc_3_110DOMElementEN3xsd3cxx4tree5flagsEPNS7_5_typeE@Base 1.1.0
 _ZN13icalendar_2_017CompletedPropTypeC1ERKS0_N3xsd3cxx4tree5flagsEPNS5_5_typeE@Base 1.1.0
 _ZN13icalendar_2_017CompletedPropTypeC1Ev@Base 1.1.0
 _ZN13icalendar_2_017CompletedPropTypeC2ERKN11xercesc_3_110DOMElementEN3xsd3cxx4tree5flagsEPNS7_5_typeE@Base 1.1.0
 _ZN13icalendar_2_017CompletedPropTypeC2ERKS0_N3xsd3cxx4tree5flagsEPNS5_5_typeE@Base 1.1.0
 _ZN13icalendar_2_017CompletedPropTypeC2Ev@Base 1.1.0
 _ZN13icalendar_2_017CompletedPropTypeD0Ev@Base 1.1.0
 _ZN13icalendar_2_017CompletedPropTypeD1Ev@Base 1.1.0
 _ZN13icalendar_2_017CompletedPropTypeD2Ev@Base 1.1.0
 _ZN13icalendar_2_017DurationValueTypeC1EPKc@Base 1.1.0
 _ZN13icalendar_2_017DurationValueTypeC1ERKN11xercesc_3_110DOMElementEN3xsd3cxx4tree5flagsEPNS7_5_typeE@Base 1.1.0
 _ZN13icalendar_2_017DurationValueTypeC1ERKN11xercesc_3_17DOMAttrEN3xsd3cxx4tree5flagsEPNS7_5_typeE@Base 1.1.0
 _ZN13icalendar_2_017DurationValueTypeC1ERKN3xsd3cxx4tree6stringIcNS3_11simple_typeIcNS3_5_typeEEEEE@Base 1.1.0
 _ZN13icalendar_2_017DurationValueTypeC1ERKNSt7__cxx1112basic_stringIcSt11char_traitsIcESaIcEEE@Base 1.1.0
 _ZN13icalendar_2_017DurationValueTypeC1ERKNSt7__cxx1112basic_stringIcSt11char_traitsIcESaIcEEEPKN11xercesc_3_110DOMElementEN3xsd3cxx4tree5flagsEPNSF_5_typeE@Base 1.1.0
 _ZN13icalendar_2_017DurationValueTypeC1ERKS0_N3xsd3cxx4tree5flagsEPNS5_5_typeE@Base 1.1.0
 _ZN13icalendar_2_017DurationValueTypeC1Ev@Base 1.1.0
 _ZN13icalendar_2_017DurationValueTypeC2EPKc@Base 1.1.0
 _ZN13icalendar_2_017DurationValueTypeC2ERKN11xercesc_3_110DOMElementEN3xsd3cxx4tree5flagsEPNS7_5_typeE@Base 1.1.0
 _ZN13icalendar_2_017DurationValueTypeC2ERKN11xercesc_3_17DOMAttrEN3xsd3cxx4tree5flagsEPNS7_5_typeE@Base 1.1.0
 _ZN13icalendar_2_017DurationValueTypeC2ERKN3xsd3cxx4tree6stringIcNS3_11simple_typeIcNS3_5_typeEEEEE@Base 1.1.0
 _ZN13icalendar_2_017DurationValueTypeC2ERKNSt7__cxx1112basic_stringIcSt11char_traitsIcESaIcEEE@Base 1.1.0
 _ZN13icalendar_2_017DurationValueTypeC2ERKNSt7__cxx1112basic_stringIcSt11char_traitsIcESaIcEEEPKN11xercesc_3_110DOMElementEN3xsd3cxx4tree5flagsEPNSF_5_typeE@Base 1.1.0
 _ZN13icalendar_2_017DurationValueTypeC2ERKS0_N3xsd3cxx4tree5flagsEPNS5_5_typeE@Base 1.1.0
 _ZN13icalendar_2_017DurationValueTypeC2Ev@Base 1.1.0
 _ZN13icalendar_2_017DurationValueTypeD0Ev@Base 1.1.0
 _ZN13icalendar_2_017DurationValueTypeD1Ev@Base 1.1.0
 _ZN13icalendar_2_017DurationValueTypeD2Ev@Base 1.1.0
 _ZN13icalendar_2_017EncodingParamTypeC1ERKN11xercesc_3_110DOMElementEN3xsd3cxx4tree5flagsEPNS7_5_typeE@Base 1.1.0
 _ZN13icalendar_2_017EncodingParamTypeC1ERKN3xsd3cxx4tree6stringIcNS3_11simple_typeIcNS3_5_typeEEEEE@Base 1.1.0
 _ZN13icalendar_2_017EncodingParamTypeC1ERKS0_N3xsd3cxx4tree5flagsEPNS5_5_typeE@Base 1.1.0
 _ZN13icalendar_2_017EncodingParamTypeC2ERKN11xercesc_3_110DOMElementEN3xsd3cxx4tree5flagsEPNS7_5_typeE@Base 1.1.0
 _ZN13icalendar_2_017EncodingParamTypeC2ERKN3xsd3cxx4tree6stringIcNS3_11simple_typeIcNS3_5_typeEEEEE@Base 1.1.0
 _ZN13icalendar_2_017EncodingParamTypeC2ERKS0_N3xsd3cxx4tree5flagsEPNS5_5_typeE@Base 1.1.0
 _ZN13icalendar_2_017EncodingParamTypeD0Ev@Base 1.1.0
 _ZN13icalendar_2_017EncodingParamTypeD1Ev@Base 1.1.0
 _ZN13icalendar_2_017EncodingParamTypeD2Ev@Base 1.1.0
 _ZN13icalendar_2_017LanguageParamTypeC1ERKN11xercesc_3_110DOMElementEN3xsd3cxx4tree5flagsEPNS7_5_typeE@Base 1.1.0
 _ZN13icalendar_2_017LanguageParamTypeC1ERKN3xsd3cxx4tree6stringIcNS3_11simple_typeIcNS3_5_typeEEEEE@Base 1.1.0
 _ZN13icalendar_2_017LanguageParamTypeC1ERKS0_N3xsd3cxx4tree5flagsEPNS5_5_typeE@Base 1.1.0
 _ZN13icalendar_2_017LanguageParamTypeC2ERKN11xercesc_3_110DOMElementEN3xsd3cxx4tree5flagsEPNS7_5_typeE@Base 1.1.0
 _ZN13icalendar_2_017LanguageParamTypeC2ERKN3xsd3cxx4tree6stringIcNS3_11simple_typeIcNS3_5_typeEEEEE@Base 1.1.0
 _ZN13icalendar_2_017LanguageParamTypeC2ERKS0_N3xsd3cxx4tree5flagsEPNS5_5_typeE@Base 1.1.0
 _ZN13icalendar_2_017LanguageParamTypeD0Ev@Base 1.1.0
 _ZN13icalendar_2_017LanguageParamTypeD1Ev@Base 1.1.0
 _ZN13icalendar_2_017LanguageParamTypeD2Ev@Base 1.1.0
 _ZN13icalendar_2_017OrganizerPropTypeC1ERKN11xercesc_3_110DOMElementEN3xsd3cxx4tree5flagsEPNS7_5_typeE@Base 1.1.0
 _ZN13icalendar_2_017OrganizerPropTypeC1ERKNS_14CalAddressTypeE@Base 1.1.0
 _ZN13icalendar_2_017OrganizerPropTypeC1ERKS0_N3xsd3cxx4tree5flagsEPNS5_5_typeE@Base 1.1.0
 _ZN13icalendar_2_017OrganizerPropTypeC2ERKN11xercesc_3_110DOMElementEN3xsd3cxx4tree5flagsEPNS7_5_typeE@Base 1.1.0
 _ZN13icalendar_2_017OrganizerPropTypeC2ERKNS_14CalAddressTypeE@Base 1.1.0
 _ZN13icalendar_2_017OrganizerPropTypeC2ERKS0_N3xsd3cxx4tree5flagsEPNS5_5_typeE@Base 1.1.0
 _ZN13icalendar_2_017OrganizerPropTypeD0Ev@Base 1.1.0
 _ZN13icalendar_2_017OrganizerPropTypeD1Ev@Base 1.1.0
 _ZN13icalendar_2_017OrganizerPropTypeD2Ev@Base 1.1.0
 _ZN13icalendar_2_017PartstatParamTypeC1ERKN11xercesc_3_110DOMElementEN3xsd3cxx4tree5flagsEPNS7_5_typeE@Base 1.1.0
 _ZN13icalendar_2_017PartstatParamTypeC1ERKN3xsd3cxx4tree6stringIcNS3_11simple_typeIcNS3_5_typeEEEEE@Base 1.1.0
 _ZN13icalendar_2_017PartstatParamTypeC1ERKS0_N3xsd3cxx4tree5flagsEPNS5_5_typeE@Base 1.1.0
 _ZN13icalendar_2_017PartstatParamTypeC2ERKN11xercesc_3_110DOMElementEN3xsd3cxx4tree5flagsEPNS7_5_typeE@Base 1.1.0
 _ZN13icalendar_2_017PartstatParamTypeC2ERKN3xsd3cxx4tree6stringIcNS3_11simple_typeIcNS3_5_typeEEEEE@Base 1.1.0
 _ZN13icalendar_2_017PartstatParamTypeC2ERKS0_N3xsd3cxx4tree5flagsEPNS5_5_typeE@Base 1.1.0
 _ZN13icalendar_2_017PartstatParamTypeD0Ev@Base 1.1.0
 _ZN13icalendar_2_017PartstatParamTypeD1Ev@Base 1.1.0
 _ZN13icalendar_2_017PartstatParamTypeD2Ev@Base 1.1.0
 _ZN13icalendar_2_017RecurPropertyType5parseERN3xsd3cxx3xml3dom6parserIcEENS2_4tree5flagsE@Base 1.1.0
 _ZN13icalendar_2_017RecurPropertyType5recurERKNS_9RecurTypeE@Base 1.1.0
 _ZN13icalendar_2_017RecurPropertyType5recurESt8auto_ptrINS_9RecurTypeEE@Base 1.1.0
 _ZN13icalendar_2_017RecurPropertyType5recurEv@Base 1.1.0
 _ZN13icalendar_2_017RecurPropertyTypeC1ERKN11xercesc_3_110DOMElementEN3xsd3cxx4tree5flagsEPNS7_5_typeE@Base 1.1.0
 _ZN13icalendar_2_017RecurPropertyTypeC1ERKNS_9RecurTypeE@Base 1.1.0
 _ZN13icalendar_2_017RecurPropertyTypeC1ERKS0_N3xsd3cxx4tree5flagsEPNS5_5_typeE@Base 1.1.0
 _ZN13icalendar_2_017RecurPropertyTypeC1ESt8auto_ptrINS_9RecurTypeEE@Base 1.1.0
 _ZN13icalendar_2_017RecurPropertyTypeC2ERKN11xercesc_3_110DOMElementEN3xsd3cxx4tree5flagsEPNS7_5_typeE@Base 1.1.0
 _ZN13icalendar_2_017RecurPropertyTypeC2ERKNS_9RecurTypeE@Base 1.1.0
 _ZN13icalendar_2_017RecurPropertyTypeC2ERKS0_N3xsd3cxx4tree5flagsEPNS5_5_typeE@Base 1.1.0
 _ZN13icalendar_2_017RecurPropertyTypeC2ESt8auto_ptrINS_9RecurTypeEE@Base 1.1.0
 _ZN13icalendar_2_017RecurPropertyTypeD0Ev@Base 1.1.0
 _ZN13icalendar_2_017RecurPropertyTypeD1Ev@Base 1.1.0
 _ZN13icalendar_2_017RecurPropertyTypeD2Ev@Base 1.1.0
 _ZN13icalendar_2_017RecurPropertyTypeaSERKS0_@Base 1.1.0
 _ZN13icalendar_2_017RelatedToPropTypeC1ERKN11xercesc_3_110DOMElementEN3xsd3cxx4tree5flagsEPNS7_5_typeE@Base 1.1.0
 _ZN13icalendar_2_017RelatedToPropTypeC1ERKN3xsd3cxx4tree6stringIcNS3_11simple_typeIcNS3_5_typeEEEEE@Base 1.1.0
 _ZN13icalendar_2_017RelatedToPropTypeC1ERKS0_N3xsd3cxx4tree5flagsEPNS5_5_typeE@Base 1.1.0
 _ZN13icalendar_2_017RelatedToPropTypeC2ERKN11xercesc_3_110DOMElementEN3xsd3cxx4tree5flagsEPNS7_5_typeE@Base 1.1.0
 _ZN13icalendar_2_017RelatedToPropTypeC2ERKN3xsd3cxx4tree6stringIcNS3_11simple_typeIcNS3_5_typeEEEEE@Base 1.1.0
 _ZN13icalendar_2_017RelatedToPropTypeC2ERKS0_N3xsd3cxx4tree5flagsEPNS5_5_typeE@Base 1.1.0
 _ZN13icalendar_2_017RelatedToPropTypeD0Ev@Base 1.1.0
 _ZN13icalendar_2_017RelatedToPropTypeD1Ev@Base 1.1.0
 _ZN13icalendar_2_017RelatedToPropTypeD2Ev@Base 1.1.0
 _ZN13icalendar_2_017ResourcesPropTypeC1ERKN11xercesc_3_110DOMElementEN3xsd3cxx4tree5flagsEPNS7_5_typeE@Base 1.1.0
 _ZN13icalendar_2_017ResourcesPropTypeC1ERKS0_N3xsd3cxx4tree5flagsEPNS5_5_typeE@Base 1.1.0
 _ZN13icalendar_2_017ResourcesPropTypeC1Ev@Base 1.1.0
 _ZN13icalendar_2_017ResourcesPropTypeC2ERKN11xercesc_3_110DOMElementEN3xsd3cxx4tree5flagsEPNS7_5_typeE@Base 1.1.0
 _ZN13icalendar_2_017ResourcesPropTypeC2ERKS0_N3xsd3cxx4tree5flagsEPNS5_5_typeE@Base 1.1.0
 _ZN13icalendar_2_017ResourcesPropTypeC2Ev@Base 1.1.0
 _ZN13icalendar_2_017ResourcesPropTypeD0Ev@Base 1.1.0
 _ZN13icalendar_2_017ResourcesPropTypeD1Ev@Base 1.1.0
 _ZN13icalendar_2_017ResourcesPropTypeD2Ev@Base 1.1.0
 _ZN13icalendar_2_017TextParameterType4textERKN3xsd3cxx4tree6stringIcNS3_11simple_typeIcNS3_5_typeEEEEE@Base 1.1.0
 _ZN13icalendar_2_017TextParameterType4textESt8auto_ptrIN3xsd3cxx4tree6stringIcNS4_11simple_typeIcNS4_5_typeEEEEEE@Base 1.1.0
 _ZN13icalendar_2_017TextParameterType4textEv@Base 1.1.0
 _ZN13icalendar_2_017TextParameterType5parseERN3xsd3cxx3xml3dom6parserIcEENS2_4tree5flagsE@Base 1.1.0
 _ZN13icalendar_2_017TextParameterTypeC1ERKN11xercesc_3_110DOMElementEN3xsd3cxx4tree5flagsEPNS7_5_typeE@Base 1.1.0
 _ZN13icalendar_2_017TextParameterTypeC1ERKN3xsd3cxx4tree6stringIcNS3_11simple_typeIcNS3_5_typeEEEEE@Base 1.1.0
 _ZN13icalendar_2_017TextParameterTypeC1ERKS0_N3xsd3cxx4tree5flagsEPNS5_5_typeE@Base 1.1.0
 _ZN13icalendar_2_017TextParameterTypeC2ERKN11xercesc_3_110DOMElementEN3xsd3cxx4tree5flagsEPNS7_5_typeE@Base 1.1.0
 _ZN13icalendar_2_017TextParameterTypeC2ERKN3xsd3cxx4tree6stringIcNS3_11simple_typeIcNS3_5_typeEEEEE@Base 1.1.0
 _ZN13icalendar_2_017TextParameterTypeC2ERKS0_N3xsd3cxx4tree5flagsEPNS5_5_typeE@Base 1.1.0
 _ZN13icalendar_2_017TextParameterTypeD0Ev@Base 1.1.0
 _ZN13icalendar_2_017TextParameterTypeD1Ev@Base 1.1.0
 _ZN13icalendar_2_017TextParameterTypeD2Ev@Base 1.1.0
 _ZN13icalendar_2_017TextParameterTypeaSERKS0_@Base 1.1.0
 _ZN13icalendar_2_018ByyeardayRecurTypeC1ERKN11xercesc_3_110DOMElementEN3xsd3cxx4tree5flagsEPNS7_5_typeE@Base 1.1.0
 _ZN13icalendar_2_018ByyeardayRecurTypeC1ERKN11xercesc_3_17DOMAttrEN3xsd3cxx4tree5flagsEPNS7_5_typeE@Base 1.1.0
 _ZN13icalendar_2_018ByyeardayRecurTypeC1ERKNSt7__cxx1112basic_stringIcSt11char_traitsIcESaIcEEEPKN11xercesc_3_110DOMElementEN3xsd3cxx4tree5flagsEPNSF_5_typeE@Base 1.1.0
 _ZN13icalendar_2_018ByyeardayRecurTypeC1ERKS0_N3xsd3cxx4tree5flagsEPNS5_5_typeE@Base 1.1.0
 _ZN13icalendar_2_018ByyeardayRecurTypeC1ERKx@Base 1.1.0
 _ZN13icalendar_2_018ByyeardayRecurTypeC2ERKN11xercesc_3_110DOMElementEN3xsd3cxx4tree5flagsEPNS7_5_typeE@Base 1.1.0
 _ZN13icalendar_2_018ByyeardayRecurTypeC2ERKN11xercesc_3_17DOMAttrEN3xsd3cxx4tree5flagsEPNS7_5_typeE@Base 1.1.0
 _ZN13icalendar_2_018ByyeardayRecurTypeC2ERKNSt7__cxx1112basic_stringIcSt11char_traitsIcESaIcEEEPKN11xercesc_3_110DOMElementEN3xsd3cxx4tree5flagsEPNSF_5_typeE@Base 1.1.0
 _ZN13icalendar_2_018ByyeardayRecurTypeC2ERKS0_N3xsd3cxx4tree5flagsEPNS5_5_typeE@Base 1.1.0
 _ZN13icalendar_2_018ByyeardayRecurTypeC2ERKx@Base 1.1.0
 _ZN13icalendar_2_018ByyeardayRecurTypeD0Ev@Base 1.1.0
 _ZN13icalendar_2_018ByyeardayRecurTypeD1Ev@Base 1.1.0
 _ZN13icalendar_2_018ByyeardayRecurTypeD2Ev@Base 1.1.0
 _ZN13icalendar_2_018CategoriesPropTypeC1ERKN11xercesc_3_110DOMElementEN3xsd3cxx4tree5flagsEPNS7_5_typeE@Base 1.1.0
 _ZN13icalendar_2_018CategoriesPropTypeC1ERKS0_N3xsd3cxx4tree5flagsEPNS5_5_typeE@Base 1.1.0
 _ZN13icalendar_2_018CategoriesPropTypeC1Ev@Base 1.1.0
 _ZN13icalendar_2_018CategoriesPropTypeC2ERKN11xercesc_3_110DOMElementEN3xsd3cxx4tree5flagsEPNS7_5_typeE@Base 1.1.0
 _ZN13icalendar_2_018CategoriesPropTypeC2ERKS0_N3xsd3cxx4tree5flagsEPNS5_5_typeE@Base 1.1.0
 _ZN13icalendar_2_018CategoriesPropTypeC2Ev@Base 1.1.0
 _ZN13icalendar_2_018CategoriesPropTypeD0Ev@Base 1.1.0
 _ZN13icalendar_2_018CategoriesPropTypeD1Ev@Base 1.1.0
 _ZN13icalendar_2_018CategoriesPropTypeD2Ev@Base 1.1.0
 _ZN13icalendar_2_018TzoffsettoPropTypeC1ERKN11xercesc_3_110DOMElementEN3xsd3cxx4tree5flagsEPNS7_5_typeE@Base 1.1.0
 _ZN13icalendar_2_018TzoffsettoPropTypeC1ERKNS_13UtcOffsetTypeE@Base 1.1.0
 _ZN13icalendar_2_018TzoffsettoPropTypeC1ERKS0_N3xsd3cxx4tree5flagsEPNS5_5_typeE@Base 1.1.0
 _ZN13icalendar_2_018TzoffsettoPropTypeC2ERKN11xercesc_3_110DOMElementEN3xsd3cxx4tree5flagsEPNS7_5_typeE@Base 1.1.0
 _ZN13icalendar_2_018TzoffsettoPropTypeC2ERKNS_13UtcOffsetTypeE@Base 1.1.0
 _ZN13icalendar_2_018TzoffsettoPropTypeC2ERKS0_N3xsd3cxx4tree5flagsEPNS5_5_typeE@Base 1.1.0
 _ZN13icalendar_2_018TzoffsettoPropTypeD0Ev@Base 1.1.0
 _ZN13icalendar_2_018TzoffsettoPropTypeD1Ev@Base 1.1.0
 _ZN13icalendar_2_018TzoffsettoPropTypeD2Ev@Base 1.1.0
 _ZN13icalendar_2_019BymonthdayRecurTypeC1ERKN11xercesc_3_110DOMElementEN3xsd3cxx4tree5flagsEPNS7_5_typeE@Base 1.1.0
 _ZN13icalendar_2_019BymonthdayRecurTypeC1ERKN11xercesc_3_17DOMAttrEN3xsd3cxx4tree5flagsEPNS7_5_typeE@Base 1.1.0
 _ZN13icalendar_2_019BymonthdayRecurTypeC1ERKNSt7__cxx1112basic_stringIcSt11char_traitsIcESaIcEEEPKN11xercesc_3_110DOMElementEN3xsd3cxx4tree5flagsEPNSF_5_typeE@Base 1.1.0
 _ZN13icalendar_2_019BymonthdayRecurTypeC1ERKS0_N3xsd3cxx4tree5flagsEPNS5_5_typeE@Base 1.1.0
 _ZN13icalendar_2_019BymonthdayRecurTypeC1ERKx@Base 1.1.0
 _ZN13icalendar_2_019BymonthdayRecurTypeC2ERKN11xercesc_3_110DOMElementEN3xsd3cxx4tree5flagsEPNS7_5_typeE@Base 1.1.0
 _ZN13icalendar_2_019BymonthdayRecurTypeC2ERKN11xercesc_3_17DOMAttrEN3xsd3cxx4tree5flagsEPNS7_5_typeE@Base 1.1.0
 _ZN13icalendar_2_019BymonthdayRecurTypeC2ERKNSt7__cxx1112basic_stringIcSt11char_traitsIcESaIcEEEPKN11xercesc_3_110DOMElementEN3xsd3cxx4tree5flagsEPNSF_5_typeE@Base 1.1.0
 _ZN13icalendar_2_019BymonthdayRecurTypeC2ERKS0_N3xsd3cxx4tree5flagsEPNS5_5_typeE@Base 1.1.0
 _ZN13icalendar_2_019BymonthdayRecurTypeC2ERKx@Base 1.1.0
 _ZN13icalendar_2_019BymonthdayRecurTypeD0Ev@Base 1.1.0
 _ZN13icalendar_2_019BymonthdayRecurTypeD1Ev@Base 1.1.0
 _ZN13icalendar_2_019BymonthdayRecurTypeD2Ev@Base 1.1.0
 _ZN13icalendar_2_019CalAddressParamType11cal_addressERKNS_14CalAddressTypeE@Base 1.1.0
 _ZN13icalendar_2_019CalAddressParamType11cal_addressESt8auto_ptrINS_14CalAddressTypeEE@Base 1.1.0
 _ZN13icalendar_2_019CalAddressParamType11cal_addressEv@Base 1.1.0
 _ZN13icalendar_2_019CalAddressParamType5parseERN3xsd3cxx3xml3dom6parserIcEENS2_4tree5flagsE@Base 1.1.0
 _ZN13icalendar_2_019CalAddressParamTypeC1ERKN11xercesc_3_110DOMElementEN3xsd3cxx4tree5flagsEPNS7_5_typeE@Base 1.1.0
 _ZN13icalendar_2_019CalAddressParamTypeC1ERKNS_14CalAddressTypeE@Base 1.1.0
 _ZN13icalendar_2_019CalAddressParamTypeC1ERKS0_N3xsd3cxx4tree5flagsEPNS5_5_typeE@Base 1.1.0
 _ZN13icalendar_2_019CalAddressParamTypeC2ERKN11xercesc_3_110DOMElementEN3xsd3cxx4tree5flagsEPNS7_5_typeE@Base 1.1.0
 _ZN13icalendar_2_019CalAddressParamTypeC2ERKNS_14CalAddressTypeE@Base 1.1.0
 _ZN13icalendar_2_019CalAddressParamTypeC2ERKS0_N3xsd3cxx4tree5flagsEPNS5_5_typeE@Base 1.1.0
 _ZN13icalendar_2_019CalAddressParamTypeD0Ev@Base 1.1.0
 _ZN13icalendar_2_019CalAddressParamTypeD1Ev@Base 1.1.0
 _ZN13icalendar_2_019CalAddressParamTypeD2Ev@Base 1.1.0
 _ZN13icalendar_2_019CalAddressParamTypeaSERKS0_@Base 1.1.0
 _ZN13icalendar_2_019DescriptionPropTypeC1ERKN11xercesc_3_110DOMElementEN3xsd3cxx4tree5flagsEPNS7_5_typeE@Base 1.1.0
 _ZN13icalendar_2_019DescriptionPropTypeC1ERKN3xsd3cxx4tree6stringIcNS3_11simple_typeIcNS3_5_typeEEEEE@Base 1.1.0
 _ZN13icalendar_2_019DescriptionPropTypeC1ERKS0_N3xsd3cxx4tree5flagsEPNS5_5_typeE@Base 1.1.0
 _ZN13icalendar_2_019DescriptionPropTypeC2ERKN11xercesc_3_110DOMElementEN3xsd3cxx4tree5flagsEPNS7_5_typeE@Base 1.1.0
 _ZN13icalendar_2_019DescriptionPropTypeC2ERKN3xsd3cxx4tree6stringIcNS3_11simple_typeIcNS3_5_typeEEEEE@Base 1.1.0
 _ZN13icalendar_2_019DescriptionPropTypeC2ERKS0_N3xsd3cxx4tree5flagsEPNS5_5_typeE@Base 1.1.0
 _ZN13icalendar_2_019DescriptionPropTypeD0Ev@Base 1.1.0
 _ZN13icalendar_2_019DescriptionPropTypeD1Ev@Base 1.1.0
 _ZN13icalendar_2_019DescriptionPropTypeD2Ev@Base 1.1.0
 _ZN13icalendar_2_019IntegerPropertyType5parseERN3xsd3cxx3xml3dom6parserIcEENS2_4tree5flagsE@Base 1.1.0
 _ZN13icalendar_2_019IntegerPropertyType7integerERKx@Base 1.1.0
 _ZN13icalendar_2_019IntegerPropertyType7integerEv@Base 1.1.0
 _ZN13icalendar_2_019IntegerPropertyTypeC1ERKN11xercesc_3_110DOMElementEN3xsd3cxx4tree5flagsEPNS7_5_typeE@Base 1.1.0
 _ZN13icalendar_2_019IntegerPropertyTypeC1ERKS0_N3xsd3cxx4tree5flagsEPNS5_5_typeE@Base 1.1.0
 _ZN13icalendar_2_019IntegerPropertyTypeC1ERKx@Base 1.1.0
 _ZN13icalendar_2_019IntegerPropertyTypeC2ERKN11xercesc_3_110DOMElementEN3xsd3cxx4tree5flagsEPNS7_5_typeE@Base 1.1.0
 _ZN13icalendar_2_019IntegerPropertyTypeC2ERKS0_N3xsd3cxx4tree5flagsEPNS5_5_typeE@Base 1.1.0
 _ZN13icalendar_2_019IntegerPropertyTypeC2ERKx@Base 1.1.0
 _ZN13icalendar_2_019IntegerPropertyTypeD0Ev@Base 1.1.0
 _ZN13icalendar_2_019IntegerPropertyTypeD1Ev@Base 1.1.0
 _ZN13icalendar_2_019IntegerPropertyTypeD2Ev@Base 1.1.0
 _ZN13icalendar_2_019IntegerPropertyTypeaSERKS0_@Base 1.1.0
 _ZN13icalendar_2_020BooleanParameterType5parseERN3xsd3cxx3xml3dom6parserIcEENS2_4tree5flagsE@Base 1.1.0
 _ZN13icalendar_2_020BooleanParameterType7booleanERKb@Base 1.1.0
 _ZN13icalendar_2_020BooleanParameterType7booleanEv@Base 1.1.0
 _ZN13icalendar_2_020BooleanParameterTypeC1ERKN11xercesc_3_110DOMElementEN3xsd3cxx4tree5flagsEPNS7_5_typeE@Base 1.1.0
 _ZN13icalendar_2_020BooleanParameterTypeC1ERKS0_N3xsd3cxx4tree5flagsEPNS5_5_typeE@Base 1.1.0
 _ZN13icalendar_2_020BooleanParameterTypeC1ERKb@Base 1.1.0
 _ZN13icalendar_2_020BooleanParameterTypeC2ERKN11xercesc_3_110DOMElementEN3xsd3cxx4tree5flagsEPNS7_5_typeE@Base 1.1.0
 _ZN13icalendar_2_020BooleanParameterTypeC2ERKS0_N3xsd3cxx4tree5flagsEPNS5_5_typeE@Base 1.1.0
 _ZN13icalendar_2_020BooleanParameterTypeC2ERKb@Base 1.1.0
 _ZN13icalendar_2_020BooleanParameterTypeD0Ev@Base 1.1.0
 _ZN13icalendar_2_020BooleanParameterTypeD1Ev@Base 1.1.0
 _ZN13icalendar_2_020BooleanParameterTypeD2Ev@Base 1.1.0
 _ZN13icalendar_2_020BooleanParameterTypeaSERKS0_@Base 1.1.0
 _ZN13icalendar_2_020DatetimePropertyType5parseERN3xsd3cxx3xml3dom6parserIcEENS2_4tree5flagsE@Base 1.1.0
 _ZN13icalendar_2_020DatetimePropertyType9date_timeERKNS_12DateTimeTypeE@Base 1.1.0
 _ZN13icalendar_2_020DatetimePropertyType9date_timeESt8auto_ptrINS_12DateTimeTypeEE@Base 1.1.0
 _ZN13icalendar_2_020DatetimePropertyType9date_timeEv@Base 1.1.0
 _ZN13icalendar_2_020DatetimePropertyTypeC1ERKN11xercesc_3_110DOMElementEN3xsd3cxx4tree5flagsEPNS7_5_typeE@Base 1.1.0
 _ZN13icalendar_2_020DatetimePropertyTypeC1ERKNS_12DateTimeTypeE@Base 1.1.0
 _ZN13icalendar_2_020DatetimePropertyTypeC1ERKS0_N3xsd3cxx4tree5flagsEPNS5_5_typeE@Base 1.1.0
 _ZN13icalendar_2_020DatetimePropertyTypeC2ERKN11xercesc_3_110DOMElementEN3xsd3cxx4tree5flagsEPNS7_5_typeE@Base 1.1.0
 _ZN13icalendar_2_020DatetimePropertyTypeC2ERKNS_12DateTimeTypeE@Base 1.1.0
 _ZN13icalendar_2_020DatetimePropertyTypeC2ERKS0_N3xsd3cxx4tree5flagsEPNS5_5_typeE@Base 1.1.0
 _ZN13icalendar_2_020DatetimePropertyTypeD0Ev@Base 1.1.0
 _ZN13icalendar_2_020DatetimePropertyTypeD1Ev@Base 1.1.0
 _ZN13icalendar_2_020DatetimePropertyTypeD2Ev@Base 1.1.0
 _ZN13icalendar_2_020DatetimePropertyTypeaSERKS0_@Base 1.1.0
 _ZN13icalendar_2_020DelegatedToParamTypeC1ERKN11xercesc_3_110DOMElementEN3xsd3cxx4tree5flagsEPNS7_5_typeE@Base 1.1.0
 _ZN13icalendar_2_020DelegatedToParamTypeC1ERKS0_N3xsd3cxx4tree5flagsEPNS5_5_typeE@Base 1.1.0
 _ZN13icalendar_2_020DelegatedToParamTypeC1Ev@Base 1.1.0
 _ZN13icalendar_2_020DelegatedToParamTypeC2ERKN11xercesc_3_110DOMElementEN3xsd3cxx4tree5flagsEPNS7_5_typeE@Base 1.1.0
 _ZN13icalendar_2_020DelegatedToParamTypeC2ERKS0_N3xsd3cxx4tree5flagsEPNS5_5_typeE@Base 1.1.0
 _ZN13icalendar_2_020DelegatedToParamTypeC2Ev@Base 1.1.0
 _ZN13icalendar_2_020DelegatedToParamTypeD0Ev@Base 1.1.0
 _ZN13icalendar_2_020DelegatedToParamTypeD1Ev@Base 1.1.0
 _ZN13icalendar_2_020DelegatedToParamTypeD2Ev@Base 1.1.0
 _ZN13icalendar_2_020LastModifiedPropTypeC1ERKN11xercesc_3_110DOMElementEN3xsd3cxx4tree5flagsEPNS7_5_typeE@Base 1.1.0
 _ZN13icalendar_2_020LastModifiedPropTypeC1ERKS0_N3xsd3cxx4tree5flagsEPNS5_5_typeE@Base 1.1.0
 _ZN13icalendar_2_020LastModifiedPropTypeC1Ev@Base 1.1.0
 _ZN13icalendar_2_020LastModifiedPropTypeC2ERKN11xercesc_3_110DOMElementEN3xsd3cxx4tree5flagsEPNS7_5_typeE@Base 1.1.0
 _ZN13icalendar_2_020LastModifiedPropTypeC2ERKS0_N3xsd3cxx4tree5flagsEPNS5_5_typeE@Base 1.1.0
 _ZN13icalendar_2_020LastModifiedPropTypeC2Ev@Base 1.1.0
 _ZN13icalendar_2_020LastModifiedPropTypeD0Ev@Base 1.1.0
 _ZN13icalendar_2_020LastModifiedPropTypeD1Ev@Base 1.1.0
 _ZN13icalendar_2_020LastModifiedPropTypeD2Ev@Base 1.1.0
 _ZN13icalendar_2_020RecurrenceIdPropTypeC1ERKN11xercesc_3_110DOMElementEN3xsd3cxx4tree5flagsEPNS7_5_typeE@Base 1.1.0
 _ZN13icalendar_2_020RecurrenceIdPropTypeC1ERKS0_N3xsd3cxx4tree5flagsEPNS5_5_typeE@Base 1.1.0
 _ZN13icalendar_2_020RecurrenceIdPropTypeC1Ev@Base 1.1.0
 _ZN13icalendar_2_020RecurrenceIdPropTypeC2ERKN11xercesc_3_110DOMElementEN3xsd3cxx4tree5flagsEPNS7_5_typeE@Base 1.1.0
 _ZN13icalendar_2_020RecurrenceIdPropTypeC2ERKS0_N3xsd3cxx4tree5flagsEPNS5_5_typeE@Base 1.1.0
 _ZN13icalendar_2_020RecurrenceIdPropTypeC2Ev@Base 1.1.0
 _ZN13icalendar_2_020RecurrenceIdPropTypeD0Ev@Base 1.1.0
 _ZN13icalendar_2_020RecurrenceIdPropTypeD1Ev@Base 1.1.0
 _ZN13icalendar_2_020RecurrenceIdPropTypeD2Ev@Base 1.1.0
 _ZN13icalendar_2_020TextListPropertyType4textERKN3xsd3cxx4tree8sequenceINS3_6stringIcNS3_11simple_typeIcNS3_5_typeEEEEELb0EEE@Base 1.1.0
 _ZN13icalendar_2_020TextListPropertyType4textEv@Base 1.1.0
 _ZN13icalendar_2_020TextListPropertyType5parseERN3xsd3cxx3xml3dom6parserIcEENS2_4tree5flagsE@Base 1.1.0
 _ZN13icalendar_2_020TextListPropertyTypeC1ERKN11xercesc_3_110DOMElementEN3xsd3cxx4tree5flagsEPNS7_5_typeE@Base 1.1.0
 _ZN13icalendar_2_020TextListPropertyTypeC1ERKS0_N3xsd3cxx4tree5flagsEPNS5_5_typeE@Base 1.1.0
 _ZN13icalendar_2_020TextListPropertyTypeC1Ev@Base 1.1.0
 _ZN13icalendar_2_020TextListPropertyTypeC2ERKN11xercesc_3_110DOMElementEN3xsd3cxx4tree5flagsEPNS7_5_typeE@Base 1.1.0
 _ZN13icalendar_2_020TextListPropertyTypeC2ERKS0_N3xsd3cxx4tree5flagsEPNS5_5_typeE@Base 1.1.0
 _ZN13icalendar_2_020TextListPropertyTypeC2Ev@Base 1.1.0
 _ZN13icalendar_2_020TextListPropertyTypeD0Ev@Base 1.1.0
 _ZN13icalendar_2_020TextListPropertyTypeD1Ev@Base 1.1.0
 _ZN13icalendar_2_020TextListPropertyTypeD2Ev@Base 1.1.0
 _ZN13icalendar_2_020TextListPropertyTypeaSERKS0_@Base 1.1.0
 _ZN13icalendar_2_020TzoffsetfromPropTypeC1ERKN11xercesc_3_110DOMElementEN3xsd3cxx4tree5flagsEPNS7_5_typeE@Base 1.1.0
 _ZN13icalendar_2_020TzoffsetfromPropTypeC1ERKNS_13UtcOffsetTypeE@Base 1.1.0
 _ZN13icalendar_2_020TzoffsetfromPropTypeC1ERKS0_N3xsd3cxx4tree5flagsEPNS5_5_typeE@Base 1.1.0
 _ZN13icalendar_2_020TzoffsetfromPropTypeC2ERKN11xercesc_3_110DOMElementEN3xsd3cxx4tree5flagsEPNS7_5_typeE@Base 1.1.0
 _ZN13icalendar_2_020TzoffsetfromPropTypeC2ERKNS_13UtcOffsetTypeE@Base 1.1.0
 _ZN13icalendar_2_020TzoffsetfromPropTypeC2ERKS0_N3xsd3cxx4tree5flagsEPNS5_5_typeE@Base 1.1.0
 _ZN13icalendar_2_020TzoffsetfromPropTypeD0Ev@Base 1.1.0
 _ZN13icalendar_2_020TzoffsetfromPropTypeD1Ev@Base 1.1.0
 _ZN13icalendar_2_020TzoffsetfromPropTypeD2Ev@Base 1.1.0
 _ZN13icalendar_2_021RequestStatusPropType11descriptionERKN3xsd3cxx4tree6stringIcNS3_11simple_typeIcNS3_5_typeEEEEE@Base 1.1.0
 _ZN13icalendar_2_021RequestStatusPropType11descriptionESt8auto_ptrIN3xsd3cxx4tree6stringIcNS4_11simple_typeIcNS4_5_typeEEEEEE@Base 1.1.0
 _ZN13icalendar_2_021RequestStatusPropType11descriptionEv@Base 1.1.0
 _ZN13icalendar_2_021RequestStatusPropType4codeERKN3xsd3cxx4tree6stringIcNS3_11simple_typeIcNS3_5_typeEEEEE@Base 1.1.0
 _ZN13icalendar_2_021RequestStatusPropType4codeESt8auto_ptrIN3xsd3cxx4tree6stringIcNS4_11simple_typeIcNS4_5_typeEEEEEE@Base 1.1.0
 _ZN13icalendar_2_021RequestStatusPropType4codeEv@Base 1.1.0
 _ZN13icalendar_2_021RequestStatusPropType5parseERN3xsd3cxx3xml3dom6parserIcEENS2_4tree5flagsE@Base 1.1.0
 _ZN13icalendar_2_021RequestStatusPropType7extdataERKN3xsd3cxx4tree6stringIcNS3_11simple_typeIcNS3_5_typeEEEEE@Base 1.1.0
 _ZN13icalendar_2_021RequestStatusPropType7extdataESt8auto_ptrIN3xsd3cxx4tree6stringIcNS4_11simple_typeIcNS4_5_typeEEEEEE@Base 1.1.0
 _ZN13icalendar_2_021RequestStatusPropType7extdataEv@Base 1.1.0
 _ZN13icalendar_2_021RequestStatusPropTypeC1ERKN11xercesc_3_110DOMElementEN3xsd3cxx4tree5flagsEPNS7_5_typeE@Base 1.1.0
 _ZN13icalendar_2_021RequestStatusPropTypeC1ERKN3xsd3cxx4tree6stringIcNS3_11simple_typeIcNS3_5_typeEEEEESA_SA_@Base 1.1.0
 _ZN13icalendar_2_021RequestStatusPropTypeC1ERKS0_N3xsd3cxx4tree5flagsEPNS5_5_typeE@Base 1.1.0
 _ZN13icalendar_2_021RequestStatusPropTypeC2ERKN11xercesc_3_110DOMElementEN3xsd3cxx4tree5flagsEPNS7_5_typeE@Base 1.1.0
 _ZN13icalendar_2_021RequestStatusPropTypeC2ERKN3xsd3cxx4tree6stringIcNS3_11simple_typeIcNS3_5_typeEEEEESA_SA_@Base 1.1.0
 _ZN13icalendar_2_021RequestStatusPropTypeC2ERKS0_N3xsd3cxx4tree5flagsEPNS5_5_typeE@Base 1.1.0
 _ZN13icalendar_2_021RequestStatusPropTypeD0Ev@Base 1.1.0
 _ZN13icalendar_2_021RequestStatusPropTypeD1Ev@Base 1.1.0
 _ZN13icalendar_2_021RequestStatusPropTypeD2Ev@Base 1.1.0
 _ZN13icalendar_2_021RequestStatusPropTypeaSERKS0_@Base 1.1.0
 _ZN13icalendar_2_021UtcOffsetPropertyType10utc_offsetERKNS_13UtcOffsetTypeE@Base 1.1.0
 _ZN13icalendar_2_021UtcOffsetPropertyType10utc_offsetESt8auto_ptrINS_13UtcOffsetTypeEE@Base 1.1.0
 _ZN13icalendar_2_021UtcOffsetPropertyType10utc_offsetEv@Base 1.1.0
 _ZN13icalendar_2_021UtcOffsetPropertyType5parseERN3xsd3cxx3xml3dom6parserIcEENS2_4tree5flagsE@Base 1.1.0
 _ZN13icalendar_2_021UtcOffsetPropertyTypeC1ERKN11xercesc_3_110DOMElementEN3xsd3cxx4tree5flagsEPNS7_5_typeE@Base 1.1.0
 _ZN13icalendar_2_021UtcOffsetPropertyTypeC1ERKNS_13UtcOffsetTypeE@Base 1.1.0
 _ZN13icalendar_2_021UtcOffsetPropertyTypeC1ERKS0_N3xsd3cxx4tree5flagsEPNS5_5_typeE@Base 1.1.0
 _ZN13icalendar_2_021UtcOffsetPropertyTypeC2ERKN11xercesc_3_110DOMElementEN3xsd3cxx4tree5flagsEPNS7_5_typeE@Base 1.1.0
 _ZN13icalendar_2_021UtcOffsetPropertyTypeC2ERKNS_13UtcOffsetTypeE@Base 1.1.0
 _ZN13icalendar_2_021UtcOffsetPropertyTypeC2ERKS0_N3xsd3cxx4tree5flagsEPNS5_5_typeE@Base 1.1.0
 _ZN13icalendar_2_021UtcOffsetPropertyTypeD0Ev@Base 1.1.0
 _ZN13icalendar_2_021UtcOffsetPropertyTypeD1Ev@Base 1.1.0
 _ZN13icalendar_2_021UtcOffsetPropertyTypeD2Ev@Base 1.1.0
 _ZN13icalendar_2_021UtcOffsetPropertyTypeaSERKS0_@Base 1.1.0
 _ZN13icalendar_2_022CalAddressPropertyType11cal_addressERKNS_14CalAddressTypeE@Base 1.1.0
 _ZN13icalendar_2_022CalAddressPropertyType11cal_addressESt8auto_ptrINS_14CalAddressTypeEE@Base 1.1.0
 _ZN13icalendar_2_022CalAddressPropertyType11cal_addressEv@Base 1.1.0
 _ZN13icalendar_2_022CalAddressPropertyType5parseERN3xsd3cxx3xml3dom6parserIcEENS2_4tree5flagsE@Base 1.1.0
 _ZN13icalendar_2_022CalAddressPropertyTypeC1ERKN11xercesc_3_110DOMElementEN3xsd3cxx4tree5flagsEPNS7_5_typeE@Base 1.1.0
 _ZN13icalendar_2_022CalAddressPropertyTypeC1ERKNS_14CalAddressTypeE@Base 1.1.0
 _ZN13icalendar_2_022CalAddressPropertyTypeC1ERKS0_N3xsd3cxx4tree5flagsEPNS5_5_typeE@Base 1.1.0
 _ZN13icalendar_2_022CalAddressPropertyTypeC2ERKN11xercesc_3_110DOMElementEN3xsd3cxx4tree5flagsEPNS7_5_typeE@Base 1.1.0
 _ZN13icalendar_2_022CalAddressPropertyTypeC2ERKNS_14CalAddressTypeE@Base 1.1.0
 _ZN13icalendar_2_022CalAddressPropertyTypeC2ERKS0_N3xsd3cxx4tree5flagsEPNS5_5_typeE@Base 1.1.0
 _ZN13icalendar_2_022CalAddressPropertyTypeD0Ev@Base 1.1.0
 _ZN13icalendar_2_022CalAddressPropertyTypeD1Ev@Base 1.1.0
 _ZN13icalendar_2_022CalAddressPropertyTypeD2Ev@Base 1.1.0
 _ZN13icalendar_2_022CalAddressPropertyTypeaSERKS0_@Base 1.1.0
 _ZN13icalendar_2_022DelegatedFromParamTypeC1ERKN11xercesc_3_110DOMElementEN3xsd3cxx4tree5flagsEPNS7_5_typeE@Base 1.1.0
 _ZN13icalendar_2_022DelegatedFromParamTypeC1ERKS0_N3xsd3cxx4tree5flagsEPNS5_5_typeE@Base 1.1.0
 _ZN13icalendar_2_022DelegatedFromParamTypeC1Ev@Base 1.1.0
 _ZN13icalendar_2_022DelegatedFromParamTypeC2ERKN11xercesc_3_110DOMElementEN3xsd3cxx4tree5flagsEPNS7_5_typeE@Base 1.1.0
 _ZN13icalendar_2_022DelegatedFromParamTypeC2ERKS0_N3xsd3cxx4tree5flagsEPNS5_5_typeE@Base 1.1.0
 _ZN13icalendar_2_022DelegatedFromParamTypeC2Ev@Base 1.1.0
 _ZN13icalendar_2_022DelegatedFromParamTypeD0Ev@Base 1.1.0
 _ZN13icalendar_2_022DelegatedFromParamTypeD1Ev@Base 1.1.0
 _ZN13icalendar_2_022DelegatedFromParamTypeD2Ev@Base 1.1.0
 _ZN13icalendar_2_022ScheduleAgentParamTypeC1ERKN11xercesc_3_110DOMElementEN3xsd3cxx4tree5flagsEPNS7_5_typeE@Base 1.1.0
 _ZN13icalendar_2_022ScheduleAgentParamTypeC1ERKN3xsd3cxx4tree6stringIcNS3_11simple_typeIcNS3_5_typeEEEEE@Base 1.1.0
 _ZN13icalendar_2_022ScheduleAgentParamTypeC1ERKS0_N3xsd3cxx4tree5flagsEPNS5_5_typeE@Base 1.1.0
 _ZN13icalendar_2_022ScheduleAgentParamTypeC2ERKN11xercesc_3_110DOMElementEN3xsd3cxx4tree5flagsEPNS7_5_typeE@Base 1.1.0
 _ZN13icalendar_2_022ScheduleAgentParamTypeC2ERKN3xsd3cxx4tree6stringIcNS3_11simple_typeIcNS3_5_typeEEEEE@Base 1.1.0
 _ZN13icalendar_2_022ScheduleAgentParamTypeC2ERKS0_N3xsd3cxx4tree5flagsEPNS5_5_typeE@Base 1.1.0
 _ZN13icalendar_2_022ScheduleAgentParamTypeD0Ev@Base 1.1.0
 _ZN13icalendar_2_022ScheduleAgentParamTypeD1Ev@Base 1.1.0
 _ZN13icalendar_2_022ScheduleAgentParamTypeD2Ev@Base 1.1.0
 _ZN13icalendar_2_023CalAddressListParamType11cal_addressERKN3xsd3cxx4tree8sequenceINS_14CalAddressTypeELb0EEE@Base 1.1.0
 _ZN13icalendar_2_023CalAddressListParamType11cal_addressEv@Base 1.1.0
 _ZN13icalendar_2_023CalAddressListParamType5parseERN3xsd3cxx3xml3dom6parserIcEENS2_4tree5flagsE@Base 1.1.0
 _ZN13icalendar_2_023CalAddressListParamTypeC1ERKN11xercesc_3_110DOMElementEN3xsd3cxx4tree5flagsEPNS7_5_typeE@Base 1.1.0
 _ZN13icalendar_2_023CalAddressListParamTypeC1ERKS0_N3xsd3cxx4tree5flagsEPNS5_5_typeE@Base 1.1.0
 _ZN13icalendar_2_023CalAddressListParamTypeC1Ev@Base 1.1.0
 _ZN13icalendar_2_023CalAddressListParamTypeC2ERKN11xercesc_3_110DOMElementEN3xsd3cxx4tree5flagsEPNS7_5_typeE@Base 1.1.0
 _ZN13icalendar_2_023CalAddressListParamTypeC2ERKS0_N3xsd3cxx4tree5flagsEPNS5_5_typeE@Base 1.1.0
 _ZN13icalendar_2_023CalAddressListParamTypeC2Ev@Base 1.1.0
 _ZN13icalendar_2_023CalAddressListParamTypeD0Ev@Base 1.1.0
 _ZN13icalendar_2_023CalAddressListParamTypeD1Ev@Base 1.1.0
 _ZN13icalendar_2_023CalAddressListParamTypeD2Ev@Base 1.1.0
 _ZN13icalendar_2_023CalAddressListParamTypeaSERKS0_@Base 1.1.0
 _ZN13icalendar_2_023PercentCompletePropTypeC1ERKN11xercesc_3_110DOMElementEN3xsd3cxx4tree5flagsEPNS7_5_typeE@Base 1.1.0
 _ZN13icalendar_2_023PercentCompletePropTypeC1ERKS0_N3xsd3cxx4tree5flagsEPNS5_5_typeE@Base 1.1.0
 _ZN13icalendar_2_023PercentCompletePropTypeC1ERKx@Base 1.1.0
 _ZN13icalendar_2_023PercentCompletePropTypeC2ERKN11xercesc_3_110DOMElementEN3xsd3cxx4tree5flagsEPNS7_5_typeE@Base 1.1.0
 _ZN13icalendar_2_023PercentCompletePropTypeC2ERKS0_N3xsd3cxx4tree5flagsEPNS5_5_typeE@Base 1.1.0
 _ZN13icalendar_2_023PercentCompletePropTypeC2ERKx@Base 1.1.0
 _ZN13icalendar_2_023PercentCompletePropTypeD0Ev@Base 1.1.0
 _ZN13icalendar_2_023PercentCompletePropTypeD1Ev@Base 1.1.0
 _ZN13icalendar_2_023PercentCompletePropTypeD2Ev@Base 1.1.0
 _ZN13icalendar_2_023ScheduleStatusParamTypeC1ERKN11xercesc_3_110DOMElementEN3xsd3cxx4tree5flagsEPNS7_5_typeE@Base 1.1.0
 _ZN13icalendar_2_023ScheduleStatusParamTypeC1ERKN3xsd3cxx4tree6stringIcNS3_11simple_typeIcNS3_5_typeEEEEE@Base 1.1.0
 _ZN13icalendar_2_023ScheduleStatusParamTypeC1ERKS0_N3xsd3cxx4tree5flagsEPNS5_5_typeE@Base 1.1.0
 _ZN13icalendar_2_023ScheduleStatusParamTypeC2ERKN11xercesc_3_110DOMElementEN3xsd3cxx4tree5flagsEPNS7_5_typeE@Base 1.1.0
 _ZN13icalendar_2_023ScheduleStatusParamTypeC2ERKN3xsd3cxx4tree6stringIcNS3_11simple_typeIcNS3_5_typeEEEEE@Base 1.1.0
 _ZN13icalendar_2_023ScheduleStatusParamTypeC2ERKS0_N3xsd3cxx4tree5flagsEPNS5_5_typeE@Base 1.1.0
 _ZN13icalendar_2_023ScheduleStatusParamTypeD0Ev@Base 1.1.0
 _ZN13icalendar_2_023ScheduleStatusParamTypeD1Ev@Base 1.1.0
 _ZN13icalendar_2_023ScheduleStatusParamTypeD2Ev@Base 1.1.0
 _ZN13icalendar_2_023UtcDatetimePropertyType13utc_date_timeERKN3xsd3cxx4tree8optionalINS_15UTCDateTimeTypeELb0EEE@Base 1.1.0
 _ZN13icalendar_2_023UtcDatetimePropertyType13utc_date_timeERKNS_15UTCDateTimeTypeE@Base 1.1.0
 _ZN13icalendar_2_023UtcDatetimePropertyType13utc_date_timeESt8auto_ptrINS_15UTCDateTimeTypeEE@Base 1.1.0
 _ZN13icalendar_2_023UtcDatetimePropertyType13utc_date_timeEv@Base 1.1.0
 _ZN13icalendar_2_023UtcDatetimePropertyType5parseERN3xsd3cxx3xml3dom6parserIcEENS2_4tree5flagsE@Base 1.1.0
 _ZN13icalendar_2_023UtcDatetimePropertyType9date_timeERKN3xsd3cxx4tree8optionalINS_12DateTimeTypeELb0EEE@Base 1.1.0
 _ZN13icalendar_2_023UtcDatetimePropertyType9date_timeERKNS_12DateTimeTypeE@Base 1.1.0
 _ZN13icalendar_2_023UtcDatetimePropertyType9date_timeESt8auto_ptrINS_12DateTimeTypeEE@Base 1.1.0
 _ZN13icalendar_2_023UtcDatetimePropertyType9date_timeEv@Base 1.1.0
 _ZN13icalendar_2_023UtcDatetimePropertyTypeC1ERKN11xercesc_3_110DOMElementEN3xsd3cxx4tree5flagsEPNS7_5_typeE@Base 1.1.0
 _ZN13icalendar_2_023UtcDatetimePropertyTypeC1ERKS0_N3xsd3cxx4tree5flagsEPNS5_5_typeE@Base 1.1.0
 _ZN13icalendar_2_023UtcDatetimePropertyTypeC1Ev@Base 1.1.0
 _ZN13icalendar_2_023UtcDatetimePropertyTypeC2ERKN11xercesc_3_110DOMElementEN3xsd3cxx4tree5flagsEPNS7_5_typeE@Base 1.1.0
 _ZN13icalendar_2_023UtcDatetimePropertyTypeC2ERKS0_N3xsd3cxx4tree5flagsEPNS5_5_typeE@Base 1.1.0
 _ZN13icalendar_2_023UtcDatetimePropertyTypeC2Ev@Base 1.1.0
 _ZN13icalendar_2_023UtcDatetimePropertyTypeD0Ev@Base 1.1.0
 _ZN13icalendar_2_023UtcDatetimePropertyTypeD1Ev@Base 1.1.0
 _ZN13icalendar_2_023UtcDatetimePropertyTypeD2Ev@Base 1.1.0
 _ZN13icalendar_2_023UtcDatetimePropertyTypeaSERKS0_@Base 1.1.0
 _ZN13icalendar_2_024DateDatetimePropertyType4dateERKN3xsd3cxx4tree4dateIcNS3_11simple_typeIcNS3_5_typeEEEEE@Base 1.1.0
 _ZN13icalendar_2_024DateDatetimePropertyType4dateERKN3xsd3cxx4tree8optionalINS3_4dateIcNS3_11simple_typeIcNS3_5_typeEEEEELb0EEE@Base 1.1.0
 _ZN13icalendar_2_024DateDatetimePropertyType4dateESt8auto_ptrIN3xsd3cxx4tree4dateIcNS4_11simple_typeIcNS4_5_typeEEEEEE@Base 1.1.0
 _ZN13icalendar_2_024DateDatetimePropertyType4dateEv@Base 1.1.0
 _ZN13icalendar_2_024DateDatetimePropertyType5parseERN3xsd3cxx3xml3dom6parserIcEENS2_4tree5flagsE@Base 1.1.0
 _ZN13icalendar_2_024DateDatetimePropertyType9date_timeERKN3xsd3cxx4tree8optionalINS_12DateTimeTypeELb0EEE@Base 1.1.0
 _ZN13icalendar_2_024DateDatetimePropertyType9date_timeERKNS_12DateTimeTypeE@Base 1.1.0
 _ZN13icalendar_2_024DateDatetimePropertyType9date_timeESt8auto_ptrINS_12DateTimeTypeEE@Base 1.1.0
 _ZN13icalendar_2_024DateDatetimePropertyType9date_timeEv@Base 1.1.0
 _ZN13icalendar_2_024DateDatetimePropertyTypeC1ERKN11xercesc_3_110DOMElementEN3xsd3cxx4tree5flagsEPNS7_5_typeE@Base 1.1.0
 _ZN13icalendar_2_024DateDatetimePropertyTypeC1ERKS0_N3xsd3cxx4tree5flagsEPNS5_5_typeE@Base 1.1.0
 _ZN13icalendar_2_024DateDatetimePropertyTypeC1Ev@Base 1.1.0
 _ZN13icalendar_2_024DateDatetimePropertyTypeC2ERKN11xercesc_3_110DOMElementEN3xsd3cxx4tree5flagsEPNS7_5_typeE@Base 1.1.0
 _ZN13icalendar_2_024DateDatetimePropertyTypeC2ERKS0_N3xsd3cxx4tree5flagsEPNS5_5_typeE@Base 1.1.0
 _ZN13icalendar_2_024DateDatetimePropertyTypeC2Ev@Base 1.1.0
 _ZN13icalendar_2_024DateDatetimePropertyTypeD0Ev@Base 1.1.0
 _ZN13icalendar_2_024DateDatetimePropertyTypeD1Ev@Base 1.1.0
 _ZN13icalendar_2_024DateDatetimePropertyTypeD2Ev@Base 1.1.0
 _ZN13icalendar_2_024DateDatetimePropertyTypeaSERKS0_@Base 1.1.0
 _ZN13icalendar_2_026ScheduleForceSendParamTypeC1ERKN11xercesc_3_110DOMElementEN3xsd3cxx4tree5flagsEPNS7_5_typeE@Base 1.1.0
 _ZN13icalendar_2_026ScheduleForceSendParamTypeC1ERKN3xsd3cxx4tree6stringIcNS3_11simple_typeIcNS3_5_typeEEEEE@Base 1.1.0
 _ZN13icalendar_2_026ScheduleForceSendParamTypeC1ERKS0_N3xsd3cxx4tree5flagsEPNS5_5_typeE@Base 1.1.0
 _ZN13icalendar_2_026ScheduleForceSendParamTypeC2ERKN11xercesc_3_110DOMElementEN3xsd3cxx4tree5flagsEPNS7_5_typeE@Base 1.1.0
 _ZN13icalendar_2_026ScheduleForceSendParamTypeC2ERKN3xsd3cxx4tree6stringIcNS3_11simple_typeIcNS3_5_typeEEEEE@Base 1.1.0
 _ZN13icalendar_2_026ScheduleForceSendParamTypeC2ERKS0_N3xsd3cxx4tree5flagsEPNS5_5_typeE@Base 1.1.0
 _ZN13icalendar_2_026ScheduleForceSendParamTypeD0Ev@Base 1.1.0
 _ZN13icalendar_2_026ScheduleForceSendParamTypeD1Ev@Base 1.1.0
 _ZN13icalendar_2_026ScheduleForceSendParamTypeD2Ev@Base 1.1.0
 _ZN13icalendar_2_07UriTypeC1EPKc@Base 1.1.0
 _ZN13icalendar_2_07UriTypeC1ERKN11xercesc_3_110DOMElementEN3xsd3cxx4tree5flagsEPNS7_5_typeE@Base 1.1.0
 _ZN13icalendar_2_07UriTypeC1ERKN11xercesc_3_17DOMAttrEN3xsd3cxx4tree5flagsEPNS7_5_typeE@Base 1.1.0
 _ZN13icalendar_2_07UriTypeC1ERKN3xsd3cxx4tree6stringIcNS3_11simple_typeIcNS3_5_typeEEEEE@Base 1.1.0
 _ZN13icalendar_2_07UriTypeC1ERKNSt7__cxx1112basic_stringIcSt11char_traitsIcESaIcEEE@Base 1.1.0
 _ZN13icalendar_2_07UriTypeC1ERKNSt7__cxx1112basic_stringIcSt11char_traitsIcESaIcEEEPKN11xercesc_3_110DOMElementEN3xsd3cxx4tree5flagsEPNSF_5_typeE@Base 1.1.0
 _ZN13icalendar_2_07UriTypeC1ERKS0_N3xsd3cxx4tree5flagsEPNS5_5_typeE@Base 1.1.0
 _ZN13icalendar_2_07UriTypeC1Ev@Base 1.1.0
 _ZN13icalendar_2_07UriTypeC2EPKc@Base 1.1.0
 _ZN13icalendar_2_07UriTypeC2ERKN11xercesc_3_110DOMElementEN3xsd3cxx4tree5flagsEPNS7_5_typeE@Base 1.1.0
 _ZN13icalendar_2_07UriTypeC2ERKN11xercesc_3_17DOMAttrEN3xsd3cxx4tree5flagsEPNS7_5_typeE@Base 1.1.0
 _ZN13icalendar_2_07UriTypeC2ERKN3xsd3cxx4tree6stringIcNS3_11simple_typeIcNS3_5_typeEEEEE@Base 1.1.0
 _ZN13icalendar_2_07UriTypeC2ERKNSt7__cxx1112basic_stringIcSt11char_traitsIcESaIcEEE@Base 1.1.0
 _ZN13icalendar_2_07UriTypeC2ERKNSt7__cxx1112basic_stringIcSt11char_traitsIcESaIcEEEPKN11xercesc_3_110DOMElementEN3xsd3cxx4tree5flagsEPNSF_5_typeE@Base 1.1.0
 _ZN13icalendar_2_07UriTypeC2ERKS0_N3xsd3cxx4tree5flagsEPNS5_5_typeE@Base 1.1.0
 _ZN13icalendar_2_07UriTypeC2Ev@Base 1.1.0
 _ZN13icalendar_2_07UriTypeD0Ev@Base 1.1.0
 _ZN13icalendar_2_07UriTypeD1Ev@Base 1.1.0
 _ZN13icalendar_2_07UriTypeD2Ev@Base 1.1.0
 _ZN13icalendar_2_08XFBevent3uidERKN3xsd3cxx4tree6stringIcNS3_11simple_typeIcNS3_5_typeEEEEE@Base 1.1.0
 _ZN13icalendar_2_08XFBevent3uidESt8auto_ptrIN3xsd3cxx4tree6stringIcNS4_11simple_typeIcNS4_5_typeEEEEEE@Base 1.1.0
 _ZN13icalendar_2_08XFBevent3uidEv@Base 1.1.0
 _ZN13icalendar_2_08XFBevent5parseERN3xsd3cxx3xml3dom6parserIcEENS2_4tree5flagsE@Base 1.1.0
 _ZN13icalendar_2_08XFBevent7summaryERKN3xsd3cxx4tree6stringIcNS3_11simple_typeIcNS3_5_typeEEEEE@Base 1.1.0
 _ZN13icalendar_2_08XFBevent7summaryESt8auto_ptrIN3xsd3cxx4tree6stringIcNS4_11simple_typeIcNS4_5_typeEEEEEE@Base 1.1.0
 _ZN13icalendar_2_08XFBevent7summaryEv@Base 1.1.0
 _ZN13icalendar_2_08XFBevent8locationERKN3xsd3cxx4tree6stringIcNS3_11simple_typeIcNS3_5_typeEEEEE@Base 1.1.0
 _ZN13icalendar_2_08XFBevent8locationESt8auto_ptrIN3xsd3cxx4tree6stringIcNS4_11simple_typeIcNS4_5_typeEEEEEE@Base 1.1.0
 _ZN13icalendar_2_08XFBevent8locationEv@Base 1.1.0
 _ZN13icalendar_2_08XFBeventC1ERKN11xercesc_3_110DOMElementEN3xsd3cxx4tree5flagsEPNS7_5_typeE@Base 1.1.0
 _ZN13icalendar_2_08XFBeventC1ERKN3xsd3cxx4tree6stringIcNS3_11simple_typeIcNS3_5_typeEEEEESA_SA_@Base 1.1.0
 _ZN13icalendar_2_08XFBeventC1ERKS0_N3xsd3cxx4tree5flagsEPNS5_5_typeE@Base 1.1.0
 _ZN13icalendar_2_08XFBeventC2ERKN11xercesc_3_110DOMElementEN3xsd3cxx4tree5flagsEPNS7_5_typeE@Base 1.1.0
 _ZN13icalendar_2_08XFBeventC2ERKN3xsd3cxx4tree6stringIcNS3_11simple_typeIcNS3_5_typeEEEEESA_SA_@Base 1.1.0
 _ZN13icalendar_2_08XFBeventC2ERKS0_N3xsd3cxx4tree5flagsEPNS5_5_typeE@Base 1.1.0
 _ZN13icalendar_2_08XFBeventD0Ev@Base 1.1.0
 _ZN13icalendar_2_08XFBeventD1Ev@Base 1.1.0
 _ZN13icalendar_2_08XFBeventD2Ev@Base 1.1.0
 _ZN13icalendar_2_08XFBeventaSERKS0_@Base 1.1.0
 _ZN13icalendar_2_09KolabTodo10componentsERKN3xsd3cxx4tree8optionalINS_10componentsELb0EEE@Base 1.1.0
 _ZN13icalendar_2_09KolabTodo10componentsERKNS_10componentsE@Base 1.1.0
 _ZN13icalendar_2_09KolabTodo10componentsESt8auto_ptrINS_10componentsEE@Base 1.1.0
 _ZN13icalendar_2_09KolabTodo10componentsEv@Base 1.1.0
 _ZN13icalendar_2_09KolabTodo10propertiesERKNS_11properties2E@Base 1.1.0
 _ZN13icalendar_2_09KolabTodo10propertiesESt8auto_ptrINS_11properties2EE@Base 1.1.0
 _ZN13icalendar_2_09KolabTodo10propertiesEv@Base 1.1.0
 _ZN13icalendar_2_09KolabTodo5parseERN3xsd3cxx3xml3dom6parserIcEENS2_4tree5flagsE@Base 1.1.0
 _ZN13icalendar_2_09KolabTodoC1ERKN11xercesc_3_110DOMElementEN3xsd3cxx4tree5flagsEPNS7_5_typeE@Base 1.1.0
 _ZN13icalendar_2_09KolabTodoC1ERKNS_11properties2E@Base 1.1.0
 _ZN13icalendar_2_09KolabTodoC1ERKS0_N3xsd3cxx4tree5flagsEPNS5_5_typeE@Base 1.1.0
 _ZN13icalendar_2_09KolabTodoC1ESt8auto_ptrINS_11properties2EE@Base 1.1.0
 _ZN13icalendar_2_09KolabTodoC2ERKN11xercesc_3_110DOMElementEN3xsd3cxx4tree5flagsEPNS7_5_typeE@Base 1.1.0
 _ZN13icalendar_2_09KolabTodoC2ERKNS_11properties2E@Base 1.1.0
 _ZN13icalendar_2_09KolabTodoC2ERKS0_N3xsd3cxx4tree5flagsEPNS5_5_typeE@Base 1.1.0
 _ZN13icalendar_2_09KolabTodoC2ESt8auto_ptrINS_11properties2EE@Base 1.1.0
 _ZN13icalendar_2_09KolabTodoD0Ev@Base 1.1.0
 _ZN13icalendar_2_09KolabTodoD1Ev@Base 1.1.0
 _ZN13icalendar_2_09KolabTodoD2Ev@Base 1.1.0
 _ZN13icalendar_2_09KolabTodoaSERKS0_@Base 1.1.0
 _ZN13icalendar_2_09RecurType10bymonthdayERKN3xsd3cxx4tree8sequenceINS_19BymonthdayRecurTypeELb0EEE@Base 1.1.0
 _ZN13icalendar_2_09RecurType10bymonthdayEv@Base 1.1.0
 _ZN13icalendar_2_09RecurType4freqERKNS_13FreqRecurTypeE@Base 1.1.0
 _ZN13icalendar_2_09RecurType4freqESt8auto_ptrINS_13FreqRecurTypeEE@Base 1.1.0
 _ZN13icalendar_2_09RecurType4freqEv@Base 1.1.0
 _ZN13icalendar_2_09RecurType4wkstERKN3xsd3cxx4tree8optionalINS_16WeekdayRecurTypeELb0EEE@Base 1.1.0
 _ZN13icalendar_2_09RecurType4wkstERKNS_16WeekdayRecurTypeE@Base 1.1.0
 _ZN13icalendar_2_09RecurType4wkstESt8auto_ptrINS_16WeekdayRecurTypeEE@Base 1.1.0
 _ZN13icalendar_2_09RecurType4wkstEv@Base 1.1.0
 _ZN13icalendar_2_09RecurType5bydayERKN3xsd3cxx4tree8sequenceINS_14BydayRecurTypeELb0EEE@Base 1.1.0
 _ZN13icalendar_2_09RecurType5bydayEv@Base 1.1.0
 _ZN13icalendar_2_09RecurType5countERKN3xsd3cxx4tree8optionalIxLb1EEE@Base 1.1.0
 _ZN13icalendar_2_09RecurType5countERKx@Base 1.1.0
 _ZN13icalendar_2_09RecurType5countEv@Base 1.1.0
 _ZN13icalendar_2_09RecurType5parseERN3xsd3cxx3xml3dom6parserIcEENS2_4tree5flagsE@Base 1.1.0
 _ZN13icalendar_2_09RecurType5untilERKN3xsd3cxx4tree8optionalINS_14UntilRecurTypeELb0EEE@Base 1.1.0
 _ZN13icalendar_2_09RecurType5untilERKNS_14UntilRecurTypeE@Base 1.1.0
 _ZN13icalendar_2_09RecurType5untilESt8auto_ptrINS_14UntilRecurTypeEE@Base 1.1.0
 _ZN13icalendar_2_09RecurType5untilEv@Base 1.1.0
 _ZN13icalendar_2_09RecurType6byhourERKN3xsd3cxx4tree8sequenceINS_15ByhourRecurTypeELb0EEE@Base 1.1.0
 _ZN13icalendar_2_09RecurType6byhourEv@Base 1.1.0
 _ZN13icalendar_2_09RecurType7bymonthERKN3xsd3cxx4tree8sequenceINS_16BymonthRecurTypeELb0EEE@Base 1.1.0
 _ZN13icalendar_2_09RecurType7bymonthEv@Base 1.1.0
 _ZN13icalendar_2_09RecurType8byminuteERKN3xsd3cxx4tree8sequenceINS_17ByminuteRecurTypeELb0EEE@Base 1.1.0
 _ZN13icalendar_2_09RecurType8byminuteEv@Base 1.1.0
 _ZN13icalendar_2_09RecurType8bysecondERKN3xsd3cxx4tree8sequenceINS_17BysecondRecurTypeELb0EEE@Base 1.1.0
 _ZN13icalendar_2_09RecurType8bysecondEv@Base 1.1.0
 _ZN13icalendar_2_09RecurType8bysetposERKN3xsd3cxx4tree8sequenceIxLb1EEE@Base 1.1.0
 _ZN13icalendar_2_09RecurType8bysetposEv@Base 1.1.0
 _ZN13icalendar_2_09RecurType8byweeknoERKN3xsd3cxx4tree8sequenceINS_17ByweeknoRecurTypeELb0EEE@Base 1.1.0
 _ZN13icalendar_2_09RecurType8byweeknoEv@Base 1.1.0
 _ZN13icalendar_2_09RecurType8intervalERKN3xsd3cxx4tree8optionalIyLb1EEE@Base 1.1.0
 _ZN13icalendar_2_09RecurType8intervalERKy@Base 1.1.0
 _ZN13icalendar_2_09RecurType8intervalEv@Base 1.1.0
 _ZN13icalendar_2_09RecurType9byyeardayERKN3xsd3cxx4tree8sequenceINS_18ByyeardayRecurTypeELb0EEE@Base 1.1.0
 _ZN13icalendar_2_09RecurType9byyeardayEv@Base 1.1.0
 _ZN13icalendar_2_09RecurTypeC1ERKN11xercesc_3_110DOMElementEN3xsd3cxx4tree5flagsEPNS7_5_typeE@Base 1.1.0
 _ZN13icalendar_2_09RecurTypeC1ERKNS_13FreqRecurTypeE@Base 1.1.0
 _ZN13icalendar_2_09RecurTypeC1ERKS0_N3xsd3cxx4tree5flagsEPNS5_5_typeE@Base 1.1.0
 _ZN13icalendar_2_09RecurTypeC2ERKN11xercesc_3_110DOMElementEN3xsd3cxx4tree5flagsEPNS7_5_typeE@Base 1.1.0
 _ZN13icalendar_2_09RecurTypeC2ERKNS_13FreqRecurTypeE@Base 1.1.0
 _ZN13icalendar_2_09RecurTypeC2ERKS0_N3xsd3cxx4tree5flagsEPNS5_5_typeE@Base 1.1.0
 _ZN13icalendar_2_09RecurTypeD0Ev@Base 1.1.0
 _ZN13icalendar_2_09RecurTypeD1Ev@Base 1.1.0
 _ZN13icalendar_2_09RecurTypeD2Ev@Base 1.1.0
 _ZN13icalendar_2_09RecurTypeaSERKS0_@Base 1.1.0
 _ZN13icalendar_2_09icalendarEN3xsd3cxx3xml3dom8auto_ptrIN11xercesc_3_111DOMDocumentEEENS1_4tree5flagsERKNS8_10propertiesIcEE@Base 1.1.0
 _ZN13icalendar_2_09icalendarERKN11xercesc_3_111DOMDocumentEN3xsd3cxx4tree5flagsERKNS6_10propertiesIcEE@Base 1.1.0
 _ZN13icalendar_2_09icalendarERKNS_13IcalendarTypeERKN3xsd3cxx3xml3dom17namespace_infomapIcEENS4_4tree5flagsE@Base 1.1.0
 _ZN13icalendar_2_09icalendarERKNSt7__cxx1112basic_stringIcSt11char_traitsIcESaIcEEEN3xsd3cxx4tree5flagsERKNSA_10propertiesIcEE@Base 1.1.0
 _ZN13icalendar_2_09icalendarERKNSt7__cxx1112basic_stringIcSt11char_traitsIcESaIcEEERN11xercesc_3_115DOMErrorHandlerEN3xsd3cxx4tree5flagsERKNSD_10propertiesIcEE@Base 1.1.0
 _ZN13icalendar_2_09icalendarERKNSt7__cxx1112basic_stringIcSt11char_traitsIcESaIcEEERN3xsd3cxx3xml13error_handlerIcEENS9_4tree5flagsERKNSE_10propertiesIcEE@Base 1.1.0
 _ZN13icalendar_2_09icalendarERN11xercesc_3_111DOMDocumentERKNS_13IcalendarTypeEN3xsd3cxx4tree5flagsE@Base 1.1.0
 _ZN13icalendar_2_09icalendarERN11xercesc_3_111InputSourceEN3xsd3cxx4tree5flagsERKNS5_10propertiesIcEE@Base 1.1.0
 _ZN13icalendar_2_09icalendarERN11xercesc_3_111InputSourceERN3xsd3cxx3xml13error_handlerIcEENS4_4tree5flagsERKNS9_10propertiesIcEE@Base 1.1.0
 _ZN13icalendar_2_09icalendarERN11xercesc_3_111InputSourceERNS0_15DOMErrorHandlerEN3xsd3cxx4tree5flagsERKNS7_10propertiesIcEE@Base 1.1.0
 _ZN13icalendar_2_09icalendarERN11xercesc_3_115XMLFormatTargetERKNS_13IcalendarTypeERKN3xsd3cxx3xml3dom17namespace_infomapIcEERKNSt7__cxx1112basic_stringIcSt11char_traitsIcESaIcEEENS7_4tree5flagsE@Base 1.1.0
 _ZN13icalendar_2_09icalendarERN11xercesc_3_115XMLFormatTargetERKNS_13IcalendarTypeERN3xsd3cxx3xml13error_handlerIcEERKNS8_3dom17namespace_infomapIcEERKNSt7__cxx1112basic_stringIcSt11char_traitsIcESaIcEEENS7_4tree5flagsE@Base 1.1.0
 _ZN13icalendar_2_09icalendarERN11xercesc_3_115XMLFormatTargetERKNS_13IcalendarTypeERNS0_15DOMErrorHandlerERKN3xsd3cxx3xml3dom17namespace_infomapIcEERKNSt7__cxx1112basic_stringIcSt11char_traitsIcESaIcEEENS9_4tree5flagsE@Base 1.1.0
 _ZN13icalendar_2_09icalendarERSiN3xsd3cxx4tree5flagsERKNS3_10propertiesIcEE@Base 1.1.0
 _ZN13icalendar_2_09icalendarERSiRKNSt7__cxx1112basic_stringIcSt11char_traitsIcESaIcEEEN3xsd3cxx4tree5flagsERKNSB_10propertiesIcEE@Base 1.1.0
 _ZN13icalendar_2_09icalendarERSiRKNSt7__cxx1112basic_stringIcSt11char_traitsIcESaIcEEERN11xercesc_3_115DOMErrorHandlerEN3xsd3cxx4tree5flagsERKNSE_10propertiesIcEE@Base 1.1.0
 _ZN13icalendar_2_09icalendarERSiRKNSt7__cxx1112basic_stringIcSt11char_traitsIcESaIcEEERN3xsd3cxx3xml13error_handlerIcEENSA_4tree5flagsERKNSF_10propertiesIcEE@Base 1.1.0
 _ZN13icalendar_2_09icalendarERSiRN11xercesc_3_115DOMErrorHandlerEN3xsd3cxx4tree5flagsERKNS6_10propertiesIcEE@Base 1.1.0
 _ZN13icalendar_2_09icalendarERSiRN3xsd3cxx3xml13error_handlerIcEENS2_4tree5flagsERKNS7_10propertiesIcEE@Base 1.1.0
 _ZN13icalendar_2_09icalendarERSoRKNS_13IcalendarTypeERKN3xsd3cxx3xml3dom17namespace_infomapIcEERKNSt7__cxx1112basic_stringIcSt11char_traitsIcESaIcEEENS5_4tree5flagsE@Base 1.1.0
 _ZN13icalendar_2_09icalendarERSoRKNS_13IcalendarTypeERN11xercesc_3_115DOMErrorHandlerERKN3xsd3cxx3xml3dom17namespace_infomapIcEERKNSt7__cxx1112basic_stringIcSt11char_traitsIcESaIcEEENS8_4tree5flagsE@Base 1.1.0
 _ZN13icalendar_2_09icalendarERSoRKNS_13IcalendarTypeERN3xsd3cxx3xml13error_handlerIcEERKNS6_3dom17namespace_infomapIcEERKNSt7__cxx1112basic_stringIcSt11char_traitsIcESaIcEEENS5_4tree5flagsE@Base 1.1.0
 _ZN13icalendar_2_0lsERN11xercesc_3_110DOMElementERKNS_10CustomTypeE@Base 1.1.0
 _ZN13icalendar_2_0lsERN11xercesc_3_110DOMElementERKNS_10KolabEventE@Base 1.1.0
 _ZN13icalendar_2_0lsERN11xercesc_3_110DOMElementERKNS_10PeriodTypeE@Base 1.1.0
 _ZN13icalendar_2_0lsERN11xercesc_3_110DOMElementERKNS_10ValarmTypeE@Base 1.1.0
 _ZN13icalendar_2_0lsERN11xercesc_3_110DOMElementERKNS_10componentsE@Base 1.1.0
 _ZN13icalendar_2_0lsERN11xercesc_3_110DOMElementERKNS_10propertiesE@Base 1.1.0
 _ZN13icalendar_2_0lsERN11xercesc_3_110DOMElementERKNS_11CnParamTypeE@Base 1.1.0
 _ZN13icalendar_2_0lsERN11xercesc_3_110DOMElementERKNS_11ContactTypeE@Base 1.1.0
 _ZN13icalendar_2_0lsERN11xercesc_3_110DOMElementERKNS_11DuePropTypeE@Base 1.1.0
 _ZN13icalendar_2_0lsERN11xercesc_3_110DOMElementERKNS_11GeoPropTypeE@Base 1.1.0
 _ZN13icalendar_2_0lsERN11xercesc_3_110DOMElementERKNS_11UidPropTypeE@Base 1.1.0
 _ZN13icalendar_2_0lsERN11xercesc_3_110DOMElementERKNS_11UrlPropTypeE@Base 1.1.0
 _ZN13icalendar_2_0lsERN11xercesc_3_110DOMElementERKNS_11components1E@Base 1.1.0
 _ZN13icalendar_2_0lsERN11xercesc_3_110DOMElementERKNS_11properties1E@Base 1.1.0
 _ZN13icalendar_2_0lsERN11xercesc_3_110DOMElementERKNS_11properties2E@Base 1.1.0
 _ZN13icalendar_2_0lsERN11xercesc_3_110DOMElementERKNS_11properties3E@Base 1.1.0
 _ZN13icalendar_2_0lsERN11xercesc_3_110DOMElementERKNS_11properties4E@Base 1.1.0
 _ZN13icalendar_2_0lsERN11xercesc_3_110DOMElementERKNS_11properties5E@Base 1.1.0
 _ZN13icalendar_2_0lsERN11xercesc_3_110DOMElementERKNS_12DateTimeTypeE@Base 1.1.0
 _ZN13icalendar_2_0lsERN11xercesc_3_110DOMElementERKNS_12DirParamTypeE@Base 1.1.0
 _ZN13icalendar_2_0lsERN11xercesc_3_110DOMElementERKNS_12KolabJournalE@Base 1.1.0
 _ZN13icalendar_2_0lsERN11xercesc_3_110DOMElementERKNS_12KolabVersionE@Base 1.1.0
 _ZN13icalendar_2_0lsERN11xercesc_3_110DOMElementERKNS_12TzidPropTypeE@Base 1.1.0
 _ZN13icalendar_2_0lsERN11xercesc_3_110DOMElementERKNS_13ClassPropTypeE@Base 1.1.0
 _ZN13icalendar_2_0lsERN11xercesc_3_110DOMElementERKNS_13DtendPropTypeE@Base 1.1.0
 _ZN13icalendar_2_0lsERN11xercesc_3_110DOMElementERKNS_13FreqRecurTypeE@Base 1.1.0
 _ZN13icalendar_2_0lsERN11xercesc_3_110DOMElementERKNS_13IcalendarTypeE@Base 1.1.0
 _ZN13icalendar_2_0lsERN11xercesc_3_110DOMElementERKNS_13KolabFreebusyE@Base 1.1.0
 _ZN13icalendar_2_0lsERN11xercesc_3_110DOMElementERKNS_13RdatePropTypeE@Base 1.1.0
 _ZN13icalendar_2_0lsERN11xercesc_3_110DOMElementERKNS_13RoleParamTypeE@Base 1.1.0
 _ZN13icalendar_2_0lsERN11xercesc_3_110DOMElementERKNS_13RrulePropTypeE@Base 1.1.0
 _ZN13icalendar_2_0lsERN11xercesc_3_110DOMElementERKNS_13RsvpParamTypeE@Base 1.1.0
 _ZN13icalendar_2_0lsERN11xercesc_3_110DOMElementERKNS_13TzidParamTypeE@Base 1.1.0
 _ZN13icalendar_2_0lsERN11xercesc_3_110DOMElementERKNS_13TzurlPropTypeE@Base 1.1.0
 _ZN13icalendar_2_0lsERN11xercesc_3_110DOMElementERKNS_13UtcOffsetTypeE@Base 1.1.0
 _ZN13icalendar_2_0lsERN11xercesc_3_110DOMElementERKNS_13VcalendarTypeE@Base 1.1.0
 _ZN13icalendar_2_0lsERN11xercesc_3_110DOMElementERKNS_13XuidParamTypeE@Base 1.1.0
 _ZN13icalendar_2_0lsERN11xercesc_3_110DOMElementERKNS_14ActionPropTypeE@Base 1.1.0
 _ZN13icalendar_2_0lsERN11xercesc_3_110DOMElementERKNS_14AttachPropTypeE@Base 1.1.0
 _ZN13icalendar_2_0lsERN11xercesc_3_110DOMElementERKNS_14BydayRecurTypeE@Base 1.1.0
 _ZN13icalendar_2_0lsERN11xercesc_3_110DOMElementERKNS_14CalAddressTypeE@Base 1.1.0
 _ZN13icalendar_2_0lsERN11xercesc_3_110DOMElementERKNS_14ExdatePropTypeE@Base 1.1.0
 _ZN13icalendar_2_0lsERN11xercesc_3_110DOMElementERKNS_14ExrulePropTypeE@Base 1.1.0
 _ZN13icalendar_2_0lsERN11xercesc_3_110DOMElementERKNS_14MethodPropTypeE@Base 1.1.0
 _ZN13icalendar_2_0lsERN11xercesc_3_110DOMElementERKNS_14ProdidPropTypeE@Base 1.1.0
 _ZN13icalendar_2_0lsERN11xercesc_3_110DOMElementERKNS_14RangeParamTypeE@Base 1.1.0
 _ZN13icalendar_2_0lsERN11xercesc_3_110DOMElementERKNS_14RangeValueTypeE@Base 1.1.0
 _ZN13icalendar_2_0lsERN11xercesc_3_110DOMElementERKNS_14RepeatPropTypeE@Base 1.1.0
 _ZN13icalendar_2_0lsERN11xercesc_3_110DOMElementERKNS_14StatusPropTypeE@Base 1.1.0
 _ZN13icalendar_2_0lsERN11xercesc_3_110DOMElementERKNS_14TranspPropTypeE@Base 1.1.0
 _ZN13icalendar_2_0lsERN11xercesc_3_110DOMElementERKNS_14TznamePropTypeE@Base 1.1.0
 _ZN13icalendar_2_0lsERN11xercesc_3_110DOMElementERKNS_14UntilRecurTypeE@Base 1.1.0
 _ZN13icalendar_2_0lsERN11xercesc_3_110DOMElementERKNS_15AltrepParamTypeE@Base 1.1.0
 _ZN13icalendar_2_0lsERN11xercesc_3_110DOMElementERKNS_15ByhourRecurTypeE@Base 1.1.0
 _ZN13icalendar_2_0lsERN11xercesc_3_110DOMElementERKNS_15CommentPropTypeE@Base 1.1.0
 _ZN13icalendar_2_0lsERN11xercesc_3_110DOMElementERKNS_15ContactPropTypeE@Base 1.1.0
 _ZN13icalendar_2_0lsERN11xercesc_3_110DOMElementERKNS_15CreatedPropTypeE@Base 1.1.0
 _ZN13icalendar_2_0lsERN11xercesc_3_110DOMElementERKNS_15CutypeParamTypeE@Base 1.1.0
 _ZN13icalendar_2_0lsERN11xercesc_3_110DOMElementERKNS_15DtstampPropTypeE@Base 1.1.0
 _ZN13icalendar_2_0lsERN11xercesc_3_110DOMElementERKNS_15DtstartPropTypeE@Base 1.1.0
 _ZN13icalendar_2_0lsERN11xercesc_3_110DOMElementERKNS_15FbtypeParamTypeE@Base 1.1.0
 _ZN13icalendar_2_0lsERN11xercesc_3_110DOMElementERKNS_15MemberParamTypeE@Base 1.1.0
 _ZN13icalendar_2_0lsERN11xercesc_3_110DOMElementERKNS_15SentByParamTypeE@Base 1.1.0
 _ZN13icalendar_2_0lsERN11xercesc_3_110DOMElementERKNS_15SummaryPropTypeE@Base 1.1.0
 _ZN13icalendar_2_0lsERN11xercesc_3_110DOMElementERKNS_15TriggerPropTypeE@Base 1.1.0
 _ZN13icalendar_2_0lsERN11xercesc_3_110DOMElementERKNS_15UTCDateTimeTypeE@Base 1.1.0
 _ZN13icalendar_2_0lsERN11xercesc_3_110DOMElementERKNS_15UriPropertyTypeE@Base 1.1.0
 _ZN13icalendar_2_0lsERN11xercesc_3_110DOMElementERKNS_15VersionPropTypeE@Base 1.1.0
 _ZN13icalendar_2_0lsERN11xercesc_3_110DOMElementERKNS_15XlabelParamTypeE@Base 1.1.0
 _ZN13icalendar_2_0lsERN11xercesc_3_110DOMElementERKNS_16AttendeePropTypeE@Base 1.1.0
 _ZN13icalendar_2_0lsERN11xercesc_3_110DOMElementERKNS_16BasePropertyTypeE@Base 1.1.0
 _ZN13icalendar_2_0lsERN11xercesc_3_110DOMElementERKNS_16BymonthRecurTypeE@Base 1.1.0
 _ZN13icalendar_2_0lsERN11xercesc_3_110DOMElementERKNS_16CalscalePropTypeE@Base 1.1.0
 _ZN13icalendar_2_0lsERN11xercesc_3_110DOMElementERKNS_16DurationPropTypeE@Base 1.1.0
 _ZN13icalendar_2_0lsERN11xercesc_3_110DOMElementERKNS_16FmttypeParamTypeE@Base 1.1.0
 _ZN13icalendar_2_0lsERN11xercesc_3_110DOMElementERKNS_16FreebusyPropTypeE@Base 1.1.0
 _ZN13icalendar_2_0lsERN11xercesc_3_110DOMElementERKNS_16LocationPropTypeE@Base 1.1.0
 _ZN13icalendar_2_0lsERN11xercesc_3_110DOMElementERKNS_16PriorityPropTypeE@Base 1.1.0
 _ZN13icalendar_2_0lsERN11xercesc_3_110DOMElementERKNS_16RelatedParamTypeE@Base 1.1.0
 _ZN13icalendar_2_0lsERN11xercesc_3_110DOMElementERKNS_16ReltypeParamTypeE@Base 1.1.0
 _ZN13icalendar_2_0lsERN11xercesc_3_110DOMElementERKNS_16SequencePropTypeE@Base 1.1.0
 _ZN13icalendar_2_0lsERN11xercesc_3_110DOMElementERKNS_16TextPropertyTypeE@Base 1.1.0
 _ZN13icalendar_2_0lsERN11xercesc_3_110DOMElementERKNS_16UriParameterTypeE@Base 1.1.0
 _ZN13icalendar_2_0lsERN11xercesc_3_110DOMElementERKNS_16WeekdayRecurTypeE@Base 1.1.0
 _ZN13icalendar_2_0lsERN11xercesc_3_110DOMElementERKNS_17ArrayOfParametersE@Base 1.1.0
 _ZN13icalendar_2_0lsERN11xercesc_3_110DOMElementERKNS_17ArrayOfPropertiesE@Base 1.1.0
 _ZN13icalendar_2_0lsERN11xercesc_3_110DOMElementERKNS_17BaseParameterTypeE@Base 1.1.0
 _ZN13icalendar_2_0lsERN11xercesc_3_110DOMElementERKNS_17ByminuteRecurTypeE@Base 1.1.0
 _ZN13icalendar_2_0lsERN11xercesc_3_110DOMElementERKNS_17BysecondRecurTypeE@Base 1.1.0
 _ZN13icalendar_2_0lsERN11xercesc_3_110DOMElementERKNS_17ByweeknoRecurTypeE@Base 1.1.0
 _ZN13icalendar_2_0lsERN11xercesc_3_110DOMElementERKNS_17CalscaleValueTypeE@Base 1.1.0
 _ZN13icalendar_2_0lsERN11xercesc_3_110DOMElementERKNS_17CompletedPropTypeE@Base 1.1.0
 _ZN13icalendar_2_0lsERN11xercesc_3_110DOMElementERKNS_17DurationValueTypeE@Base 1.1.0
 _ZN13icalendar_2_0lsERN11xercesc_3_110DOMElementERKNS_17EncodingParamTypeE@Base 1.1.0
 _ZN13icalendar_2_0lsERN11xercesc_3_110DOMElementERKNS_17LanguageParamTypeE@Base 1.1.0
 _ZN13icalendar_2_0lsERN11xercesc_3_110DOMElementERKNS_17OrganizerPropTypeE@Base 1.1.0
 _ZN13icalendar_2_0lsERN11xercesc_3_110DOMElementERKNS_17PartstatParamTypeE@Base 1.1.0
 _ZN13icalendar_2_0lsERN11xercesc_3_110DOMElementERKNS_17RecurPropertyTypeE@Base 1.1.0
 _ZN13icalendar_2_0lsERN11xercesc_3_110DOMElementERKNS_17RelatedToPropTypeE@Base 1.1.0
 _ZN13icalendar_2_0lsERN11xercesc_3_110DOMElementERKNS_17ResourcesPropTypeE@Base 1.1.0
 _ZN13icalendar_2_0lsERN11xercesc_3_110DOMElementERKNS_17TextParameterTypeE@Base 1.1.0
 _ZN13icalendar_2_0lsERN11xercesc_3_110DOMElementERKNS_18ByyeardayRecurTypeE@Base 1.1.0
 _ZN13icalendar_2_0lsERN11xercesc_3_110DOMElementERKNS_18CategoriesPropTypeE@Base 1.1.0
 _ZN13icalendar_2_0lsERN11xercesc_3_110DOMElementERKNS_18TzoffsettoPropTypeE@Base 1.1.0
 _ZN13icalendar_2_0lsERN11xercesc_3_110DOMElementERKNS_19BymonthdayRecurTypeE@Base 1.1.0
 _ZN13icalendar_2_0lsERN11xercesc_3_110DOMElementERKNS_19CalAddressParamTypeE@Base 1.1.0
 _ZN13icalendar_2_0lsERN11xercesc_3_110DOMElementERKNS_19DescriptionPropTypeE@Base 1.1.0
 _ZN13icalendar_2_0lsERN11xercesc_3_110DOMElementERKNS_19IntegerPropertyTypeE@Base 1.1.0
 _ZN13icalendar_2_0lsERN11xercesc_3_110DOMElementERKNS_20BooleanParameterTypeE@Base 1.1.0
 _ZN13icalendar_2_0lsERN11xercesc_3_110DOMElementERKNS_20DatetimePropertyTypeE@Base 1.1.0
 _ZN13icalendar_2_0lsERN11xercesc_3_110DOMElementERKNS_20DelegatedToParamTypeE@Base 1.1.0
 _ZN13icalendar_2_0lsERN11xercesc_3_110DOMElementERKNS_20LastModifiedPropTypeE@Base 1.1.0
 _ZN13icalendar_2_0lsERN11xercesc_3_110DOMElementERKNS_20RecurrenceIdPropTypeE@Base 1.1.0
 _ZN13icalendar_2_0lsERN11xercesc_3_110DOMElementERKNS_20TextListPropertyTypeE@Base 1.1.0
 _ZN13icalendar_2_0lsERN11xercesc_3_110DOMElementERKNS_20TzoffsetfromPropTypeE@Base 1.1.0
 _ZN13icalendar_2_0lsERN11xercesc_3_110DOMElementERKNS_21RequestStatusPropTypeE@Base 1.1.0
 _ZN13icalendar_2_0lsERN11xercesc_3_110DOMElementERKNS_21UtcOffsetPropertyTypeE@Base 1.1.0
 _ZN13icalendar_2_0lsERN11xercesc_3_110DOMElementERKNS_22CalAddressPropertyTypeE@Base 1.1.0
 _ZN13icalendar_2_0lsERN11xercesc_3_110DOMElementERKNS_22DelegatedFromParamTypeE@Base 1.1.0
 _ZN13icalendar_2_0lsERN11xercesc_3_110DOMElementERKNS_22ScheduleAgentParamTypeE@Base 1.1.0
 _ZN13icalendar_2_0lsERN11xercesc_3_110DOMElementERKNS_23CalAddressListParamTypeE@Base 1.1.0
 _ZN13icalendar_2_0lsERN11xercesc_3_110DOMElementERKNS_23PercentCompletePropTypeE@Base 1.1.0
 _ZN13icalendar_2_0lsERN11xercesc_3_110DOMElementERKNS_23ScheduleStatusParamTypeE@Base 1.1.0
 _ZN13icalendar_2_0lsERN11xercesc_3_110DOMElementERKNS_23UtcDatetimePropertyTypeE@Base 1.1.0
 _ZN13icalendar_2_0lsERN11xercesc_3_110DOMElementERKNS_24DateDatetimePropertyTypeE@Base 1.1.0
 _ZN13icalendar_2_0lsERN11xercesc_3_110DOMElementERKNS_26ScheduleForceSendParamTypeE@Base 1.1.0
 _ZN13icalendar_2_0lsERN11xercesc_3_110DOMElementERKNS_7UriTypeE@Base 1.1.0
 _ZN13icalendar_2_0lsERN11xercesc_3_110DOMElementERKNS_8XFBeventE@Base 1.1.0
 _ZN13icalendar_2_0lsERN11xercesc_3_110DOMElementERKNS_9KolabTodoE@Base 1.1.0
 _ZN13icalendar_2_0lsERN11xercesc_3_110DOMElementERKNS_9RecurTypeE@Base 1.1.0
 _ZN13icalendar_2_0lsERN11xercesc_3_17DOMAttrERKNS_12DateTimeTypeE@Base 1.1.0
 _ZN13icalendar_2_0lsERN11xercesc_3_17DOMAttrERKNS_13FreqRecurTypeE@Base 1.1.0
 _ZN13icalendar_2_0lsERN11xercesc_3_17DOMAttrERKNS_13UtcOffsetTypeE@Base 1.1.0
 _ZN13icalendar_2_0lsERN11xercesc_3_17DOMAttrERKNS_14BydayRecurTypeE@Base 1.1.0
 _ZN13icalendar_2_0lsERN11xercesc_3_17DOMAttrERKNS_14CalAddressTypeE@Base 1.1.0
 _ZN13icalendar_2_0lsERN11xercesc_3_17DOMAttrERKNS_14RangeValueTypeE@Base 1.1.0
 _ZN13icalendar_2_0lsERN11xercesc_3_17DOMAttrERKNS_15ByhourRecurTypeE@Base 1.1.0
 _ZN13icalendar_2_0lsERN11xercesc_3_17DOMAttrERKNS_15UTCDateTimeTypeE@Base 1.1.0
 _ZN13icalendar_2_0lsERN11xercesc_3_17DOMAttrERKNS_16BymonthRecurTypeE@Base 1.1.0
 _ZN13icalendar_2_0lsERN11xercesc_3_17DOMAttrERKNS_16WeekdayRecurTypeE@Base 1.1.0
 _ZN13icalendar_2_0lsERN11xercesc_3_17DOMAttrERKNS_17BaseParameterTypeE@Base 1.1.0
 _ZN13icalendar_2_0lsERN11xercesc_3_17DOMAttrERKNS_17ByminuteRecurTypeE@Base 1.1.0
 _ZN13icalendar_2_0lsERN11xercesc_3_17DOMAttrERKNS_17BysecondRecurTypeE@Base 1.1.0
 _ZN13icalendar_2_0lsERN11xercesc_3_17DOMAttrERKNS_17ByweeknoRecurTypeE@Base 1.1.0
 _ZN13icalendar_2_0lsERN11xercesc_3_17DOMAttrERKNS_17CalscaleValueTypeE@Base 1.1.0
 _ZN13icalendar_2_0lsERN11xercesc_3_17DOMAttrERKNS_17DurationValueTypeE@Base 1.1.0
 _ZN13icalendar_2_0lsERN11xercesc_3_17DOMAttrERKNS_18ByyeardayRecurTypeE@Base 1.1.0
 _ZN13icalendar_2_0lsERN11xercesc_3_17DOMAttrERKNS_19BymonthdayRecurTypeE@Base 1.1.0
 _ZN13icalendar_2_0lsERN11xercesc_3_17DOMAttrERKNS_7UriTypeE@Base 1.1.0
 _ZN13icalendar_2_0lsERN3xsd3cxx4tree11list_streamIcEERKNS_12DateTimeTypeE@Base 1.1.0
 _ZN13icalendar_2_0lsERN3xsd3cxx4tree11list_streamIcEERKNS_13FreqRecurTypeE@Base 1.1.0
 _ZN13icalendar_2_0lsERN3xsd3cxx4tree11list_streamIcEERKNS_13UtcOffsetTypeE@Base 1.1.0
 _ZN13icalendar_2_0lsERN3xsd3cxx4tree11list_streamIcEERKNS_14BydayRecurTypeE@Base 1.1.0
 _ZN13icalendar_2_0lsERN3xsd3cxx4tree11list_streamIcEERKNS_14CalAddressTypeE@Base 1.1.0
 _ZN13icalendar_2_0lsERN3xsd3cxx4tree11list_streamIcEERKNS_14RangeValueTypeE@Base 1.1.0
 _ZN13icalendar_2_0lsERN3xsd3cxx4tree11list_streamIcEERKNS_15ByhourRecurTypeE@Base 1.1.0
 _ZN13icalendar_2_0lsERN3xsd3cxx4tree11list_streamIcEERKNS_15UTCDateTimeTypeE@Base 1.1.0
 _ZN13icalendar_2_0lsERN3xsd3cxx4tree11list_streamIcEERKNS_16BymonthRecurTypeE@Base 1.1.0
 _ZN13icalendar_2_0lsERN3xsd3cxx4tree11list_streamIcEERKNS_16WeekdayRecurTypeE@Base 1.1.0
 _ZN13icalendar_2_0lsERN3xsd3cxx4tree11list_streamIcEERKNS_17BaseParameterTypeE@Base 1.1.0
 _ZN13icalendar_2_0lsERN3xsd3cxx4tree11list_streamIcEERKNS_17ByminuteRecurTypeE@Base 1.1.0
 _ZN13icalendar_2_0lsERN3xsd3cxx4tree11list_streamIcEERKNS_17BysecondRecurTypeE@Base 1.1.0
 _ZN13icalendar_2_0lsERN3xsd3cxx4tree11list_streamIcEERKNS_17ByweeknoRecurTypeE@Base 1.1.0
 _ZN13icalendar_2_0lsERN3xsd3cxx4tree11list_streamIcEERKNS_17CalscaleValueTypeE@Base 1.1.0
 _ZN13icalendar_2_0lsERN3xsd3cxx4tree11list_streamIcEERKNS_17DurationValueTypeE@Base 1.1.0
 _ZN13icalendar_2_0lsERN3xsd3cxx4tree11list_streamIcEERKNS_18ByyeardayRecurTypeE@Base 1.1.0
 _ZN13icalendar_2_0lsERN3xsd3cxx4tree11list_streamIcEERKNS_19BymonthdayRecurTypeE@Base 1.1.0
 _ZN13icalendar_2_0lsERN3xsd3cxx4tree11list_streamIcEERKNS_7UriTypeE@Base 1.1.0
 _ZN16XMLParserWrapper11parseStringERKNSt7__cxx1112basic_stringIcSt11char_traitsIcESaIcEEE@Base 1.1.0
 _ZN16XMLParserWrapper4initEv@Base 1.1.0
 _ZN16XMLParserWrapper4instEv@Base 1.1.0
 _ZN16XMLParserWrapper5parseERSiRKNSt7__cxx1112basic_stringIcSt11char_traitsIcESaIcEEE@Base 1.1.0
 _ZN16XMLParserWrapper9parseFileERKNSt7__cxx1112basic_stringIcSt11char_traitsIcESaIcEEE@Base 1.1.0
 _ZN16XMLParserWrapperC1Ev@Base 1.1.0
 _ZN16XMLParserWrapperC2Ev@Base 1.1.0
 _ZN16XMLParserWrapperD1Ev@Base 1.1.0
 _ZN16XMLParserWrapperD2Ev@Base 1.1.0
 _ZN20grammar_input_stream9readBytesEPhm@Base 1.1.0
 _ZN20grammar_input_streamC1EPKhm@Base 1.1.0
 _ZN20grammar_input_streamC2EPKhm@Base 1.1.0
 _ZN20grammar_input_streamD0Ev@Base 1.1.0
 _ZN20grammar_input_streamD1Ev@Base 1.1.0
 _ZN20grammar_input_streamD2Ev@Base 1.1.0
 _ZN3xsd3cxx10auto_arrayIhNS0_3xml18std_memory_managerEE5true_Ev@Base 1.1.0
 _ZN3xsd3cxx10auto_arrayIhNS0_3xml18std_memory_managerEED1Ev@Base 1.1.0
 _ZN3xsd3cxx10auto_arrayIhNS0_3xml18std_memory_managerEED2Ev@Base 1.1.0
 _ZN3xsd3cxx10auto_arrayItNS0_17std_array_deleterItEEED1Ev@Base 1.1.0
 _ZN3xsd3cxx10auto_arrayItNS0_17std_array_deleterItEEED2Ev@Base 1.1.0
 _ZN3xsd3cxx10zc_istreamIcEC1ERKNS0_9ro_stringIcEE@Base 1.1.0
 _ZN3xsd3cxx10zc_istreamIcED0Ev@Base 1.1.0
 _ZN3xsd3cxx10zc_istreamIcED1Ev@Base 1.1.0
 _ZN3xsd3cxx10zc_istreamIcErsERj@Base 1.1.0
 _ZN3xsd3cxx12zc_streambufIcE9showmanycEv@Base 1.1.0
 _ZN3xsd3cxx12zc_streambufIcE9underflowEv@Base 1.1.0
 _ZN3xsd3cxx12zc_streambufIcED0Ev@Base 1.1.0
 _ZN3xsd3cxx12zc_streambufIcED1Ev@Base 1.1.0
 _ZN3xsd3cxx12zc_streambufIcED2Ev@Base 1.1.0
 _ZN3xsd3cxx3xml10propertiesIcED1Ev@Base 1.1.0
 _ZN3xsd3cxx3xml10propertiesIcED2Ev@Base 1.1.0
 _ZN3xsd3cxx3xml14qualified_nameIcEC1EPKcS5_@Base 1.1.0
 _ZN3xsd3cxx3xml14qualified_nameIcEC1ERKNSt7__cxx1112basic_stringIcSt11char_traitsIcESaIcEEESB_@Base 1.1.0
 _ZN3xsd3cxx3xml14qualified_nameIcEC1ERKS3_@Base 1.1.0
 _ZN3xsd3cxx3xml14qualified_nameIcEC2EPKcS5_@Base 1.1.0
 _ZN3xsd3cxx3xml14qualified_nameIcEC2ERKNSt7__cxx1112basic_stringIcSt11char_traitsIcESaIcEEESB_@Base 1.1.0
 _ZN3xsd3cxx3xml14qualified_nameIcEC2ERKS3_@Base 1.1.0
 _ZN3xsd3cxx3xml14qualified_nameIcED1Ev@Base 1.1.0
 _ZN3xsd3cxx3xml14qualified_nameIcED2Ev@Base 1.1.0
 _ZN3xsd3cxx3xml18std_memory_manager10deallocateEPv@Base 1.1.0
 _ZN3xsd3cxx3xml18std_memory_manager25getExceptionMemoryManagerEv@Base 1.1.0
 _ZN3xsd3cxx3xml18std_memory_manager8allocateEm@Base 1.1.0
 _ZN3xsd3cxx3xml18std_memory_managerD0Ev@Base 1.1.0
 _ZN3xsd3cxx3xml18std_memory_managerD1Ev@Base 1.1.0
 _ZN3xsd3cxx3xml18std_memory_managerD2Ev@Base 1.1.0
 _ZN3xsd3cxx3xml20char_utf8_transcoderIcE2toEPKtm@Base 1.1.0
 _ZN3xsd3cxx3xml20char_utf8_transcoderIcE4fromEPKcm@Base 1.1.0
 _ZN3xsd3cxx3xml3dom14add_namespacesIcEEvRN11xercesc_3_110DOMElementERKNS2_17namespace_infomapIT_EE@Base 1.1.0
 _ZN3xsd3cxx3xml3dom14create_elementIcEERN11xercesc_3_110DOMElementEPKT_S6_@Base 1.1.0
 _ZN3xsd3cxx3xml3dom14create_elementIcEERN11xercesc_3_110DOMElementEPKT_S9_S6_@Base 1.1.0
 _ZN3xsd3cxx3xml3dom15create_documentIcEENS2_8auto_ptrIN11xercesc_3_111DOMDocumentEEEv@Base 1.1.0
 _ZN3xsd3cxx3xml3dom16create_attributeIcEERN11xercesc_3_17DOMAttrEPKT_RNS4_10DOMElementE@Base 1.1.0
 _ZN3xsd3cxx3xml3dom21ostream_format_target10writeCharsEPKhmPN11xercesc_3_112XMLFormatterE@Base 1.1.0
 _ZN3xsd3cxx3xml3dom21ostream_format_target5flushEv@Base 1.1.0
 _ZN3xsd3cxx3xml3dom21ostream_format_targetD0Ev@Base 1.1.0
 _ZN3xsd3cxx3xml3dom21ostream_format_targetD1Ev@Base 1.1.0
 _ZN3xsd3cxx3xml3dom21ostream_format_targetD2Ev@Base 1.1.0
 _ZN3xsd3cxx3xml3dom4bits19error_handler_proxyIcE11handleErrorERKN11xercesc_3_18DOMErrorE@Base 1.1.0
 _ZN3xsd3cxx3xml3dom4bits19error_handler_proxyIcED0Ev@Base 1.1.0
 _ZN3xsd3cxx3xml3dom4bits19error_handler_proxyIcED1Ev@Base 1.1.0
 _ZN3xsd3cxx3xml3dom4bits19error_handler_proxyIcED2Ev@Base 1.1.0
 _ZN3xsd3cxx3xml3dom4nameIcEENS1_14qualified_nameIT_EERKN11xercesc_3_110DOMElementE@Base 1.1.0
 _ZN3xsd3cxx3xml3dom4nameIcEENS1_14qualified_nameIT_EERKN11xercesc_3_17DOMAttrE@Base 1.1.0
 _ZN3xsd3cxx3xml3dom5clearIcEEvRN11xercesc_3_110DOMElementE@Base 1.1.0
 _ZN3xsd3cxx3xml3dom5parseIcEENS2_8auto_ptrIN11xercesc_3_111DOMDocumentEEERKNSt7__cxx1112basic_stringIT_St11char_traitsISA_ESaISA_EEERNS5_15DOMErrorHandlerERKNS1_10propertiesISA_EEm@Base 1.1.0
 _ZN3xsd3cxx3xml3dom5parseIcEENS2_8auto_ptrIN11xercesc_3_111DOMDocumentEEERNS5_11InputSourceERNS5_15DOMErrorHandlerERKNS1_10propertiesIT_EEm@Base 1.1.0
 _ZN3xsd3cxx3xml3dom6parserIcE12next_contentEb@Base 1.1.0
 _ZN3xsd3cxx3xml3dom6parserIcEC1ERKN11xercesc_3_110DOMElementEbbb@Base 1.1.0
 _ZN3xsd3cxx3xml3dom6parserIcEC2ERKN11xercesc_3_110DOMElementEbbb@Base 1.1.0
 _ZN3xsd3cxx3xml3dom6prefixIcEENSt7__cxx1112basic_stringIT_St11char_traitsIS6_ESaIS6_EEEPKS6_RN11xercesc_3_110DOMElementESC_@Base 1.1.0
 _ZN3xsd3cxx3xml3dom9serializeIcEENS2_8auto_ptrIN11xercesc_3_111DOMDocumentEEERKNSt7__cxx1112basic_stringIT_St11char_traitsISA_ESaISA_EEESG_RKNS2_17namespace_infomapISA_EEm@Base 1.1.0
 _ZN3xsd3cxx3xml3dom9serializeIcEEbRN11xercesc_3_115XMLFormatTargetERKNS4_11DOMDocumentERKNSt7__cxx1112basic_stringIT_St11char_traitsISC_ESaISC_EEERNS4_15DOMErrorHandlerEm@Base 1.1.0
 _ZN3xsd3cxx3xml3sax16std_input_sourceD0Ev@Base 1.1.0
 _ZN3xsd3cxx3xml3sax16std_input_sourceD1Ev@Base 1.1.0
 _ZN3xsd3cxx3xml3sax16std_input_sourceD2Ev@Base 1.1.0
 _ZN3xsd3cxx3xml3sax16std_input_stream9readBytesEPhm@Base 1.1.0
 _ZN3xsd3cxx3xml3sax16std_input_streamD0Ev@Base 1.1.0
 _ZN3xsd3cxx3xml3sax16std_input_streamD1Ev@Base 1.1.0
 _ZN3xsd3cxx3xml3sax16std_input_streamD2Ev@Base 1.1.0
 _ZN3xsd3cxx3xml6prefixIcEENSt7__cxx1112basic_stringIT_St11char_traitsIS5_ESaIS5_EEERKS9_@Base 1.1.0
 _ZN3xsd3cxx3xml7uq_nameIcEENSt7__cxx1112basic_stringIT_St11char_traitsIS5_ESaIS5_EEERKS9_@Base 1.1.0
 _ZN3xsd3cxx3xml9transcodeIcEENSt7__cxx1112basic_stringIT_St11char_traitsIS5_ESaIS5_EEEPKt@Base 1.1.0
 _ZN3xsd3cxx3xmlltIcEEbRKNS1_14qualified_nameIT_EES7_@Base 1.1.0
 _ZN3xsd3cxx4tree10gmonth_dayIcNS1_11simple_typeIcNS1_5_typeEEEED0Ev@Base 1.1.0
 _ZN3xsd3cxx4tree10gmonth_dayIcNS1_11simple_typeIcNS1_5_typeEEEED1Ev@Base 1.1.0
 _ZN3xsd3cxx4tree10gmonth_dayIcNS1_11simple_typeIcNS1_5_typeEEEED2Ev@Base 1.1.0
 _ZN3xsd3cxx4tree10hex_binaryIcNS1_11simple_typeIcNS1_5_typeEEEE6decodeEPKt@Base 1.1.0
 _ZN3xsd3cxx4tree10hex_binaryIcNS1_11simple_typeIcNS1_5_typeEEEEC1ERKN11xercesc_3_110DOMElementENS1_5flagsEPS4_@Base 1.1.0
 _ZN3xsd3cxx4tree10hex_binaryIcNS1_11simple_typeIcNS1_5_typeEEEEC2ERKN11xercesc_3_110DOMElementENS1_5flagsEPS4_@Base 1.1.0
 _ZN3xsd3cxx4tree10hex_binaryIcNS1_11simple_typeIcNS1_5_typeEEEED0Ev@Base 1.1.0
 _ZN3xsd3cxx4tree10hex_binaryIcNS1_11simple_typeIcNS1_5_typeEEEED1Ev@Base 1.1.0
 _ZN3xsd3cxx4tree10hex_binaryIcNS1_11simple_typeIcNS1_5_typeEEEED2Ev@Base 1.1.0
 _ZN3xsd3cxx4tree11buffer_baseD0Ev@Base 1.1.0
 _ZN3xsd3cxx4tree11buffer_baseD1Ev@Base 1.1.0
 _ZN3xsd3cxx4tree11buffer_baseD2Ev@Base 1.1.0
 _ZN3xsd3cxx4tree11gyear_monthIcNS1_11simple_typeIcNS1_5_typeEEEE5parseERKNSt7__cxx1112basic_stringIcSt11char_traitsIcESaIcEEE@Base 1.1.0
 _ZN3xsd3cxx4tree11gyear_monthIcNS1_11simple_typeIcNS1_5_typeEEEED0Ev@Base 1.1.0
 _ZN3xsd3cxx4tree11gyear_monthIcNS1_11simple_typeIcNS1_5_typeEEEED1Ev@Base 1.1.0
 _ZN3xsd3cxx4tree11gyear_monthIcNS1_11simple_typeIcNS1_5_typeEEEED2Ev@Base 1.1.0
 _ZN3xsd3cxx4tree11not_derivedIcED0Ev@Base 1.1.0
 _ZN3xsd3cxx4tree11not_derivedIcED1Ev@Base 1.1.0
 _ZN3xsd3cxx4tree11not_derivedIcED2Ev@Base 1.1.0
 _ZN3xsd3cxx4tree11simple_typeIcNS1_5_typeEE17text_content_typeD0Ev@Base 1.1.0
 _ZN3xsd3cxx4tree11simple_typeIcNS1_5_typeEE17text_content_typeD1Ev@Base 1.1.0
 _ZN3xsd3cxx4tree11simple_typeIcNS1_5_typeEE17text_content_typeD2Ev@Base 1.1.0
 _ZN3xsd3cxx4tree11simple_typeIcNS1_5_typeEEC1ERKN11xercesc_3_110DOMElementENS1_5flagsEPS3_@Base 1.1.0
 _ZN3xsd3cxx4tree11simple_typeIcNS1_5_typeEEC1ERKN11xercesc_3_17DOMAttrENS1_5flagsEPS3_@Base 1.1.0
 _ZN3xsd3cxx4tree11simple_typeIcNS1_5_typeEEC2ERKN11xercesc_3_110DOMElementENS1_5flagsEPS3_@Base 1.1.0
 _ZN3xsd3cxx4tree11simple_typeIcNS1_5_typeEEC2ERKN11xercesc_3_17DOMAttrENS1_5flagsEPS3_@Base 1.1.0
 _ZN3xsd3cxx4tree11simple_typeIcNS1_5_typeEED0Ev@Base 1.1.0
 _ZN3xsd3cxx4tree11simple_typeIcNS1_5_typeEED1Ev@Base 1.1.0
 _ZN3xsd3cxx4tree11simple_typeIcNS1_5_typeEED2Ev@Base 1.1.0
 _ZN3xsd3cxx4tree12duplicate_idIcED0Ev@Base 1.1.0
 _ZN3xsd3cxx4tree12duplicate_idIcED1Ev@Base 1.1.0
 _ZN3xsd3cxx4tree12duplicate_idIcED2Ev@Base 1.1.0
 _ZN3xsd3cxx4tree12factory_implIN13icalendar_2_010CustomTypeEEESt8auto_ptrINS1_5_typeEERKN11xercesc_3_110DOMElementENS1_5flagsEPS6_@Base 1.1.0
 _ZN3xsd3cxx4tree12factory_implIN13icalendar_2_011CnParamTypeEEESt8auto_ptrINS1_5_typeEERKN11xercesc_3_110DOMElementENS1_5flagsEPS6_@Base 1.1.0
 _ZN3xsd3cxx4tree12factory_implIN13icalendar_2_011ContactTypeEEESt8auto_ptrINS1_5_typeEERKN11xercesc_3_110DOMElementENS1_5flagsEPS6_@Base 1.1.0
 _ZN3xsd3cxx4tree12factory_implIN13icalendar_2_011DuePropTypeEEESt8auto_ptrINS1_5_typeEERKN11xercesc_3_110DOMElementENS1_5flagsEPS6_@Base 1.1.0
 _ZN3xsd3cxx4tree12factory_implIN13icalendar_2_011GeoPropTypeEEESt8auto_ptrINS1_5_typeEERKN11xercesc_3_110DOMElementENS1_5flagsEPS6_@Base 1.1.0
 _ZN3xsd3cxx4tree12factory_implIN13icalendar_2_011UidPropTypeEEESt8auto_ptrINS1_5_typeEERKN11xercesc_3_110DOMElementENS1_5flagsEPS6_@Base 1.1.0
 _ZN3xsd3cxx4tree12factory_implIN13icalendar_2_011UrlPropTypeEEESt8auto_ptrINS1_5_typeEERKN11xercesc_3_110DOMElementENS1_5flagsEPS6_@Base 1.1.0
 _ZN3xsd3cxx4tree12factory_implIN13icalendar_2_012DirParamTypeEEESt8auto_ptrINS1_5_typeEERKN11xercesc_3_110DOMElementENS1_5flagsEPS6_@Base 1.1.0
 _ZN3xsd3cxx4tree12factory_implIN13icalendar_2_012KolabVersionEEESt8auto_ptrINS1_5_typeEERKN11xercesc_3_110DOMElementENS1_5flagsEPS6_@Base 1.1.0
 _ZN3xsd3cxx4tree12factory_implIN13icalendar_2_012TzidPropTypeEEESt8auto_ptrINS1_5_typeEERKN11xercesc_3_110DOMElementENS1_5flagsEPS6_@Base 1.1.0
 _ZN3xsd3cxx4tree12factory_implIN13icalendar_2_013ClassPropTypeEEESt8auto_ptrINS1_5_typeEERKN11xercesc_3_110DOMElementENS1_5flagsEPS6_@Base 1.1.0
 _ZN3xsd3cxx4tree12factory_implIN13icalendar_2_013DtendPropTypeEEESt8auto_ptrINS1_5_typeEERKN11xercesc_3_110DOMElementENS1_5flagsEPS6_@Base 1.1.0
 _ZN3xsd3cxx4tree12factory_implIN13icalendar_2_013RdatePropTypeEEESt8auto_ptrINS1_5_typeEERKN11xercesc_3_110DOMElementENS1_5flagsEPS6_@Base 1.1.0
 _ZN3xsd3cxx4tree12factory_implIN13icalendar_2_013RoleParamTypeEEESt8auto_ptrINS1_5_typeEERKN11xercesc_3_110DOMElementENS1_5flagsEPS6_@Base 1.1.0
 _ZN3xsd3cxx4tree12factory_implIN13icalendar_2_013RrulePropTypeEEESt8auto_ptrINS1_5_typeEERKN11xercesc_3_110DOMElementENS1_5flagsEPS6_@Base 1.1.0
 _ZN3xsd3cxx4tree12factory_implIN13icalendar_2_013RsvpParamTypeEEESt8auto_ptrINS1_5_typeEERKN11xercesc_3_110DOMElementENS1_5flagsEPS6_@Base 1.1.0
 _ZN3xsd3cxx4tree12factory_implIN13icalendar_2_013TzidParamTypeEEESt8auto_ptrINS1_5_typeEERKN11xercesc_3_110DOMElementENS1_5flagsEPS6_@Base 1.1.0
 _ZN3xsd3cxx4tree12factory_implIN13icalendar_2_013TzurlPropTypeEEESt8auto_ptrINS1_5_typeEERKN11xercesc_3_110DOMElementENS1_5flagsEPS6_@Base 1.1.0
 _ZN3xsd3cxx4tree12factory_implIN13icalendar_2_013XuidParamTypeEEESt8auto_ptrINS1_5_typeEERKN11xercesc_3_110DOMElementENS1_5flagsEPS6_@Base 1.1.0
 _ZN3xsd3cxx4tree12factory_implIN13icalendar_2_014ActionPropTypeEEESt8auto_ptrINS1_5_typeEERKN11xercesc_3_110DOMElementENS1_5flagsEPS6_@Base 1.1.0
 _ZN3xsd3cxx4tree12factory_implIN13icalendar_2_014AttachPropTypeEEESt8auto_ptrINS1_5_typeEERKN11xercesc_3_110DOMElementENS1_5flagsEPS6_@Base 1.1.0
 _ZN3xsd3cxx4tree12factory_implIN13icalendar_2_014ExdatePropTypeEEESt8auto_ptrINS1_5_typeEERKN11xercesc_3_110DOMElementENS1_5flagsEPS6_@Base 1.1.0
 _ZN3xsd3cxx4tree12factory_implIN13icalendar_2_014ExrulePropTypeEEESt8auto_ptrINS1_5_typeEERKN11xercesc_3_110DOMElementENS1_5flagsEPS6_@Base 1.1.0
 _ZN3xsd3cxx4tree12factory_implIN13icalendar_2_014MethodPropTypeEEESt8auto_ptrINS1_5_typeEERKN11xercesc_3_110DOMElementENS1_5flagsEPS6_@Base 1.1.0
 _ZN3xsd3cxx4tree12factory_implIN13icalendar_2_014ProdidPropTypeEEESt8auto_ptrINS1_5_typeEERKN11xercesc_3_110DOMElementENS1_5flagsEPS6_@Base 1.1.0
 _ZN3xsd3cxx4tree12factory_implIN13icalendar_2_014RangeParamTypeEEESt8auto_ptrINS1_5_typeEERKN11xercesc_3_110DOMElementENS1_5flagsEPS6_@Base 1.1.0
 _ZN3xsd3cxx4tree12factory_implIN13icalendar_2_014RepeatPropTypeEEESt8auto_ptrINS1_5_typeEERKN11xercesc_3_110DOMElementENS1_5flagsEPS6_@Base 1.1.0
 _ZN3xsd3cxx4tree12factory_implIN13icalendar_2_014StatusPropTypeEEESt8auto_ptrINS1_5_typeEERKN11xercesc_3_110DOMElementENS1_5flagsEPS6_@Base 1.1.0
 _ZN3xsd3cxx4tree12factory_implIN13icalendar_2_014TranspPropTypeEEESt8auto_ptrINS1_5_typeEERKN11xercesc_3_110DOMElementENS1_5flagsEPS6_@Base 1.1.0
 _ZN3xsd3cxx4tree12factory_implIN13icalendar_2_014TznamePropTypeEEESt8auto_ptrINS1_5_typeEERKN11xercesc_3_110DOMElementENS1_5flagsEPS6_@Base 1.1.0
 _ZN3xsd3cxx4tree12factory_implIN13icalendar_2_015AltrepParamTypeEEESt8auto_ptrINS1_5_typeEERKN11xercesc_3_110DOMElementENS1_5flagsEPS6_@Base 1.1.0
 _ZN3xsd3cxx4tree12factory_implIN13icalendar_2_015CommentPropTypeEEESt8auto_ptrINS1_5_typeEERKN11xercesc_3_110DOMElementENS1_5flagsEPS6_@Base 1.1.0
 _ZN3xsd3cxx4tree12factory_implIN13icalendar_2_015ContactPropTypeEEESt8auto_ptrINS1_5_typeEERKN11xercesc_3_110DOMElementENS1_5flagsEPS6_@Base 1.1.0
 _ZN3xsd3cxx4tree12factory_implIN13icalendar_2_015CreatedPropTypeEEESt8auto_ptrINS1_5_typeEERKN11xercesc_3_110DOMElementENS1_5flagsEPS6_@Base 1.1.0
 _ZN3xsd3cxx4tree12factory_implIN13icalendar_2_015CutypeParamTypeEEESt8auto_ptrINS1_5_typeEERKN11xercesc_3_110DOMElementENS1_5flagsEPS6_@Base 1.1.0
 _ZN3xsd3cxx4tree12factory_implIN13icalendar_2_015DtstampPropTypeEEESt8auto_ptrINS1_5_typeEERKN11xercesc_3_110DOMElementENS1_5flagsEPS6_@Base 1.1.0
 _ZN3xsd3cxx4tree12factory_implIN13icalendar_2_015DtstartPropTypeEEESt8auto_ptrINS1_5_typeEERKN11xercesc_3_110DOMElementENS1_5flagsEPS6_@Base 1.1.0
 _ZN3xsd3cxx4tree12factory_implIN13icalendar_2_015FbtypeParamTypeEEESt8auto_ptrINS1_5_typeEERKN11xercesc_3_110DOMElementENS1_5flagsEPS6_@Base 1.1.0
 _ZN3xsd3cxx4tree12factory_implIN13icalendar_2_015MemberParamTypeEEESt8auto_ptrINS1_5_typeEERKN11xercesc_3_110DOMElementENS1_5flagsEPS6_@Base 1.1.0
 _ZN3xsd3cxx4tree12factory_implIN13icalendar_2_015SentByParamTypeEEESt8auto_ptrINS1_5_typeEERKN11xercesc_3_110DOMElementENS1_5flagsEPS6_@Base 1.1.0
 _ZN3xsd3cxx4tree12factory_implIN13icalendar_2_015SummaryPropTypeEEESt8auto_ptrINS1_5_typeEERKN11xercesc_3_110DOMElementENS1_5flagsEPS6_@Base 1.1.0
 _ZN3xsd3cxx4tree12factory_implIN13icalendar_2_015TriggerPropTypeEEESt8auto_ptrINS1_5_typeEERKN11xercesc_3_110DOMElementENS1_5flagsEPS6_@Base 1.1.0
 _ZN3xsd3cxx4tree12factory_implIN13icalendar_2_015UriPropertyTypeEEESt8auto_ptrINS1_5_typeEERKN11xercesc_3_110DOMElementENS1_5flagsEPS6_@Base 1.1.0
 _ZN3xsd3cxx4tree12factory_implIN13icalendar_2_015VersionPropTypeEEESt8auto_ptrINS1_5_typeEERKN11xercesc_3_110DOMElementENS1_5flagsEPS6_@Base 1.1.0
 _ZN3xsd3cxx4tree12factory_implIN13icalendar_2_015XlabelParamTypeEEESt8auto_ptrINS1_5_typeEERKN11xercesc_3_110DOMElementENS1_5flagsEPS6_@Base 1.1.0
 _ZN3xsd3cxx4tree12factory_implIN13icalendar_2_016AttendeePropTypeEEESt8auto_ptrINS1_5_typeEERKN11xercesc_3_110DOMElementENS1_5flagsEPS6_@Base 1.1.0
 _ZN3xsd3cxx4tree12factory_implIN13icalendar_2_016BasePropertyTypeEEESt8auto_ptrINS1_5_typeEERKN11xercesc_3_110DOMElementENS1_5flagsEPS6_@Base 1.1.0
 _ZN3xsd3cxx4tree12factory_implIN13icalendar_2_016CalscalePropTypeEEESt8auto_ptrINS1_5_typeEERKN11xercesc_3_110DOMElementENS1_5flagsEPS6_@Base 1.1.0
 _ZN3xsd3cxx4tree12factory_implIN13icalendar_2_016DurationPropTypeEEESt8auto_ptrINS1_5_typeEERKN11xercesc_3_110DOMElementENS1_5flagsEPS6_@Base 1.1.0
 _ZN3xsd3cxx4tree12factory_implIN13icalendar_2_016FmttypeParamTypeEEESt8auto_ptrINS1_5_typeEERKN11xercesc_3_110DOMElementENS1_5flagsEPS6_@Base 1.1.0
 _ZN3xsd3cxx4tree12factory_implIN13icalendar_2_016FreebusyPropTypeEEESt8auto_ptrINS1_5_typeEERKN11xercesc_3_110DOMElementENS1_5flagsEPS6_@Base 1.1.0
 _ZN3xsd3cxx4tree12factory_implIN13icalendar_2_016LocationPropTypeEEESt8auto_ptrINS1_5_typeEERKN11xercesc_3_110DOMElementENS1_5flagsEPS6_@Base 1.1.0
 _ZN3xsd3cxx4tree12factory_implIN13icalendar_2_016PriorityPropTypeEEESt8auto_ptrINS1_5_typeEERKN11xercesc_3_110DOMElementENS1_5flagsEPS6_@Base 1.1.0
 _ZN3xsd3cxx4tree12factory_implIN13icalendar_2_016RelatedParamTypeEEESt8auto_ptrINS1_5_typeEERKN11xercesc_3_110DOMElementENS1_5flagsEPS6_@Base 1.1.0
 _ZN3xsd3cxx4tree12factory_implIN13icalendar_2_016ReltypeParamTypeEEESt8auto_ptrINS1_5_typeEERKN11xercesc_3_110DOMElementENS1_5flagsEPS6_@Base 1.1.0
 _ZN3xsd3cxx4tree12factory_implIN13icalendar_2_016SequencePropTypeEEESt8auto_ptrINS1_5_typeEERKN11xercesc_3_110DOMElementENS1_5flagsEPS6_@Base 1.1.0
 _ZN3xsd3cxx4tree12factory_implIN13icalendar_2_016TextPropertyTypeEEESt8auto_ptrINS1_5_typeEERKN11xercesc_3_110DOMElementENS1_5flagsEPS6_@Base 1.1.0
 _ZN3xsd3cxx4tree12factory_implIN13icalendar_2_016UriParameterTypeEEESt8auto_ptrINS1_5_typeEERKN11xercesc_3_110DOMElementENS1_5flagsEPS6_@Base 1.1.0
 _ZN3xsd3cxx4tree12factory_implIN13icalendar_2_017BaseParameterTypeEEESt8auto_ptrINS1_5_typeEERKN11xercesc_3_110DOMElementENS1_5flagsEPS6_@Base 1.1.0
 _ZN3xsd3cxx4tree12factory_implIN13icalendar_2_017CompletedPropTypeEEESt8auto_ptrINS1_5_typeEERKN11xercesc_3_110DOMElementENS1_5flagsEPS6_@Base 1.1.0
 _ZN3xsd3cxx4tree12factory_implIN13icalendar_2_017EncodingParamTypeEEESt8auto_ptrINS1_5_typeEERKN11xercesc_3_110DOMElementENS1_5flagsEPS6_@Base 1.1.0
 _ZN3xsd3cxx4tree12factory_implIN13icalendar_2_017LanguageParamTypeEEESt8auto_ptrINS1_5_typeEERKN11xercesc_3_110DOMElementENS1_5flagsEPS6_@Base 1.1.0
 _ZN3xsd3cxx4tree12factory_implIN13icalendar_2_017OrganizerPropTypeEEESt8auto_ptrINS1_5_typeEERKN11xercesc_3_110DOMElementENS1_5flagsEPS6_@Base 1.1.0
 _ZN3xsd3cxx4tree12factory_implIN13icalendar_2_017PartstatParamTypeEEESt8auto_ptrINS1_5_typeEERKN11xercesc_3_110DOMElementENS1_5flagsEPS6_@Base 1.1.0
 _ZN3xsd3cxx4tree12factory_implIN13icalendar_2_017RecurPropertyTypeEEESt8auto_ptrINS1_5_typeEERKN11xercesc_3_110DOMElementENS1_5flagsEPS6_@Base 1.1.0
 _ZN3xsd3cxx4tree12factory_implIN13icalendar_2_017RelatedToPropTypeEEESt8auto_ptrINS1_5_typeEERKN11xercesc_3_110DOMElementENS1_5flagsEPS6_@Base 1.1.0
 _ZN3xsd3cxx4tree12factory_implIN13icalendar_2_017ResourcesPropTypeEEESt8auto_ptrINS1_5_typeEERKN11xercesc_3_110DOMElementENS1_5flagsEPS6_@Base 1.1.0
 _ZN3xsd3cxx4tree12factory_implIN13icalendar_2_017TextParameterTypeEEESt8auto_ptrINS1_5_typeEERKN11xercesc_3_110DOMElementENS1_5flagsEPS6_@Base 1.1.0
 _ZN3xsd3cxx4tree12factory_implIN13icalendar_2_018CategoriesPropTypeEEESt8auto_ptrINS1_5_typeEERKN11xercesc_3_110DOMElementENS1_5flagsEPS6_@Base 1.1.0
 _ZN3xsd3cxx4tree12factory_implIN13icalendar_2_018TzoffsettoPropTypeEEESt8auto_ptrINS1_5_typeEERKN11xercesc_3_110DOMElementENS1_5flagsEPS6_@Base 1.1.0
 _ZN3xsd3cxx4tree12factory_implIN13icalendar_2_019CalAddressParamTypeEEESt8auto_ptrINS1_5_typeEERKN11xercesc_3_110DOMElementENS1_5flagsEPS6_@Base 1.1.0
 _ZN3xsd3cxx4tree12factory_implIN13icalendar_2_019DescriptionPropTypeEEESt8auto_ptrINS1_5_typeEERKN11xercesc_3_110DOMElementENS1_5flagsEPS6_@Base 1.1.0
 _ZN3xsd3cxx4tree12factory_implIN13icalendar_2_019IntegerPropertyTypeEEESt8auto_ptrINS1_5_typeEERKN11xercesc_3_110DOMElementENS1_5flagsEPS6_@Base 1.1.0
 _ZN3xsd3cxx4tree12factory_implIN13icalendar_2_020BooleanParameterTypeEEESt8auto_ptrINS1_5_typeEERKN11xercesc_3_110DOMElementENS1_5flagsEPS6_@Base 1.1.0
 _ZN3xsd3cxx4tree12factory_implIN13icalendar_2_020DatetimePropertyTypeEEESt8auto_ptrINS1_5_typeEERKN11xercesc_3_110DOMElementENS1_5flagsEPS6_@Base 1.1.0
 _ZN3xsd3cxx4tree12factory_implIN13icalendar_2_020DelegatedToParamTypeEEESt8auto_ptrINS1_5_typeEERKN11xercesc_3_110DOMElementENS1_5flagsEPS6_@Base 1.1.0
 _ZN3xsd3cxx4tree12factory_implIN13icalendar_2_020LastModifiedPropTypeEEESt8auto_ptrINS1_5_typeEERKN11xercesc_3_110DOMElementENS1_5flagsEPS6_@Base 1.1.0
 _ZN3xsd3cxx4tree12factory_implIN13icalendar_2_020RecurrenceIdPropTypeEEESt8auto_ptrINS1_5_typeEERKN11xercesc_3_110DOMElementENS1_5flagsEPS6_@Base 1.1.0
 _ZN3xsd3cxx4tree12factory_implIN13icalendar_2_020TextListPropertyTypeEEESt8auto_ptrINS1_5_typeEERKN11xercesc_3_110DOMElementENS1_5flagsEPS6_@Base 1.1.0
 _ZN3xsd3cxx4tree12factory_implIN13icalendar_2_020TzoffsetfromPropTypeEEESt8auto_ptrINS1_5_typeEERKN11xercesc_3_110DOMElementENS1_5flagsEPS6_@Base 1.1.0
 _ZN3xsd3cxx4tree12factory_implIN13icalendar_2_021RequestStatusPropTypeEEESt8auto_ptrINS1_5_typeEERKN11xercesc_3_110DOMElementENS1_5flagsEPS6_@Base 1.1.0
 _ZN3xsd3cxx4tree12factory_implIN13icalendar_2_021UtcOffsetPropertyTypeEEESt8auto_ptrINS1_5_typeEERKN11xercesc_3_110DOMElementENS1_5flagsEPS6_@Base 1.1.0
 _ZN3xsd3cxx4tree12factory_implIN13icalendar_2_022CalAddressPropertyTypeEEESt8auto_ptrINS1_5_typeEERKN11xercesc_3_110DOMElementENS1_5flagsEPS6_@Base 1.1.0
 _ZN3xsd3cxx4tree12factory_implIN13icalendar_2_022DelegatedFromParamTypeEEESt8auto_ptrINS1_5_typeEERKN11xercesc_3_110DOMElementENS1_5flagsEPS6_@Base 1.1.0
 _ZN3xsd3cxx4tree12factory_implIN13icalendar_2_022ScheduleAgentParamTypeEEESt8auto_ptrINS1_5_typeEERKN11xercesc_3_110DOMElementENS1_5flagsEPS6_@Base 1.1.0
 _ZN3xsd3cxx4tree12factory_implIN13icalendar_2_023CalAddressListParamTypeEEESt8auto_ptrINS1_5_typeEERKN11xercesc_3_110DOMElementENS1_5flagsEPS6_@Base 1.1.0
 _ZN3xsd3cxx4tree12factory_implIN13icalendar_2_023PercentCompletePropTypeEEESt8auto_ptrINS1_5_typeEERKN11xercesc_3_110DOMElementENS1_5flagsEPS6_@Base 1.1.0
 _ZN3xsd3cxx4tree12factory_implIN13icalendar_2_023ScheduleStatusParamTypeEEESt8auto_ptrINS1_5_typeEERKN11xercesc_3_110DOMElementENS1_5flagsEPS6_@Base 1.1.0
 _ZN3xsd3cxx4tree12factory_implIN13icalendar_2_023UtcDatetimePropertyTypeEEESt8auto_ptrINS1_5_typeEERKN11xercesc_3_110DOMElementENS1_5flagsEPS6_@Base 1.1.0
 _ZN3xsd3cxx4tree12factory_implIN13icalendar_2_024DateDatetimePropertyTypeEEESt8auto_ptrINS1_5_typeEERKN11xercesc_3_110DOMElementENS1_5flagsEPS6_@Base 1.1.0
 _ZN3xsd3cxx4tree12factory_implIN13icalendar_2_026ScheduleForceSendParamTypeEEESt8auto_ptrINS1_5_typeEERKN11xercesc_3_110DOMElementENS1_5flagsEPS6_@Base 1.1.0
 _ZN3xsd3cxx4tree12factory_implIN13icalendar_2_08XFBeventEEESt8auto_ptrINS1_5_typeEERKN11xercesc_3_110DOMElementENS1_5flagsEPS6_@Base 1.1.0
 _ZN3xsd3cxx4tree12factory_implIN9vcard_4_010CryptoTypeEEESt8auto_ptrINS1_5_typeEERKN11xercesc_3_110DOMElementENS1_5flagsEPS6_@Base 1.1.0
 _ZN3xsd3cxx4tree12factory_implIN9vcard_4_010CustomTypeEEESt8auto_ptrINS1_5_typeEERKN11xercesc_3_110DOMElementENS1_5flagsEPS6_@Base 1.1.0
 _ZN3xsd3cxx4tree12factory_implIN9vcard_4_010fnPropTypeEEESt8auto_ptrINS1_5_typeEERKN11xercesc_3_110DOMElementENS1_5flagsEPS6_@Base 1.1.0
 _ZN3xsd3cxx4tree12factory_implIN9vcard_4_011adrPropTypeEEESt8auto_ptrINS1_5_typeEERKN11xercesc_3_110DOMElementENS1_5flagsEPS6_@Base 1.1.0
 _ZN3xsd3cxx4tree12factory_implIN9vcard_4_011geoPropTypeEEESt8auto_ptrINS1_5_typeEERKN11xercesc_3_110DOMElementENS1_5flagsEPS6_@Base 1.1.0
 _ZN3xsd3cxx4tree12factory_implIN9vcard_4_011keyPropTypeEEESt8auto_ptrINS1_5_typeEERKN11xercesc_3_110DOMElementENS1_5flagsEPS6_@Base 1.1.0
 _ZN3xsd3cxx4tree12factory_implIN9vcard_4_011revPropTypeEEESt8auto_ptrINS1_5_typeEERKN11xercesc_3_110DOMElementENS1_5flagsEPS6_@Base 1.1.0
 _ZN3xsd3cxx4tree12factory_implIN9vcard_4_011telPropTypeEEESt8auto_ptrINS1_5_typeEERKN11xercesc_3_110DOMElementENS1_5flagsEPS6_@Base 1.1.0
 _ZN3xsd3cxx4tree12factory_implIN9vcard_4_011uidPropTypeEEESt8auto_ptrINS1_5_typeEERKN11xercesc_3_110DOMElementENS1_5flagsEPS6_@Base 1.1.0
 _ZN3xsd3cxx4tree12factory_implIN9vcard_4_011urlPropTypeEEESt8auto_ptrINS1_5_typeEERKN11xercesc_3_110DOMElementENS1_5flagsEPS6_@Base 1.1.0
 _ZN3xsd3cxx4tree12factory_implIN9vcard_4_012KolabVersionEEESt8auto_ptrINS1_5_typeEERKN11xercesc_3_110DOMElementENS1_5flagsEPS6_@Base 1.1.0
 _ZN3xsd3cxx4tree12factory_implIN9vcard_4_012bdayPropTypeEEESt8auto_ptrINS1_5_typeEERKN11xercesc_3_110DOMElementENS1_5flagsEPS6_@Base 1.1.0
 _ZN3xsd3cxx4tree12factory_implIN9vcard_4_012imppPropTypeEEESt8auto_ptrINS1_5_typeEERKN11xercesc_3_110DOMElementENS1_5flagsEPS6_@Base 1.1.0
 _ZN3xsd3cxx4tree12factory_implIN9vcard_4_012kindPropTypeEEESt8auto_ptrINS1_5_typeEERKN11xercesc_3_110DOMElementENS1_5flagsEPS6_@Base 1.1.0
 _ZN3xsd3cxx4tree12factory_implIN9vcard_4_012langPropTypeEEESt8auto_ptrINS1_5_typeEERKN11xercesc_3_110DOMElementENS1_5flagsEPS6_@Base 1.1.0
 _ZN3xsd3cxx4tree12factory_implIN9vcard_4_012notePropTypeEEESt8auto_ptrINS1_5_typeEERKN11xercesc_3_110DOMElementENS1_5flagsEPS6_@Base 1.1.0
 _ZN3xsd3cxx4tree12factory_implIN9vcard_4_013emailPropTypeEEESt8auto_ptrINS1_5_typeEERKN11xercesc_3_110DOMElementENS1_5flagsEPS6_@Base 1.1.0
 _ZN3xsd3cxx4tree12factory_implIN9vcard_4_013fburlPropTypeEEESt8auto_ptrINS1_5_typeEERKN11xercesc_3_110DOMElementENS1_5flagsEPS6_@Base 1.1.0
 _ZN3xsd3cxx4tree12factory_implIN9vcard_4_013photoPropTypeEEESt8auto_ptrINS1_5_typeEERKN11xercesc_3_110DOMElementENS1_5flagsEPS6_@Base 1.1.0
 _ZN3xsd3cxx4tree12factory_implIN9vcard_4_013prefParamTypeEEESt8auto_ptrINS1_5_typeEERKN11xercesc_3_110DOMElementENS1_5flagsEPS6_@Base 1.1.0
 _ZN3xsd3cxx4tree12factory_implIN9vcard_4_013titlePropTypeEEESt8auto_ptrINS1_5_typeEERKN11xercesc_3_110DOMElementENS1_5flagsEPS6_@Base 1.1.0
 _ZN3xsd3cxx4tree12factory_implIN9vcard_4_013typeParamTypeEEESt8auto_ptrINS1_5_typeEERKN11xercesc_3_110DOMElementENS1_5flagsEPS6_@Base 1.1.0
 _ZN3xsd3cxx4tree12factory_implIN9vcard_4_013xuidParamTypeEEESt8auto_ptrINS1_5_typeEERKN11xercesc_3_110DOMElementENS1_5flagsEPS6_@Base 1.1.0
 _ZN3xsd3cxx4tree12factory_implIN9vcard_4_014labelParamTypeEEESt8auto_ptrINS1_5_typeEERKN11xercesc_3_110DOMElementENS1_5flagsEPS6_@Base 1.1.0
 _ZN3xsd3cxx4tree12factory_implIN9vcard_4_014memberPropTypeEEESt8auto_ptrINS1_5_typeEERKN11xercesc_3_110DOMElementENS1_5flagsEPS6_@Base 1.1.0
 _ZN3xsd3cxx4tree12factory_implIN9vcard_4_014prodidPropTypeEEESt8auto_ptrINS1_5_typeEERKN11xercesc_3_110DOMElementENS1_5flagsEPS6_@Base 1.1.0
 _ZN3xsd3cxx4tree12factory_implIN9vcard_4_015UriPropertyTypeEEESt8auto_ptrINS1_5_typeEERKN11xercesc_3_110DOMElementENS1_5flagsEPS6_@Base 1.1.0
 _ZN3xsd3cxx4tree12factory_implIN9vcard_4_015relatedPropTypeEEESt8auto_ptrINS1_5_typeEERKN11xercesc_3_110DOMElementENS1_5flagsEPS6_@Base 1.1.0
 _ZN3xsd3cxx4tree12factory_implIN9vcard_4_016BasePropertyTypeEEESt8auto_ptrINS1_5_typeEERKN11xercesc_3_110DOMElementENS1_5flagsEPS6_@Base 1.1.0
 _ZN3xsd3cxx4tree12factory_implIN9vcard_4_016TextPropertyTypeEEESt8auto_ptrINS1_5_typeEERKN11xercesc_3_110DOMElementENS1_5flagsEPS6_@Base 1.1.0
 _ZN3xsd3cxx4tree12factory_implIN9vcard_4_016UriParameterTypeEEESt8auto_ptrINS1_5_typeEERKN11xercesc_3_110DOMElementENS1_5flagsEPS6_@Base 1.1.0
 _ZN3xsd3cxx4tree12factory_implIN9vcard_4_016nicknamePropTypeEEESt8auto_ptrINS1_5_typeEERKN11xercesc_3_110DOMElementENS1_5flagsEPS6_@Base 1.1.0
 _ZN3xsd3cxx4tree12factory_implIN9vcard_4_017BaseParameterTypeEEESt8auto_ptrINS1_5_typeEERKN11xercesc_3_110DOMElementENS1_5flagsEPS6_@Base 1.1.0
 _ZN3xsd3cxx4tree12factory_implIN9vcard_4_017TextParameterTypeEEESt8auto_ptrINS1_5_typeEERKN11xercesc_3_110DOMElementENS1_5flagsEPS6_@Base 1.1.0
 _ZN3xsd3cxx4tree12factory_implIN9vcard_4_018categoriesPropTypeEEESt8auto_ptrINS1_5_typeEERKN11xercesc_3_110DOMElementENS1_5flagsEPS6_@Base 1.1.0
 _ZN3xsd3cxx4tree12factory_implIN9vcard_4_019affiliationPropTypeEEESt8auto_ptrINS1_5_typeEERKN11xercesc_3_110DOMElementENS1_5flagsEPS6_@Base 1.1.0
 _ZN3xsd3cxx4tree12factory_implIN9vcard_4_019anniversaryPropTypeEEESt8auto_ptrINS1_5_typeEERKN11xercesc_3_110DOMElementENS1_5flagsEPS6_@Base 1.1.0
 _ZN3xsd3cxx4tree12factory_implIN9vcard_4_020TextListPropertyTypeEEESt8auto_ptrINS1_5_typeEERKN11xercesc_3_110DOMElementENS1_5flagsEPS6_@Base 1.1.0
 _ZN3xsd3cxx4tree12factory_implIN9vcard_4_021TextOrUriPropertyTypeEEESt8auto_ptrINS1_5_typeEERKN11xercesc_3_110DOMElementENS1_5flagsEPS6_@Base 1.1.0
 _ZN3xsd3cxx4tree12factory_implIN9vcard_4_024DateDatetimePropertyTypeEEESt8auto_ptrINS1_5_typeEERKN11xercesc_3_110DOMElementENS1_5flagsEPS6_@Base 1.1.0
 _ZN3xsd3cxx4tree12factory_implIN9vcard_4_028NonEmptyTextListPropertyTypeEEESt8auto_ptrINS1_5_typeEERKN11xercesc_3_110DOMElementENS1_5flagsEPS6_@Base 1.1.0
 _ZN3xsd3cxx4tree12factory_implIN9vcard_4_09nPropTypeEEESt8auto_ptrINS1_5_typeEERKN11xercesc_3_110DOMElementENS1_5flagsEPS6_@Base 1.1.0
 _ZN3xsd3cxx4tree12factory_implINS1_10gmonth_dayIcNS1_11simple_typeIcNS1_5_typeEEEEEEESt8auto_ptrIS5_ERKN11xercesc_3_110DOMElementENS1_5flagsEPS5_@Base 1.1.0
 _ZN3xsd3cxx4tree12factory_implINS1_10hex_binaryIcNS1_11simple_typeIcNS1_5_typeEEEEEEESt8auto_ptrIS5_ERKN11xercesc_3_110DOMElementENS1_5flagsEPS5_@Base 1.1.0
 _ZN3xsd3cxx4tree12factory_implINS1_11gyear_monthIcNS1_11simple_typeIcNS1_5_typeEEEEEEESt8auto_ptrIS5_ERKN11xercesc_3_110DOMElementENS1_5flagsEPS5_@Base 1.1.0
 _ZN3xsd3cxx4tree12factory_implINS1_11simple_typeIcNS1_5_typeEEEEESt8auto_ptrIS4_ERKN11xercesc_3_110DOMElementENS1_5flagsEPS4_@Base 1.1.0
 _ZN3xsd3cxx4tree12factory_implINS1_13base64_binaryIcNS1_11simple_typeIcNS1_5_typeEEEEEEESt8auto_ptrIS5_ERKN11xercesc_3_110DOMElementENS1_5flagsEPS5_@Base 1.1.0
 _ZN3xsd3cxx4tree12factory_implINS1_17normalized_stringIcNS1_6stringIcNS1_11simple_typeIcNS1_5_typeEEEEEEEEESt8auto_ptrIS6_ERKN11xercesc_3_110DOMElementENS1_5flagsEPS6_@Base 1.1.0
 _ZN3xsd3cxx4tree12factory_implINS1_2idIcNS1_6ncnameIcNS1_4nameIcNS1_5tokenIcNS1_17normalized_stringIcNS1_6stringIcNS1_11simple_typeIcNS1_5_typeEEEEEEEEEEEEEEEEESt8auto_ptrISA_ERKN11xercesc_3_110DOMElementENS1_5flagsEPSA_@Base 1.1.0
 _ZN3xsd3cxx4tree12factory_implINS1_3uriIcNS1_11simple_typeIcNS1_5_typeEEEEEEESt8auto_ptrIS5_ERKN11xercesc_3_110DOMElementENS1_5flagsEPS5_@Base 1.1.0
 _ZN3xsd3cxx4tree12factory_implINS1_4dateIcNS1_11simple_typeIcNS1_5_typeEEEEEEESt8auto_ptrIS5_ERKN11xercesc_3_110DOMElementENS1_5flagsEPS5_@Base 1.1.0
 _ZN3xsd3cxx4tree12factory_implINS1_4gdayIcNS1_11simple_typeIcNS1_5_typeEEEEEEESt8auto_ptrIS5_ERKN11xercesc_3_110DOMElementENS1_5flagsEPS5_@Base 1.1.0
 _ZN3xsd3cxx4tree12factory_implINS1_4nameIcNS1_5tokenIcNS1_17normalized_stringIcNS1_6stringIcNS1_11simple_typeIcNS1_5_typeEEEEEEEEEEEEESt8auto_ptrIS8_ERKN11xercesc_3_110DOMElementENS1_5flagsEPS8_@Base 1.1.0
 _ZN3xsd3cxx4tree12factory_implINS1_4timeIcNS1_11simple_typeIcNS1_5_typeEEEEEEESt8auto_ptrIS5_ERKN11xercesc_3_110DOMElementENS1_5flagsEPS5_@Base 1.1.0
 _ZN3xsd3cxx4tree12factory_implINS1_5_typeEEESt8auto_ptrIS3_ERKN11xercesc_3_110DOMElementENS1_5flagsEPS3_@Base 1.1.0
 _ZN3xsd3cxx4tree12factory_implINS1_5gyearIcNS1_11simple_typeIcNS1_5_typeEEEEEEESt8auto_ptrIS5_ERKN11xercesc_3_110DOMElementENS1_5flagsEPS5_@Base 1.1.0
 _ZN3xsd3cxx4tree12factory_implINS1_5idrefIcNS1_6ncnameIcNS1_4nameIcNS1_5tokenIcNS1_17normalized_stringIcNS1_6stringIcNS1_11simple_typeIcNS1_5_typeEEEEEEEEEEEEESA_EEEESt8auto_ptrISA_ERKN11xercesc_3_110DOMElementENS1_5flagsEPSA_@Base 1.1.0
 _ZN3xsd3cxx4tree12factory_implINS1_5qnameIcNS1_11simple_typeIcNS1_5_typeEEENS1_3uriIcS6_EENS1_6ncnameIcNS1_4nameIcNS1_5tokenIcNS1_17normalized_stringIcNS1_6stringIcS6_EEEEEEEEEEEEEESt8auto_ptrIS5_ERKN11xercesc_3_110DOMElementENS1_5flagsEPS5_@Base 1.1.0
 _ZN3xsd3cxx4tree12factory_implINS1_5tokenIcNS1_17normalized_stringIcNS1_6stringIcNS1_11simple_typeIcNS1_5_typeEEEEEEEEEEESt8auto_ptrIS7_ERKN11xercesc_3_110DOMElementENS1_5flagsEPS7_@Base 1.1.0
 _ZN3xsd3cxx4tree12factory_implINS1_6entityIcNS1_6ncnameIcNS1_4nameIcNS1_5tokenIcNS1_17normalized_stringIcNS1_6stringIcNS1_11simple_typeIcNS1_5_typeEEEEEEEEEEEEEEEEESt8auto_ptrISA_ERKN11xercesc_3_110DOMElementENS1_5flagsEPSA_@Base 1.1.0
 _ZN3xsd3cxx4tree12factory_implINS1_6gmonthIcNS1_11simple_typeIcNS1_5_typeEEEEEEESt8auto_ptrIS5_ERKN11xercesc_3_110DOMElementENS1_5flagsEPS5_@Base 1.1.0
 _ZN3xsd3cxx4tree12factory_implINS1_6idrefsIcNS1_11simple_typeIcNS1_5_typeEEENS1_5idrefIcNS1_6ncnameIcNS1_4nameIcNS1_5tokenIcNS1_17normalized_stringIcNS1_6stringIcS6_EEEEEEEEEES5_EEEEEESt8auto_ptrIS5_ERKN11xercesc_3_110DOMElementENS1_5flagsEPS5_@Base 1.1.0
 _ZN3xsd3cxx4tree12factory_implINS1_6ncnameIcNS1_4nameIcNS1_5tokenIcNS1_17normalized_stringIcNS1_6stringIcNS1_11simple_typeIcNS1_5_typeEEEEEEEEEEEEEEESt8auto_ptrIS9_ERKN11xercesc_3_110DOMElementENS1_5flagsEPS9_@Base 1.1.0
 _ZN3xsd3cxx4tree12factory_implINS1_6stringIcNS1_11simple_typeIcNS1_5_typeEEEEEEESt8auto_ptrIS5_ERKN11xercesc_3_110DOMElementENS1_5flagsEPS5_@Base 1.1.0
 _ZN3xsd3cxx4tree12factory_implINS1_7nmtokenIcNS1_5tokenIcNS1_17normalized_stringIcNS1_6stringIcNS1_11simple_typeIcNS1_5_typeEEEEEEEEEEEEESt8auto_ptrIS8_ERKN11xercesc_3_110DOMElementENS1_5flagsEPS8_@Base 1.1.0
 _ZN3xsd3cxx4tree12factory_implINS1_8durationIcNS1_11simple_typeIcNS1_5_typeEEEEEEESt8auto_ptrIS5_ERKN11xercesc_3_110DOMElementENS1_5flagsEPS5_@Base 1.1.0
 _ZN3xsd3cxx4tree12factory_implINS1_8entitiesIcNS1_11simple_typeIcNS1_5_typeEEENS1_6entityIcNS1_6ncnameIcNS1_4nameIcNS1_5tokenIcNS1_17normalized_stringIcNS1_6stringIcS6_EEEEEEEEEEEEEEEESt8auto_ptrIS5_ERKN11xercesc_3_110DOMElementENS1_5flagsEPS5_@Base 1.1.0
 _ZN3xsd3cxx4tree12factory_implINS1_8languageIcNS1_5tokenIcNS1_17normalized_stringIcNS1_6stringIcNS1_11simple_typeIcNS1_5_typeEEEEEEEEEEEEESt8auto_ptrIS8_ERKN11xercesc_3_110DOMElementENS1_5flagsEPS8_@Base 1.1.0
 _ZN3xsd3cxx4tree12factory_implINS1_8nmtokensIcNS1_11simple_typeIcNS1_5_typeEEENS1_7nmtokenIcNS1_5tokenIcNS1_17normalized_stringIcNS1_6stringIcS6_EEEEEEEEEEEESt8auto_ptrIS5_ERKN11xercesc_3_110DOMElementENS1_5flagsEPS5_@Base 1.1.0
 _ZN3xsd3cxx4tree12factory_implINS1_9date_timeIcNS1_11simple_typeIcNS1_5_typeEEEEEEESt8auto_ptrIS5_ERKN11xercesc_3_110DOMElementENS1_5flagsEPS5_@Base 1.1.0
 _ZN3xsd3cxx4tree12no_type_infoIcEC1ERKNSt7__cxx1112basic_stringIcSt11char_traitsIcESaIcEEESB_@Base 1.1.0
 _ZN3xsd3cxx4tree12no_type_infoIcEC2ERKNSt7__cxx1112basic_stringIcSt11char_traitsIcESaIcEEESB_@Base 1.1.0
 _ZN3xsd3cxx4tree12no_type_infoIcED0Ev@Base 1.1.0
 _ZN3xsd3cxx4tree12no_type_infoIcED1Ev@Base 1.1.0
 _ZN3xsd3cxx4tree12no_type_infoIcED2Ev@Base 1.1.0
 _ZN3xsd3cxx4tree12text_contentIcEENSt7__cxx1112basic_stringIT_St11char_traitsIS5_ESaIS5_EEERKN11xercesc_3_110DOMElementE@Base 1.1.0
 _ZN3xsd3cxx4tree13base64_binaryIcNS1_11simple_typeIcNS1_5_typeEEEE6decodeEPKt@Base 1.1.0
 _ZN3xsd3cxx4tree13base64_binaryIcNS1_11simple_typeIcNS1_5_typeEEEEC1ERKN11xercesc_3_110DOMElementENS1_5flagsEPS4_@Base 1.1.0
 _ZN3xsd3cxx4tree13base64_binaryIcNS1_11simple_typeIcNS1_5_typeEEEEC2ERKN11xercesc_3_110DOMElementENS1_5flagsEPS4_@Base 1.1.0
 _ZN3xsd3cxx4tree13base64_binaryIcNS1_11simple_typeIcNS1_5_typeEEEED0Ev@Base 1.1.0
 _ZN3xsd3cxx4tree13base64_binaryIcNS1_11simple_typeIcNS1_5_typeEEEED1Ev@Base 1.1.0
 _ZN3xsd3cxx4tree13base64_binaryIcNS1_11simple_typeIcNS1_5_typeEEEED2Ev@Base 1.1.0
 _ZN3xsd3cxx4tree13error_handlerIcE6handleERKNSt7__cxx1112basic_stringIcSt11char_traitsIcESaIcEEEmmNS0_3xml13error_handlerIcE8severityESB_@Base 1.1.0
 _ZN3xsd3cxx4tree13error_handlerIcED0Ev@Base 1.1.0
 _ZN3xsd3cxx4tree13error_handlerIcED1Ev@Base 1.1.0
 _ZN3xsd3cxx4tree13error_handlerIcED2Ev@Base 1.1.0
 _ZN3xsd3cxx4tree13identity_implIcNS1_6ncnameIcNS1_4nameIcNS1_5tokenIcNS1_17normalized_stringIcNS1_6stringIcNS1_11simple_typeIcNS1_5_typeEEEEEEEEEEEEEED0Ev@Base 1.1.0
 _ZN3xsd3cxx4tree13identity_implIcNS1_6ncnameIcNS1_4nameIcNS1_5tokenIcNS1_17normalized_stringIcNS1_6stringIcNS1_11simple_typeIcNS1_5_typeEEEEEEEEEEEEEED1Ev@Base 1.1.0
 _ZN3xsd3cxx4tree13identity_implIcNS1_6ncnameIcNS1_4nameIcNS1_5tokenIcNS1_17normalized_stringIcNS1_6stringIcNS1_11simple_typeIcNS1_5_typeEEEEEEEEEEEEEED2Ev@Base 1.1.0
 _ZN3xsd3cxx4tree13serializationIcEC1ERKNS1_11diagnosticsIcEE@Base 1.1.0
 _ZN3xsd3cxx4tree13serializationIcEC2ERKNS1_11diagnosticsIcEE@Base 1.1.0
 _ZN3xsd3cxx4tree13serializationIcED0Ev@Base 1.1.0
 _ZN3xsd3cxx4tree13serializationIcED1Ev@Base 1.1.0
 _ZN3xsd3cxx4tree13serializationIcED2Ev@Base 1.1.0
 _ZN3xsd3cxx4tree15sequence_commonC1ERKS2_NS1_5flagsEPNS1_5_typeE@Base 1.1.0
 _ZN3xsd3cxx4tree15sequence_commonC2ERKS2_NS1_5flagsEPNS1_5_typeE@Base 1.1.0
 _ZN3xsd3cxx4tree15sequence_commonaSERKS2_@Base 1.1.0
 _ZN3xsd3cxx4tree15serializer_implIN13icalendar_2_010CustomTypeEEEvRN11xercesc_3_110DOMElementERKNS1_5_typeE@Base 1.1.0
 _ZN3xsd3cxx4tree15serializer_implIN13icalendar_2_011CnParamTypeEEEvRN11xercesc_3_110DOMElementERKNS1_5_typeE@Base 1.1.0
 _ZN3xsd3cxx4tree15serializer_implIN13icalendar_2_011ContactTypeEEEvRN11xercesc_3_110DOMElementERKNS1_5_typeE@Base 1.1.0
 _ZN3xsd3cxx4tree15serializer_implIN13icalendar_2_011DuePropTypeEEEvRN11xercesc_3_110DOMElementERKNS1_5_typeE@Base 1.1.0
 _ZN3xsd3cxx4tree15serializer_implIN13icalendar_2_011GeoPropTypeEEEvRN11xercesc_3_110DOMElementERKNS1_5_typeE@Base 1.1.0
 _ZN3xsd3cxx4tree15serializer_implIN13icalendar_2_011UidPropTypeEEEvRN11xercesc_3_110DOMElementERKNS1_5_typeE@Base 1.1.0
 _ZN3xsd3cxx4tree15serializer_implIN13icalendar_2_011UrlPropTypeEEEvRN11xercesc_3_110DOMElementERKNS1_5_typeE@Base 1.1.0
 _ZN3xsd3cxx4tree15serializer_implIN13icalendar_2_012DirParamTypeEEEvRN11xercesc_3_110DOMElementERKNS1_5_typeE@Base 1.1.0
 _ZN3xsd3cxx4tree15serializer_implIN13icalendar_2_012KolabVersionEEEvRN11xercesc_3_110DOMElementERKNS1_5_typeE@Base 1.1.0
 _ZN3xsd3cxx4tree15serializer_implIN13icalendar_2_012TzidPropTypeEEEvRN11xercesc_3_110DOMElementERKNS1_5_typeE@Base 1.1.0
 _ZN3xsd3cxx4tree15serializer_implIN13icalendar_2_013ClassPropTypeEEEvRN11xercesc_3_110DOMElementERKNS1_5_typeE@Base 1.1.0
 _ZN3xsd3cxx4tree15serializer_implIN13icalendar_2_013DtendPropTypeEEEvRN11xercesc_3_110DOMElementERKNS1_5_typeE@Base 1.1.0
 _ZN3xsd3cxx4tree15serializer_implIN13icalendar_2_013RdatePropTypeEEEvRN11xercesc_3_110DOMElementERKNS1_5_typeE@Base 1.1.0
 _ZN3xsd3cxx4tree15serializer_implIN13icalendar_2_013RoleParamTypeEEEvRN11xercesc_3_110DOMElementERKNS1_5_typeE@Base 1.1.0
 _ZN3xsd3cxx4tree15serializer_implIN13icalendar_2_013RrulePropTypeEEEvRN11xercesc_3_110DOMElementERKNS1_5_typeE@Base 1.1.0
 _ZN3xsd3cxx4tree15serializer_implIN13icalendar_2_013RsvpParamTypeEEEvRN11xercesc_3_110DOMElementERKNS1_5_typeE@Base 1.1.0
 _ZN3xsd3cxx4tree15serializer_implIN13icalendar_2_013TzidParamTypeEEEvRN11xercesc_3_110DOMElementERKNS1_5_typeE@Base 1.1.0
 _ZN3xsd3cxx4tree15serializer_implIN13icalendar_2_013TzurlPropTypeEEEvRN11xercesc_3_110DOMElementERKNS1_5_typeE@Base 1.1.0
 _ZN3xsd3cxx4tree15serializer_implIN13icalendar_2_013XuidParamTypeEEEvRN11xercesc_3_110DOMElementERKNS1_5_typeE@Base 1.1.0
 _ZN3xsd3cxx4tree15serializer_implIN13icalendar_2_014ActionPropTypeEEEvRN11xercesc_3_110DOMElementERKNS1_5_typeE@Base 1.1.0
 _ZN3xsd3cxx4tree15serializer_implIN13icalendar_2_014AttachPropTypeEEEvRN11xercesc_3_110DOMElementERKNS1_5_typeE@Base 1.1.0
 _ZN3xsd3cxx4tree15serializer_implIN13icalendar_2_014ExdatePropTypeEEEvRN11xercesc_3_110DOMElementERKNS1_5_typeE@Base 1.1.0
 _ZN3xsd3cxx4tree15serializer_implIN13icalendar_2_014ExrulePropTypeEEEvRN11xercesc_3_110DOMElementERKNS1_5_typeE@Base 1.1.0
 _ZN3xsd3cxx4tree15serializer_implIN13icalendar_2_014MethodPropTypeEEEvRN11xercesc_3_110DOMElementERKNS1_5_typeE@Base 1.1.0
 _ZN3xsd3cxx4tree15serializer_implIN13icalendar_2_014ProdidPropTypeEEEvRN11xercesc_3_110DOMElementERKNS1_5_typeE@Base 1.1.0
 _ZN3xsd3cxx4tree15serializer_implIN13icalendar_2_014RangeParamTypeEEEvRN11xercesc_3_110DOMElementERKNS1_5_typeE@Base 1.1.0
 _ZN3xsd3cxx4tree15serializer_implIN13icalendar_2_014RepeatPropTypeEEEvRN11xercesc_3_110DOMElementERKNS1_5_typeE@Base 1.1.0
 _ZN3xsd3cxx4tree15serializer_implIN13icalendar_2_014StatusPropTypeEEEvRN11xercesc_3_110DOMElementERKNS1_5_typeE@Base 1.1.0
 _ZN3xsd3cxx4tree15serializer_implIN13icalendar_2_014TranspPropTypeEEEvRN11xercesc_3_110DOMElementERKNS1_5_typeE@Base 1.1.0
 _ZN3xsd3cxx4tree15serializer_implIN13icalendar_2_014TznamePropTypeEEEvRN11xercesc_3_110DOMElementERKNS1_5_typeE@Base 1.1.0
 _ZN3xsd3cxx4tree15serializer_implIN13icalendar_2_015AltrepParamTypeEEEvRN11xercesc_3_110DOMElementERKNS1_5_typeE@Base 1.1.0
 _ZN3xsd3cxx4tree15serializer_implIN13icalendar_2_015CommentPropTypeEEEvRN11xercesc_3_110DOMElementERKNS1_5_typeE@Base 1.1.0
 _ZN3xsd3cxx4tree15serializer_implIN13icalendar_2_015ContactPropTypeEEEvRN11xercesc_3_110DOMElementERKNS1_5_typeE@Base 1.1.0
 _ZN3xsd3cxx4tree15serializer_implIN13icalendar_2_015CreatedPropTypeEEEvRN11xercesc_3_110DOMElementERKNS1_5_typeE@Base 1.1.0
 _ZN3xsd3cxx4tree15serializer_implIN13icalendar_2_015CutypeParamTypeEEEvRN11xercesc_3_110DOMElementERKNS1_5_typeE@Base 1.1.0
 _ZN3xsd3cxx4tree15serializer_implIN13icalendar_2_015DtstampPropTypeEEEvRN11xercesc_3_110DOMElementERKNS1_5_typeE@Base 1.1.0
 _ZN3xsd3cxx4tree15serializer_implIN13icalendar_2_015DtstartPropTypeEEEvRN11xercesc_3_110DOMElementERKNS1_5_typeE@Base 1.1.0
 _ZN3xsd3cxx4tree15serializer_implIN13icalendar_2_015FbtypeParamTypeEEEvRN11xercesc_3_110DOMElementERKNS1_5_typeE@Base 1.1.0
 _ZN3xsd3cxx4tree15serializer_implIN13icalendar_2_015MemberParamTypeEEEvRN11xercesc_3_110DOMElementERKNS1_5_typeE@Base 1.1.0
 _ZN3xsd3cxx4tree15serializer_implIN13icalendar_2_015SentByParamTypeEEEvRN11xercesc_3_110DOMElementERKNS1_5_typeE@Base 1.1.0
 _ZN3xsd3cxx4tree15serializer_implIN13icalendar_2_015SummaryPropTypeEEEvRN11xercesc_3_110DOMElementERKNS1_5_typeE@Base 1.1.0
 _ZN3xsd3cxx4tree15serializer_implIN13icalendar_2_015TriggerPropTypeEEEvRN11xercesc_3_110DOMElementERKNS1_5_typeE@Base 1.1.0
 _ZN3xsd3cxx4tree15serializer_implIN13icalendar_2_015UriPropertyTypeEEEvRN11xercesc_3_110DOMElementERKNS1_5_typeE@Base 1.1.0
 _ZN3xsd3cxx4tree15serializer_implIN13icalendar_2_015VersionPropTypeEEEvRN11xercesc_3_110DOMElementERKNS1_5_typeE@Base 1.1.0
 _ZN3xsd3cxx4tree15serializer_implIN13icalendar_2_015XlabelParamTypeEEEvRN11xercesc_3_110DOMElementERKNS1_5_typeE@Base 1.1.0
 _ZN3xsd3cxx4tree15serializer_implIN13icalendar_2_016AttendeePropTypeEEEvRN11xercesc_3_110DOMElementERKNS1_5_typeE@Base 1.1.0
 _ZN3xsd3cxx4tree15serializer_implIN13icalendar_2_016BasePropertyTypeEEEvRN11xercesc_3_110DOMElementERKNS1_5_typeE@Base 1.1.0
 _ZN3xsd3cxx4tree15serializer_implIN13icalendar_2_016CalscalePropTypeEEEvRN11xercesc_3_110DOMElementERKNS1_5_typeE@Base 1.1.0
 _ZN3xsd3cxx4tree15serializer_implIN13icalendar_2_016DurationPropTypeEEEvRN11xercesc_3_110DOMElementERKNS1_5_typeE@Base 1.1.0
 _ZN3xsd3cxx4tree15serializer_implIN13icalendar_2_016FmttypeParamTypeEEEvRN11xercesc_3_110DOMElementERKNS1_5_typeE@Base 1.1.0
 _ZN3xsd3cxx4tree15serializer_implIN13icalendar_2_016FreebusyPropTypeEEEvRN11xercesc_3_110DOMElementERKNS1_5_typeE@Base 1.1.0
 _ZN3xsd3cxx4tree15serializer_implIN13icalendar_2_016LocationPropTypeEEEvRN11xercesc_3_110DOMElementERKNS1_5_typeE@Base 1.1.0
 _ZN3xsd3cxx4tree15serializer_implIN13icalendar_2_016PriorityPropTypeEEEvRN11xercesc_3_110DOMElementERKNS1_5_typeE@Base 1.1.0
 _ZN3xsd3cxx4tree15serializer_implIN13icalendar_2_016RelatedParamTypeEEEvRN11xercesc_3_110DOMElementERKNS1_5_typeE@Base 1.1.0
 _ZN3xsd3cxx4tree15serializer_implIN13icalendar_2_016ReltypeParamTypeEEEvRN11xercesc_3_110DOMElementERKNS1_5_typeE@Base 1.1.0
 _ZN3xsd3cxx4tree15serializer_implIN13icalendar_2_016SequencePropTypeEEEvRN11xercesc_3_110DOMElementERKNS1_5_typeE@Base 1.1.0
 _ZN3xsd3cxx4tree15serializer_implIN13icalendar_2_016TextPropertyTypeEEEvRN11xercesc_3_110DOMElementERKNS1_5_typeE@Base 1.1.0
 _ZN3xsd3cxx4tree15serializer_implIN13icalendar_2_016UriParameterTypeEEEvRN11xercesc_3_110DOMElementERKNS1_5_typeE@Base 1.1.0
 _ZN3xsd3cxx4tree15serializer_implIN13icalendar_2_017BaseParameterTypeEEEvRN11xercesc_3_110DOMElementERKNS1_5_typeE@Base 1.1.0
 _ZN3xsd3cxx4tree15serializer_implIN13icalendar_2_017CompletedPropTypeEEEvRN11xercesc_3_110DOMElementERKNS1_5_typeE@Base 1.1.0
 _ZN3xsd3cxx4tree15serializer_implIN13icalendar_2_017EncodingParamTypeEEEvRN11xercesc_3_110DOMElementERKNS1_5_typeE@Base 1.1.0
 _ZN3xsd3cxx4tree15serializer_implIN13icalendar_2_017LanguageParamTypeEEEvRN11xercesc_3_110DOMElementERKNS1_5_typeE@Base 1.1.0
 _ZN3xsd3cxx4tree15serializer_implIN13icalendar_2_017OrganizerPropTypeEEEvRN11xercesc_3_110DOMElementERKNS1_5_typeE@Base 1.1.0
 _ZN3xsd3cxx4tree15serializer_implIN13icalendar_2_017PartstatParamTypeEEEvRN11xercesc_3_110DOMElementERKNS1_5_typeE@Base 1.1.0
 _ZN3xsd3cxx4tree15serializer_implIN13icalendar_2_017RecurPropertyTypeEEEvRN11xercesc_3_110DOMElementERKNS1_5_typeE@Base 1.1.0
 _ZN3xsd3cxx4tree15serializer_implIN13icalendar_2_017RelatedToPropTypeEEEvRN11xercesc_3_110DOMElementERKNS1_5_typeE@Base 1.1.0
 _ZN3xsd3cxx4tree15serializer_implIN13icalendar_2_017ResourcesPropTypeEEEvRN11xercesc_3_110DOMElementERKNS1_5_typeE@Base 1.1.0
 _ZN3xsd3cxx4tree15serializer_implIN13icalendar_2_017TextParameterTypeEEEvRN11xercesc_3_110DOMElementERKNS1_5_typeE@Base 1.1.0
 _ZN3xsd3cxx4tree15serializer_implIN13icalendar_2_018CategoriesPropTypeEEEvRN11xercesc_3_110DOMElementERKNS1_5_typeE@Base 1.1.0
 _ZN3xsd3cxx4tree15serializer_implIN13icalendar_2_018TzoffsettoPropTypeEEEvRN11xercesc_3_110DOMElementERKNS1_5_typeE@Base 1.1.0
 _ZN3xsd3cxx4tree15serializer_implIN13icalendar_2_019CalAddressParamTypeEEEvRN11xercesc_3_110DOMElementERKNS1_5_typeE@Base 1.1.0
 _ZN3xsd3cxx4tree15serializer_implIN13icalendar_2_019DescriptionPropTypeEEEvRN11xercesc_3_110DOMElementERKNS1_5_typeE@Base 1.1.0
 _ZN3xsd3cxx4tree15serializer_implIN13icalendar_2_019IntegerPropertyTypeEEEvRN11xercesc_3_110DOMElementERKNS1_5_typeE@Base 1.1.0
 _ZN3xsd3cxx4tree15serializer_implIN13icalendar_2_020BooleanParameterTypeEEEvRN11xercesc_3_110DOMElementERKNS1_5_typeE@Base 1.1.0
 _ZN3xsd3cxx4tree15serializer_implIN13icalendar_2_020DatetimePropertyTypeEEEvRN11xercesc_3_110DOMElementERKNS1_5_typeE@Base 1.1.0
 _ZN3xsd3cxx4tree15serializer_implIN13icalendar_2_020DelegatedToParamTypeEEEvRN11xercesc_3_110DOMElementERKNS1_5_typeE@Base 1.1.0
 _ZN3xsd3cxx4tree15serializer_implIN13icalendar_2_020LastModifiedPropTypeEEEvRN11xercesc_3_110DOMElementERKNS1_5_typeE@Base 1.1.0
 _ZN3xsd3cxx4tree15serializer_implIN13icalendar_2_020RecurrenceIdPropTypeEEEvRN11xercesc_3_110DOMElementERKNS1_5_typeE@Base 1.1.0
 _ZN3xsd3cxx4tree15serializer_implIN13icalendar_2_020TextListPropertyTypeEEEvRN11xercesc_3_110DOMElementERKNS1_5_typeE@Base 1.1.0
 _ZN3xsd3cxx4tree15serializer_implIN13icalendar_2_020TzoffsetfromPropTypeEEEvRN11xercesc_3_110DOMElementERKNS1_5_typeE@Base 1.1.0
 _ZN3xsd3cxx4tree15serializer_implIN13icalendar_2_021RequestStatusPropTypeEEEvRN11xercesc_3_110DOMElementERKNS1_5_typeE@Base 1.1.0
 _ZN3xsd3cxx4tree15serializer_implIN13icalendar_2_021UtcOffsetPropertyTypeEEEvRN11xercesc_3_110DOMElementERKNS1_5_typeE@Base 1.1.0
 _ZN3xsd3cxx4tree15serializer_implIN13icalendar_2_022CalAddressPropertyTypeEEEvRN11xercesc_3_110DOMElementERKNS1_5_typeE@Base 1.1.0
 _ZN3xsd3cxx4tree15serializer_implIN13icalendar_2_022DelegatedFromParamTypeEEEvRN11xercesc_3_110DOMElementERKNS1_5_typeE@Base 1.1.0
 _ZN3xsd3cxx4tree15serializer_implIN13icalendar_2_022ScheduleAgentParamTypeEEEvRN11xercesc_3_110DOMElementERKNS1_5_typeE@Base 1.1.0
 _ZN3xsd3cxx4tree15serializer_implIN13icalendar_2_023CalAddressListParamTypeEEEvRN11xercesc_3_110DOMElementERKNS1_5_typeE@Base 1.1.0
 _ZN3xsd3cxx4tree15serializer_implIN13icalendar_2_023PercentCompletePropTypeEEEvRN11xercesc_3_110DOMElementERKNS1_5_typeE@Base 1.1.0
 _ZN3xsd3cxx4tree15serializer_implIN13icalendar_2_023ScheduleStatusParamTypeEEEvRN11xercesc_3_110DOMElementERKNS1_5_typeE@Base 1.1.0
 _ZN3xsd3cxx4tree15serializer_implIN13icalendar_2_023UtcDatetimePropertyTypeEEEvRN11xercesc_3_110DOMElementERKNS1_5_typeE@Base 1.1.0
 _ZN3xsd3cxx4tree15serializer_implIN13icalendar_2_024DateDatetimePropertyTypeEEEvRN11xercesc_3_110DOMElementERKNS1_5_typeE@Base 1.1.0
 _ZN3xsd3cxx4tree15serializer_implIN13icalendar_2_026ScheduleForceSendParamTypeEEEvRN11xercesc_3_110DOMElementERKNS1_5_typeE@Base 1.1.0
 _ZN3xsd3cxx4tree15serializer_implIN13icalendar_2_08XFBeventEEEvRN11xercesc_3_110DOMElementERKNS1_5_typeE@Base 1.1.0
 _ZN3xsd3cxx4tree15serializer_implIN9vcard_4_010CryptoTypeEEEvRN11xercesc_3_110DOMElementERKNS1_5_typeE@Base 1.1.0
 _ZN3xsd3cxx4tree15serializer_implIN9vcard_4_010CustomTypeEEEvRN11xercesc_3_110DOMElementERKNS1_5_typeE@Base 1.1.0
 _ZN3xsd3cxx4tree15serializer_implIN9vcard_4_010fnPropTypeEEEvRN11xercesc_3_110DOMElementERKNS1_5_typeE@Base 1.1.0
 _ZN3xsd3cxx4tree15serializer_implIN9vcard_4_011adrPropTypeEEEvRN11xercesc_3_110DOMElementERKNS1_5_typeE@Base 1.1.0
 _ZN3xsd3cxx4tree15serializer_implIN9vcard_4_011geoPropTypeEEEvRN11xercesc_3_110DOMElementERKNS1_5_typeE@Base 1.1.0
 _ZN3xsd3cxx4tree15serializer_implIN9vcard_4_011keyPropTypeEEEvRN11xercesc_3_110DOMElementERKNS1_5_typeE@Base 1.1.0
 _ZN3xsd3cxx4tree15serializer_implIN9vcard_4_011revPropTypeEEEvRN11xercesc_3_110DOMElementERKNS1_5_typeE@Base 1.1.0
 _ZN3xsd3cxx4tree15serializer_implIN9vcard_4_011telPropTypeEEEvRN11xercesc_3_110DOMElementERKNS1_5_typeE@Base 1.1.0
 _ZN3xsd3cxx4tree15serializer_implIN9vcard_4_011uidPropTypeEEEvRN11xercesc_3_110DOMElementERKNS1_5_typeE@Base 1.1.0
 _ZN3xsd3cxx4tree15serializer_implIN9vcard_4_011urlPropTypeEEEvRN11xercesc_3_110DOMElementERKNS1_5_typeE@Base 1.1.0
 _ZN3xsd3cxx4tree15serializer_implIN9vcard_4_012KolabVersionEEEvRN11xercesc_3_110DOMElementERKNS1_5_typeE@Base 1.1.0
 _ZN3xsd3cxx4tree15serializer_implIN9vcard_4_012bdayPropTypeEEEvRN11xercesc_3_110DOMElementERKNS1_5_typeE@Base 1.1.0
 _ZN3xsd3cxx4tree15serializer_implIN9vcard_4_012imppPropTypeEEEvRN11xercesc_3_110DOMElementERKNS1_5_typeE@Base 1.1.0
 _ZN3xsd3cxx4tree15serializer_implIN9vcard_4_012kindPropTypeEEEvRN11xercesc_3_110DOMElementERKNS1_5_typeE@Base 1.1.0
 _ZN3xsd3cxx4tree15serializer_implIN9vcard_4_012langPropTypeEEEvRN11xercesc_3_110DOMElementERKNS1_5_typeE@Base 1.1.0
 _ZN3xsd3cxx4tree15serializer_implIN9vcard_4_012notePropTypeEEEvRN11xercesc_3_110DOMElementERKNS1_5_typeE@Base 1.1.0
 _ZN3xsd3cxx4tree15serializer_implIN9vcard_4_013emailPropTypeEEEvRN11xercesc_3_110DOMElementERKNS1_5_typeE@Base 1.1.0
 _ZN3xsd3cxx4tree15serializer_implIN9vcard_4_013fburlPropTypeEEEvRN11xercesc_3_110DOMElementERKNS1_5_typeE@Base 1.1.0
 _ZN3xsd3cxx4tree15serializer_implIN9vcard_4_013photoPropTypeEEEvRN11xercesc_3_110DOMElementERKNS1_5_typeE@Base 1.1.0
 _ZN3xsd3cxx4tree15serializer_implIN9vcard_4_013prefParamTypeEEEvRN11xercesc_3_110DOMElementERKNS1_5_typeE@Base 1.1.0
 _ZN3xsd3cxx4tree15serializer_implIN9vcard_4_013titlePropTypeEEEvRN11xercesc_3_110DOMElementERKNS1_5_typeE@Base 1.1.0
 _ZN3xsd3cxx4tree15serializer_implIN9vcard_4_013typeParamTypeEEEvRN11xercesc_3_110DOMElementERKNS1_5_typeE@Base 1.1.0
 _ZN3xsd3cxx4tree15serializer_implIN9vcard_4_013xuidParamTypeEEEvRN11xercesc_3_110DOMElementERKNS1_5_typeE@Base 1.1.0
 _ZN3xsd3cxx4tree15serializer_implIN9vcard_4_014labelParamTypeEEEvRN11xercesc_3_110DOMElementERKNS1_5_typeE@Base 1.1.0
 _ZN3xsd3cxx4tree15serializer_implIN9vcard_4_014memberPropTypeEEEvRN11xercesc_3_110DOMElementERKNS1_5_typeE@Base 1.1.0
 _ZN3xsd3cxx4tree15serializer_implIN9vcard_4_014prodidPropTypeEEEvRN11xercesc_3_110DOMElementERKNS1_5_typeE@Base 1.1.0
 _ZN3xsd3cxx4tree15serializer_implIN9vcard_4_015UriPropertyTypeEEEvRN11xercesc_3_110DOMElementERKNS1_5_typeE@Base 1.1.0
 _ZN3xsd3cxx4tree15serializer_implIN9vcard_4_015relatedPropTypeEEEvRN11xercesc_3_110DOMElementERKNS1_5_typeE@Base 1.1.0
 _ZN3xsd3cxx4tree15serializer_implIN9vcard_4_016BasePropertyTypeEEEvRN11xercesc_3_110DOMElementERKNS1_5_typeE@Base 1.1.0
 _ZN3xsd3cxx4tree15serializer_implIN9vcard_4_016TextPropertyTypeEEEvRN11xercesc_3_110DOMElementERKNS1_5_typeE@Base 1.1.0
 _ZN3xsd3cxx4tree15serializer_implIN9vcard_4_016UriParameterTypeEEEvRN11xercesc_3_110DOMElementERKNS1_5_typeE@Base 1.1.0
 _ZN3xsd3cxx4tree15serializer_implIN9vcard_4_016nicknamePropTypeEEEvRN11xercesc_3_110DOMElementERKNS1_5_typeE@Base 1.1.0
 _ZN3xsd3cxx4tree15serializer_implIN9vcard_4_017BaseParameterTypeEEEvRN11xercesc_3_110DOMElementERKNS1_5_typeE@Base 1.1.0
 _ZN3xsd3cxx4tree15serializer_implIN9vcard_4_017TextParameterTypeEEEvRN11xercesc_3_110DOMElementERKNS1_5_typeE@Base 1.1.0
 _ZN3xsd3cxx4tree15serializer_implIN9vcard_4_018categoriesPropTypeEEEvRN11xercesc_3_110DOMElementERKNS1_5_typeE@Base 1.1.0
 _ZN3xsd3cxx4tree15serializer_implIN9vcard_4_019affiliationPropTypeEEEvRN11xercesc_3_110DOMElementERKNS1_5_typeE@Base 1.1.0
 _ZN3xsd3cxx4tree15serializer_implIN9vcard_4_019anniversaryPropTypeEEEvRN11xercesc_3_110DOMElementERKNS1_5_typeE@Base 1.1.0
 _ZN3xsd3cxx4tree15serializer_implIN9vcard_4_020TextListPropertyTypeEEEvRN11xercesc_3_110DOMElementERKNS1_5_typeE@Base 1.1.0
 _ZN3xsd3cxx4tree15serializer_implIN9vcard_4_021TextOrUriPropertyTypeEEEvRN11xercesc_3_110DOMElementERKNS1_5_typeE@Base 1.1.0
 _ZN3xsd3cxx4tree15serializer_implIN9vcard_4_024DateDatetimePropertyTypeEEEvRN11xercesc_3_110DOMElementERKNS1_5_typeE@Base 1.1.0
 _ZN3xsd3cxx4tree15serializer_implIN9vcard_4_028NonEmptyTextListPropertyTypeEEEvRN11xercesc_3_110DOMElementERKNS1_5_typeE@Base 1.1.0
 _ZN3xsd3cxx4tree15serializer_implIN9vcard_4_09nPropTypeEEEvRN11xercesc_3_110DOMElementERKNS1_5_typeE@Base 1.1.0
 _ZN3xsd3cxx4tree15serializer_implINS1_10gmonth_dayIcNS1_11simple_typeIcNS1_5_typeEEEEEEEvRN11xercesc_3_110DOMElementERKS5_@Base 1.1.0
 _ZN3xsd3cxx4tree15serializer_implINS1_10hex_binaryIcNS1_11simple_typeIcNS1_5_typeEEEEEEEvRN11xercesc_3_110DOMElementERKS5_@Base 1.1.0
 _ZN3xsd3cxx4tree15serializer_implINS1_11gyear_monthIcNS1_11simple_typeIcNS1_5_typeEEEEEEEvRN11xercesc_3_110DOMElementERKS5_@Base 1.1.0
 _ZN3xsd3cxx4tree15serializer_implINS1_11simple_typeIcNS1_5_typeEEEEEvRN11xercesc_3_110DOMElementERKS4_@Base 1.1.0
 _ZN3xsd3cxx4tree15serializer_implINS1_13base64_binaryIcNS1_11simple_typeIcNS1_5_typeEEEEEEEvRN11xercesc_3_110DOMElementERKS5_@Base 1.1.0
 _ZN3xsd3cxx4tree15serializer_implINS1_17normalized_stringIcNS1_6stringIcNS1_11simple_typeIcNS1_5_typeEEEEEEEEEvRN11xercesc_3_110DOMElementERKS6_@Base 1.1.0
 _ZN3xsd3cxx4tree15serializer_implINS1_2idIcNS1_6ncnameIcNS1_4nameIcNS1_5tokenIcNS1_17normalized_stringIcNS1_6stringIcNS1_11simple_typeIcNS1_5_typeEEEEEEEEEEEEEEEEEvRN11xercesc_3_110DOMElementERKSA_@Base 1.1.0
 _ZN3xsd3cxx4tree15serializer_implINS1_3uriIcNS1_11simple_typeIcNS1_5_typeEEEEEEEvRN11xercesc_3_110DOMElementERKS5_@Base 1.1.0
 _ZN3xsd3cxx4tree15serializer_implINS1_4dateIcNS1_11simple_typeIcNS1_5_typeEEEEEEEvRN11xercesc_3_110DOMElementERKS5_@Base 1.1.0
 _ZN3xsd3cxx4tree15serializer_implINS1_4gdayIcNS1_11simple_typeIcNS1_5_typeEEEEEEEvRN11xercesc_3_110DOMElementERKS5_@Base 1.1.0
 _ZN3xsd3cxx4tree15serializer_implINS1_4nameIcNS1_5tokenIcNS1_17normalized_stringIcNS1_6stringIcNS1_11simple_typeIcNS1_5_typeEEEEEEEEEEEEEvRN11xercesc_3_110DOMElementERKS8_@Base 1.1.0
 _ZN3xsd3cxx4tree15serializer_implINS1_4timeIcNS1_11simple_typeIcNS1_5_typeEEEEEEEvRN11xercesc_3_110DOMElementERKS5_@Base 1.1.0
 _ZN3xsd3cxx4tree15serializer_implINS1_5_typeEEEvRN11xercesc_3_110DOMElementERKS3_@Base 1.1.0
 _ZN3xsd3cxx4tree15serializer_implINS1_5gyearIcNS1_11simple_typeIcNS1_5_typeEEEEEEEvRN11xercesc_3_110DOMElementERKS5_@Base 1.1.0
 _ZN3xsd3cxx4tree15serializer_implINS1_5idrefIcNS1_6ncnameIcNS1_4nameIcNS1_5tokenIcNS1_17normalized_stringIcNS1_6stringIcNS1_11simple_typeIcNS1_5_typeEEEEEEEEEEEEESA_EEEEvRN11xercesc_3_110DOMElementERKSA_@Base 1.1.0
 _ZN3xsd3cxx4tree15serializer_implINS1_5qnameIcNS1_11simple_typeIcNS1_5_typeEEENS1_3uriIcS6_EENS1_6ncnameIcNS1_4nameIcNS1_5tokenIcNS1_17normalized_stringIcNS1_6stringIcS6_EEEEEEEEEEEEEEvRN11xercesc_3_110DOMElementERKS5_@Base 1.1.0
 _ZN3xsd3cxx4tree15serializer_implINS1_5tokenIcNS1_17normalized_stringIcNS1_6stringIcNS1_11simple_typeIcNS1_5_typeEEEEEEEEEEEvRN11xercesc_3_110DOMElementERKS7_@Base 1.1.0
 _ZN3xsd3cxx4tree15serializer_implINS1_6entityIcNS1_6ncnameIcNS1_4nameIcNS1_5tokenIcNS1_17normalized_stringIcNS1_6stringIcNS1_11simple_typeIcNS1_5_typeEEEEEEEEEEEEEEEEEvRN11xercesc_3_110DOMElementERKSA_@Base 1.1.0
 _ZN3xsd3cxx4tree15serializer_implINS1_6gmonthIcNS1_11simple_typeIcNS1_5_typeEEEEEEEvRN11xercesc_3_110DOMElementERKS5_@Base 1.1.0
 _ZN3xsd3cxx4tree15serializer_implINS1_6idrefsIcNS1_11simple_typeIcNS1_5_typeEEENS1_5idrefIcNS1_6ncnameIcNS1_4nameIcNS1_5tokenIcNS1_17normalized_stringIcNS1_6stringIcS6_EEEEEEEEEES5_EEEEEEvRN11xercesc_3_110DOMElementERKS5_@Base 1.1.0
 _ZN3xsd3cxx4tree15serializer_implINS1_6ncnameIcNS1_4nameIcNS1_5tokenIcNS1_17normalized_stringIcNS1_6stringIcNS1_11simple_typeIcNS1_5_typeEEEEEEEEEEEEEEEvRN11xercesc_3_110DOMElementERKS9_@Base 1.1.0
 _ZN3xsd3cxx4tree15serializer_implINS1_6stringIcNS1_11simple_typeIcNS1_5_typeEEEEEEEvRN11xercesc_3_110DOMElementERKS5_@Base 1.1.0
 _ZN3xsd3cxx4tree15serializer_implINS1_7nmtokenIcNS1_5tokenIcNS1_17normalized_stringIcNS1_6stringIcNS1_11simple_typeIcNS1_5_typeEEEEEEEEEEEEEvRN11xercesc_3_110DOMElementERKS8_@Base 1.1.0
 _ZN3xsd3cxx4tree15serializer_implINS1_8durationIcNS1_11simple_typeIcNS1_5_typeEEEEEEEvRN11xercesc_3_110DOMElementERKS5_@Base 1.1.0
 _ZN3xsd3cxx4tree15serializer_implINS1_8entitiesIcNS1_11simple_typeIcNS1_5_typeEEENS1_6entityIcNS1_6ncnameIcNS1_4nameIcNS1_5tokenIcNS1_17normalized_stringIcNS1_6stringIcS6_EEEEEEEEEEEEEEEEvRN11xercesc_3_110DOMElementERKS5_@Base 1.1.0
 _ZN3xsd3cxx4tree15serializer_implINS1_8languageIcNS1_5tokenIcNS1_17normalized_stringIcNS1_6stringIcNS1_11simple_typeIcNS1_5_typeEEEEEEEEEEEEEvRN11xercesc_3_110DOMElementERKS8_@Base 1.1.0
 _ZN3xsd3cxx4tree15serializer_implINS1_8nmtokensIcNS1_11simple_typeIcNS1_5_typeEEENS1_7nmtokenIcNS1_5tokenIcNS1_17normalized_stringIcNS1_6stringIcS6_EEEEEEEEEEEEvRN11xercesc_3_110DOMElementERKS5_@Base 1.1.0
 _ZN3xsd3cxx4tree15serializer_implINS1_9date_timeIcNS1_11simple_typeIcNS1_5_typeEEEEEEEvRN11xercesc_3_110DOMElementERKS5_@Base 1.1.0
 _ZN3xsd3cxx4tree16element_optional5true_Ev@Base 1.1.0
 _ZN3xsd3cxx4tree16expected_elementIcEC1ERKNSt7__cxx1112basic_stringIcSt11char_traitsIcESaIcEEESB_@Base 1.1.0
 _ZN3xsd3cxx4tree16expected_elementIcEC2ERKNSt7__cxx1112basic_stringIcSt11char_traitsIcESaIcEEESB_@Base 1.1.0
 _ZN3xsd3cxx4tree16expected_elementIcED0Ev@Base 1.1.0
 _ZN3xsd3cxx4tree16expected_elementIcED1Ev@Base 1.1.0
 _ZN3xsd3cxx4tree16expected_elementIcED2Ev@Base 1.1.0
 _ZN3xsd3cxx4tree16fundamental_baseIxcNS1_11simple_typeIcNS1_5_typeEEELNS1_11schema_type5valueE0EEC1ERKN11xercesc_3_110DOMElementENS1_5flagsEPS4_@Base 1.1.0
 _ZN3xsd3cxx4tree16fundamental_baseIxcNS1_11simple_typeIcNS1_5_typeEEELNS1_11schema_type5valueE0EEC1ERKN11xercesc_3_17DOMAttrENS1_5flagsEPS4_@Base 1.1.0
 _ZN3xsd3cxx4tree16fundamental_baseIxcNS1_11simple_typeIcNS1_5_typeEEELNS1_11schema_type5valueE0EEC1ERKNSt7__cxx1112basic_stringIcSt11char_traitsIcESaIcEEEPKN11xercesc_3_110DOMElementENS1_5flagsEPS4_@Base 1.1.0
 _ZN3xsd3cxx4tree16fundamental_baseIxcNS1_11simple_typeIcNS1_5_typeEEELNS1_11schema_type5valueE0EEC2ERKN11xercesc_3_110DOMElementENS1_5flagsEPS4_@Base 1.1.0
 _ZN3xsd3cxx4tree16fundamental_baseIxcNS1_11simple_typeIcNS1_5_typeEEELNS1_11schema_type5valueE0EEC2ERKN11xercesc_3_17DOMAttrENS1_5flagsEPS4_@Base 1.1.0
 _ZN3xsd3cxx4tree16fundamental_baseIxcNS1_11simple_typeIcNS1_5_typeEEELNS1_11schema_type5valueE0EEC2ERKNSt7__cxx1112basic_stringIcSt11char_traitsIcESaIcEEEPKN11xercesc_3_110DOMElementENS1_5flagsEPS4_@Base 1.1.0
 _ZN3xsd3cxx4tree16fundamental_baseIxcNS1_11simple_typeIcNS1_5_typeEEELNS1_11schema_type5valueE0EED0Ev@Base 1.1.0
 _ZN3xsd3cxx4tree16fundamental_baseIxcNS1_11simple_typeIcNS1_5_typeEEELNS1_11schema_type5valueE0EED1Ev@Base 1.1.0
 _ZN3xsd3cxx4tree16fundamental_baseIxcNS1_11simple_typeIcNS1_5_typeEEELNS1_11schema_type5valueE0EED2Ev@Base 1.1.0
 _ZN3xsd3cxx4tree16fundamental_baseIycNS1_11simple_typeIcNS1_5_typeEEELNS1_11schema_type5valueE0EEC1ERKN11xercesc_3_110DOMElementENS1_5flagsEPS4_@Base 1.1.0
 _ZN3xsd3cxx4tree16fundamental_baseIycNS1_11simple_typeIcNS1_5_typeEEELNS1_11schema_type5valueE0EEC1ERKN11xercesc_3_17DOMAttrENS1_5flagsEPS4_@Base 1.1.0
 _ZN3xsd3cxx4tree16fundamental_baseIycNS1_11simple_typeIcNS1_5_typeEEELNS1_11schema_type5valueE0EEC1ERKNSt7__cxx1112basic_stringIcSt11char_traitsIcESaIcEEEPKN11xercesc_3_110DOMElementENS1_5flagsEPS4_@Base 1.1.0
 _ZN3xsd3cxx4tree16fundamental_baseIycNS1_11simple_typeIcNS1_5_typeEEELNS1_11schema_type5valueE0EEC2ERKN11xercesc_3_110DOMElementENS1_5flagsEPS4_@Base 1.1.0
 _ZN3xsd3cxx4tree16fundamental_baseIycNS1_11simple_typeIcNS1_5_typeEEELNS1_11schema_type5valueE0EEC2ERKN11xercesc_3_17DOMAttrENS1_5flagsEPS4_@Base 1.1.0
 _ZN3xsd3cxx4tree16fundamental_baseIycNS1_11simple_typeIcNS1_5_typeEEELNS1_11schema_type5valueE0EEC2ERKNSt7__cxx1112basic_stringIcSt11char_traitsIcESaIcEEEPKN11xercesc_3_110DOMElementENS1_5flagsEPS4_@Base 1.1.0
 _ZN3xsd3cxx4tree16fundamental_baseIycNS1_11simple_typeIcNS1_5_typeEEELNS1_11schema_type5valueE0EED0Ev@Base 1.1.0
 _ZN3xsd3cxx4tree16fundamental_baseIycNS1_11simple_typeIcNS1_5_typeEEELNS1_11schema_type5valueE0EED1Ev@Base 1.1.0
 _ZN3xsd3cxx4tree16fundamental_baseIycNS1_11simple_typeIcNS1_5_typeEEELNS1_11schema_type5valueE0EED2Ev@Base 1.1.0
 _ZN3xsd3cxx4tree16type_factory_mapIcE13register_typeERKNS0_3xml14qualified_nameIcEEPFSt8auto_ptrINS1_5_typeEERKN11xercesc_3_110DOMElementENS1_5flagsEPSA_Eb@Base 1.1.0
 _ZN3xsd3cxx4tree16type_factory_mapIcE18unregister_elementERKNS0_3xml14qualified_nameIcEES8_@Base 1.1.0
 _ZN3xsd3cxx4tree16type_factory_mapIcEC1Ev@Base 1.1.0
 _ZN3xsd3cxx4tree16type_factory_mapIcEC2Ev@Base 1.1.0
 _ZN3xsd3cxx4tree17no_prefix_mappingIcEC1ERKNSt7__cxx1112basic_stringIcSt11char_traitsIcESaIcEEE@Base 1.1.0
 _ZN3xsd3cxx4tree17no_prefix_mappingIcEC2ERKNSt7__cxx1112basic_stringIcSt11char_traitsIcESaIcEEE@Base 1.1.0
 _ZN3xsd3cxx4tree17no_prefix_mappingIcED0Ev@Base 1.1.0
 _ZN3xsd3cxx4tree17no_prefix_mappingIcED1Ev@Base 1.1.0
 _ZN3xsd3cxx4tree17no_prefix_mappingIcED2Ev@Base 1.1.0
 _ZN3xsd3cxx4tree17normalized_stringIcNS1_6stringIcNS1_11simple_typeIcNS1_5_typeEEEEEEC1ERKN11xercesc_3_110DOMElementENS1_5flagsEPS5_@Base 1.1.0
 _ZN3xsd3cxx4tree17normalized_stringIcNS1_6stringIcNS1_11simple_typeIcNS1_5_typeEEEEEEC2ERKN11xercesc_3_110DOMElementENS1_5flagsEPS5_@Base 1.1.0
 _ZN3xsd3cxx4tree17normalized_stringIcNS1_6stringIcNS1_11simple_typeIcNS1_5_typeEEEEEED0Ev@Base 1.1.0
 _ZN3xsd3cxx4tree17normalized_stringIcNS1_6stringIcNS1_11simple_typeIcNS1_5_typeEEEEEED1Ev@Base 1.1.0
 _ZN3xsd3cxx4tree17normalized_stringIcNS1_6stringIcNS1_11simple_typeIcNS1_5_typeEEEEEED2Ev@Base 1.1.0
 _ZN3xsd3cxx4tree18type_factory_plateILm0EcE3mapE@Base 1.1.0
 _ZN3xsd3cxx4tree18type_factory_plateILm0EcE5countE@Base 1.1.0
 _ZN3xsd3cxx4tree18type_factory_plateILm0EcED1Ev@Base 1.1.0
 _ZN3xsd3cxx4tree18type_factory_plateILm0EcED2Ev@Base 1.1.0
 _ZN3xsd3cxx4tree18unexpected_elementIcEC1ERKNSt7__cxx1112basic_stringIcSt11char_traitsIcESaIcEEESB_SB_SB_@Base 1.1.0
 _ZN3xsd3cxx4tree18unexpected_elementIcEC2ERKNSt7__cxx1112basic_stringIcSt11char_traitsIcESaIcEEESB_SB_SB_@Base 1.1.0
 _ZN3xsd3cxx4tree18unexpected_elementIcED0Ev@Base 1.1.0
 _ZN3xsd3cxx4tree18unexpected_elementIcED1Ev@Base 1.1.0
 _ZN3xsd3cxx4tree18unexpected_elementIcED2Ev@Base 1.1.0
 _ZN3xsd3cxx4tree19type_serializer_mapIcE13register_typeERKSt9type_infoRKNS0_3xml14qualified_nameIcEEPFvRN11xercesc_3_110DOMElementERKNS1_5_typeEEb@Base 1.1.0
 _ZN3xsd3cxx4tree19type_serializer_mapIcE16register_elementERKNS0_3xml14qualified_nameIcEES8_RKSt9type_infoPFvRN11xercesc_3_110DOMElementERKNS1_5_typeEE@Base 1.1.0
 _ZN3xsd3cxx4tree19type_serializer_mapIcE18unregister_elementERKNS0_3xml14qualified_nameIcEERKSt9type_info@Base 1.1.0
 _ZN3xsd3cxx4tree19type_serializer_mapIcEC1Ev@Base 1.1.0
 _ZN3xsd3cxx4tree19type_serializer_mapIcEC2Ev@Base 1.1.0
 _ZN3xsd3cxx4tree21expected_text_contentIcED0Ev@Base 1.1.0
 _ZN3xsd3cxx4tree21expected_text_contentIcED1Ev@Base 1.1.0
 _ZN3xsd3cxx4tree21expected_text_contentIcED2Ev@Base 1.1.0
 _ZN3xsd3cxx4tree21type_serializer_plateILm0EcE3mapE@Base 1.1.0
 _ZN3xsd3cxx4tree21type_serializer_plateILm0EcE5countE@Base 1.1.0
 _ZN3xsd3cxx4tree21type_serializer_plateILm0EcED1Ev@Base 1.1.0
 _ZN3xsd3cxx4tree21type_serializer_plateILm0EcED2Ev@Base 1.1.0
 _ZN3xsd3cxx4tree21unexpected_enumeratorIcEC1ERKNSt7__cxx1112basic_stringIcSt11char_traitsIcESaIcEEE@Base 1.1.0
 _ZN3xsd3cxx4tree21unexpected_enumeratorIcEC2ERKNSt7__cxx1112basic_stringIcSt11char_traitsIcESaIcEEE@Base 1.1.0
 _ZN3xsd3cxx4tree21unexpected_enumeratorIcED0Ev@Base 1.1.0
 _ZN3xsd3cxx4tree21unexpected_enumeratorIcED1Ev@Base 1.1.0
 _ZN3xsd3cxx4tree21unexpected_enumeratorIcED2Ev@Base 1.1.0
 _ZN3xsd3cxx4tree23user_data_keys_templateILi0EE4nodeE@Base 1.1.0
 _ZN3xsd3cxx4tree24type_factory_initializerILm0EcN13icalendar_2_010CustomTypeEED1Ev@Base 1.1.0
 _ZN3xsd3cxx4tree24type_factory_initializerILm0EcN13icalendar_2_010CustomTypeEED2Ev@Base 1.1.0
 _ZN3xsd3cxx4tree24type_factory_initializerILm0EcN13icalendar_2_011CnParamTypeEED1Ev@Base 1.1.0
 _ZN3xsd3cxx4tree24type_factory_initializerILm0EcN13icalendar_2_011CnParamTypeEED2Ev@Base 1.1.0
 _ZN3xsd3cxx4tree24type_factory_initializerILm0EcN13icalendar_2_011ContactTypeEED1Ev@Base 1.1.0
 _ZN3xsd3cxx4tree24type_factory_initializerILm0EcN13icalendar_2_011ContactTypeEED2Ev@Base 1.1.0
 _ZN3xsd3cxx4tree24type_factory_initializerILm0EcN13icalendar_2_011DuePropTypeEED1Ev@Base 1.1.0
 _ZN3xsd3cxx4tree24type_factory_initializerILm0EcN13icalendar_2_011DuePropTypeEED2Ev@Base 1.1.0
 _ZN3xsd3cxx4tree24type_factory_initializerILm0EcN13icalendar_2_011GeoPropTypeEED1Ev@Base 1.1.0
 _ZN3xsd3cxx4tree24type_factory_initializerILm0EcN13icalendar_2_011GeoPropTypeEED2Ev@Base 1.1.0
 _ZN3xsd3cxx4tree24type_factory_initializerILm0EcN13icalendar_2_011UidPropTypeEED1Ev@Base 1.1.0
 _ZN3xsd3cxx4tree24type_factory_initializerILm0EcN13icalendar_2_011UidPropTypeEED2Ev@Base 1.1.0
 _ZN3xsd3cxx4tree24type_factory_initializerILm0EcN13icalendar_2_011UrlPropTypeEED1Ev@Base 1.1.0
 _ZN3xsd3cxx4tree24type_factory_initializerILm0EcN13icalendar_2_011UrlPropTypeEED2Ev@Base 1.1.0
 _ZN3xsd3cxx4tree24type_factory_initializerILm0EcN13icalendar_2_012DirParamTypeEED1Ev@Base 1.1.0
 _ZN3xsd3cxx4tree24type_factory_initializerILm0EcN13icalendar_2_012DirParamTypeEED2Ev@Base 1.1.0
 _ZN3xsd3cxx4tree24type_factory_initializerILm0EcN13icalendar_2_012KolabVersionEED1Ev@Base 1.1.0
 _ZN3xsd3cxx4tree24type_factory_initializerILm0EcN13icalendar_2_012KolabVersionEED2Ev@Base 1.1.0
 _ZN3xsd3cxx4tree24type_factory_initializerILm0EcN13icalendar_2_012TzidPropTypeEED1Ev@Base 1.1.0
 _ZN3xsd3cxx4tree24type_factory_initializerILm0EcN13icalendar_2_012TzidPropTypeEED2Ev@Base 1.1.0
 _ZN3xsd3cxx4tree24type_factory_initializerILm0EcN13icalendar_2_013ClassPropTypeEED1Ev@Base 1.1.0
 _ZN3xsd3cxx4tree24type_factory_initializerILm0EcN13icalendar_2_013ClassPropTypeEED2Ev@Base 1.1.0
 _ZN3xsd3cxx4tree24type_factory_initializerILm0EcN13icalendar_2_013DtendPropTypeEED1Ev@Base 1.1.0
 _ZN3xsd3cxx4tree24type_factory_initializerILm0EcN13icalendar_2_013DtendPropTypeEED2Ev@Base 1.1.0
 _ZN3xsd3cxx4tree24type_factory_initializerILm0EcN13icalendar_2_013RdatePropTypeEED1Ev@Base 1.1.0
 _ZN3xsd3cxx4tree24type_factory_initializerILm0EcN13icalendar_2_013RdatePropTypeEED2Ev@Base 1.1.0
 _ZN3xsd3cxx4tree24type_factory_initializerILm0EcN13icalendar_2_013RoleParamTypeEED1Ev@Base 1.1.0
 _ZN3xsd3cxx4tree24type_factory_initializerILm0EcN13icalendar_2_013RoleParamTypeEED2Ev@Base 1.1.0
 _ZN3xsd3cxx4tree24type_factory_initializerILm0EcN13icalendar_2_013RrulePropTypeEED1Ev@Base 1.1.0
 _ZN3xsd3cxx4tree24type_factory_initializerILm0EcN13icalendar_2_013RrulePropTypeEED2Ev@Base 1.1.0
 _ZN3xsd3cxx4tree24type_factory_initializerILm0EcN13icalendar_2_013RsvpParamTypeEED1Ev@Base 1.1.0
 _ZN3xsd3cxx4tree24type_factory_initializerILm0EcN13icalendar_2_013RsvpParamTypeEED2Ev@Base 1.1.0
 _ZN3xsd3cxx4tree24type_factory_initializerILm0EcN13icalendar_2_013TzidParamTypeEED1Ev@Base 1.1.0
 _ZN3xsd3cxx4tree24type_factory_initializerILm0EcN13icalendar_2_013TzidParamTypeEED2Ev@Base 1.1.0
 _ZN3xsd3cxx4tree24type_factory_initializerILm0EcN13icalendar_2_013TzurlPropTypeEED1Ev@Base 1.1.0
 _ZN3xsd3cxx4tree24type_factory_initializerILm0EcN13icalendar_2_013TzurlPropTypeEED2Ev@Base 1.1.0
 _ZN3xsd3cxx4tree24type_factory_initializerILm0EcN13icalendar_2_013XuidParamTypeEED1Ev@Base 1.1.0
 _ZN3xsd3cxx4tree24type_factory_initializerILm0EcN13icalendar_2_013XuidParamTypeEED2Ev@Base 1.1.0
 _ZN3xsd3cxx4tree24type_factory_initializerILm0EcN13icalendar_2_014ActionPropTypeEED1Ev@Base 1.1.0
 _ZN3xsd3cxx4tree24type_factory_initializerILm0EcN13icalendar_2_014ActionPropTypeEED2Ev@Base 1.1.0
 _ZN3xsd3cxx4tree24type_factory_initializerILm0EcN13icalendar_2_014AttachPropTypeEED1Ev@Base 1.1.0
 _ZN3xsd3cxx4tree24type_factory_initializerILm0EcN13icalendar_2_014AttachPropTypeEED2Ev@Base 1.1.0
 _ZN3xsd3cxx4tree24type_factory_initializerILm0EcN13icalendar_2_014ExdatePropTypeEED1Ev@Base 1.1.0
 _ZN3xsd3cxx4tree24type_factory_initializerILm0EcN13icalendar_2_014ExdatePropTypeEED2Ev@Base 1.1.0
 _ZN3xsd3cxx4tree24type_factory_initializerILm0EcN13icalendar_2_014ExrulePropTypeEED1Ev@Base 1.1.0
 _ZN3xsd3cxx4tree24type_factory_initializerILm0EcN13icalendar_2_014ExrulePropTypeEED2Ev@Base 1.1.0
 _ZN3xsd3cxx4tree24type_factory_initializerILm0EcN13icalendar_2_014MethodPropTypeEED1Ev@Base 1.1.0
 _ZN3xsd3cxx4tree24type_factory_initializerILm0EcN13icalendar_2_014MethodPropTypeEED2Ev@Base 1.1.0
 _ZN3xsd3cxx4tree24type_factory_initializerILm0EcN13icalendar_2_014ProdidPropTypeEED1Ev@Base 1.1.0
 _ZN3xsd3cxx4tree24type_factory_initializerILm0EcN13icalendar_2_014ProdidPropTypeEED2Ev@Base 1.1.0
 _ZN3xsd3cxx4tree24type_factory_initializerILm0EcN13icalendar_2_014RangeParamTypeEED1Ev@Base 1.1.0
 _ZN3xsd3cxx4tree24type_factory_initializerILm0EcN13icalendar_2_014RangeParamTypeEED2Ev@Base 1.1.0
 _ZN3xsd3cxx4tree24type_factory_initializerILm0EcN13icalendar_2_014RepeatPropTypeEED1Ev@Base 1.1.0
 _ZN3xsd3cxx4tree24type_factory_initializerILm0EcN13icalendar_2_014RepeatPropTypeEED2Ev@Base 1.1.0
 _ZN3xsd3cxx4tree24type_factory_initializerILm0EcN13icalendar_2_014StatusPropTypeEED1Ev@Base 1.1.0
 _ZN3xsd3cxx4tree24type_factory_initializerILm0EcN13icalendar_2_014StatusPropTypeEED2Ev@Base 1.1.0
 _ZN3xsd3cxx4tree24type_factory_initializerILm0EcN13icalendar_2_014TranspPropTypeEED1Ev@Base 1.1.0
 _ZN3xsd3cxx4tree24type_factory_initializerILm0EcN13icalendar_2_014TranspPropTypeEED2Ev@Base 1.1.0
 _ZN3xsd3cxx4tree24type_factory_initializerILm0EcN13icalendar_2_014TznamePropTypeEED1Ev@Base 1.1.0
 _ZN3xsd3cxx4tree24type_factory_initializerILm0EcN13icalendar_2_014TznamePropTypeEED2Ev@Base 1.1.0
 _ZN3xsd3cxx4tree24type_factory_initializerILm0EcN13icalendar_2_015AltrepParamTypeEED1Ev@Base 1.1.0
 _ZN3xsd3cxx4tree24type_factory_initializerILm0EcN13icalendar_2_015AltrepParamTypeEED2Ev@Base 1.1.0
 _ZN3xsd3cxx4tree24type_factory_initializerILm0EcN13icalendar_2_015CommentPropTypeEED1Ev@Base 1.1.0
 _ZN3xsd3cxx4tree24type_factory_initializerILm0EcN13icalendar_2_015CommentPropTypeEED2Ev@Base 1.1.0
 _ZN3xsd3cxx4tree24type_factory_initializerILm0EcN13icalendar_2_015ContactPropTypeEED1Ev@Base 1.1.0
 _ZN3xsd3cxx4tree24type_factory_initializerILm0EcN13icalendar_2_015ContactPropTypeEED2Ev@Base 1.1.0
 _ZN3xsd3cxx4tree24type_factory_initializerILm0EcN13icalendar_2_015CreatedPropTypeEED1Ev@Base 1.1.0
 _ZN3xsd3cxx4tree24type_factory_initializerILm0EcN13icalendar_2_015CreatedPropTypeEED2Ev@Base 1.1.0
 _ZN3xsd3cxx4tree24type_factory_initializerILm0EcN13icalendar_2_015CutypeParamTypeEED1Ev@Base 1.1.0
 _ZN3xsd3cxx4tree24type_factory_initializerILm0EcN13icalendar_2_015CutypeParamTypeEED2Ev@Base 1.1.0
 _ZN3xsd3cxx4tree24type_factory_initializerILm0EcN13icalendar_2_015DtstampPropTypeEED1Ev@Base 1.1.0
 _ZN3xsd3cxx4tree24type_factory_initializerILm0EcN13icalendar_2_015DtstampPropTypeEED2Ev@Base 1.1.0
 _ZN3xsd3cxx4tree24type_factory_initializerILm0EcN13icalendar_2_015DtstartPropTypeEED1Ev@Base 1.1.0
 _ZN3xsd3cxx4tree24type_factory_initializerILm0EcN13icalendar_2_015DtstartPropTypeEED2Ev@Base 1.1.0
 _ZN3xsd3cxx4tree24type_factory_initializerILm0EcN13icalendar_2_015FbtypeParamTypeEED1Ev@Base 1.1.0
 _ZN3xsd3cxx4tree24type_factory_initializerILm0EcN13icalendar_2_015FbtypeParamTypeEED2Ev@Base 1.1.0
 _ZN3xsd3cxx4tree24type_factory_initializerILm0EcN13icalendar_2_015MemberParamTypeEED1Ev@Base 1.1.0
 _ZN3xsd3cxx4tree24type_factory_initializerILm0EcN13icalendar_2_015MemberParamTypeEED2Ev@Base 1.1.0
 _ZN3xsd3cxx4tree24type_factory_initializerILm0EcN13icalendar_2_015SentByParamTypeEED1Ev@Base 1.1.0
 _ZN3xsd3cxx4tree24type_factory_initializerILm0EcN13icalendar_2_015SentByParamTypeEED2Ev@Base 1.1.0
 _ZN3xsd3cxx4tree24type_factory_initializerILm0EcN13icalendar_2_015SummaryPropTypeEED1Ev@Base 1.1.0
 _ZN3xsd3cxx4tree24type_factory_initializerILm0EcN13icalendar_2_015SummaryPropTypeEED2Ev@Base 1.1.0
 _ZN3xsd3cxx4tree24type_factory_initializerILm0EcN13icalendar_2_015TriggerPropTypeEED1Ev@Base 1.1.0
 _ZN3xsd3cxx4tree24type_factory_initializerILm0EcN13icalendar_2_015TriggerPropTypeEED2Ev@Base 1.1.0
 _ZN3xsd3cxx4tree24type_factory_initializerILm0EcN13icalendar_2_015UriPropertyTypeEED1Ev@Base 1.1.0
 _ZN3xsd3cxx4tree24type_factory_initializerILm0EcN13icalendar_2_015UriPropertyTypeEED2Ev@Base 1.1.0
 _ZN3xsd3cxx4tree24type_factory_initializerILm0EcN13icalendar_2_015VersionPropTypeEED1Ev@Base 1.1.0
 _ZN3xsd3cxx4tree24type_factory_initializerILm0EcN13icalendar_2_015VersionPropTypeEED2Ev@Base 1.1.0
 _ZN3xsd3cxx4tree24type_factory_initializerILm0EcN13icalendar_2_015XlabelParamTypeEED1Ev@Base 1.1.0
 _ZN3xsd3cxx4tree24type_factory_initializerILm0EcN13icalendar_2_015XlabelParamTypeEED2Ev@Base 1.1.0
 _ZN3xsd3cxx4tree24type_factory_initializerILm0EcN13icalendar_2_016AttendeePropTypeEED1Ev@Base 1.1.0
 _ZN3xsd3cxx4tree24type_factory_initializerILm0EcN13icalendar_2_016AttendeePropTypeEED2Ev@Base 1.1.0
 _ZN3xsd3cxx4tree24type_factory_initializerILm0EcN13icalendar_2_016BasePropertyTypeEED1Ev@Base 1.1.0
 _ZN3xsd3cxx4tree24type_factory_initializerILm0EcN13icalendar_2_016BasePropertyTypeEED2Ev@Base 1.1.0
 _ZN3xsd3cxx4tree24type_factory_initializerILm0EcN13icalendar_2_016CalscalePropTypeEED1Ev@Base 1.1.0
 _ZN3xsd3cxx4tree24type_factory_initializerILm0EcN13icalendar_2_016CalscalePropTypeEED2Ev@Base 1.1.0
 _ZN3xsd3cxx4tree24type_factory_initializerILm0EcN13icalendar_2_016DurationPropTypeEED1Ev@Base 1.1.0
 _ZN3xsd3cxx4tree24type_factory_initializerILm0EcN13icalendar_2_016DurationPropTypeEED2Ev@Base 1.1.0
 _ZN3xsd3cxx4tree24type_factory_initializerILm0EcN13icalendar_2_016FmttypeParamTypeEED1Ev@Base 1.1.0
 _ZN3xsd3cxx4tree24type_factory_initializerILm0EcN13icalendar_2_016FmttypeParamTypeEED2Ev@Base 1.1.0
 _ZN3xsd3cxx4tree24type_factory_initializerILm0EcN13icalendar_2_016FreebusyPropTypeEED1Ev@Base 1.1.0
 _ZN3xsd3cxx4tree24type_factory_initializerILm0EcN13icalendar_2_016FreebusyPropTypeEED2Ev@Base 1.1.0
 _ZN3xsd3cxx4tree24type_factory_initializerILm0EcN13icalendar_2_016LocationPropTypeEED1Ev@Base 1.1.0
 _ZN3xsd3cxx4tree24type_factory_initializerILm0EcN13icalendar_2_016LocationPropTypeEED2Ev@Base 1.1.0
 _ZN3xsd3cxx4tree24type_factory_initializerILm0EcN13icalendar_2_016PriorityPropTypeEED1Ev@Base 1.1.0
 _ZN3xsd3cxx4tree24type_factory_initializerILm0EcN13icalendar_2_016PriorityPropTypeEED2Ev@Base 1.1.0
 _ZN3xsd3cxx4tree24type_factory_initializerILm0EcN13icalendar_2_016RelatedParamTypeEED1Ev@Base 1.1.0
 _ZN3xsd3cxx4tree24type_factory_initializerILm0EcN13icalendar_2_016RelatedParamTypeEED2Ev@Base 1.1.0
 _ZN3xsd3cxx4tree24type_factory_initializerILm0EcN13icalendar_2_016ReltypeParamTypeEED1Ev@Base 1.1.0
 _ZN3xsd3cxx4tree24type_factory_initializerILm0EcN13icalendar_2_016ReltypeParamTypeEED2Ev@Base 1.1.0
 _ZN3xsd3cxx4tree24type_factory_initializerILm0EcN13icalendar_2_016SequencePropTypeEED1Ev@Base 1.1.0
 _ZN3xsd3cxx4tree24type_factory_initializerILm0EcN13icalendar_2_016SequencePropTypeEED2Ev@Base 1.1.0
 _ZN3xsd3cxx4tree24type_factory_initializerILm0EcN13icalendar_2_016TextPropertyTypeEED1Ev@Base 1.1.0
 _ZN3xsd3cxx4tree24type_factory_initializerILm0EcN13icalendar_2_016TextPropertyTypeEED2Ev@Base 1.1.0
 _ZN3xsd3cxx4tree24type_factory_initializerILm0EcN13icalendar_2_016UriParameterTypeEED1Ev@Base 1.1.0
 _ZN3xsd3cxx4tree24type_factory_initializerILm0EcN13icalendar_2_016UriParameterTypeEED2Ev@Base 1.1.0
 _ZN3xsd3cxx4tree24type_factory_initializerILm0EcN13icalendar_2_017BaseParameterTypeEED1Ev@Base 1.1.0
 _ZN3xsd3cxx4tree24type_factory_initializerILm0EcN13icalendar_2_017BaseParameterTypeEED2Ev@Base 1.1.0
 _ZN3xsd3cxx4tree24type_factory_initializerILm0EcN13icalendar_2_017CompletedPropTypeEED1Ev@Base 1.1.0
 _ZN3xsd3cxx4tree24type_factory_initializerILm0EcN13icalendar_2_017CompletedPropTypeEED2Ev@Base 1.1.0
 _ZN3xsd3cxx4tree24type_factory_initializerILm0EcN13icalendar_2_017EncodingParamTypeEED1Ev@Base 1.1.0
 _ZN3xsd3cxx4tree24type_factory_initializerILm0EcN13icalendar_2_017EncodingParamTypeEED2Ev@Base 1.1.0
 _ZN3xsd3cxx4tree24type_factory_initializerILm0EcN13icalendar_2_017LanguageParamTypeEED1Ev@Base 1.1.0
 _ZN3xsd3cxx4tree24type_factory_initializerILm0EcN13icalendar_2_017LanguageParamTypeEED2Ev@Base 1.1.0
 _ZN3xsd3cxx4tree24type_factory_initializerILm0EcN13icalendar_2_017OrganizerPropTypeEED1Ev@Base 1.1.0
 _ZN3xsd3cxx4tree24type_factory_initializerILm0EcN13icalendar_2_017OrganizerPropTypeEED2Ev@Base 1.1.0
 _ZN3xsd3cxx4tree24type_factory_initializerILm0EcN13icalendar_2_017PartstatParamTypeEED1Ev@Base 1.1.0
 _ZN3xsd3cxx4tree24type_factory_initializerILm0EcN13icalendar_2_017PartstatParamTypeEED2Ev@Base 1.1.0
 _ZN3xsd3cxx4tree24type_factory_initializerILm0EcN13icalendar_2_017RecurPropertyTypeEED1Ev@Base 1.1.0
 _ZN3xsd3cxx4tree24type_factory_initializerILm0EcN13icalendar_2_017RecurPropertyTypeEED2Ev@Base 1.1.0
 _ZN3xsd3cxx4tree24type_factory_initializerILm0EcN13icalendar_2_017RelatedToPropTypeEED1Ev@Base 1.1.0
 _ZN3xsd3cxx4tree24type_factory_initializerILm0EcN13icalendar_2_017RelatedToPropTypeEED2Ev@Base 1.1.0
 _ZN3xsd3cxx4tree24type_factory_initializerILm0EcN13icalendar_2_017ResourcesPropTypeEED1Ev@Base 1.1.0
 _ZN3xsd3cxx4tree24type_factory_initializerILm0EcN13icalendar_2_017ResourcesPropTypeEED2Ev@Base 1.1.0
 _ZN3xsd3cxx4tree24type_factory_initializerILm0EcN13icalendar_2_017TextParameterTypeEED1Ev@Base 1.1.0
 _ZN3xsd3cxx4tree24type_factory_initializerILm0EcN13icalendar_2_017TextParameterTypeEED2Ev@Base 1.1.0
 _ZN3xsd3cxx4tree24type_factory_initializerILm0EcN13icalendar_2_018CategoriesPropTypeEED1Ev@Base 1.1.0
 _ZN3xsd3cxx4tree24type_factory_initializerILm0EcN13icalendar_2_018CategoriesPropTypeEED2Ev@Base 1.1.0
 _ZN3xsd3cxx4tree24type_factory_initializerILm0EcN13icalendar_2_018TzoffsettoPropTypeEED1Ev@Base 1.1.0
 _ZN3xsd3cxx4tree24type_factory_initializerILm0EcN13icalendar_2_018TzoffsettoPropTypeEED2Ev@Base 1.1.0
 _ZN3xsd3cxx4tree24type_factory_initializerILm0EcN13icalendar_2_019CalAddressParamTypeEED1Ev@Base 1.1.0
 _ZN3xsd3cxx4tree24type_factory_initializerILm0EcN13icalendar_2_019CalAddressParamTypeEED2Ev@Base 1.1.0
 _ZN3xsd3cxx4tree24type_factory_initializerILm0EcN13icalendar_2_019DescriptionPropTypeEED1Ev@Base 1.1.0
 _ZN3xsd3cxx4tree24type_factory_initializerILm0EcN13icalendar_2_019DescriptionPropTypeEED2Ev@Base 1.1.0
 _ZN3xsd3cxx4tree24type_factory_initializerILm0EcN13icalendar_2_019IntegerPropertyTypeEED1Ev@Base 1.1.0
 _ZN3xsd3cxx4tree24type_factory_initializerILm0EcN13icalendar_2_019IntegerPropertyTypeEED2Ev@Base 1.1.0
 _ZN3xsd3cxx4tree24type_factory_initializerILm0EcN13icalendar_2_020BooleanParameterTypeEED1Ev@Base 1.1.0
 _ZN3xsd3cxx4tree24type_factory_initializerILm0EcN13icalendar_2_020BooleanParameterTypeEED2Ev@Base 1.1.0
 _ZN3xsd3cxx4tree24type_factory_initializerILm0EcN13icalendar_2_020DatetimePropertyTypeEED1Ev@Base 1.1.0
 _ZN3xsd3cxx4tree24type_factory_initializerILm0EcN13icalendar_2_020DatetimePropertyTypeEED2Ev@Base 1.1.0
 _ZN3xsd3cxx4tree24type_factory_initializerILm0EcN13icalendar_2_020DelegatedToParamTypeEED1Ev@Base 1.1.0
 _ZN3xsd3cxx4tree24type_factory_initializerILm0EcN13icalendar_2_020DelegatedToParamTypeEED2Ev@Base 1.1.0
 _ZN3xsd3cxx4tree24type_factory_initializerILm0EcN13icalendar_2_020LastModifiedPropTypeEED1Ev@Base 1.1.0
 _ZN3xsd3cxx4tree24type_factory_initializerILm0EcN13icalendar_2_020LastModifiedPropTypeEED2Ev@Base 1.1.0
 _ZN3xsd3cxx4tree24type_factory_initializerILm0EcN13icalendar_2_020RecurrenceIdPropTypeEED1Ev@Base 1.1.0
 _ZN3xsd3cxx4tree24type_factory_initializerILm0EcN13icalendar_2_020RecurrenceIdPropTypeEED2Ev@Base 1.1.0
 _ZN3xsd3cxx4tree24type_factory_initializerILm0EcN13icalendar_2_020TextListPropertyTypeEED1Ev@Base 1.1.0
 _ZN3xsd3cxx4tree24type_factory_initializerILm0EcN13icalendar_2_020TextListPropertyTypeEED2Ev@Base 1.1.0
 _ZN3xsd3cxx4tree24type_factory_initializerILm0EcN13icalendar_2_020TzoffsetfromPropTypeEED1Ev@Base 1.1.0
 _ZN3xsd3cxx4tree24type_factory_initializerILm0EcN13icalendar_2_020TzoffsetfromPropTypeEED2Ev@Base 1.1.0
 _ZN3xsd3cxx4tree24type_factory_initializerILm0EcN13icalendar_2_021RequestStatusPropTypeEED1Ev@Base 1.1.0
 _ZN3xsd3cxx4tree24type_factory_initializerILm0EcN13icalendar_2_021RequestStatusPropTypeEED2Ev@Base 1.1.0
 _ZN3xsd3cxx4tree24type_factory_initializerILm0EcN13icalendar_2_021UtcOffsetPropertyTypeEED1Ev@Base 1.1.0
 _ZN3xsd3cxx4tree24type_factory_initializerILm0EcN13icalendar_2_021UtcOffsetPropertyTypeEED2Ev@Base 1.1.0
 _ZN3xsd3cxx4tree24type_factory_initializerILm0EcN13icalendar_2_022CalAddressPropertyTypeEED1Ev@Base 1.1.0
 _ZN3xsd3cxx4tree24type_factory_initializerILm0EcN13icalendar_2_022CalAddressPropertyTypeEED2Ev@Base 1.1.0
 _ZN3xsd3cxx4tree24type_factory_initializerILm0EcN13icalendar_2_022DelegatedFromParamTypeEED1Ev@Base 1.1.0
 _ZN3xsd3cxx4tree24type_factory_initializerILm0EcN13icalendar_2_022DelegatedFromParamTypeEED2Ev@Base 1.1.0
 _ZN3xsd3cxx4tree24type_factory_initializerILm0EcN13icalendar_2_022ScheduleAgentParamTypeEED1Ev@Base 1.1.0
 _ZN3xsd3cxx4tree24type_factory_initializerILm0EcN13icalendar_2_022ScheduleAgentParamTypeEED2Ev@Base 1.1.0
 _ZN3xsd3cxx4tree24type_factory_initializerILm0EcN13icalendar_2_023CalAddressListParamTypeEED1Ev@Base 1.1.0
 _ZN3xsd3cxx4tree24type_factory_initializerILm0EcN13icalendar_2_023CalAddressListParamTypeEED2Ev@Base 1.1.0
 _ZN3xsd3cxx4tree24type_factory_initializerILm0EcN13icalendar_2_023PercentCompletePropTypeEED1Ev@Base 1.1.0
 _ZN3xsd3cxx4tree24type_factory_initializerILm0EcN13icalendar_2_023PercentCompletePropTypeEED2Ev@Base 1.1.0
 _ZN3xsd3cxx4tree24type_factory_initializerILm0EcN13icalendar_2_023ScheduleStatusParamTypeEED1Ev@Base 1.1.0
 _ZN3xsd3cxx4tree24type_factory_initializerILm0EcN13icalendar_2_023ScheduleStatusParamTypeEED2Ev@Base 1.1.0
 _ZN3xsd3cxx4tree24type_factory_initializerILm0EcN13icalendar_2_023UtcDatetimePropertyTypeEED1Ev@Base 1.1.0
 _ZN3xsd3cxx4tree24type_factory_initializerILm0EcN13icalendar_2_023UtcDatetimePropertyTypeEED2Ev@Base 1.1.0
 _ZN3xsd3cxx4tree24type_factory_initializerILm0EcN13icalendar_2_024DateDatetimePropertyTypeEED1Ev@Base 1.1.0
 _ZN3xsd3cxx4tree24type_factory_initializerILm0EcN13icalendar_2_024DateDatetimePropertyTypeEED2Ev@Base 1.1.0
 _ZN3xsd3cxx4tree24type_factory_initializerILm0EcN13icalendar_2_026ScheduleForceSendParamTypeEED1Ev@Base 1.1.0
 _ZN3xsd3cxx4tree24type_factory_initializerILm0EcN13icalendar_2_026ScheduleForceSendParamTypeEED2Ev@Base 1.1.0
 _ZN3xsd3cxx4tree24type_factory_initializerILm0EcN13icalendar_2_08XFBeventEED1Ev@Base 1.1.0
 _ZN3xsd3cxx4tree24type_factory_initializerILm0EcN13icalendar_2_08XFBeventEED2Ev@Base 1.1.0
 _ZN3xsd3cxx4tree24type_factory_initializerILm0EcN9vcard_4_010CryptoTypeEED1Ev@Base 1.1.0
 _ZN3xsd3cxx4tree24type_factory_initializerILm0EcN9vcard_4_010CryptoTypeEED2Ev@Base 1.1.0
 _ZN3xsd3cxx4tree24type_factory_initializerILm0EcN9vcard_4_010CustomTypeEED1Ev@Base 1.1.0
 _ZN3xsd3cxx4tree24type_factory_initializerILm0EcN9vcard_4_010CustomTypeEED2Ev@Base 1.1.0
 _ZN3xsd3cxx4tree24type_factory_initializerILm0EcN9vcard_4_010fnPropTypeEED1Ev@Base 1.1.0
 _ZN3xsd3cxx4tree24type_factory_initializerILm0EcN9vcard_4_010fnPropTypeEED2Ev@Base 1.1.0
 _ZN3xsd3cxx4tree24type_factory_initializerILm0EcN9vcard_4_011adrPropTypeEED1Ev@Base 1.1.0
 _ZN3xsd3cxx4tree24type_factory_initializerILm0EcN9vcard_4_011adrPropTypeEED2Ev@Base 1.1.0
 _ZN3xsd3cxx4tree24type_factory_initializerILm0EcN9vcard_4_011geoPropTypeEED1Ev@Base 1.1.0
 _ZN3xsd3cxx4tree24type_factory_initializerILm0EcN9vcard_4_011geoPropTypeEED2Ev@Base 1.1.0
 _ZN3xsd3cxx4tree24type_factory_initializerILm0EcN9vcard_4_011keyPropTypeEED1Ev@Base 1.1.0
 _ZN3xsd3cxx4tree24type_factory_initializerILm0EcN9vcard_4_011keyPropTypeEED2Ev@Base 1.1.0
 _ZN3xsd3cxx4tree24type_factory_initializerILm0EcN9vcard_4_011revPropTypeEED1Ev@Base 1.1.0
 _ZN3xsd3cxx4tree24type_factory_initializerILm0EcN9vcard_4_011revPropTypeEED2Ev@Base 1.1.0
 _ZN3xsd3cxx4tree24type_factory_initializerILm0EcN9vcard_4_011telPropTypeEED1Ev@Base 1.1.0
 _ZN3xsd3cxx4tree24type_factory_initializerILm0EcN9vcard_4_011telPropTypeEED2Ev@Base 1.1.0
 _ZN3xsd3cxx4tree24type_factory_initializerILm0EcN9vcard_4_011uidPropTypeEED1Ev@Base 1.1.0
 _ZN3xsd3cxx4tree24type_factory_initializerILm0EcN9vcard_4_011uidPropTypeEED2Ev@Base 1.1.0
 _ZN3xsd3cxx4tree24type_factory_initializerILm0EcN9vcard_4_011urlPropTypeEED1Ev@Base 1.1.0
 _ZN3xsd3cxx4tree24type_factory_initializerILm0EcN9vcard_4_011urlPropTypeEED2Ev@Base 1.1.0
 _ZN3xsd3cxx4tree24type_factory_initializerILm0EcN9vcard_4_012KolabVersionEED1Ev@Base 1.1.0
 _ZN3xsd3cxx4tree24type_factory_initializerILm0EcN9vcard_4_012KolabVersionEED2Ev@Base 1.1.0
 _ZN3xsd3cxx4tree24type_factory_initializerILm0EcN9vcard_4_012bdayPropTypeEED1Ev@Base 1.1.0
 _ZN3xsd3cxx4tree24type_factory_initializerILm0EcN9vcard_4_012bdayPropTypeEED2Ev@Base 1.1.0
 _ZN3xsd3cxx4tree24type_factory_initializerILm0EcN9vcard_4_012imppPropTypeEED1Ev@Base 1.1.0
 _ZN3xsd3cxx4tree24type_factory_initializerILm0EcN9vcard_4_012imppPropTypeEED2Ev@Base 1.1.0
 _ZN3xsd3cxx4tree24type_factory_initializerILm0EcN9vcard_4_012kindPropTypeEED1Ev@Base 1.1.0
 _ZN3xsd3cxx4tree24type_factory_initializerILm0EcN9vcard_4_012kindPropTypeEED2Ev@Base 1.1.0
 _ZN3xsd3cxx4tree24type_factory_initializerILm0EcN9vcard_4_012langPropTypeEED1Ev@Base 1.1.0
 _ZN3xsd3cxx4tree24type_factory_initializerILm0EcN9vcard_4_012langPropTypeEED2Ev@Base 1.1.0
 _ZN3xsd3cxx4tree24type_factory_initializerILm0EcN9vcard_4_012notePropTypeEED1Ev@Base 1.1.0
 _ZN3xsd3cxx4tree24type_factory_initializerILm0EcN9vcard_4_012notePropTypeEED2Ev@Base 1.1.0
 _ZN3xsd3cxx4tree24type_factory_initializerILm0EcN9vcard_4_013emailPropTypeEED1Ev@Base 1.1.0
 _ZN3xsd3cxx4tree24type_factory_initializerILm0EcN9vcard_4_013emailPropTypeEED2Ev@Base 1.1.0
 _ZN3xsd3cxx4tree24type_factory_initializerILm0EcN9vcard_4_013fburlPropTypeEED1Ev@Base 1.1.0
 _ZN3xsd3cxx4tree24type_factory_initializerILm0EcN9vcard_4_013fburlPropTypeEED2Ev@Base 1.1.0
 _ZN3xsd3cxx4tree24type_factory_initializerILm0EcN9vcard_4_013photoPropTypeEED1Ev@Base 1.1.0
 _ZN3xsd3cxx4tree24type_factory_initializerILm0EcN9vcard_4_013photoPropTypeEED2Ev@Base 1.1.0
 _ZN3xsd3cxx4tree24type_factory_initializerILm0EcN9vcard_4_013prefParamTypeEED1Ev@Base 1.1.0
 _ZN3xsd3cxx4tree24type_factory_initializerILm0EcN9vcard_4_013prefParamTypeEED2Ev@Base 1.1.0
 _ZN3xsd3cxx4tree24type_factory_initializerILm0EcN9vcard_4_013titlePropTypeEED1Ev@Base 1.1.0
 _ZN3xsd3cxx4tree24type_factory_initializerILm0EcN9vcard_4_013titlePropTypeEED2Ev@Base 1.1.0
 _ZN3xsd3cxx4tree24type_factory_initializerILm0EcN9vcard_4_013typeParamTypeEED1Ev@Base 1.1.0
 _ZN3xsd3cxx4tree24type_factory_initializerILm0EcN9vcard_4_013typeParamTypeEED2Ev@Base 1.1.0
 _ZN3xsd3cxx4tree24type_factory_initializerILm0EcN9vcard_4_013xuidParamTypeEED1Ev@Base 1.1.0
 _ZN3xsd3cxx4tree24type_factory_initializerILm0EcN9vcard_4_013xuidParamTypeEED2Ev@Base 1.1.0
 _ZN3xsd3cxx4tree24type_factory_initializerILm0EcN9vcard_4_014labelParamTypeEED1Ev@Base 1.1.0
 _ZN3xsd3cxx4tree24type_factory_initializerILm0EcN9vcard_4_014labelParamTypeEED2Ev@Base 1.1.0
 _ZN3xsd3cxx4tree24type_factory_initializerILm0EcN9vcard_4_014memberPropTypeEED1Ev@Base 1.1.0
 _ZN3xsd3cxx4tree24type_factory_initializerILm0EcN9vcard_4_014memberPropTypeEED2Ev@Base 1.1.0
 _ZN3xsd3cxx4tree24type_factory_initializerILm0EcN9vcard_4_014prodidPropTypeEED1Ev@Base 1.1.0
 _ZN3xsd3cxx4tree24type_factory_initializerILm0EcN9vcard_4_014prodidPropTypeEED2Ev@Base 1.1.0
 _ZN3xsd3cxx4tree24type_factory_initializerILm0EcN9vcard_4_015UriPropertyTypeEED1Ev@Base 1.1.0
 _ZN3xsd3cxx4tree24type_factory_initializerILm0EcN9vcard_4_015UriPropertyTypeEED2Ev@Base 1.1.0
 _ZN3xsd3cxx4tree24type_factory_initializerILm0EcN9vcard_4_015relatedPropTypeEED1Ev@Base 1.1.0
 _ZN3xsd3cxx4tree24type_factory_initializerILm0EcN9vcard_4_015relatedPropTypeEED2Ev@Base 1.1.0
 _ZN3xsd3cxx4tree24type_factory_initializerILm0EcN9vcard_4_016BasePropertyTypeEED1Ev@Base 1.1.0
 _ZN3xsd3cxx4tree24type_factory_initializerILm0EcN9vcard_4_016BasePropertyTypeEED2Ev@Base 1.1.0
 _ZN3xsd3cxx4tree24type_factory_initializerILm0EcN9vcard_4_016TextPropertyTypeEED1Ev@Base 1.1.0
 _ZN3xsd3cxx4tree24type_factory_initializerILm0EcN9vcard_4_016TextPropertyTypeEED2Ev@Base 1.1.0
 _ZN3xsd3cxx4tree24type_factory_initializerILm0EcN9vcard_4_016UriParameterTypeEED1Ev@Base 1.1.0
 _ZN3xsd3cxx4tree24type_factory_initializerILm0EcN9vcard_4_016UriParameterTypeEED2Ev@Base 1.1.0
 _ZN3xsd3cxx4tree24type_factory_initializerILm0EcN9vcard_4_016nicknamePropTypeEED1Ev@Base 1.1.0
 _ZN3xsd3cxx4tree24type_factory_initializerILm0EcN9vcard_4_016nicknamePropTypeEED2Ev@Base 1.1.0
 _ZN3xsd3cxx4tree24type_factory_initializerILm0EcN9vcard_4_017BaseParameterTypeEED1Ev@Base 1.1.0
 _ZN3xsd3cxx4tree24type_factory_initializerILm0EcN9vcard_4_017BaseParameterTypeEED2Ev@Base 1.1.0
 _ZN3xsd3cxx4tree24type_factory_initializerILm0EcN9vcard_4_017TextParameterTypeEED1Ev@Base 1.1.0
 _ZN3xsd3cxx4tree24type_factory_initializerILm0EcN9vcard_4_017TextParameterTypeEED2Ev@Base 1.1.0
 _ZN3xsd3cxx4tree24type_factory_initializerILm0EcN9vcard_4_018categoriesPropTypeEED1Ev@Base 1.1.0
 _ZN3xsd3cxx4tree24type_factory_initializerILm0EcN9vcard_4_018categoriesPropTypeEED2Ev@Base 1.1.0
 _ZN3xsd3cxx4tree24type_factory_initializerILm0EcN9vcard_4_019affiliationPropTypeEED1Ev@Base 1.1.0
 _ZN3xsd3cxx4tree24type_factory_initializerILm0EcN9vcard_4_019affiliationPropTypeEED2Ev@Base 1.1.0
 _ZN3xsd3cxx4tree24type_factory_initializerILm0EcN9vcard_4_019anniversaryPropTypeEED1Ev@Base 1.1.0
 _ZN3xsd3cxx4tree24type_factory_initializerILm0EcN9vcard_4_019anniversaryPropTypeEED2Ev@Base 1.1.0
 _ZN3xsd3cxx4tree24type_factory_initializerILm0EcN9vcard_4_020TextListPropertyTypeEED1Ev@Base 1.1.0
 _ZN3xsd3cxx4tree24type_factory_initializerILm0EcN9vcard_4_020TextListPropertyTypeEED2Ev@Base 1.1.0
 _ZN3xsd3cxx4tree24type_factory_initializerILm0EcN9vcard_4_021TextOrUriPropertyTypeEED1Ev@Base 1.1.0
 _ZN3xsd3cxx4tree24type_factory_initializerILm0EcN9vcard_4_021TextOrUriPropertyTypeEED2Ev@Base 1.1.0
 _ZN3xsd3cxx4tree24type_factory_initializerILm0EcN9vcard_4_024DateDatetimePropertyTypeEED1Ev@Base 1.1.0
 _ZN3xsd3cxx4tree24type_factory_initializerILm0EcN9vcard_4_024DateDatetimePropertyTypeEED2Ev@Base 1.1.0
 _ZN3xsd3cxx4tree24type_factory_initializerILm0EcN9vcard_4_028NonEmptyTextListPropertyTypeEED1Ev@Base 1.1.0
 _ZN3xsd3cxx4tree24type_factory_initializerILm0EcN9vcard_4_028NonEmptyTextListPropertyTypeEED2Ev@Base 1.1.0
 _ZN3xsd3cxx4tree24type_factory_initializerILm0EcN9vcard_4_09nPropTypeEED1Ev@Base 1.1.0
 _ZN3xsd3cxx4tree24type_factory_initializerILm0EcN9vcard_4_09nPropTypeEED2Ev@Base 1.1.0
 _ZN3xsd3cxx4tree27element_factory_initializerILm0EcN13icalendar_2_011CnParamTypeEED1Ev@Base 1.1.0
 _ZN3xsd3cxx4tree27element_factory_initializerILm0EcN13icalendar_2_011CnParamTypeEED2Ev@Base 1.1.0
 _ZN3xsd3cxx4tree27element_factory_initializerILm0EcN13icalendar_2_011DuePropTypeEEC1EPKcS7_S7_S7_@Base 1.1.0
 _ZN3xsd3cxx4tree27element_factory_initializerILm0EcN13icalendar_2_011DuePropTypeEEC2EPKcS7_S7_S7_@Base 1.1.0
 _ZN3xsd3cxx4tree27element_factory_initializerILm0EcN13icalendar_2_011DuePropTypeEED1Ev@Base 1.1.0
 _ZN3xsd3cxx4tree27element_factory_initializerILm0EcN13icalendar_2_011DuePropTypeEED2Ev@Base 1.1.0
 _ZN3xsd3cxx4tree27element_factory_initializerILm0EcN13icalendar_2_011GeoPropTypeEEC1EPKcS7_S7_S7_@Base 1.1.0
 _ZN3xsd3cxx4tree27element_factory_initializerILm0EcN13icalendar_2_011GeoPropTypeEEC2EPKcS7_S7_S7_@Base 1.1.0
 _ZN3xsd3cxx4tree27element_factory_initializerILm0EcN13icalendar_2_011GeoPropTypeEED1Ev@Base 1.1.0
 _ZN3xsd3cxx4tree27element_factory_initializerILm0EcN13icalendar_2_011GeoPropTypeEED2Ev@Base 1.1.0
 _ZN3xsd3cxx4tree27element_factory_initializerILm0EcN13icalendar_2_011UidPropTypeEEC1EPKcS7_S7_S7_@Base 1.1.0
 _ZN3xsd3cxx4tree27element_factory_initializerILm0EcN13icalendar_2_011UidPropTypeEEC2EPKcS7_S7_S7_@Base 1.1.0
 _ZN3xsd3cxx4tree27element_factory_initializerILm0EcN13icalendar_2_011UidPropTypeEED1Ev@Base 1.1.0
 _ZN3xsd3cxx4tree27element_factory_initializerILm0EcN13icalendar_2_011UidPropTypeEED2Ev@Base 1.1.0
 _ZN3xsd3cxx4tree27element_factory_initializerILm0EcN13icalendar_2_011UrlPropTypeEEC1EPKcS7_S7_S7_@Base 1.1.0
 _ZN3xsd3cxx4tree27element_factory_initializerILm0EcN13icalendar_2_011UrlPropTypeEEC2EPKcS7_S7_S7_@Base 1.1.0
 _ZN3xsd3cxx4tree27element_factory_initializerILm0EcN13icalendar_2_011UrlPropTypeEED1Ev@Base 1.1.0
 _ZN3xsd3cxx4tree27element_factory_initializerILm0EcN13icalendar_2_011UrlPropTypeEED2Ev@Base 1.1.0
 _ZN3xsd3cxx4tree27element_factory_initializerILm0EcN13icalendar_2_012DirParamTypeEEC1EPKcS7_S7_S7_@Base 1.1.2
 _ZN3xsd3cxx4tree27element_factory_initializerILm0EcN13icalendar_2_012DirParamTypeEEC2EPKcS7_S7_S7_@Base 1.1.2
 _ZN3xsd3cxx4tree27element_factory_initializerILm0EcN13icalendar_2_012DirParamTypeEED1Ev@Base 1.1.0
 _ZN3xsd3cxx4tree27element_factory_initializerILm0EcN13icalendar_2_012DirParamTypeEED2Ev@Base 1.1.0
 _ZN3xsd3cxx4tree27element_factory_initializerILm0EcN13icalendar_2_012KolabVersionEED1Ev@Base 1.1.0
 _ZN3xsd3cxx4tree27element_factory_initializerILm0EcN13icalendar_2_012KolabVersionEED2Ev@Base 1.1.0
 _ZN3xsd3cxx4tree27element_factory_initializerILm0EcN13icalendar_2_013ClassPropTypeEEC1EPKcS7_S7_S7_@Base 1.1.0
 _ZN3xsd3cxx4tree27element_factory_initializerILm0EcN13icalendar_2_013ClassPropTypeEEC2EPKcS7_S7_S7_@Base 1.1.0
 _ZN3xsd3cxx4tree27element_factory_initializerILm0EcN13icalendar_2_013ClassPropTypeEED1Ev@Base 1.1.0
 _ZN3xsd3cxx4tree27element_factory_initializerILm0EcN13icalendar_2_013ClassPropTypeEED2Ev@Base 1.1.0
 _ZN3xsd3cxx4tree27element_factory_initializerILm0EcN13icalendar_2_013DtendPropTypeEEC1EPKcS7_S7_S7_@Base 1.1.0
 _ZN3xsd3cxx4tree27element_factory_initializerILm0EcN13icalendar_2_013DtendPropTypeEEC2EPKcS7_S7_S7_@Base 1.1.0
 _ZN3xsd3cxx4tree27element_factory_initializerILm0EcN13icalendar_2_013DtendPropTypeEED1Ev@Base 1.1.0
 _ZN3xsd3cxx4tree27element_factory_initializerILm0EcN13icalendar_2_013DtendPropTypeEED2Ev@Base 1.1.0
 _ZN3xsd3cxx4tree27element_factory_initializerILm0EcN13icalendar_2_013RdatePropTypeEEC1EPKcS7_S7_S7_@Base 1.1.0
 _ZN3xsd3cxx4tree27element_factory_initializerILm0EcN13icalendar_2_013RdatePropTypeEEC2EPKcS7_S7_S7_@Base 1.1.0
 _ZN3xsd3cxx4tree27element_factory_initializerILm0EcN13icalendar_2_013RdatePropTypeEED1Ev@Base 1.1.0
 _ZN3xsd3cxx4tree27element_factory_initializerILm0EcN13icalendar_2_013RdatePropTypeEED2Ev@Base 1.1.0
 _ZN3xsd3cxx4tree27element_factory_initializerILm0EcN13icalendar_2_013RoleParamTypeEED1Ev@Base 1.1.0
 _ZN3xsd3cxx4tree27element_factory_initializerILm0EcN13icalendar_2_013RoleParamTypeEED2Ev@Base 1.1.0
 _ZN3xsd3cxx4tree27element_factory_initializerILm0EcN13icalendar_2_013RrulePropTypeEEC1EPKcS7_S7_S7_@Base 1.1.0
 _ZN3xsd3cxx4tree27element_factory_initializerILm0EcN13icalendar_2_013RrulePropTypeEEC2EPKcS7_S7_S7_@Base 1.1.0
 _ZN3xsd3cxx4tree27element_factory_initializerILm0EcN13icalendar_2_013RrulePropTypeEED1Ev@Base 1.1.0
 _ZN3xsd3cxx4tree27element_factory_initializerILm0EcN13icalendar_2_013RrulePropTypeEED2Ev@Base 1.1.0
 _ZN3xsd3cxx4tree27element_factory_initializerILm0EcN13icalendar_2_013RsvpParamTypeEED1Ev@Base 1.1.0
 _ZN3xsd3cxx4tree27element_factory_initializerILm0EcN13icalendar_2_013RsvpParamTypeEED2Ev@Base 1.1.0
 _ZN3xsd3cxx4tree27element_factory_initializerILm0EcN13icalendar_2_013TzidParamTypeEED1Ev@Base 1.1.0
 _ZN3xsd3cxx4tree27element_factory_initializerILm0EcN13icalendar_2_013TzidParamTypeEED2Ev@Base 1.1.0
 _ZN3xsd3cxx4tree27element_factory_initializerILm0EcN13icalendar_2_013TzurlPropTypeEEC1EPKcS7_S7_S7_@Base 1.1.0
 _ZN3xsd3cxx4tree27element_factory_initializerILm0EcN13icalendar_2_013TzurlPropTypeEEC2EPKcS7_S7_S7_@Base 1.1.0
 _ZN3xsd3cxx4tree27element_factory_initializerILm0EcN13icalendar_2_013TzurlPropTypeEED1Ev@Base 1.1.0
 _ZN3xsd3cxx4tree27element_factory_initializerILm0EcN13icalendar_2_013TzurlPropTypeEED2Ev@Base 1.1.0
 _ZN3xsd3cxx4tree27element_factory_initializerILm0EcN13icalendar_2_013XuidParamTypeEED1Ev@Base 1.1.0
 _ZN3xsd3cxx4tree27element_factory_initializerILm0EcN13icalendar_2_013XuidParamTypeEED2Ev@Base 1.1.0
 _ZN3xsd3cxx4tree27element_factory_initializerILm0EcN13icalendar_2_014ActionPropTypeEEC1EPKcS7_S7_S7_@Base 1.1.0
 _ZN3xsd3cxx4tree27element_factory_initializerILm0EcN13icalendar_2_014ActionPropTypeEEC2EPKcS7_S7_S7_@Base 1.1.0
 _ZN3xsd3cxx4tree27element_factory_initializerILm0EcN13icalendar_2_014ActionPropTypeEED1Ev@Base 1.1.0
 _ZN3xsd3cxx4tree27element_factory_initializerILm0EcN13icalendar_2_014ActionPropTypeEED2Ev@Base 1.1.0
 _ZN3xsd3cxx4tree27element_factory_initializerILm0EcN13icalendar_2_014AttachPropTypeEEC1EPKcS7_S7_S7_@Base 1.1.0
 _ZN3xsd3cxx4tree27element_factory_initializerILm0EcN13icalendar_2_014AttachPropTypeEEC2EPKcS7_S7_S7_@Base 1.1.0
 _ZN3xsd3cxx4tree27element_factory_initializerILm0EcN13icalendar_2_014AttachPropTypeEED1Ev@Base 1.1.0
 _ZN3xsd3cxx4tree27element_factory_initializerILm0EcN13icalendar_2_014AttachPropTypeEED2Ev@Base 1.1.0
 _ZN3xsd3cxx4tree27element_factory_initializerILm0EcN13icalendar_2_014ExdatePropTypeEEC1EPKcS7_S7_S7_@Base 1.1.0
 _ZN3xsd3cxx4tree27element_factory_initializerILm0EcN13icalendar_2_014ExdatePropTypeEEC2EPKcS7_S7_S7_@Base 1.1.0
 _ZN3xsd3cxx4tree27element_factory_initializerILm0EcN13icalendar_2_014ExdatePropTypeEED1Ev@Base 1.1.0
 _ZN3xsd3cxx4tree27element_factory_initializerILm0EcN13icalendar_2_014ExdatePropTypeEED2Ev@Base 1.1.0
 _ZN3xsd3cxx4tree27element_factory_initializerILm0EcN13icalendar_2_014ExrulePropTypeEEC1EPKcS7_S7_S7_@Base 1.1.0
 _ZN3xsd3cxx4tree27element_factory_initializerILm0EcN13icalendar_2_014ExrulePropTypeEEC2EPKcS7_S7_S7_@Base 1.1.0
 _ZN3xsd3cxx4tree27element_factory_initializerILm0EcN13icalendar_2_014ExrulePropTypeEED1Ev@Base 1.1.0
 _ZN3xsd3cxx4tree27element_factory_initializerILm0EcN13icalendar_2_014ExrulePropTypeEED2Ev@Base 1.1.0
 _ZN3xsd3cxx4tree27element_factory_initializerILm0EcN13icalendar_2_014MethodPropTypeEEC1EPKcS7_S7_S7_@Base 1.1.0
 _ZN3xsd3cxx4tree27element_factory_initializerILm0EcN13icalendar_2_014MethodPropTypeEEC2EPKcS7_S7_S7_@Base 1.1.0
 _ZN3xsd3cxx4tree27element_factory_initializerILm0EcN13icalendar_2_014MethodPropTypeEED1Ev@Base 1.1.0
 _ZN3xsd3cxx4tree27element_factory_initializerILm0EcN13icalendar_2_014MethodPropTypeEED2Ev@Base 1.1.0
 _ZN3xsd3cxx4tree27element_factory_initializerILm0EcN13icalendar_2_014ProdidPropTypeEEC1EPKcS7_S7_S7_@Base 1.1.0
 _ZN3xsd3cxx4tree27element_factory_initializerILm0EcN13icalendar_2_014ProdidPropTypeEEC2EPKcS7_S7_S7_@Base 1.1.0
 _ZN3xsd3cxx4tree27element_factory_initializerILm0EcN13icalendar_2_014ProdidPropTypeEED1Ev@Base 1.1.0
 _ZN3xsd3cxx4tree27element_factory_initializerILm0EcN13icalendar_2_014ProdidPropTypeEED2Ev@Base 1.1.0
 _ZN3xsd3cxx4tree27element_factory_initializerILm0EcN13icalendar_2_014RangeParamTypeEED1Ev@Base 1.1.0
 _ZN3xsd3cxx4tree27element_factory_initializerILm0EcN13icalendar_2_014RangeParamTypeEED2Ev@Base 1.1.0
 _ZN3xsd3cxx4tree27element_factory_initializerILm0EcN13icalendar_2_014RepeatPropTypeEEC1EPKcS7_S7_S7_@Base 1.1.0
 _ZN3xsd3cxx4tree27element_factory_initializerILm0EcN13icalendar_2_014RepeatPropTypeEEC2EPKcS7_S7_S7_@Base 1.1.0
 _ZN3xsd3cxx4tree27element_factory_initializerILm0EcN13icalendar_2_014RepeatPropTypeEED1Ev@Base 1.1.0
 _ZN3xsd3cxx4tree27element_factory_initializerILm0EcN13icalendar_2_014RepeatPropTypeEED2Ev@Base 1.1.0
 _ZN3xsd3cxx4tree27element_factory_initializerILm0EcN13icalendar_2_014StatusPropTypeEEC1EPKcS7_S7_S7_@Base 1.1.0
 _ZN3xsd3cxx4tree27element_factory_initializerILm0EcN13icalendar_2_014StatusPropTypeEEC2EPKcS7_S7_S7_@Base 1.1.0
 _ZN3xsd3cxx4tree27element_factory_initializerILm0EcN13icalendar_2_014StatusPropTypeEED1Ev@Base 1.1.0
 _ZN3xsd3cxx4tree27element_factory_initializerILm0EcN13icalendar_2_014StatusPropTypeEED2Ev@Base 1.1.0
 _ZN3xsd3cxx4tree27element_factory_initializerILm0EcN13icalendar_2_014TranspPropTypeEEC1EPKcS7_S7_S7_@Base 1.1.0
 _ZN3xsd3cxx4tree27element_factory_initializerILm0EcN13icalendar_2_014TranspPropTypeEEC2EPKcS7_S7_S7_@Base 1.1.0
 _ZN3xsd3cxx4tree27element_factory_initializerILm0EcN13icalendar_2_014TranspPropTypeEED1Ev@Base 1.1.0
 _ZN3xsd3cxx4tree27element_factory_initializerILm0EcN13icalendar_2_014TranspPropTypeEED2Ev@Base 1.1.0
 _ZN3xsd3cxx4tree27element_factory_initializerILm0EcN13icalendar_2_014TznamePropTypeEEC1EPKcS7_S7_S7_@Base 1.1.0
 _ZN3xsd3cxx4tree27element_factory_initializerILm0EcN13icalendar_2_014TznamePropTypeEEC2EPKcS7_S7_S7_@Base 1.1.0
 _ZN3xsd3cxx4tree27element_factory_initializerILm0EcN13icalendar_2_014TznamePropTypeEED1Ev@Base 1.1.0
 _ZN3xsd3cxx4tree27element_factory_initializerILm0EcN13icalendar_2_014TznamePropTypeEED2Ev@Base 1.1.0
 _ZN3xsd3cxx4tree27element_factory_initializerILm0EcN13icalendar_2_015AltrepParamTypeEED1Ev@Base 1.1.0
 _ZN3xsd3cxx4tree27element_factory_initializerILm0EcN13icalendar_2_015AltrepParamTypeEED2Ev@Base 1.1.0
 _ZN3xsd3cxx4tree27element_factory_initializerILm0EcN13icalendar_2_015CommentPropTypeEEC1EPKcS7_S7_S7_@Base 1.1.0
 _ZN3xsd3cxx4tree27element_factory_initializerILm0EcN13icalendar_2_015CommentPropTypeEEC2EPKcS7_S7_S7_@Base 1.1.0
 _ZN3xsd3cxx4tree27element_factory_initializerILm0EcN13icalendar_2_015CommentPropTypeEED1Ev@Base 1.1.0
 _ZN3xsd3cxx4tree27element_factory_initializerILm0EcN13icalendar_2_015CommentPropTypeEED2Ev@Base 1.1.0
 _ZN3xsd3cxx4tree27element_factory_initializerILm0EcN13icalendar_2_015ContactPropTypeEEC1EPKcS7_S7_S7_@Base 1.1.0
 _ZN3xsd3cxx4tree27element_factory_initializerILm0EcN13icalendar_2_015ContactPropTypeEEC2EPKcS7_S7_S7_@Base 1.1.0
 _ZN3xsd3cxx4tree27element_factory_initializerILm0EcN13icalendar_2_015ContactPropTypeEED1Ev@Base 1.1.0
 _ZN3xsd3cxx4tree27element_factory_initializerILm0EcN13icalendar_2_015ContactPropTypeEED2Ev@Base 1.1.0
 _ZN3xsd3cxx4tree27element_factory_initializerILm0EcN13icalendar_2_015CreatedPropTypeEEC1EPKcS7_S7_S7_@Base 1.1.0
 _ZN3xsd3cxx4tree27element_factory_initializerILm0EcN13icalendar_2_015CreatedPropTypeEEC2EPKcS7_S7_S7_@Base 1.1.0
 _ZN3xsd3cxx4tree27element_factory_initializerILm0EcN13icalendar_2_015CreatedPropTypeEED1Ev@Base 1.1.0
 _ZN3xsd3cxx4tree27element_factory_initializerILm0EcN13icalendar_2_015CreatedPropTypeEED2Ev@Base 1.1.0
 _ZN3xsd3cxx4tree27element_factory_initializerILm0EcN13icalendar_2_015CutypeParamTypeEED1Ev@Base 1.1.0
 _ZN3xsd3cxx4tree27element_factory_initializerILm0EcN13icalendar_2_015CutypeParamTypeEED2Ev@Base 1.1.0
 _ZN3xsd3cxx4tree27element_factory_initializerILm0EcN13icalendar_2_015DtstampPropTypeEEC1EPKcS7_S7_S7_@Base 1.1.0
 _ZN3xsd3cxx4tree27element_factory_initializerILm0EcN13icalendar_2_015DtstampPropTypeEEC2EPKcS7_S7_S7_@Base 1.1.0
 _ZN3xsd3cxx4tree27element_factory_initializerILm0EcN13icalendar_2_015DtstampPropTypeEED1Ev@Base 1.1.0
 _ZN3xsd3cxx4tree27element_factory_initializerILm0EcN13icalendar_2_015DtstampPropTypeEED2Ev@Base 1.1.0
 _ZN3xsd3cxx4tree27element_factory_initializerILm0EcN13icalendar_2_015DtstartPropTypeEEC1EPKcS7_S7_S7_@Base 1.1.0
 _ZN3xsd3cxx4tree27element_factory_initializerILm0EcN13icalendar_2_015DtstartPropTypeEEC2EPKcS7_S7_S7_@Base 1.1.0
 _ZN3xsd3cxx4tree27element_factory_initializerILm0EcN13icalendar_2_015DtstartPropTypeEED1Ev@Base 1.1.0
 _ZN3xsd3cxx4tree27element_factory_initializerILm0EcN13icalendar_2_015DtstartPropTypeEED2Ev@Base 1.1.0
 _ZN3xsd3cxx4tree27element_factory_initializerILm0EcN13icalendar_2_015FbtypeParamTypeEED1Ev@Base 1.1.0
 _ZN3xsd3cxx4tree27element_factory_initializerILm0EcN13icalendar_2_015FbtypeParamTypeEED2Ev@Base 1.1.0
 _ZN3xsd3cxx4tree27element_factory_initializerILm0EcN13icalendar_2_015MemberParamTypeEED1Ev@Base 1.1.0
 _ZN3xsd3cxx4tree27element_factory_initializerILm0EcN13icalendar_2_015MemberParamTypeEED2Ev@Base 1.1.0
 _ZN3xsd3cxx4tree27element_factory_initializerILm0EcN13icalendar_2_015SentByParamTypeEED1Ev@Base 1.1.0
 _ZN3xsd3cxx4tree27element_factory_initializerILm0EcN13icalendar_2_015SentByParamTypeEED2Ev@Base 1.1.0
 _ZN3xsd3cxx4tree27element_factory_initializerILm0EcN13icalendar_2_015SummaryPropTypeEEC1EPKcS7_S7_S7_@Base 1.1.0
 _ZN3xsd3cxx4tree27element_factory_initializerILm0EcN13icalendar_2_015SummaryPropTypeEEC2EPKcS7_S7_S7_@Base 1.1.0
 _ZN3xsd3cxx4tree27element_factory_initializerILm0EcN13icalendar_2_015SummaryPropTypeEED1Ev@Base 1.1.0
 _ZN3xsd3cxx4tree27element_factory_initializerILm0EcN13icalendar_2_015SummaryPropTypeEED2Ev@Base 1.1.0
 _ZN3xsd3cxx4tree27element_factory_initializerILm0EcN13icalendar_2_015TriggerPropTypeEEC1EPKcS7_S7_S7_@Base 1.1.0
 _ZN3xsd3cxx4tree27element_factory_initializerILm0EcN13icalendar_2_015TriggerPropTypeEEC2EPKcS7_S7_S7_@Base 1.1.0
 _ZN3xsd3cxx4tree27element_factory_initializerILm0EcN13icalendar_2_015TriggerPropTypeEED1Ev@Base 1.1.0
 _ZN3xsd3cxx4tree27element_factory_initializerILm0EcN13icalendar_2_015TriggerPropTypeEED2Ev@Base 1.1.0
 _ZN3xsd3cxx4tree27element_factory_initializerILm0EcN13icalendar_2_015VersionPropTypeEEC1EPKcS7_S7_S7_@Base 1.1.0
 _ZN3xsd3cxx4tree27element_factory_initializerILm0EcN13icalendar_2_015VersionPropTypeEEC2EPKcS7_S7_S7_@Base 1.1.0
 _ZN3xsd3cxx4tree27element_factory_initializerILm0EcN13icalendar_2_015VersionPropTypeEED1Ev@Base 1.1.0
 _ZN3xsd3cxx4tree27element_factory_initializerILm0EcN13icalendar_2_015VersionPropTypeEED2Ev@Base 1.1.0
 _ZN3xsd3cxx4tree27element_factory_initializerILm0EcN13icalendar_2_015XlabelParamTypeEED1Ev@Base 1.1.0
 _ZN3xsd3cxx4tree27element_factory_initializerILm0EcN13icalendar_2_015XlabelParamTypeEED2Ev@Base 1.1.0
 _ZN3xsd3cxx4tree27element_factory_initializerILm0EcN13icalendar_2_016AttendeePropTypeEEC1EPKcS7_S7_S7_@Base 1.1.0
 _ZN3xsd3cxx4tree27element_factory_initializerILm0EcN13icalendar_2_016AttendeePropTypeEEC2EPKcS7_S7_S7_@Base 1.1.0
 _ZN3xsd3cxx4tree27element_factory_initializerILm0EcN13icalendar_2_016AttendeePropTypeEED1Ev@Base 1.1.0
 _ZN3xsd3cxx4tree27element_factory_initializerILm0EcN13icalendar_2_016AttendeePropTypeEED2Ev@Base 1.1.0
 _ZN3xsd3cxx4tree27element_factory_initializerILm0EcN13icalendar_2_016CalscalePropTypeEEC1EPKcS7_S7_S7_@Base 1.1.0
 _ZN3xsd3cxx4tree27element_factory_initializerILm0EcN13icalendar_2_016CalscalePropTypeEEC2EPKcS7_S7_S7_@Base 1.1.0
 _ZN3xsd3cxx4tree27element_factory_initializerILm0EcN13icalendar_2_016CalscalePropTypeEED1Ev@Base 1.1.0
 _ZN3xsd3cxx4tree27element_factory_initializerILm0EcN13icalendar_2_016CalscalePropTypeEED2Ev@Base 1.1.0
 _ZN3xsd3cxx4tree27element_factory_initializerILm0EcN13icalendar_2_016DurationPropTypeEEC1EPKcS7_S7_S7_@Base 1.1.0
 _ZN3xsd3cxx4tree27element_factory_initializerILm0EcN13icalendar_2_016DurationPropTypeEEC2EPKcS7_S7_S7_@Base 1.1.0
 _ZN3xsd3cxx4tree27element_factory_initializerILm0EcN13icalendar_2_016DurationPropTypeEED1Ev@Base 1.1.0
 _ZN3xsd3cxx4tree27element_factory_initializerILm0EcN13icalendar_2_016DurationPropTypeEED2Ev@Base 1.1.0
 _ZN3xsd3cxx4tree27element_factory_initializerILm0EcN13icalendar_2_016FmttypeParamTypeEED1Ev@Base 1.1.0
 _ZN3xsd3cxx4tree27element_factory_initializerILm0EcN13icalendar_2_016FmttypeParamTypeEED2Ev@Base 1.1.0
 _ZN3xsd3cxx4tree27element_factory_initializerILm0EcN13icalendar_2_016FreebusyPropTypeEEC1EPKcS7_S7_S7_@Base 1.1.0
 _ZN3xsd3cxx4tree27element_factory_initializerILm0EcN13icalendar_2_016FreebusyPropTypeEEC2EPKcS7_S7_S7_@Base 1.1.0
 _ZN3xsd3cxx4tree27element_factory_initializerILm0EcN13icalendar_2_016FreebusyPropTypeEED1Ev@Base 1.1.0
 _ZN3xsd3cxx4tree27element_factory_initializerILm0EcN13icalendar_2_016FreebusyPropTypeEED2Ev@Base 1.1.0
 _ZN3xsd3cxx4tree27element_factory_initializerILm0EcN13icalendar_2_016LocationPropTypeEEC1EPKcS7_S7_S7_@Base 1.1.0
 _ZN3xsd3cxx4tree27element_factory_initializerILm0EcN13icalendar_2_016LocationPropTypeEEC2EPKcS7_S7_S7_@Base 1.1.0
 _ZN3xsd3cxx4tree27element_factory_initializerILm0EcN13icalendar_2_016LocationPropTypeEED1Ev@Base 1.1.0
 _ZN3xsd3cxx4tree27element_factory_initializerILm0EcN13icalendar_2_016LocationPropTypeEED2Ev@Base 1.1.0
 _ZN3xsd3cxx4tree27element_factory_initializerILm0EcN13icalendar_2_016PriorityPropTypeEEC1EPKcS7_S7_S7_@Base 1.1.0
 _ZN3xsd3cxx4tree27element_factory_initializerILm0EcN13icalendar_2_016PriorityPropTypeEEC2EPKcS7_S7_S7_@Base 1.1.0
 _ZN3xsd3cxx4tree27element_factory_initializerILm0EcN13icalendar_2_016PriorityPropTypeEED1Ev@Base 1.1.0
 _ZN3xsd3cxx4tree27element_factory_initializerILm0EcN13icalendar_2_016PriorityPropTypeEED2Ev@Base 1.1.0
 _ZN3xsd3cxx4tree27element_factory_initializerILm0EcN13icalendar_2_016RelatedParamTypeEED1Ev@Base 1.1.0
 _ZN3xsd3cxx4tree27element_factory_initializerILm0EcN13icalendar_2_016RelatedParamTypeEED2Ev@Base 1.1.0
 _ZN3xsd3cxx4tree27element_factory_initializerILm0EcN13icalendar_2_016ReltypeParamTypeEED1Ev@Base 1.1.0
 _ZN3xsd3cxx4tree27element_factory_initializerILm0EcN13icalendar_2_016ReltypeParamTypeEED2Ev@Base 1.1.0
 _ZN3xsd3cxx4tree27element_factory_initializerILm0EcN13icalendar_2_016SequencePropTypeEEC1EPKcS7_S7_S7_@Base 1.1.0
 _ZN3xsd3cxx4tree27element_factory_initializerILm0EcN13icalendar_2_016SequencePropTypeEEC2EPKcS7_S7_S7_@Base 1.1.0
 _ZN3xsd3cxx4tree27element_factory_initializerILm0EcN13icalendar_2_016SequencePropTypeEED1Ev@Base 1.1.0
 _ZN3xsd3cxx4tree27element_factory_initializerILm0EcN13icalendar_2_016SequencePropTypeEED2Ev@Base 1.1.0
 _ZN3xsd3cxx4tree27element_factory_initializerILm0EcN13icalendar_2_017CompletedPropTypeEEC1EPKcS7_S7_S7_@Base 1.1.0
 _ZN3xsd3cxx4tree27element_factory_initializerILm0EcN13icalendar_2_017CompletedPropTypeEEC2EPKcS7_S7_S7_@Base 1.1.0
 _ZN3xsd3cxx4tree27element_factory_initializerILm0EcN13icalendar_2_017CompletedPropTypeEED1Ev@Base 1.1.0
 _ZN3xsd3cxx4tree27element_factory_initializerILm0EcN13icalendar_2_017CompletedPropTypeEED2Ev@Base 1.1.0
 _ZN3xsd3cxx4tree27element_factory_initializerILm0EcN13icalendar_2_017EncodingParamTypeEED1Ev@Base 1.1.0
 _ZN3xsd3cxx4tree27element_factory_initializerILm0EcN13icalendar_2_017EncodingParamTypeEED2Ev@Base 1.1.0
 _ZN3xsd3cxx4tree27element_factory_initializerILm0EcN13icalendar_2_017LanguageParamTypeEED1Ev@Base 1.1.0
 _ZN3xsd3cxx4tree27element_factory_initializerILm0EcN13icalendar_2_017LanguageParamTypeEED2Ev@Base 1.1.0
 _ZN3xsd3cxx4tree27element_factory_initializerILm0EcN13icalendar_2_017OrganizerPropTypeEEC1EPKcS7_S7_S7_@Base 1.1.0
 _ZN3xsd3cxx4tree27element_factory_initializerILm0EcN13icalendar_2_017OrganizerPropTypeEEC2EPKcS7_S7_S7_@Base 1.1.0
 _ZN3xsd3cxx4tree27element_factory_initializerILm0EcN13icalendar_2_017OrganizerPropTypeEED1Ev@Base 1.1.0
 _ZN3xsd3cxx4tree27element_factory_initializerILm0EcN13icalendar_2_017OrganizerPropTypeEED2Ev@Base 1.1.0
 _ZN3xsd3cxx4tree27element_factory_initializerILm0EcN13icalendar_2_017PartstatParamTypeEED1Ev@Base 1.1.0
 _ZN3xsd3cxx4tree27element_factory_initializerILm0EcN13icalendar_2_017PartstatParamTypeEED2Ev@Base 1.1.0
 _ZN3xsd3cxx4tree27element_factory_initializerILm0EcN13icalendar_2_017RelatedToPropTypeEEC1EPKcS7_S7_S7_@Base 1.1.0
 _ZN3xsd3cxx4tree27element_factory_initializerILm0EcN13icalendar_2_017RelatedToPropTypeEEC2EPKcS7_S7_S7_@Base 1.1.0
 _ZN3xsd3cxx4tree27element_factory_initializerILm0EcN13icalendar_2_017RelatedToPropTypeEED1Ev@Base 1.1.0
 _ZN3xsd3cxx4tree27element_factory_initializerILm0EcN13icalendar_2_017RelatedToPropTypeEED2Ev@Base 1.1.0
 _ZN3xsd3cxx4tree27element_factory_initializerILm0EcN13icalendar_2_017ResourcesPropTypeEEC1EPKcS7_S7_S7_@Base 1.1.0
 _ZN3xsd3cxx4tree27element_factory_initializerILm0EcN13icalendar_2_017ResourcesPropTypeEEC2EPKcS7_S7_S7_@Base 1.1.0
 _ZN3xsd3cxx4tree27element_factory_initializerILm0EcN13icalendar_2_017ResourcesPropTypeEED1Ev@Base 1.1.0
 _ZN3xsd3cxx4tree27element_factory_initializerILm0EcN13icalendar_2_017ResourcesPropTypeEED2Ev@Base 1.1.0
 _ZN3xsd3cxx4tree27element_factory_initializerILm0EcN13icalendar_2_018CategoriesPropTypeEEC1EPKcS7_S7_S7_@Base 1.1.0
 _ZN3xsd3cxx4tree27element_factory_initializerILm0EcN13icalendar_2_018CategoriesPropTypeEEC2EPKcS7_S7_S7_@Base 1.1.0
 _ZN3xsd3cxx4tree27element_factory_initializerILm0EcN13icalendar_2_018CategoriesPropTypeEED1Ev@Base 1.1.0
 _ZN3xsd3cxx4tree27element_factory_initializerILm0EcN13icalendar_2_018CategoriesPropTypeEED2Ev@Base 1.1.0
 _ZN3xsd3cxx4tree27element_factory_initializerILm0EcN13icalendar_2_018TzoffsettoPropTypeEEC1EPKcS7_S7_S7_@Base 1.1.0
 _ZN3xsd3cxx4tree27element_factory_initializerILm0EcN13icalendar_2_018TzoffsettoPropTypeEEC2EPKcS7_S7_S7_@Base 1.1.0
 _ZN3xsd3cxx4tree27element_factory_initializerILm0EcN13icalendar_2_018TzoffsettoPropTypeEED1Ev@Base 1.1.0
 _ZN3xsd3cxx4tree27element_factory_initializerILm0EcN13icalendar_2_018TzoffsettoPropTypeEED2Ev@Base 1.1.0
 _ZN3xsd3cxx4tree27element_factory_initializerILm0EcN13icalendar_2_019DescriptionPropTypeEEC1EPKcS7_S7_S7_@Base 1.1.0
 _ZN3xsd3cxx4tree27element_factory_initializerILm0EcN13icalendar_2_019DescriptionPropTypeEEC2EPKcS7_S7_S7_@Base 1.1.0
 _ZN3xsd3cxx4tree27element_factory_initializerILm0EcN13icalendar_2_019DescriptionPropTypeEED1Ev@Base 1.1.0
 _ZN3xsd3cxx4tree27element_factory_initializerILm0EcN13icalendar_2_019DescriptionPropTypeEED2Ev@Base 1.1.0
 _ZN3xsd3cxx4tree27element_factory_initializerILm0EcN13icalendar_2_020DelegatedToParamTypeEED1Ev@Base 1.1.0
 _ZN3xsd3cxx4tree27element_factory_initializerILm0EcN13icalendar_2_020DelegatedToParamTypeEED2Ev@Base 1.1.0
 _ZN3xsd3cxx4tree27element_factory_initializerILm0EcN13icalendar_2_020LastModifiedPropTypeEEC1EPKcS7_S7_S7_@Base 1.1.0
 _ZN3xsd3cxx4tree27element_factory_initializerILm0EcN13icalendar_2_020LastModifiedPropTypeEEC2EPKcS7_S7_S7_@Base 1.1.0
 _ZN3xsd3cxx4tree27element_factory_initializerILm0EcN13icalendar_2_020LastModifiedPropTypeEED1Ev@Base 1.1.0
 _ZN3xsd3cxx4tree27element_factory_initializerILm0EcN13icalendar_2_020LastModifiedPropTypeEED2Ev@Base 1.1.0
 _ZN3xsd3cxx4tree27element_factory_initializerILm0EcN13icalendar_2_020RecurrenceIdPropTypeEEC1EPKcS7_S7_S7_@Base 1.1.0
 _ZN3xsd3cxx4tree27element_factory_initializerILm0EcN13icalendar_2_020RecurrenceIdPropTypeEEC2EPKcS7_S7_S7_@Base 1.1.0
 _ZN3xsd3cxx4tree27element_factory_initializerILm0EcN13icalendar_2_020RecurrenceIdPropTypeEED1Ev@Base 1.1.0
 _ZN3xsd3cxx4tree27element_factory_initializerILm0EcN13icalendar_2_020RecurrenceIdPropTypeEED2Ev@Base 1.1.0
 _ZN3xsd3cxx4tree27element_factory_initializerILm0EcN13icalendar_2_020TzoffsetfromPropTypeEEC1EPKcS7_S7_S7_@Base 1.1.0
 _ZN3xsd3cxx4tree27element_factory_initializerILm0EcN13icalendar_2_020TzoffsetfromPropTypeEEC2EPKcS7_S7_S7_@Base 1.1.0
 _ZN3xsd3cxx4tree27element_factory_initializerILm0EcN13icalendar_2_020TzoffsetfromPropTypeEED1Ev@Base 1.1.0
 _ZN3xsd3cxx4tree27element_factory_initializerILm0EcN13icalendar_2_020TzoffsetfromPropTypeEED2Ev@Base 1.1.0
 _ZN3xsd3cxx4tree27element_factory_initializerILm0EcN13icalendar_2_021RequestStatusPropTypeEEC1EPKcS7_S7_S7_@Base 1.1.0
 _ZN3xsd3cxx4tree27element_factory_initializerILm0EcN13icalendar_2_021RequestStatusPropTypeEEC2EPKcS7_S7_S7_@Base 1.1.0
 _ZN3xsd3cxx4tree27element_factory_initializerILm0EcN13icalendar_2_021RequestStatusPropTypeEED1Ev@Base 1.1.0
 _ZN3xsd3cxx4tree27element_factory_initializerILm0EcN13icalendar_2_021RequestStatusPropTypeEED2Ev@Base 1.1.0
 _ZN3xsd3cxx4tree27element_factory_initializerILm0EcN13icalendar_2_022DelegatedFromParamTypeEED1Ev@Base 1.1.0
 _ZN3xsd3cxx4tree27element_factory_initializerILm0EcN13icalendar_2_022DelegatedFromParamTypeEED2Ev@Base 1.1.0
 _ZN3xsd3cxx4tree27element_factory_initializerILm0EcN13icalendar_2_022ScheduleAgentParamTypeEED1Ev@Base 1.1.0
 _ZN3xsd3cxx4tree27element_factory_initializerILm0EcN13icalendar_2_022ScheduleAgentParamTypeEED2Ev@Base 1.1.0
 _ZN3xsd3cxx4tree27element_factory_initializerILm0EcN13icalendar_2_023PercentCompletePropTypeEEC1EPKcS7_S7_S7_@Base 1.1.0
 _ZN3xsd3cxx4tree27element_factory_initializerILm0EcN13icalendar_2_023PercentCompletePropTypeEEC2EPKcS7_S7_S7_@Base 1.1.0
 _ZN3xsd3cxx4tree27element_factory_initializerILm0EcN13icalendar_2_023PercentCompletePropTypeEED1Ev@Base 1.1.0
 _ZN3xsd3cxx4tree27element_factory_initializerILm0EcN13icalendar_2_023PercentCompletePropTypeEED2Ev@Base 1.1.0
 _ZN3xsd3cxx4tree27element_factory_initializerILm0EcN13icalendar_2_023ScheduleStatusParamTypeEED1Ev@Base 1.1.0
 _ZN3xsd3cxx4tree27element_factory_initializerILm0EcN13icalendar_2_023ScheduleStatusParamTypeEED2Ev@Base 1.1.0
 _ZN3xsd3cxx4tree27element_factory_initializerILm0EcN13icalendar_2_026ScheduleForceSendParamTypeEED1Ev@Base 1.1.0
 _ZN3xsd3cxx4tree27element_factory_initializerILm0EcN13icalendar_2_026ScheduleForceSendParamTypeEED2Ev@Base 1.1.0
 _ZN3xsd3cxx4tree27element_factory_initializerILm0EcN13icalendar_2_08XFBeventEED1Ev@Base 1.1.0
 _ZN3xsd3cxx4tree27element_factory_initializerILm0EcN13icalendar_2_08XFBeventEED2Ev@Base 1.1.0
 _ZN3xsd3cxx4tree27element_factory_initializerILm0EcN9vcard_4_010CryptoTypeEED1Ev@Base 1.1.0
 _ZN3xsd3cxx4tree27element_factory_initializerILm0EcN9vcard_4_010CryptoTypeEED2Ev@Base 1.1.0
 _ZN3xsd3cxx4tree27element_factory_initializerILm0EcN9vcard_4_010CustomTypeEED1Ev@Base 1.1.0
 _ZN3xsd3cxx4tree27element_factory_initializerILm0EcN9vcard_4_010CustomTypeEED2Ev@Base 1.1.0
 _ZN3xsd3cxx4tree27element_factory_initializerILm0EcN9vcard_4_010fnPropTypeEED1Ev@Base 1.1.0
 _ZN3xsd3cxx4tree27element_factory_initializerILm0EcN9vcard_4_010fnPropTypeEED2Ev@Base 1.1.0
 _ZN3xsd3cxx4tree27element_factory_initializerILm0EcN9vcard_4_012KolabVersionEED1Ev@Base 1.1.0
 _ZN3xsd3cxx4tree27element_factory_initializerILm0EcN9vcard_4_012KolabVersionEED2Ev@Base 1.1.0
 _ZN3xsd3cxx4tree27element_factory_initializerILm0EcN9vcard_4_012bdayPropTypeEED1Ev@Base 1.1.0
 _ZN3xsd3cxx4tree27element_factory_initializerILm0EcN9vcard_4_012bdayPropTypeEED2Ev@Base 1.1.0
 _ZN3xsd3cxx4tree27element_factory_initializerILm0EcN9vcard_4_013prefParamTypeEED1Ev@Base 1.1.0
 _ZN3xsd3cxx4tree27element_factory_initializerILm0EcN9vcard_4_013prefParamTypeEED2Ev@Base 1.1.0
 _ZN3xsd3cxx4tree27element_factory_initializerILm0EcN9vcard_4_013typeParamTypeEED1Ev@Base 1.1.0
 _ZN3xsd3cxx4tree27element_factory_initializerILm0EcN9vcard_4_013typeParamTypeEED2Ev@Base 1.1.0
 _ZN3xsd3cxx4tree27element_factory_initializerILm0EcN9vcard_4_013xuidParamTypeEED1Ev@Base 1.1.0
 _ZN3xsd3cxx4tree27element_factory_initializerILm0EcN9vcard_4_013xuidParamTypeEED2Ev@Base 1.1.0
 _ZN3xsd3cxx4tree27element_factory_initializerILm0EcN9vcard_4_014labelParamTypeEED1Ev@Base 1.1.0
 _ZN3xsd3cxx4tree27element_factory_initializerILm0EcN9vcard_4_014labelParamTypeEED2Ev@Base 1.1.0
 _ZN3xsd3cxx4tree27element_factory_initializerILm0EcN9vcard_4_09nPropTypeEED1Ev@Base 1.1.0
 _ZN3xsd3cxx4tree27element_factory_initializerILm0EcN9vcard_4_09nPropTypeEED2Ev@Base 1.1.0
 _ZN3xsd3cxx4tree27type_serializer_initializerILm0EcN13icalendar_2_010CustomTypeEED1Ev@Base 1.1.0
 _ZN3xsd3cxx4tree27type_serializer_initializerILm0EcN13icalendar_2_010CustomTypeEED2Ev@Base 1.1.0
 _ZN3xsd3cxx4tree27type_serializer_initializerILm0EcN13icalendar_2_011CnParamTypeEED1Ev@Base 1.1.0
 _ZN3xsd3cxx4tree27type_serializer_initializerILm0EcN13icalendar_2_011CnParamTypeEED2Ev@Base 1.1.0
 _ZN3xsd3cxx4tree27type_serializer_initializerILm0EcN13icalendar_2_011ContactTypeEED1Ev@Base 1.1.0
 _ZN3xsd3cxx4tree27type_serializer_initializerILm0EcN13icalendar_2_011ContactTypeEED2Ev@Base 1.1.0
 _ZN3xsd3cxx4tree27type_serializer_initializerILm0EcN13icalendar_2_011DuePropTypeEED1Ev@Base 1.1.0
 _ZN3xsd3cxx4tree27type_serializer_initializerILm0EcN13icalendar_2_011DuePropTypeEED2Ev@Base 1.1.0
 _ZN3xsd3cxx4tree27type_serializer_initializerILm0EcN13icalendar_2_011GeoPropTypeEED1Ev@Base 1.1.0
 _ZN3xsd3cxx4tree27type_serializer_initializerILm0EcN13icalendar_2_011GeoPropTypeEED2Ev@Base 1.1.0
 _ZN3xsd3cxx4tree27type_serializer_initializerILm0EcN13icalendar_2_011UidPropTypeEED1Ev@Base 1.1.0
 _ZN3xsd3cxx4tree27type_serializer_initializerILm0EcN13icalendar_2_011UidPropTypeEED2Ev@Base 1.1.0
 _ZN3xsd3cxx4tree27type_serializer_initializerILm0EcN13icalendar_2_011UrlPropTypeEED1Ev@Base 1.1.0
 _ZN3xsd3cxx4tree27type_serializer_initializerILm0EcN13icalendar_2_011UrlPropTypeEED2Ev@Base 1.1.0
 _ZN3xsd3cxx4tree27type_serializer_initializerILm0EcN13icalendar_2_012DirParamTypeEED1Ev@Base 1.1.0
 _ZN3xsd3cxx4tree27type_serializer_initializerILm0EcN13icalendar_2_012DirParamTypeEED2Ev@Base 1.1.0
 _ZN3xsd3cxx4tree27type_serializer_initializerILm0EcN13icalendar_2_012KolabVersionEED1Ev@Base 1.1.0
 _ZN3xsd3cxx4tree27type_serializer_initializerILm0EcN13icalendar_2_012KolabVersionEED2Ev@Base 1.1.0
 _ZN3xsd3cxx4tree27type_serializer_initializerILm0EcN13icalendar_2_012TzidPropTypeEED1Ev@Base 1.1.0
 _ZN3xsd3cxx4tree27type_serializer_initializerILm0EcN13icalendar_2_012TzidPropTypeEED2Ev@Base 1.1.0
 _ZN3xsd3cxx4tree27type_serializer_initializerILm0EcN13icalendar_2_013ClassPropTypeEED1Ev@Base 1.1.0
 _ZN3xsd3cxx4tree27type_serializer_initializerILm0EcN13icalendar_2_013ClassPropTypeEED2Ev@Base 1.1.0
 _ZN3xsd3cxx4tree27type_serializer_initializerILm0EcN13icalendar_2_013DtendPropTypeEED1Ev@Base 1.1.0
 _ZN3xsd3cxx4tree27type_serializer_initializerILm0EcN13icalendar_2_013DtendPropTypeEED2Ev@Base 1.1.0
 _ZN3xsd3cxx4tree27type_serializer_initializerILm0EcN13icalendar_2_013RdatePropTypeEED1Ev@Base 1.1.0
 _ZN3xsd3cxx4tree27type_serializer_initializerILm0EcN13icalendar_2_013RdatePropTypeEED2Ev@Base 1.1.0
 _ZN3xsd3cxx4tree27type_serializer_initializerILm0EcN13icalendar_2_013RoleParamTypeEED1Ev@Base 1.1.0
 _ZN3xsd3cxx4tree27type_serializer_initializerILm0EcN13icalendar_2_013RoleParamTypeEED2Ev@Base 1.1.0
 _ZN3xsd3cxx4tree27type_serializer_initializerILm0EcN13icalendar_2_013RrulePropTypeEED1Ev@Base 1.1.0
 _ZN3xsd3cxx4tree27type_serializer_initializerILm0EcN13icalendar_2_013RrulePropTypeEED2Ev@Base 1.1.0
 _ZN3xsd3cxx4tree27type_serializer_initializerILm0EcN13icalendar_2_013RsvpParamTypeEED1Ev@Base 1.1.0
 _ZN3xsd3cxx4tree27type_serializer_initializerILm0EcN13icalendar_2_013RsvpParamTypeEED2Ev@Base 1.1.0
 _ZN3xsd3cxx4tree27type_serializer_initializerILm0EcN13icalendar_2_013TzidParamTypeEED1Ev@Base 1.1.0
 _ZN3xsd3cxx4tree27type_serializer_initializerILm0EcN13icalendar_2_013TzidParamTypeEED2Ev@Base 1.1.0
 _ZN3xsd3cxx4tree27type_serializer_initializerILm0EcN13icalendar_2_013TzurlPropTypeEED1Ev@Base 1.1.0
 _ZN3xsd3cxx4tree27type_serializer_initializerILm0EcN13icalendar_2_013TzurlPropTypeEED2Ev@Base 1.1.0
 _ZN3xsd3cxx4tree27type_serializer_initializerILm0EcN13icalendar_2_013XuidParamTypeEED1Ev@Base 1.1.0
 _ZN3xsd3cxx4tree27type_serializer_initializerILm0EcN13icalendar_2_013XuidParamTypeEED2Ev@Base 1.1.0
 _ZN3xsd3cxx4tree27type_serializer_initializerILm0EcN13icalendar_2_014ActionPropTypeEED1Ev@Base 1.1.0
 _ZN3xsd3cxx4tree27type_serializer_initializerILm0EcN13icalendar_2_014ActionPropTypeEED2Ev@Base 1.1.0
 _ZN3xsd3cxx4tree27type_serializer_initializerILm0EcN13icalendar_2_014AttachPropTypeEED1Ev@Base 1.1.0
 _ZN3xsd3cxx4tree27type_serializer_initializerILm0EcN13icalendar_2_014AttachPropTypeEED2Ev@Base 1.1.0
 _ZN3xsd3cxx4tree27type_serializer_initializerILm0EcN13icalendar_2_014ExdatePropTypeEED1Ev@Base 1.1.0
 _ZN3xsd3cxx4tree27type_serializer_initializerILm0EcN13icalendar_2_014ExdatePropTypeEED2Ev@Base 1.1.0
 _ZN3xsd3cxx4tree27type_serializer_initializerILm0EcN13icalendar_2_014ExrulePropTypeEED1Ev@Base 1.1.0
 _ZN3xsd3cxx4tree27type_serializer_initializerILm0EcN13icalendar_2_014ExrulePropTypeEED2Ev@Base 1.1.0
 _ZN3xsd3cxx4tree27type_serializer_initializerILm0EcN13icalendar_2_014MethodPropTypeEED1Ev@Base 1.1.0
 _ZN3xsd3cxx4tree27type_serializer_initializerILm0EcN13icalendar_2_014MethodPropTypeEED2Ev@Base 1.1.0
 _ZN3xsd3cxx4tree27type_serializer_initializerILm0EcN13icalendar_2_014ProdidPropTypeEED1Ev@Base 1.1.0
 _ZN3xsd3cxx4tree27type_serializer_initializerILm0EcN13icalendar_2_014ProdidPropTypeEED2Ev@Base 1.1.0
 _ZN3xsd3cxx4tree27type_serializer_initializerILm0EcN13icalendar_2_014RangeParamTypeEED1Ev@Base 1.1.0
 _ZN3xsd3cxx4tree27type_serializer_initializerILm0EcN13icalendar_2_014RangeParamTypeEED2Ev@Base 1.1.0
 _ZN3xsd3cxx4tree27type_serializer_initializerILm0EcN13icalendar_2_014RepeatPropTypeEED1Ev@Base 1.1.0
 _ZN3xsd3cxx4tree27type_serializer_initializerILm0EcN13icalendar_2_014RepeatPropTypeEED2Ev@Base 1.1.0
 _ZN3xsd3cxx4tree27type_serializer_initializerILm0EcN13icalendar_2_014StatusPropTypeEED1Ev@Base 1.1.0
 _ZN3xsd3cxx4tree27type_serializer_initializerILm0EcN13icalendar_2_014StatusPropTypeEED2Ev@Base 1.1.0
 _ZN3xsd3cxx4tree27type_serializer_initializerILm0EcN13icalendar_2_014TranspPropTypeEED1Ev@Base 1.1.0
 _ZN3xsd3cxx4tree27type_serializer_initializerILm0EcN13icalendar_2_014TranspPropTypeEED2Ev@Base 1.1.0
 _ZN3xsd3cxx4tree27type_serializer_initializerILm0EcN13icalendar_2_014TznamePropTypeEED1Ev@Base 1.1.0
 _ZN3xsd3cxx4tree27type_serializer_initializerILm0EcN13icalendar_2_014TznamePropTypeEED2Ev@Base 1.1.0
 _ZN3xsd3cxx4tree27type_serializer_initializerILm0EcN13icalendar_2_015AltrepParamTypeEED1Ev@Base 1.1.0
 _ZN3xsd3cxx4tree27type_serializer_initializerILm0EcN13icalendar_2_015AltrepParamTypeEED2Ev@Base 1.1.0
 _ZN3xsd3cxx4tree27type_serializer_initializerILm0EcN13icalendar_2_015CommentPropTypeEED1Ev@Base 1.1.0
 _ZN3xsd3cxx4tree27type_serializer_initializerILm0EcN13icalendar_2_015CommentPropTypeEED2Ev@Base 1.1.0
 _ZN3xsd3cxx4tree27type_serializer_initializerILm0EcN13icalendar_2_015ContactPropTypeEED1Ev@Base 1.1.0
 _ZN3xsd3cxx4tree27type_serializer_initializerILm0EcN13icalendar_2_015ContactPropTypeEED2Ev@Base 1.1.0
 _ZN3xsd3cxx4tree27type_serializer_initializerILm0EcN13icalendar_2_015CreatedPropTypeEED1Ev@Base 1.1.0
 _ZN3xsd3cxx4tree27type_serializer_initializerILm0EcN13icalendar_2_015CreatedPropTypeEED2Ev@Base 1.1.0
 _ZN3xsd3cxx4tree27type_serializer_initializerILm0EcN13icalendar_2_015CutypeParamTypeEED1Ev@Base 1.1.0
 _ZN3xsd3cxx4tree27type_serializer_initializerILm0EcN13icalendar_2_015CutypeParamTypeEED2Ev@Base 1.1.0
 _ZN3xsd3cxx4tree27type_serializer_initializerILm0EcN13icalendar_2_015DtstampPropTypeEED1Ev@Base 1.1.0
 _ZN3xsd3cxx4tree27type_serializer_initializerILm0EcN13icalendar_2_015DtstampPropTypeEED2Ev@Base 1.1.0
 _ZN3xsd3cxx4tree27type_serializer_initializerILm0EcN13icalendar_2_015DtstartPropTypeEED1Ev@Base 1.1.0
 _ZN3xsd3cxx4tree27type_serializer_initializerILm0EcN13icalendar_2_015DtstartPropTypeEED2Ev@Base 1.1.0
 _ZN3xsd3cxx4tree27type_serializer_initializerILm0EcN13icalendar_2_015FbtypeParamTypeEED1Ev@Base 1.1.0
 _ZN3xsd3cxx4tree27type_serializer_initializerILm0EcN13icalendar_2_015FbtypeParamTypeEED2Ev@Base 1.1.0
 _ZN3xsd3cxx4tree27type_serializer_initializerILm0EcN13icalendar_2_015MemberParamTypeEED1Ev@Base 1.1.0
 _ZN3xsd3cxx4tree27type_serializer_initializerILm0EcN13icalendar_2_015MemberParamTypeEED2Ev@Base 1.1.0
 _ZN3xsd3cxx4tree27type_serializer_initializerILm0EcN13icalendar_2_015SentByParamTypeEED1Ev@Base 1.1.0
 _ZN3xsd3cxx4tree27type_serializer_initializerILm0EcN13icalendar_2_015SentByParamTypeEED2Ev@Base 1.1.0
 _ZN3xsd3cxx4tree27type_serializer_initializerILm0EcN13icalendar_2_015SummaryPropTypeEED1Ev@Base 1.1.0
 _ZN3xsd3cxx4tree27type_serializer_initializerILm0EcN13icalendar_2_015SummaryPropTypeEED2Ev@Base 1.1.0
 _ZN3xsd3cxx4tree27type_serializer_initializerILm0EcN13icalendar_2_015TriggerPropTypeEED1Ev@Base 1.1.0
 _ZN3xsd3cxx4tree27type_serializer_initializerILm0EcN13icalendar_2_015TriggerPropTypeEED2Ev@Base 1.1.0
 _ZN3xsd3cxx4tree27type_serializer_initializerILm0EcN13icalendar_2_015UriPropertyTypeEED1Ev@Base 1.1.0
 _ZN3xsd3cxx4tree27type_serializer_initializerILm0EcN13icalendar_2_015UriPropertyTypeEED2Ev@Base 1.1.0
 _ZN3xsd3cxx4tree27type_serializer_initializerILm0EcN13icalendar_2_015VersionPropTypeEED1Ev@Base 1.1.0
 _ZN3xsd3cxx4tree27type_serializer_initializerILm0EcN13icalendar_2_015VersionPropTypeEED2Ev@Base 1.1.0
 _ZN3xsd3cxx4tree27type_serializer_initializerILm0EcN13icalendar_2_015XlabelParamTypeEED1Ev@Base 1.1.0
 _ZN3xsd3cxx4tree27type_serializer_initializerILm0EcN13icalendar_2_015XlabelParamTypeEED2Ev@Base 1.1.0
 _ZN3xsd3cxx4tree27type_serializer_initializerILm0EcN13icalendar_2_016AttendeePropTypeEED1Ev@Base 1.1.0
 _ZN3xsd3cxx4tree27type_serializer_initializerILm0EcN13icalendar_2_016AttendeePropTypeEED2Ev@Base 1.1.0
 _ZN3xsd3cxx4tree27type_serializer_initializerILm0EcN13icalendar_2_016BasePropertyTypeEED1Ev@Base 1.1.0
 _ZN3xsd3cxx4tree27type_serializer_initializerILm0EcN13icalendar_2_016BasePropertyTypeEED2Ev@Base 1.1.0
 _ZN3xsd3cxx4tree27type_serializer_initializerILm0EcN13icalendar_2_016CalscalePropTypeEED1Ev@Base 1.1.0
 _ZN3xsd3cxx4tree27type_serializer_initializerILm0EcN13icalendar_2_016CalscalePropTypeEED2Ev@Base 1.1.0
 _ZN3xsd3cxx4tree27type_serializer_initializerILm0EcN13icalendar_2_016DurationPropTypeEED1Ev@Base 1.1.0
 _ZN3xsd3cxx4tree27type_serializer_initializerILm0EcN13icalendar_2_016DurationPropTypeEED2Ev@Base 1.1.0
 _ZN3xsd3cxx4tree27type_serializer_initializerILm0EcN13icalendar_2_016FmttypeParamTypeEED1Ev@Base 1.1.0
 _ZN3xsd3cxx4tree27type_serializer_initializerILm0EcN13icalendar_2_016FmttypeParamTypeEED2Ev@Base 1.1.0
 _ZN3xsd3cxx4tree27type_serializer_initializerILm0EcN13icalendar_2_016FreebusyPropTypeEED1Ev@Base 1.1.0
 _ZN3xsd3cxx4tree27type_serializer_initializerILm0EcN13icalendar_2_016FreebusyPropTypeEED2Ev@Base 1.1.0
 _ZN3xsd3cxx4tree27type_serializer_initializerILm0EcN13icalendar_2_016LocationPropTypeEED1Ev@Base 1.1.0
 _ZN3xsd3cxx4tree27type_serializer_initializerILm0EcN13icalendar_2_016LocationPropTypeEED2Ev@Base 1.1.0
 _ZN3xsd3cxx4tree27type_serializer_initializerILm0EcN13icalendar_2_016PriorityPropTypeEED1Ev@Base 1.1.0
 _ZN3xsd3cxx4tree27type_serializer_initializerILm0EcN13icalendar_2_016PriorityPropTypeEED2Ev@Base 1.1.0
 _ZN3xsd3cxx4tree27type_serializer_initializerILm0EcN13icalendar_2_016RelatedParamTypeEED1Ev@Base 1.1.0
 _ZN3xsd3cxx4tree27type_serializer_initializerILm0EcN13icalendar_2_016RelatedParamTypeEED2Ev@Base 1.1.0
 _ZN3xsd3cxx4tree27type_serializer_initializerILm0EcN13icalendar_2_016ReltypeParamTypeEED1Ev@Base 1.1.0
 _ZN3xsd3cxx4tree27type_serializer_initializerILm0EcN13icalendar_2_016ReltypeParamTypeEED2Ev@Base 1.1.0
 _ZN3xsd3cxx4tree27type_serializer_initializerILm0EcN13icalendar_2_016SequencePropTypeEED1Ev@Base 1.1.0
 _ZN3xsd3cxx4tree27type_serializer_initializerILm0EcN13icalendar_2_016SequencePropTypeEED2Ev@Base 1.1.0
 _ZN3xsd3cxx4tree27type_serializer_initializerILm0EcN13icalendar_2_016TextPropertyTypeEED1Ev@Base 1.1.0
 _ZN3xsd3cxx4tree27type_serializer_initializerILm0EcN13icalendar_2_016TextPropertyTypeEED2Ev@Base 1.1.0
 _ZN3xsd3cxx4tree27type_serializer_initializerILm0EcN13icalendar_2_016UriParameterTypeEED1Ev@Base 1.1.0
 _ZN3xsd3cxx4tree27type_serializer_initializerILm0EcN13icalendar_2_016UriParameterTypeEED2Ev@Base 1.1.0
 _ZN3xsd3cxx4tree27type_serializer_initializerILm0EcN13icalendar_2_017BaseParameterTypeEED1Ev@Base 1.1.0
 _ZN3xsd3cxx4tree27type_serializer_initializerILm0EcN13icalendar_2_017BaseParameterTypeEED2Ev@Base 1.1.0
 _ZN3xsd3cxx4tree27type_serializer_initializerILm0EcN13icalendar_2_017CompletedPropTypeEED1Ev@Base 1.1.0
 _ZN3xsd3cxx4tree27type_serializer_initializerILm0EcN13icalendar_2_017CompletedPropTypeEED2Ev@Base 1.1.0
 _ZN3xsd3cxx4tree27type_serializer_initializerILm0EcN13icalendar_2_017EncodingParamTypeEED1Ev@Base 1.1.0
 _ZN3xsd3cxx4tree27type_serializer_initializerILm0EcN13icalendar_2_017EncodingParamTypeEED2Ev@Base 1.1.0
 _ZN3xsd3cxx4tree27type_serializer_initializerILm0EcN13icalendar_2_017LanguageParamTypeEED1Ev@Base 1.1.0
 _ZN3xsd3cxx4tree27type_serializer_initializerILm0EcN13icalendar_2_017LanguageParamTypeEED2Ev@Base 1.1.0
 _ZN3xsd3cxx4tree27type_serializer_initializerILm0EcN13icalendar_2_017OrganizerPropTypeEED1Ev@Base 1.1.0
 _ZN3xsd3cxx4tree27type_serializer_initializerILm0EcN13icalendar_2_017OrganizerPropTypeEED2Ev@Base 1.1.0
 _ZN3xsd3cxx4tree27type_serializer_initializerILm0EcN13icalendar_2_017PartstatParamTypeEED1Ev@Base 1.1.0
 _ZN3xsd3cxx4tree27type_serializer_initializerILm0EcN13icalendar_2_017PartstatParamTypeEED2Ev@Base 1.1.0
 _ZN3xsd3cxx4tree27type_serializer_initializerILm0EcN13icalendar_2_017RecurPropertyTypeEED1Ev@Base 1.1.0
 _ZN3xsd3cxx4tree27type_serializer_initializerILm0EcN13icalendar_2_017RecurPropertyTypeEED2Ev@Base 1.1.0
 _ZN3xsd3cxx4tree27type_serializer_initializerILm0EcN13icalendar_2_017RelatedToPropTypeEED1Ev@Base 1.1.0
 _ZN3xsd3cxx4tree27type_serializer_initializerILm0EcN13icalendar_2_017RelatedToPropTypeEED2Ev@Base 1.1.0
 _ZN3xsd3cxx4tree27type_serializer_initializerILm0EcN13icalendar_2_017ResourcesPropTypeEED1Ev@Base 1.1.0
 _ZN3xsd3cxx4tree27type_serializer_initializerILm0EcN13icalendar_2_017ResourcesPropTypeEED2Ev@Base 1.1.0
 _ZN3xsd3cxx4tree27type_serializer_initializerILm0EcN13icalendar_2_017TextParameterTypeEED1Ev@Base 1.1.0
 _ZN3xsd3cxx4tree27type_serializer_initializerILm0EcN13icalendar_2_017TextParameterTypeEED2Ev@Base 1.1.0
 _ZN3xsd3cxx4tree27type_serializer_initializerILm0EcN13icalendar_2_018CategoriesPropTypeEED1Ev@Base 1.1.0
 _ZN3xsd3cxx4tree27type_serializer_initializerILm0EcN13icalendar_2_018CategoriesPropTypeEED2Ev@Base 1.1.0
 _ZN3xsd3cxx4tree27type_serializer_initializerILm0EcN13icalendar_2_018TzoffsettoPropTypeEED1Ev@Base 1.1.0
 _ZN3xsd3cxx4tree27type_serializer_initializerILm0EcN13icalendar_2_018TzoffsettoPropTypeEED2Ev@Base 1.1.0
 _ZN3xsd3cxx4tree27type_serializer_initializerILm0EcN13icalendar_2_019CalAddressParamTypeEED1Ev@Base 1.1.0
 _ZN3xsd3cxx4tree27type_serializer_initializerILm0EcN13icalendar_2_019CalAddressParamTypeEED2Ev@Base 1.1.0
 _ZN3xsd3cxx4tree27type_serializer_initializerILm0EcN13icalendar_2_019DescriptionPropTypeEED1Ev@Base 1.1.0
 _ZN3xsd3cxx4tree27type_serializer_initializerILm0EcN13icalendar_2_019DescriptionPropTypeEED2Ev@Base 1.1.0
 _ZN3xsd3cxx4tree27type_serializer_initializerILm0EcN13icalendar_2_019IntegerPropertyTypeEED1Ev@Base 1.1.0
 _ZN3xsd3cxx4tree27type_serializer_initializerILm0EcN13icalendar_2_019IntegerPropertyTypeEED2Ev@Base 1.1.0
 _ZN3xsd3cxx4tree27type_serializer_initializerILm0EcN13icalendar_2_020BooleanParameterTypeEED1Ev@Base 1.1.0
 _ZN3xsd3cxx4tree27type_serializer_initializerILm0EcN13icalendar_2_020BooleanParameterTypeEED2Ev@Base 1.1.0
 _ZN3xsd3cxx4tree27type_serializer_initializerILm0EcN13icalendar_2_020DatetimePropertyTypeEED1Ev@Base 1.1.0
 _ZN3xsd3cxx4tree27type_serializer_initializerILm0EcN13icalendar_2_020DatetimePropertyTypeEED2Ev@Base 1.1.0
 _ZN3xsd3cxx4tree27type_serializer_initializerILm0EcN13icalendar_2_020DelegatedToParamTypeEED1Ev@Base 1.1.0
 _ZN3xsd3cxx4tree27type_serializer_initializerILm0EcN13icalendar_2_020DelegatedToParamTypeEED2Ev@Base 1.1.0
 _ZN3xsd3cxx4tree27type_serializer_initializerILm0EcN13icalendar_2_020LastModifiedPropTypeEED1Ev@Base 1.1.0
 _ZN3xsd3cxx4tree27type_serializer_initializerILm0EcN13icalendar_2_020LastModifiedPropTypeEED2Ev@Base 1.1.0
 _ZN3xsd3cxx4tree27type_serializer_initializerILm0EcN13icalendar_2_020RecurrenceIdPropTypeEED1Ev@Base 1.1.0
 _ZN3xsd3cxx4tree27type_serializer_initializerILm0EcN13icalendar_2_020RecurrenceIdPropTypeEED2Ev@Base 1.1.0
 _ZN3xsd3cxx4tree27type_serializer_initializerILm0EcN13icalendar_2_020TextListPropertyTypeEED1Ev@Base 1.1.0
 _ZN3xsd3cxx4tree27type_serializer_initializerILm0EcN13icalendar_2_020TextListPropertyTypeEED2Ev@Base 1.1.0
 _ZN3xsd3cxx4tree27type_serializer_initializerILm0EcN13icalendar_2_020TzoffsetfromPropTypeEED1Ev@Base 1.1.0
 _ZN3xsd3cxx4tree27type_serializer_initializerILm0EcN13icalendar_2_020TzoffsetfromPropTypeEED2Ev@Base 1.1.0
 _ZN3xsd3cxx4tree27type_serializer_initializerILm0EcN13icalendar_2_021RequestStatusPropTypeEED1Ev@Base 1.1.0
 _ZN3xsd3cxx4tree27type_serializer_initializerILm0EcN13icalendar_2_021RequestStatusPropTypeEED2Ev@Base 1.1.0
 _ZN3xsd3cxx4tree27type_serializer_initializerILm0EcN13icalendar_2_021UtcOffsetPropertyTypeEED1Ev@Base 1.1.0
 _ZN3xsd3cxx4tree27type_serializer_initializerILm0EcN13icalendar_2_021UtcOffsetPropertyTypeEED2Ev@Base 1.1.0
 _ZN3xsd3cxx4tree27type_serializer_initializerILm0EcN13icalendar_2_022CalAddressPropertyTypeEED1Ev@Base 1.1.0
 _ZN3xsd3cxx4tree27type_serializer_initializerILm0EcN13icalendar_2_022CalAddressPropertyTypeEED2Ev@Base 1.1.0
 _ZN3xsd3cxx4tree27type_serializer_initializerILm0EcN13icalendar_2_022DelegatedFromParamTypeEED1Ev@Base 1.1.0
 _ZN3xsd3cxx4tree27type_serializer_initializerILm0EcN13icalendar_2_022DelegatedFromParamTypeEED2Ev@Base 1.1.0
 _ZN3xsd3cxx4tree27type_serializer_initializerILm0EcN13icalendar_2_022ScheduleAgentParamTypeEED1Ev@Base 1.1.0
 _ZN3xsd3cxx4tree27type_serializer_initializerILm0EcN13icalendar_2_022ScheduleAgentParamTypeEED2Ev@Base 1.1.0
 _ZN3xsd3cxx4tree27type_serializer_initializerILm0EcN13icalendar_2_023CalAddressListParamTypeEED1Ev@Base 1.1.0
 _ZN3xsd3cxx4tree27type_serializer_initializerILm0EcN13icalendar_2_023CalAddressListParamTypeEED2Ev@Base 1.1.0
 _ZN3xsd3cxx4tree27type_serializer_initializerILm0EcN13icalendar_2_023PercentCompletePropTypeEED1Ev@Base 1.1.0
 _ZN3xsd3cxx4tree27type_serializer_initializerILm0EcN13icalendar_2_023PercentCompletePropTypeEED2Ev@Base 1.1.0
 _ZN3xsd3cxx4tree27type_serializer_initializerILm0EcN13icalendar_2_023ScheduleStatusParamTypeEED1Ev@Base 1.1.0
 _ZN3xsd3cxx4tree27type_serializer_initializerILm0EcN13icalendar_2_023ScheduleStatusParamTypeEED2Ev@Base 1.1.0
 _ZN3xsd3cxx4tree27type_serializer_initializerILm0EcN13icalendar_2_023UtcDatetimePropertyTypeEED1Ev@Base 1.1.0
 _ZN3xsd3cxx4tree27type_serializer_initializerILm0EcN13icalendar_2_023UtcDatetimePropertyTypeEED2Ev@Base 1.1.0
 _ZN3xsd3cxx4tree27type_serializer_initializerILm0EcN13icalendar_2_024DateDatetimePropertyTypeEED1Ev@Base 1.1.0
 _ZN3xsd3cxx4tree27type_serializer_initializerILm0EcN13icalendar_2_024DateDatetimePropertyTypeEED2Ev@Base 1.1.0
 _ZN3xsd3cxx4tree27type_serializer_initializerILm0EcN13icalendar_2_026ScheduleForceSendParamTypeEED1Ev@Base 1.1.0
 _ZN3xsd3cxx4tree27type_serializer_initializerILm0EcN13icalendar_2_026ScheduleForceSendParamTypeEED2Ev@Base 1.1.0
 _ZN3xsd3cxx4tree27type_serializer_initializerILm0EcN13icalendar_2_08XFBeventEED1Ev@Base 1.1.0
 _ZN3xsd3cxx4tree27type_serializer_initializerILm0EcN13icalendar_2_08XFBeventEED2Ev@Base 1.1.0
 _ZN3xsd3cxx4tree27type_serializer_initializerILm0EcN9vcard_4_010CryptoTypeEED1Ev@Base 1.1.0
 _ZN3xsd3cxx4tree27type_serializer_initializerILm0EcN9vcard_4_010CryptoTypeEED2Ev@Base 1.1.0
 _ZN3xsd3cxx4tree27type_serializer_initializerILm0EcN9vcard_4_010CustomTypeEED1Ev@Base 1.1.0
 _ZN3xsd3cxx4tree27type_serializer_initializerILm0EcN9vcard_4_010CustomTypeEED2Ev@Base 1.1.0
 _ZN3xsd3cxx4tree27type_serializer_initializerILm0EcN9vcard_4_010fnPropTypeEED1Ev@Base 1.1.0
 _ZN3xsd3cxx4tree27type_serializer_initializerILm0EcN9vcard_4_010fnPropTypeEED2Ev@Base 1.1.0
 _ZN3xsd3cxx4tree27type_serializer_initializerILm0EcN9vcard_4_011adrPropTypeEED1Ev@Base 1.1.0
 _ZN3xsd3cxx4tree27type_serializer_initializerILm0EcN9vcard_4_011adrPropTypeEED2Ev@Base 1.1.0
 _ZN3xsd3cxx4tree27type_serializer_initializerILm0EcN9vcard_4_011geoPropTypeEED1Ev@Base 1.1.0
 _ZN3xsd3cxx4tree27type_serializer_initializerILm0EcN9vcard_4_011geoPropTypeEED2Ev@Base 1.1.0
 _ZN3xsd3cxx4tree27type_serializer_initializerILm0EcN9vcard_4_011keyPropTypeEED1Ev@Base 1.1.0
 _ZN3xsd3cxx4tree27type_serializer_initializerILm0EcN9vcard_4_011keyPropTypeEED2Ev@Base 1.1.0
 _ZN3xsd3cxx4tree27type_serializer_initializerILm0EcN9vcard_4_011revPropTypeEED1Ev@Base 1.1.0
 _ZN3xsd3cxx4tree27type_serializer_initializerILm0EcN9vcard_4_011revPropTypeEED2Ev@Base 1.1.0
 _ZN3xsd3cxx4tree27type_serializer_initializerILm0EcN9vcard_4_011telPropTypeEED1Ev@Base 1.1.0
 _ZN3xsd3cxx4tree27type_serializer_initializerILm0EcN9vcard_4_011telPropTypeEED2Ev@Base 1.1.0
 _ZN3xsd3cxx4tree27type_serializer_initializerILm0EcN9vcard_4_011uidPropTypeEED1Ev@Base 1.1.0
 _ZN3xsd3cxx4tree27type_serializer_initializerILm0EcN9vcard_4_011uidPropTypeEED2Ev@Base 1.1.0
 _ZN3xsd3cxx4tree27type_serializer_initializerILm0EcN9vcard_4_011urlPropTypeEED1Ev@Base 1.1.0
 _ZN3xsd3cxx4tree27type_serializer_initializerILm0EcN9vcard_4_011urlPropTypeEED2Ev@Base 1.1.0
 _ZN3xsd3cxx4tree27type_serializer_initializerILm0EcN9vcard_4_012KolabVersionEED1Ev@Base 1.1.0
 _ZN3xsd3cxx4tree27type_serializer_initializerILm0EcN9vcard_4_012KolabVersionEED2Ev@Base 1.1.0
 _ZN3xsd3cxx4tree27type_serializer_initializerILm0EcN9vcard_4_012bdayPropTypeEED1Ev@Base 1.1.0
 _ZN3xsd3cxx4tree27type_serializer_initializerILm0EcN9vcard_4_012bdayPropTypeEED2Ev@Base 1.1.0
 _ZN3xsd3cxx4tree27type_serializer_initializerILm0EcN9vcard_4_012imppPropTypeEED1Ev@Base 1.1.0
 _ZN3xsd3cxx4tree27type_serializer_initializerILm0EcN9vcard_4_012imppPropTypeEED2Ev@Base 1.1.0
 _ZN3xsd3cxx4tree27type_serializer_initializerILm0EcN9vcard_4_012kindPropTypeEED1Ev@Base 1.1.0
 _ZN3xsd3cxx4tree27type_serializer_initializerILm0EcN9vcard_4_012kindPropTypeEED2Ev@Base 1.1.0
 _ZN3xsd3cxx4tree27type_serializer_initializerILm0EcN9vcard_4_012langPropTypeEED1Ev@Base 1.1.0
 _ZN3xsd3cxx4tree27type_serializer_initializerILm0EcN9vcard_4_012langPropTypeEED2Ev@Base 1.1.0
 _ZN3xsd3cxx4tree27type_serializer_initializerILm0EcN9vcard_4_012notePropTypeEED1Ev@Base 1.1.0
 _ZN3xsd3cxx4tree27type_serializer_initializerILm0EcN9vcard_4_012notePropTypeEED2Ev@Base 1.1.0
 _ZN3xsd3cxx4tree27type_serializer_initializerILm0EcN9vcard_4_013emailPropTypeEED1Ev@Base 1.1.0
 _ZN3xsd3cxx4tree27type_serializer_initializerILm0EcN9vcard_4_013emailPropTypeEED2Ev@Base 1.1.0
 _ZN3xsd3cxx4tree27type_serializer_initializerILm0EcN9vcard_4_013fburlPropTypeEED1Ev@Base 1.1.0
 _ZN3xsd3cxx4tree27type_serializer_initializerILm0EcN9vcard_4_013fburlPropTypeEED2Ev@Base 1.1.0
 _ZN3xsd3cxx4tree27type_serializer_initializerILm0EcN9vcard_4_013photoPropTypeEED1Ev@Base 1.1.0
 _ZN3xsd3cxx4tree27type_serializer_initializerILm0EcN9vcard_4_013photoPropTypeEED2Ev@Base 1.1.0
 _ZN3xsd3cxx4tree27type_serializer_initializerILm0EcN9vcard_4_013prefParamTypeEED1Ev@Base 1.1.0
 _ZN3xsd3cxx4tree27type_serializer_initializerILm0EcN9vcard_4_013prefParamTypeEED2Ev@Base 1.1.0
 _ZN3xsd3cxx4tree27type_serializer_initializerILm0EcN9vcard_4_013titlePropTypeEED1Ev@Base 1.1.0
 _ZN3xsd3cxx4tree27type_serializer_initializerILm0EcN9vcard_4_013titlePropTypeEED2Ev@Base 1.1.0
 _ZN3xsd3cxx4tree27type_serializer_initializerILm0EcN9vcard_4_013typeParamTypeEED1Ev@Base 1.1.0
 _ZN3xsd3cxx4tree27type_serializer_initializerILm0EcN9vcard_4_013typeParamTypeEED2Ev@Base 1.1.0
 _ZN3xsd3cxx4tree27type_serializer_initializerILm0EcN9vcard_4_013xuidParamTypeEED1Ev@Base 1.1.0
 _ZN3xsd3cxx4tree27type_serializer_initializerILm0EcN9vcard_4_013xuidParamTypeEED2Ev@Base 1.1.0
 _ZN3xsd3cxx4tree27type_serializer_initializerILm0EcN9vcard_4_014labelParamTypeEED1Ev@Base 1.1.0
 _ZN3xsd3cxx4tree27type_serializer_initializerILm0EcN9vcard_4_014labelParamTypeEED2Ev@Base 1.1.0
 _ZN3xsd3cxx4tree27type_serializer_initializerILm0EcN9vcard_4_014memberPropTypeEED1Ev@Base 1.1.0
 _ZN3xsd3cxx4tree27type_serializer_initializerILm0EcN9vcard_4_014memberPropTypeEED2Ev@Base 1.1.0
 _ZN3xsd3cxx4tree27type_serializer_initializerILm0EcN9vcard_4_014prodidPropTypeEED1Ev@Base 1.1.0
 _ZN3xsd3cxx4tree27type_serializer_initializerILm0EcN9vcard_4_014prodidPropTypeEED2Ev@Base 1.1.0
 _ZN3xsd3cxx4tree27type_serializer_initializerILm0EcN9vcard_4_015UriPropertyTypeEED1Ev@Base 1.1.0
 _ZN3xsd3cxx4tree27type_serializer_initializerILm0EcN9vcard_4_015UriPropertyTypeEED2Ev@Base 1.1.0
 _ZN3xsd3cxx4tree27type_serializer_initializerILm0EcN9vcard_4_015relatedPropTypeEED1Ev@Base 1.1.0
 _ZN3xsd3cxx4tree27type_serializer_initializerILm0EcN9vcard_4_015relatedPropTypeEED2Ev@Base 1.1.0
 _ZN3xsd3cxx4tree27type_serializer_initializerILm0EcN9vcard_4_016BasePropertyTypeEED1Ev@Base 1.1.0
 _ZN3xsd3cxx4tree27type_serializer_initializerILm0EcN9vcard_4_016BasePropertyTypeEED2Ev@Base 1.1.0
 _ZN3xsd3cxx4tree27type_serializer_initializerILm0EcN9vcard_4_016TextPropertyTypeEED1Ev@Base 1.1.0
 _ZN3xsd3cxx4tree27type_serializer_initializerILm0EcN9vcard_4_016TextPropertyTypeEED2Ev@Base 1.1.0
 _ZN3xsd3cxx4tree27type_serializer_initializerILm0EcN9vcard_4_016UriParameterTypeEED1Ev@Base 1.1.0
 _ZN3xsd3cxx4tree27type_serializer_initializerILm0EcN9vcard_4_016UriParameterTypeEED2Ev@Base 1.1.0
 _ZN3xsd3cxx4tree27type_serializer_initializerILm0EcN9vcard_4_016nicknamePropTypeEED1Ev@Base 1.1.0
 _ZN3xsd3cxx4tree27type_serializer_initializerILm0EcN9vcard_4_016nicknamePropTypeEED2Ev@Base 1.1.0
 _ZN3xsd3cxx4tree27type_serializer_initializerILm0EcN9vcard_4_017BaseParameterTypeEED1Ev@Base 1.1.0
 _ZN3xsd3cxx4tree27type_serializer_initializerILm0EcN9vcard_4_017BaseParameterTypeEED2Ev@Base 1.1.0
 _ZN3xsd3cxx4tree27type_serializer_initializerILm0EcN9vcard_4_017TextParameterTypeEED1Ev@Base 1.1.0
 _ZN3xsd3cxx4tree27type_serializer_initializerILm0EcN9vcard_4_017TextParameterTypeEED2Ev@Base 1.1.0
 _ZN3xsd3cxx4tree27type_serializer_initializerILm0EcN9vcard_4_018categoriesPropTypeEED1Ev@Base 1.1.0
 _ZN3xsd3cxx4tree27type_serializer_initializerILm0EcN9vcard_4_018categoriesPropTypeEED2Ev@Base 1.1.0
 _ZN3xsd3cxx4tree27type_serializer_initializerILm0EcN9vcard_4_019affiliationPropTypeEED1Ev@Base 1.1.0
 _ZN3xsd3cxx4tree27type_serializer_initializerILm0EcN9vcard_4_019affiliationPropTypeEED2Ev@Base 1.1.0
 _ZN3xsd3cxx4tree27type_serializer_initializerILm0EcN9vcard_4_019anniversaryPropTypeEED1Ev@Base 1.1.0
 _ZN3xsd3cxx4tree27type_serializer_initializerILm0EcN9vcard_4_019anniversaryPropTypeEED2Ev@Base 1.1.0
 _ZN3xsd3cxx4tree27type_serializer_initializerILm0EcN9vcard_4_020TextListPropertyTypeEED1Ev@Base 1.1.0
 _ZN3xsd3cxx4tree27type_serializer_initializerILm0EcN9vcard_4_020TextListPropertyTypeEED2Ev@Base 1.1.0
 _ZN3xsd3cxx4tree27type_serializer_initializerILm0EcN9vcard_4_021TextOrUriPropertyTypeEED1Ev@Base 1.1.0
 _ZN3xsd3cxx4tree27type_serializer_initializerILm0EcN9vcard_4_021TextOrUriPropertyTypeEED2Ev@Base 1.1.0
 _ZN3xsd3cxx4tree27type_serializer_initializerILm0EcN9vcard_4_024DateDatetimePropertyTypeEED1Ev@Base 1.1.0
 _ZN3xsd3cxx4tree27type_serializer_initializerILm0EcN9vcard_4_024DateDatetimePropertyTypeEED2Ev@Base 1.1.0
 _ZN3xsd3cxx4tree27type_serializer_initializerILm0EcN9vcard_4_028NonEmptyTextListPropertyTypeEED1Ev@Base 1.1.0
 _ZN3xsd3cxx4tree27type_serializer_initializerILm0EcN9vcard_4_028NonEmptyTextListPropertyTypeEED2Ev@Base 1.1.0
 _ZN3xsd3cxx4tree27type_serializer_initializerILm0EcN9vcard_4_09nPropTypeEED1Ev@Base 1.1.0
 _ZN3xsd3cxx4tree27type_serializer_initializerILm0EcN9vcard_4_09nPropTypeEED2Ev@Base 1.1.0
 _ZN3xsd3cxx4tree2idIcNS1_6ncnameIcNS1_4nameIcNS1_5tokenIcNS1_17normalized_stringIcNS1_6stringIcNS1_11simple_typeIcNS1_5_typeEEEEEEEEEEEEEE10_containerEPS9_@Base 1.1.0
 _ZN3xsd3cxx4tree2idIcNS1_6ncnameIcNS1_4nameIcNS1_5tokenIcNS1_17normalized_stringIcNS1_6stringIcNS1_11simple_typeIcNS1_5_typeEEEEEEEEEEEEEE11register_idEv@Base 1.1.0
 _ZN3xsd3cxx4tree2idIcNS1_6ncnameIcNS1_4nameIcNS1_5tokenIcNS1_17normalized_stringIcNS1_6stringIcNS1_11simple_typeIcNS1_5_typeEEEEEEEEEEEEEE13unregister_idEv@Base 1.1.0
 _ZN3xsd3cxx4tree2idIcNS1_6ncnameIcNS1_4nameIcNS1_5tokenIcNS1_17normalized_stringIcNS1_6stringIcNS1_11simple_typeIcNS1_5_typeEEEEEEEEEEEEEED0Ev@Base 1.1.0
 _ZN3xsd3cxx4tree2idIcNS1_6ncnameIcNS1_4nameIcNS1_5tokenIcNS1_17normalized_stringIcNS1_6stringIcNS1_11simple_typeIcNS1_5_typeEEEEEEEEEEEEEED1Ev@Base 1.1.0
 _ZN3xsd3cxx4tree2idIcNS1_6ncnameIcNS1_4nameIcNS1_5tokenIcNS1_17normalized_stringIcNS1_6stringIcNS1_11simple_typeIcNS1_5_typeEEEEEEEEEEEEEED2Ev@Base 1.1.0
 _ZN3xsd3cxx4tree30element_serializer_initializerILm0EcN13icalendar_2_011CnParamTypeEED1Ev@Base 1.1.0
 _ZN3xsd3cxx4tree30element_serializer_initializerILm0EcN13icalendar_2_011CnParamTypeEED2Ev@Base 1.1.0
 _ZN3xsd3cxx4tree30element_serializer_initializerILm0EcN13icalendar_2_011DuePropTypeEEC1EPKcS7_S7_S7_@Base 1.1.0
 _ZN3xsd3cxx4tree30element_serializer_initializerILm0EcN13icalendar_2_011DuePropTypeEEC2EPKcS7_S7_S7_@Base 1.1.0
 _ZN3xsd3cxx4tree30element_serializer_initializerILm0EcN13icalendar_2_011DuePropTypeEED1Ev@Base 1.1.0
 _ZN3xsd3cxx4tree30element_serializer_initializerILm0EcN13icalendar_2_011DuePropTypeEED2Ev@Base 1.1.0
 _ZN3xsd3cxx4tree30element_serializer_initializerILm0EcN13icalendar_2_011GeoPropTypeEED1Ev@Base 1.1.0
 _ZN3xsd3cxx4tree30element_serializer_initializerILm0EcN13icalendar_2_011GeoPropTypeEED2Ev@Base 1.1.0
 _ZN3xsd3cxx4tree30element_serializer_initializerILm0EcN13icalendar_2_011UidPropTypeEEC1EPKcS7_S7_S7_@Base 1.1.0
 _ZN3xsd3cxx4tree30element_serializer_initializerILm0EcN13icalendar_2_011UidPropTypeEEC2EPKcS7_S7_S7_@Base 1.1.0
 _ZN3xsd3cxx4tree30element_serializer_initializerILm0EcN13icalendar_2_011UidPropTypeEED1Ev@Base 1.1.0
 _ZN3xsd3cxx4tree30element_serializer_initializerILm0EcN13icalendar_2_011UidPropTypeEED2Ev@Base 1.1.0
 _ZN3xsd3cxx4tree30element_serializer_initializerILm0EcN13icalendar_2_011UrlPropTypeEEC1EPKcS7_S7_S7_@Base 1.1.0
 _ZN3xsd3cxx4tree30element_serializer_initializerILm0EcN13icalendar_2_011UrlPropTypeEEC2EPKcS7_S7_S7_@Base 1.1.0
 _ZN3xsd3cxx4tree30element_serializer_initializerILm0EcN13icalendar_2_011UrlPropTypeEED1Ev@Base 1.1.0
 _ZN3xsd3cxx4tree30element_serializer_initializerILm0EcN13icalendar_2_011UrlPropTypeEED2Ev@Base 1.1.0
 _ZN3xsd3cxx4tree30element_serializer_initializerILm0EcN13icalendar_2_012DirParamTypeEED1Ev@Base 1.1.0
 _ZN3xsd3cxx4tree30element_serializer_initializerILm0EcN13icalendar_2_012DirParamTypeEED2Ev@Base 1.1.0
 _ZN3xsd3cxx4tree30element_serializer_initializerILm0EcN13icalendar_2_012KolabVersionEED1Ev@Base 1.1.0
 _ZN3xsd3cxx4tree30element_serializer_initializerILm0EcN13icalendar_2_012KolabVersionEED2Ev@Base 1.1.0
 _ZN3xsd3cxx4tree30element_serializer_initializerILm0EcN13icalendar_2_013ClassPropTypeEED1Ev@Base 1.1.0
 _ZN3xsd3cxx4tree30element_serializer_initializerILm0EcN13icalendar_2_013ClassPropTypeEED2Ev@Base 1.1.0
 _ZN3xsd3cxx4tree30element_serializer_initializerILm0EcN13icalendar_2_013DtendPropTypeEEC1EPKcS7_S7_S7_@Base 1.1.0
 _ZN3xsd3cxx4tree30element_serializer_initializerILm0EcN13icalendar_2_013DtendPropTypeEEC2EPKcS7_S7_S7_@Base 1.1.0
 _ZN3xsd3cxx4tree30element_serializer_initializerILm0EcN13icalendar_2_013DtendPropTypeEED1Ev@Base 1.1.0
 _ZN3xsd3cxx4tree30element_serializer_initializerILm0EcN13icalendar_2_013DtendPropTypeEED2Ev@Base 1.1.0
 _ZN3xsd3cxx4tree30element_serializer_initializerILm0EcN13icalendar_2_013RdatePropTypeEEC1EPKcS7_S7_S7_@Base 1.1.0
 _ZN3xsd3cxx4tree30element_serializer_initializerILm0EcN13icalendar_2_013RdatePropTypeEEC2EPKcS7_S7_S7_@Base 1.1.0
 _ZN3xsd3cxx4tree30element_serializer_initializerILm0EcN13icalendar_2_013RdatePropTypeEED1Ev@Base 1.1.0
 _ZN3xsd3cxx4tree30element_serializer_initializerILm0EcN13icalendar_2_013RdatePropTypeEED2Ev@Base 1.1.0
 _ZN3xsd3cxx4tree30element_serializer_initializerILm0EcN13icalendar_2_013RoleParamTypeEED1Ev@Base 1.1.0
 _ZN3xsd3cxx4tree30element_serializer_initializerILm0EcN13icalendar_2_013RoleParamTypeEED2Ev@Base 1.1.0
 _ZN3xsd3cxx4tree30element_serializer_initializerILm0EcN13icalendar_2_013RrulePropTypeEEC1EPKcS7_S7_S7_@Base 1.1.2
 _ZN3xsd3cxx4tree30element_serializer_initializerILm0EcN13icalendar_2_013RrulePropTypeEEC2EPKcS7_S7_S7_@Base 1.1.2
 _ZN3xsd3cxx4tree30element_serializer_initializerILm0EcN13icalendar_2_013RrulePropTypeEED1Ev@Base 1.1.0
 _ZN3xsd3cxx4tree30element_serializer_initializerILm0EcN13icalendar_2_013RrulePropTypeEED2Ev@Base 1.1.0
 _ZN3xsd3cxx4tree30element_serializer_initializerILm0EcN13icalendar_2_013RsvpParamTypeEED1Ev@Base 1.1.0
 _ZN3xsd3cxx4tree30element_serializer_initializerILm0EcN13icalendar_2_013RsvpParamTypeEED2Ev@Base 1.1.0
 _ZN3xsd3cxx4tree30element_serializer_initializerILm0EcN13icalendar_2_013TzidParamTypeEED1Ev@Base 1.1.0
 _ZN3xsd3cxx4tree30element_serializer_initializerILm0EcN13icalendar_2_013TzidParamTypeEED2Ev@Base 1.1.0
 _ZN3xsd3cxx4tree30element_serializer_initializerILm0EcN13icalendar_2_013TzurlPropTypeEEC1EPKcS7_S7_S7_@Base 1.1.0
 _ZN3xsd3cxx4tree30element_serializer_initializerILm0EcN13icalendar_2_013TzurlPropTypeEEC2EPKcS7_S7_S7_@Base 1.1.0
 _ZN3xsd3cxx4tree30element_serializer_initializerILm0EcN13icalendar_2_013TzurlPropTypeEED1Ev@Base 1.1.0
 _ZN3xsd3cxx4tree30element_serializer_initializerILm0EcN13icalendar_2_013TzurlPropTypeEED2Ev@Base 1.1.0
 _ZN3xsd3cxx4tree30element_serializer_initializerILm0EcN13icalendar_2_013XuidParamTypeEED1Ev@Base 1.1.0
 _ZN3xsd3cxx4tree30element_serializer_initializerILm0EcN13icalendar_2_013XuidParamTypeEED2Ev@Base 1.1.0
 _ZN3xsd3cxx4tree30element_serializer_initializerILm0EcN13icalendar_2_014ActionPropTypeEEC1EPKcS7_S7_S7_@Base 1.1.2
 _ZN3xsd3cxx4tree30element_serializer_initializerILm0EcN13icalendar_2_014ActionPropTypeEEC2EPKcS7_S7_S7_@Base 1.1.2
 _ZN3xsd3cxx4tree30element_serializer_initializerILm0EcN13icalendar_2_014ActionPropTypeEED1Ev@Base 1.1.0
 _ZN3xsd3cxx4tree30element_serializer_initializerILm0EcN13icalendar_2_014ActionPropTypeEED2Ev@Base 1.1.0
 _ZN3xsd3cxx4tree30element_serializer_initializerILm0EcN13icalendar_2_014AttachPropTypeEED1Ev@Base 1.1.0
 _ZN3xsd3cxx4tree30element_serializer_initializerILm0EcN13icalendar_2_014AttachPropTypeEED2Ev@Base 1.1.0
 _ZN3xsd3cxx4tree30element_serializer_initializerILm0EcN13icalendar_2_014ExdatePropTypeEEC1EPKcS7_S7_S7_@Base 1.1.0
 _ZN3xsd3cxx4tree30element_serializer_initializerILm0EcN13icalendar_2_014ExdatePropTypeEEC2EPKcS7_S7_S7_@Base 1.1.0
 _ZN3xsd3cxx4tree30element_serializer_initializerILm0EcN13icalendar_2_014ExdatePropTypeEED1Ev@Base 1.1.0
 _ZN3xsd3cxx4tree30element_serializer_initializerILm0EcN13icalendar_2_014ExdatePropTypeEED2Ev@Base 1.1.0
 _ZN3xsd3cxx4tree30element_serializer_initializerILm0EcN13icalendar_2_014ExrulePropTypeEEC1EPKcS7_S7_S7_@Base 1.1.2
 _ZN3xsd3cxx4tree30element_serializer_initializerILm0EcN13icalendar_2_014ExrulePropTypeEEC2EPKcS7_S7_S7_@Base 1.1.2
 _ZN3xsd3cxx4tree30element_serializer_initializerILm0EcN13icalendar_2_014ExrulePropTypeEED1Ev@Base 1.1.0
 _ZN3xsd3cxx4tree30element_serializer_initializerILm0EcN13icalendar_2_014ExrulePropTypeEED2Ev@Base 1.1.0
 _ZN3xsd3cxx4tree30element_serializer_initializerILm0EcN13icalendar_2_014MethodPropTypeEED1Ev@Base 1.1.0
 _ZN3xsd3cxx4tree30element_serializer_initializerILm0EcN13icalendar_2_014MethodPropTypeEED2Ev@Base 1.1.0
 _ZN3xsd3cxx4tree30element_serializer_initializerILm0EcN13icalendar_2_014ProdidPropTypeEED1Ev@Base 1.1.0
 _ZN3xsd3cxx4tree30element_serializer_initializerILm0EcN13icalendar_2_014ProdidPropTypeEED2Ev@Base 1.1.0
 _ZN3xsd3cxx4tree30element_serializer_initializerILm0EcN13icalendar_2_014RangeParamTypeEED1Ev@Base 1.1.0
 _ZN3xsd3cxx4tree30element_serializer_initializerILm0EcN13icalendar_2_014RangeParamTypeEED2Ev@Base 1.1.0
 _ZN3xsd3cxx4tree30element_serializer_initializerILm0EcN13icalendar_2_014RepeatPropTypeEEC1EPKcS7_S7_S7_@Base 1.1.2
 _ZN3xsd3cxx4tree30element_serializer_initializerILm0EcN13icalendar_2_014RepeatPropTypeEEC2EPKcS7_S7_S7_@Base 1.1.2
 _ZN3xsd3cxx4tree30element_serializer_initializerILm0EcN13icalendar_2_014RepeatPropTypeEED1Ev@Base 1.1.0
 _ZN3xsd3cxx4tree30element_serializer_initializerILm0EcN13icalendar_2_014RepeatPropTypeEED2Ev@Base 1.1.0
 _ZN3xsd3cxx4tree30element_serializer_initializerILm0EcN13icalendar_2_014StatusPropTypeEEC1EPKcS7_S7_S7_@Base 1.1.0
 _ZN3xsd3cxx4tree30element_serializer_initializerILm0EcN13icalendar_2_014StatusPropTypeEEC2EPKcS7_S7_S7_@Base 1.1.0
 _ZN3xsd3cxx4tree30element_serializer_initializerILm0EcN13icalendar_2_014StatusPropTypeEED1Ev@Base 1.1.0
 _ZN3xsd3cxx4tree30element_serializer_initializerILm0EcN13icalendar_2_014StatusPropTypeEED2Ev@Base 1.1.0
 _ZN3xsd3cxx4tree30element_serializer_initializerILm0EcN13icalendar_2_014TranspPropTypeEEC1EPKcS7_S7_S7_@Base 1.1.0
 _ZN3xsd3cxx4tree30element_serializer_initializerILm0EcN13icalendar_2_014TranspPropTypeEEC2EPKcS7_S7_S7_@Base 1.1.0
 _ZN3xsd3cxx4tree30element_serializer_initializerILm0EcN13icalendar_2_014TranspPropTypeEED1Ev@Base 1.1.0
 _ZN3xsd3cxx4tree30element_serializer_initializerILm0EcN13icalendar_2_014TranspPropTypeEED2Ev@Base 1.1.0
 _ZN3xsd3cxx4tree30element_serializer_initializerILm0EcN13icalendar_2_014TznamePropTypeEEC1EPKcS7_S7_S7_@Base 1.1.0
 _ZN3xsd3cxx4tree30element_serializer_initializerILm0EcN13icalendar_2_014TznamePropTypeEEC2EPKcS7_S7_S7_@Base 1.1.0
 _ZN3xsd3cxx4tree30element_serializer_initializerILm0EcN13icalendar_2_014TznamePropTypeEED1Ev@Base 1.1.0
 _ZN3xsd3cxx4tree30element_serializer_initializerILm0EcN13icalendar_2_014TznamePropTypeEED2Ev@Base 1.1.0
 _ZN3xsd3cxx4tree30element_serializer_initializerILm0EcN13icalendar_2_015AltrepParamTypeEED1Ev@Base 1.1.0
 _ZN3xsd3cxx4tree30element_serializer_initializerILm0EcN13icalendar_2_015AltrepParamTypeEED2Ev@Base 1.1.0
 _ZN3xsd3cxx4tree30element_serializer_initializerILm0EcN13icalendar_2_015CommentPropTypeEED1Ev@Base 1.1.0
 _ZN3xsd3cxx4tree30element_serializer_initializerILm0EcN13icalendar_2_015CommentPropTypeEED2Ev@Base 1.1.0
 _ZN3xsd3cxx4tree30element_serializer_initializerILm0EcN13icalendar_2_015ContactPropTypeEEC1EPKcS7_S7_S7_@Base 1.1.0
 _ZN3xsd3cxx4tree30element_serializer_initializerILm0EcN13icalendar_2_015ContactPropTypeEEC2EPKcS7_S7_S7_@Base 1.1.0
 _ZN3xsd3cxx4tree30element_serializer_initializerILm0EcN13icalendar_2_015ContactPropTypeEED1Ev@Base 1.1.0
 _ZN3xsd3cxx4tree30element_serializer_initializerILm0EcN13icalendar_2_015ContactPropTypeEED2Ev@Base 1.1.0
 _ZN3xsd3cxx4tree30element_serializer_initializerILm0EcN13icalendar_2_015CreatedPropTypeEEC1EPKcS7_S7_S7_@Base 1.1.2
 _ZN3xsd3cxx4tree30element_serializer_initializerILm0EcN13icalendar_2_015CreatedPropTypeEEC2EPKcS7_S7_S7_@Base 1.1.2
 _ZN3xsd3cxx4tree30element_serializer_initializerILm0EcN13icalendar_2_015CreatedPropTypeEED1Ev@Base 1.1.0
 _ZN3xsd3cxx4tree30element_serializer_initializerILm0EcN13icalendar_2_015CreatedPropTypeEED2Ev@Base 1.1.0
 _ZN3xsd3cxx4tree30element_serializer_initializerILm0EcN13icalendar_2_015CutypeParamTypeEED1Ev@Base 1.1.0
 _ZN3xsd3cxx4tree30element_serializer_initializerILm0EcN13icalendar_2_015CutypeParamTypeEED2Ev@Base 1.1.0
 _ZN3xsd3cxx4tree30element_serializer_initializerILm0EcN13icalendar_2_015DtstampPropTypeEEC1EPKcS7_S7_S7_@Base 1.1.2
 _ZN3xsd3cxx4tree30element_serializer_initializerILm0EcN13icalendar_2_015DtstampPropTypeEEC2EPKcS7_S7_S7_@Base 1.1.2
 _ZN3xsd3cxx4tree30element_serializer_initializerILm0EcN13icalendar_2_015DtstampPropTypeEED1Ev@Base 1.1.0
 _ZN3xsd3cxx4tree30element_serializer_initializerILm0EcN13icalendar_2_015DtstampPropTypeEED2Ev@Base 1.1.0
 _ZN3xsd3cxx4tree30element_serializer_initializerILm0EcN13icalendar_2_015DtstartPropTypeEEC1EPKcS7_S7_S7_@Base 1.1.0
 _ZN3xsd3cxx4tree30element_serializer_initializerILm0EcN13icalendar_2_015DtstartPropTypeEEC2EPKcS7_S7_S7_@Base 1.1.0
 _ZN3xsd3cxx4tree30element_serializer_initializerILm0EcN13icalendar_2_015DtstartPropTypeEED1Ev@Base 1.1.0
 _ZN3xsd3cxx4tree30element_serializer_initializerILm0EcN13icalendar_2_015DtstartPropTypeEED2Ev@Base 1.1.0
 _ZN3xsd3cxx4tree30element_serializer_initializerILm0EcN13icalendar_2_015FbtypeParamTypeEED1Ev@Base 1.1.0
 _ZN3xsd3cxx4tree30element_serializer_initializerILm0EcN13icalendar_2_015FbtypeParamTypeEED2Ev@Base 1.1.0
 _ZN3xsd3cxx4tree30element_serializer_initializerILm0EcN13icalendar_2_015MemberParamTypeEED1Ev@Base 1.1.0
 _ZN3xsd3cxx4tree30element_serializer_initializerILm0EcN13icalendar_2_015MemberParamTypeEED2Ev@Base 1.1.0
 _ZN3xsd3cxx4tree30element_serializer_initializerILm0EcN13icalendar_2_015SentByParamTypeEED1Ev@Base 1.1.0
 _ZN3xsd3cxx4tree30element_serializer_initializerILm0EcN13icalendar_2_015SentByParamTypeEED2Ev@Base 1.1.0
 _ZN3xsd3cxx4tree30element_serializer_initializerILm0EcN13icalendar_2_015SummaryPropTypeEEC1EPKcS7_S7_S7_@Base 1.1.0
 _ZN3xsd3cxx4tree30element_serializer_initializerILm0EcN13icalendar_2_015SummaryPropTypeEEC2EPKcS7_S7_S7_@Base 1.1.0
 _ZN3xsd3cxx4tree30element_serializer_initializerILm0EcN13icalendar_2_015SummaryPropTypeEED1Ev@Base 1.1.0
 _ZN3xsd3cxx4tree30element_serializer_initializerILm0EcN13icalendar_2_015SummaryPropTypeEED2Ev@Base 1.1.0
 _ZN3xsd3cxx4tree30element_serializer_initializerILm0EcN13icalendar_2_015TriggerPropTypeEEC1EPKcS7_S7_S7_@Base 1.1.2
 _ZN3xsd3cxx4tree30element_serializer_initializerILm0EcN13icalendar_2_015TriggerPropTypeEEC2EPKcS7_S7_S7_@Base 1.1.2
 _ZN3xsd3cxx4tree30element_serializer_initializerILm0EcN13icalendar_2_015TriggerPropTypeEED1Ev@Base 1.1.0
 _ZN3xsd3cxx4tree30element_serializer_initializerILm0EcN13icalendar_2_015TriggerPropTypeEED2Ev@Base 1.1.0
 _ZN3xsd3cxx4tree30element_serializer_initializerILm0EcN13icalendar_2_015VersionPropTypeEED1Ev@Base 1.1.0
 _ZN3xsd3cxx4tree30element_serializer_initializerILm0EcN13icalendar_2_015VersionPropTypeEED2Ev@Base 1.1.0
 _ZN3xsd3cxx4tree30element_serializer_initializerILm0EcN13icalendar_2_015XlabelParamTypeEED1Ev@Base 1.1.0
 _ZN3xsd3cxx4tree30element_serializer_initializerILm0EcN13icalendar_2_015XlabelParamTypeEED2Ev@Base 1.1.0
 _ZN3xsd3cxx4tree30element_serializer_initializerILm0EcN13icalendar_2_016AttendeePropTypeEEC1EPKcS7_S7_S7_@Base 1.1.0
 _ZN3xsd3cxx4tree30element_serializer_initializerILm0EcN13icalendar_2_016AttendeePropTypeEEC2EPKcS7_S7_S7_@Base 1.1.0
 _ZN3xsd3cxx4tree30element_serializer_initializerILm0EcN13icalendar_2_016AttendeePropTypeEED1Ev@Base 1.1.0
 _ZN3xsd3cxx4tree30element_serializer_initializerILm0EcN13icalendar_2_016AttendeePropTypeEED2Ev@Base 1.1.0
 _ZN3xsd3cxx4tree30element_serializer_initializerILm0EcN13icalendar_2_016CalscalePropTypeEED1Ev@Base 1.1.0
 _ZN3xsd3cxx4tree30element_serializer_initializerILm0EcN13icalendar_2_016CalscalePropTypeEED2Ev@Base 1.1.0
 _ZN3xsd3cxx4tree30element_serializer_initializerILm0EcN13icalendar_2_016DurationPropTypeEEC1EPKcS7_S7_S7_@Base 1.1.0
 _ZN3xsd3cxx4tree30element_serializer_initializerILm0EcN13icalendar_2_016DurationPropTypeEEC2EPKcS7_S7_S7_@Base 1.1.0
 _ZN3xsd3cxx4tree30element_serializer_initializerILm0EcN13icalendar_2_016DurationPropTypeEED1Ev@Base 1.1.0
 _ZN3xsd3cxx4tree30element_serializer_initializerILm0EcN13icalendar_2_016DurationPropTypeEED2Ev@Base 1.1.0
 _ZN3xsd3cxx4tree30element_serializer_initializerILm0EcN13icalendar_2_016FmttypeParamTypeEED1Ev@Base 1.1.0
 _ZN3xsd3cxx4tree30element_serializer_initializerILm0EcN13icalendar_2_016FmttypeParamTypeEED2Ev@Base 1.1.0
 _ZN3xsd3cxx4tree30element_serializer_initializerILm0EcN13icalendar_2_016FreebusyPropTypeEEC1EPKcS7_S7_S7_@Base 1.1.0
 _ZN3xsd3cxx4tree30element_serializer_initializerILm0EcN13icalendar_2_016FreebusyPropTypeEEC2EPKcS7_S7_S7_@Base 1.1.0
 _ZN3xsd3cxx4tree30element_serializer_initializerILm0EcN13icalendar_2_016FreebusyPropTypeEED1Ev@Base 1.1.0
 _ZN3xsd3cxx4tree30element_serializer_initializerILm0EcN13icalendar_2_016FreebusyPropTypeEED2Ev@Base 1.1.0
 _ZN3xsd3cxx4tree30element_serializer_initializerILm0EcN13icalendar_2_016LocationPropTypeEED1Ev@Base 1.1.0
 _ZN3xsd3cxx4tree30element_serializer_initializerILm0EcN13icalendar_2_016LocationPropTypeEED2Ev@Base 1.1.0
 _ZN3xsd3cxx4tree30element_serializer_initializerILm0EcN13icalendar_2_016PriorityPropTypeEED1Ev@Base 1.1.0
 _ZN3xsd3cxx4tree30element_serializer_initializerILm0EcN13icalendar_2_016PriorityPropTypeEED2Ev@Base 1.1.0
 _ZN3xsd3cxx4tree30element_serializer_initializerILm0EcN13icalendar_2_016RelatedParamTypeEED1Ev@Base 1.1.0
 _ZN3xsd3cxx4tree30element_serializer_initializerILm0EcN13icalendar_2_016RelatedParamTypeEED2Ev@Base 1.1.0
 _ZN3xsd3cxx4tree30element_serializer_initializerILm0EcN13icalendar_2_016ReltypeParamTypeEED1Ev@Base 1.1.0
 _ZN3xsd3cxx4tree30element_serializer_initializerILm0EcN13icalendar_2_016ReltypeParamTypeEED2Ev@Base 1.1.0
 _ZN3xsd3cxx4tree30element_serializer_initializerILm0EcN13icalendar_2_016SequencePropTypeEEC1EPKcS7_S7_S7_@Base 1.1.2
 _ZN3xsd3cxx4tree30element_serializer_initializerILm0EcN13icalendar_2_016SequencePropTypeEEC2EPKcS7_S7_S7_@Base 1.1.2
 _ZN3xsd3cxx4tree30element_serializer_initializerILm0EcN13icalendar_2_016SequencePropTypeEED1Ev@Base 1.1.0
 _ZN3xsd3cxx4tree30element_serializer_initializerILm0EcN13icalendar_2_016SequencePropTypeEED2Ev@Base 1.1.0
 _ZN3xsd3cxx4tree30element_serializer_initializerILm0EcN13icalendar_2_017CompletedPropTypeEEC1EPKcS7_S7_S7_@Base 1.1.0
 _ZN3xsd3cxx4tree30element_serializer_initializerILm0EcN13icalendar_2_017CompletedPropTypeEEC2EPKcS7_S7_S7_@Base 1.1.0
 _ZN3xsd3cxx4tree30element_serializer_initializerILm0EcN13icalendar_2_017CompletedPropTypeEED1Ev@Base 1.1.0
 _ZN3xsd3cxx4tree30element_serializer_initializerILm0EcN13icalendar_2_017CompletedPropTypeEED2Ev@Base 1.1.0
 _ZN3xsd3cxx4tree30element_serializer_initializerILm0EcN13icalendar_2_017EncodingParamTypeEED1Ev@Base 1.1.0
 _ZN3xsd3cxx4tree30element_serializer_initializerILm0EcN13icalendar_2_017EncodingParamTypeEED2Ev@Base 1.1.0
 _ZN3xsd3cxx4tree30element_serializer_initializerILm0EcN13icalendar_2_017LanguageParamTypeEED1Ev@Base 1.1.0
 _ZN3xsd3cxx4tree30element_serializer_initializerILm0EcN13icalendar_2_017LanguageParamTypeEED2Ev@Base 1.1.0
 _ZN3xsd3cxx4tree30element_serializer_initializerILm0EcN13icalendar_2_017OrganizerPropTypeEEC1EPKcS7_S7_S7_@Base 1.1.0
 _ZN3xsd3cxx4tree30element_serializer_initializerILm0EcN13icalendar_2_017OrganizerPropTypeEEC2EPKcS7_S7_S7_@Base 1.1.0
 _ZN3xsd3cxx4tree30element_serializer_initializerILm0EcN13icalendar_2_017OrganizerPropTypeEED1Ev@Base 1.1.0
 _ZN3xsd3cxx4tree30element_serializer_initializerILm0EcN13icalendar_2_017OrganizerPropTypeEED2Ev@Base 1.1.0
 _ZN3xsd3cxx4tree30element_serializer_initializerILm0EcN13icalendar_2_017PartstatParamTypeEED1Ev@Base 1.1.0
 _ZN3xsd3cxx4tree30element_serializer_initializerILm0EcN13icalendar_2_017PartstatParamTypeEED2Ev@Base 1.1.0
 _ZN3xsd3cxx4tree30element_serializer_initializerILm0EcN13icalendar_2_017RelatedToPropTypeEEC1EPKcS7_S7_S7_@Base 1.1.2
 _ZN3xsd3cxx4tree30element_serializer_initializerILm0EcN13icalendar_2_017RelatedToPropTypeEEC2EPKcS7_S7_S7_@Base 1.1.2
 _ZN3xsd3cxx4tree30element_serializer_initializerILm0EcN13icalendar_2_017RelatedToPropTypeEED1Ev@Base 1.1.0
 _ZN3xsd3cxx4tree30element_serializer_initializerILm0EcN13icalendar_2_017RelatedToPropTypeEED2Ev@Base 1.1.0
 _ZN3xsd3cxx4tree30element_serializer_initializerILm0EcN13icalendar_2_017ResourcesPropTypeEED1Ev@Base 1.1.0
 _ZN3xsd3cxx4tree30element_serializer_initializerILm0EcN13icalendar_2_017ResourcesPropTypeEED2Ev@Base 1.1.0
 _ZN3xsd3cxx4tree30element_serializer_initializerILm0EcN13icalendar_2_018CategoriesPropTypeEED1Ev@Base 1.1.0
 _ZN3xsd3cxx4tree30element_serializer_initializerILm0EcN13icalendar_2_018CategoriesPropTypeEED2Ev@Base 1.1.0
 _ZN3xsd3cxx4tree30element_serializer_initializerILm0EcN13icalendar_2_018TzoffsettoPropTypeEEC1EPKcS7_S7_S7_@Base 1.1.0
 _ZN3xsd3cxx4tree30element_serializer_initializerILm0EcN13icalendar_2_018TzoffsettoPropTypeEEC2EPKcS7_S7_S7_@Base 1.1.0
 _ZN3xsd3cxx4tree30element_serializer_initializerILm0EcN13icalendar_2_018TzoffsettoPropTypeEED1Ev@Base 1.1.0
 _ZN3xsd3cxx4tree30element_serializer_initializerILm0EcN13icalendar_2_018TzoffsettoPropTypeEED2Ev@Base 1.1.0
 _ZN3xsd3cxx4tree30element_serializer_initializerILm0EcN13icalendar_2_019DescriptionPropTypeEED1Ev@Base 1.1.0
 _ZN3xsd3cxx4tree30element_serializer_initializerILm0EcN13icalendar_2_019DescriptionPropTypeEED2Ev@Base 1.1.0
 _ZN3xsd3cxx4tree30element_serializer_initializerILm0EcN13icalendar_2_020DelegatedToParamTypeEED1Ev@Base 1.1.0
 _ZN3xsd3cxx4tree30element_serializer_initializerILm0EcN13icalendar_2_020DelegatedToParamTypeEED2Ev@Base 1.1.0
 _ZN3xsd3cxx4tree30element_serializer_initializerILm0EcN13icalendar_2_020LastModifiedPropTypeEEC1EPKcS7_S7_S7_@Base 1.1.2
 _ZN3xsd3cxx4tree30element_serializer_initializerILm0EcN13icalendar_2_020LastModifiedPropTypeEEC2EPKcS7_S7_S7_@Base 1.1.2
 _ZN3xsd3cxx4tree30element_serializer_initializerILm0EcN13icalendar_2_020LastModifiedPropTypeEED1Ev@Base 1.1.0
 _ZN3xsd3cxx4tree30element_serializer_initializerILm0EcN13icalendar_2_020LastModifiedPropTypeEED2Ev@Base 1.1.0
 _ZN3xsd3cxx4tree30element_serializer_initializerILm0EcN13icalendar_2_020RecurrenceIdPropTypeEEC1EPKcS7_S7_S7_@Base 1.1.0
 _ZN3xsd3cxx4tree30element_serializer_initializerILm0EcN13icalendar_2_020RecurrenceIdPropTypeEEC2EPKcS7_S7_S7_@Base 1.1.0
 _ZN3xsd3cxx4tree30element_serializer_initializerILm0EcN13icalendar_2_020RecurrenceIdPropTypeEED1Ev@Base 1.1.0
 _ZN3xsd3cxx4tree30element_serializer_initializerILm0EcN13icalendar_2_020RecurrenceIdPropTypeEED2Ev@Base 1.1.0
 _ZN3xsd3cxx4tree30element_serializer_initializerILm0EcN13icalendar_2_020TzoffsetfromPropTypeEEC1EPKcS7_S7_S7_@Base 1.1.0
 _ZN3xsd3cxx4tree30element_serializer_initializerILm0EcN13icalendar_2_020TzoffsetfromPropTypeEEC2EPKcS7_S7_S7_@Base 1.1.0
 _ZN3xsd3cxx4tree30element_serializer_initializerILm0EcN13icalendar_2_020TzoffsetfromPropTypeEED1Ev@Base 1.1.0
 _ZN3xsd3cxx4tree30element_serializer_initializerILm0EcN13icalendar_2_020TzoffsetfromPropTypeEED2Ev@Base 1.1.0
 _ZN3xsd3cxx4tree30element_serializer_initializerILm0EcN13icalendar_2_021RequestStatusPropTypeEED1Ev@Base 1.1.0
 _ZN3xsd3cxx4tree30element_serializer_initializerILm0EcN13icalendar_2_021RequestStatusPropTypeEED2Ev@Base 1.1.0
 _ZN3xsd3cxx4tree30element_serializer_initializerILm0EcN13icalendar_2_022DelegatedFromParamTypeEED1Ev@Base 1.1.0
 _ZN3xsd3cxx4tree30element_serializer_initializerILm0EcN13icalendar_2_022DelegatedFromParamTypeEED2Ev@Base 1.1.0
 _ZN3xsd3cxx4tree30element_serializer_initializerILm0EcN13icalendar_2_022ScheduleAgentParamTypeEED1Ev@Base 1.1.0
 _ZN3xsd3cxx4tree30element_serializer_initializerILm0EcN13icalendar_2_022ScheduleAgentParamTypeEED2Ev@Base 1.1.0
 _ZN3xsd3cxx4tree30element_serializer_initializerILm0EcN13icalendar_2_023PercentCompletePropTypeEED1Ev@Base 1.1.0
 _ZN3xsd3cxx4tree30element_serializer_initializerILm0EcN13icalendar_2_023PercentCompletePropTypeEED2Ev@Base 1.1.0
 _ZN3xsd3cxx4tree30element_serializer_initializerILm0EcN13icalendar_2_023ScheduleStatusParamTypeEED1Ev@Base 1.1.0
 _ZN3xsd3cxx4tree30element_serializer_initializerILm0EcN13icalendar_2_023ScheduleStatusParamTypeEED2Ev@Base 1.1.0
 _ZN3xsd3cxx4tree30element_serializer_initializerILm0EcN13icalendar_2_026ScheduleForceSendParamTypeEED1Ev@Base 1.1.0
 _ZN3xsd3cxx4tree30element_serializer_initializerILm0EcN13icalendar_2_026ScheduleForceSendParamTypeEED2Ev@Base 1.1.0
 _ZN3xsd3cxx4tree30element_serializer_initializerILm0EcN13icalendar_2_08XFBeventEED1Ev@Base 1.1.0
 _ZN3xsd3cxx4tree30element_serializer_initializerILm0EcN13icalendar_2_08XFBeventEED2Ev@Base 1.1.0
 _ZN3xsd3cxx4tree30element_serializer_initializerILm0EcN9vcard_4_010CryptoTypeEED1Ev@Base 1.1.0
 _ZN3xsd3cxx4tree30element_serializer_initializerILm0EcN9vcard_4_010CryptoTypeEED2Ev@Base 1.1.0
 _ZN3xsd3cxx4tree30element_serializer_initializerILm0EcN9vcard_4_010CustomTypeEED1Ev@Base 1.1.0
 _ZN3xsd3cxx4tree30element_serializer_initializerILm0EcN9vcard_4_010CustomTypeEED2Ev@Base 1.1.0
 _ZN3xsd3cxx4tree30element_serializer_initializerILm0EcN9vcard_4_010fnPropTypeEED1Ev@Base 1.1.0
 _ZN3xsd3cxx4tree30element_serializer_initializerILm0EcN9vcard_4_010fnPropTypeEED2Ev@Base 1.1.0
 _ZN3xsd3cxx4tree30element_serializer_initializerILm0EcN9vcard_4_012KolabVersionEED1Ev@Base 1.1.0
 _ZN3xsd3cxx4tree30element_serializer_initializerILm0EcN9vcard_4_012KolabVersionEED2Ev@Base 1.1.0
 _ZN3xsd3cxx4tree30element_serializer_initializerILm0EcN9vcard_4_012bdayPropTypeEED1Ev@Base 1.1.0
 _ZN3xsd3cxx4tree30element_serializer_initializerILm0EcN9vcard_4_012bdayPropTypeEED2Ev@Base 1.1.0
 _ZN3xsd3cxx4tree30element_serializer_initializerILm0EcN9vcard_4_013prefParamTypeEED1Ev@Base 1.1.0
 _ZN3xsd3cxx4tree30element_serializer_initializerILm0EcN9vcard_4_013prefParamTypeEED2Ev@Base 1.1.0
 _ZN3xsd3cxx4tree30element_serializer_initializerILm0EcN9vcard_4_013typeParamTypeEED1Ev@Base 1.1.0
 _ZN3xsd3cxx4tree30element_serializer_initializerILm0EcN9vcard_4_013typeParamTypeEED2Ev@Base 1.1.0
 _ZN3xsd3cxx4tree30element_serializer_initializerILm0EcN9vcard_4_013xuidParamTypeEED1Ev@Base 1.1.0
 _ZN3xsd3cxx4tree30element_serializer_initializerILm0EcN9vcard_4_013xuidParamTypeEED2Ev@Base 1.1.0
 _ZN3xsd3cxx4tree30element_serializer_initializerILm0EcN9vcard_4_014labelParamTypeEED1Ev@Base 1.1.0
 _ZN3xsd3cxx4tree30element_serializer_initializerILm0EcN9vcard_4_014labelParamTypeEED2Ev@Base 1.1.0
 _ZN3xsd3cxx4tree30element_serializer_initializerILm0EcN9vcard_4_09nPropTypeEED1Ev@Base 1.1.0
 _ZN3xsd3cxx4tree30element_serializer_initializerILm0EcN9vcard_4_09nPropTypeEED2Ev@Base 1.1.0
 _ZN3xsd3cxx4tree3oneIN13icalendar_2_010propertiesELb0EE3setESt8auto_ptrIS4_E@Base 1.1.0
 _ZN3xsd3cxx4tree3oneIN13icalendar_2_011UidPropTypeELb0EE3setESt8auto_ptrIS4_E@Base 1.1.0
 _ZN3xsd3cxx4tree3oneIN13icalendar_2_011UidPropTypeELb0EEC1ERKS5_NS1_5flagsEPNS1_5_typeE@Base 1.1.0
 _ZN3xsd3cxx4tree3oneIN13icalendar_2_011UidPropTypeELb0EEC1ESt8auto_ptrIS4_EPNS1_5_typeE@Base 1.1.0
 _ZN3xsd3cxx4tree3oneIN13icalendar_2_011UidPropTypeELb0EEC2ERKS5_NS1_5flagsEPNS1_5_typeE@Base 1.1.0
 _ZN3xsd3cxx4tree3oneIN13icalendar_2_011UidPropTypeELb0EEC2ESt8auto_ptrIS4_EPNS1_5_typeE@Base 1.1.0
 _ZN3xsd3cxx4tree3oneIN13icalendar_2_011UidPropTypeELb0EEaSERKS5_@Base 1.1.0
 _ZN3xsd3cxx4tree3oneIN13icalendar_2_011components1ELb0EE3setESt8auto_ptrIS4_E@Base 1.1.0
 _ZN3xsd3cxx4tree3oneIN13icalendar_2_011properties1ELb0EE3setESt8auto_ptrIS4_E@Base 1.1.0
 _ZN3xsd3cxx4tree3oneIN13icalendar_2_011properties2ELb0EE3setESt8auto_ptrIS4_E@Base 1.1.0
 _ZN3xsd3cxx4tree3oneIN13icalendar_2_011properties3ELb0EE3setESt8auto_ptrIS4_E@Base 1.1.0
 _ZN3xsd3cxx4tree3oneIN13icalendar_2_011properties4ELb0EE3setESt8auto_ptrIS4_E@Base 1.1.0
 _ZN3xsd3cxx4tree3oneIN13icalendar_2_011properties5ELb0EE3setESt8auto_ptrIS4_E@Base 1.1.0
 _ZN3xsd3cxx4tree3oneIN13icalendar_2_012DateTimeTypeELb0EE3setESt8auto_ptrIS4_E@Base 1.1.0
 _ZN3xsd3cxx4tree3oneIN13icalendar_2_012KolabVersionELb0EE3setESt8auto_ptrIS4_E@Base 1.1.0
 _ZN3xsd3cxx4tree3oneIN13icalendar_2_013FreqRecurTypeELb0EE3setESt8auto_ptrIS4_E@Base 1.1.0
 _ZN3xsd3cxx4tree3oneIN13icalendar_2_013UtcOffsetTypeELb0EE3setESt8auto_ptrIS4_E@Base 1.1.0
 _ZN3xsd3cxx4tree3oneIN13icalendar_2_013VcalendarTypeELb0EE3setESt8auto_ptrIS4_E@Base 1.1.0
 _ZN3xsd3cxx4tree3oneIN13icalendar_2_014ActionPropTypeELb0EE3setESt8auto_ptrIS4_E@Base 1.1.0
 _ZN3xsd3cxx4tree3oneIN13icalendar_2_014CalAddressTypeELb0EE3setESt8auto_ptrIS4_E@Base 1.1.0
 _ZN3xsd3cxx4tree3oneIN13icalendar_2_014ProdidPropTypeELb0EE3setESt8auto_ptrIS4_E@Base 1.1.0
 _ZN3xsd3cxx4tree3oneIN13icalendar_2_014RangeValueTypeELb0EE3setESt8auto_ptrIS4_E@Base 1.1.0
 _ZN3xsd3cxx4tree3oneIN13icalendar_2_015CreatedPropTypeELb0EE3setESt8auto_ptrIS4_E@Base 1.1.0
 _ZN3xsd3cxx4tree3oneIN13icalendar_2_015CreatedPropTypeELb0EEC1ERKS5_NS1_5flagsEPNS1_5_typeE@Base 1.1.0
 _ZN3xsd3cxx4tree3oneIN13icalendar_2_015CreatedPropTypeELb0EEC1ESt8auto_ptrIS4_EPNS1_5_typeE@Base 1.1.0
 _ZN3xsd3cxx4tree3oneIN13icalendar_2_015CreatedPropTypeELb0EEC2ERKS5_NS1_5flagsEPNS1_5_typeE@Base 1.1.0
 _ZN3xsd3cxx4tree3oneIN13icalendar_2_015CreatedPropTypeELb0EEC2ESt8auto_ptrIS4_EPNS1_5_typeE@Base 1.1.0
 _ZN3xsd3cxx4tree3oneIN13icalendar_2_015CreatedPropTypeELb0EEaSERKS5_@Base 1.1.0
 _ZN3xsd3cxx4tree3oneIN13icalendar_2_015DtstampPropTypeELb0EE3setESt8auto_ptrIS4_E@Base 1.1.0
 _ZN3xsd3cxx4tree3oneIN13icalendar_2_015DtstampPropTypeELb0EEC1ERKS5_NS1_5flagsEPNS1_5_typeE@Base 1.1.0
 _ZN3xsd3cxx4tree3oneIN13icalendar_2_015DtstampPropTypeELb0EEC1ESt8auto_ptrIS4_EPNS1_5_typeE@Base 1.1.0
 _ZN3xsd3cxx4tree3oneIN13icalendar_2_015DtstampPropTypeELb0EEC2ERKS5_NS1_5flagsEPNS1_5_typeE@Base 1.1.0
 _ZN3xsd3cxx4tree3oneIN13icalendar_2_015DtstampPropTypeELb0EEC2ESt8auto_ptrIS4_EPNS1_5_typeE@Base 1.1.0
 _ZN3xsd3cxx4tree3oneIN13icalendar_2_015DtstampPropTypeELb0EEaSERKS5_@Base 1.1.0
 _ZN3xsd3cxx4tree3oneIN13icalendar_2_015TriggerPropTypeELb0EE3setESt8auto_ptrIS4_E@Base 1.1.0
 _ZN3xsd3cxx4tree3oneIN13icalendar_2_015VersionPropTypeELb0EE3setESt8auto_ptrIS4_E@Base 1.1.0
 _ZN3xsd3cxx4tree3oneIN13icalendar_2_017CalscaleValueTypeELb0EE3setESt8auto_ptrIS4_E@Base 1.1.0
 _ZN3xsd3cxx4tree3oneIN13icalendar_2_017DurationValueTypeELb0EE3setESt8auto_ptrIS4_E@Base 1.1.0
 _ZN3xsd3cxx4tree3oneIN13icalendar_2_07UriTypeELb0EE3setESt8auto_ptrIS4_E@Base 1.1.0
 _ZN3xsd3cxx4tree3oneIN13icalendar_2_09RecurTypeELb0EE3setESt8auto_ptrIS4_E@Base 1.1.0
 _ZN3xsd3cxx4tree3oneIN8KolabXSD10parametersELb0EE3setESt8auto_ptrIS4_E@Base 1.1.0
 _ZN3xsd3cxx4tree3oneIN8KolabXSD14textformatTypeELb0EE3setESt8auto_ptrIS4_E@Base 1.1.0
 _ZN3xsd3cxx4tree3oneIN8KolabXSD17ConfigurationTypeELb0EE3setESt8auto_ptrIS4_E@Base 1.1.0
 _ZN3xsd3cxx4tree3oneIN8KolabXSD18attachmentPropTypeELb0EE3setESt8auto_ptrIS4_E@Base 1.1.0
 _ZN3xsd3cxx4tree3oneIN9vcard_4_010fnPropTypeELb0EE3setESt8auto_ptrIS4_E@Base 1.1.0
 _ZN3xsd3cxx4tree3oneIN9vcard_4_011revPropTypeELb0EE3setESt8auto_ptrIS4_E@Base 1.1.0
 _ZN3xsd3cxx4tree3oneIN9vcard_4_011uidPropTypeELb0EE3setESt8auto_ptrIS4_E@Base 1.1.0
 _ZN3xsd3cxx4tree3oneIN9vcard_4_012KolabVersionELb0EE3setESt8auto_ptrIS4_E@Base 1.1.0
 _ZN3xsd3cxx4tree3oneIN9vcard_4_012kindPropTypeELb0EE3setESt8auto_ptrIS4_E@Base 1.1.0
 _ZN3xsd3cxx4tree3oneIN9vcard_4_013TimeStampTypeELb0EE3setESt8auto_ptrIS4_E@Base 1.1.0
 _ZN3xsd3cxx4tree3oneIN9vcard_4_014prodidPropTypeELb0EE3setESt8auto_ptrIS4_E@Base 1.1.0
 _ZN3xsd3cxx4tree3oneIN9vcard_4_017PrefTypeValueTypeELb0EE3setESt8auto_ptrIS4_E@Base 1.1.0
 _ZN3xsd3cxx4tree3oneIN9vcard_4_017PrefTypeValueTypeELb0EEC1ERKS5_NS1_5flagsEPNS1_5_typeE@Base 1.1.0
 _ZN3xsd3cxx4tree3oneIN9vcard_4_017PrefTypeValueTypeELb0EEC2ERKS5_NS1_5flagsEPNS1_5_typeE@Base 1.1.0
 _ZN3xsd3cxx4tree3oneIN9vcard_4_017PrefTypeValueTypeELb0EEaSERKS5_@Base 1.1.0
 _ZN3xsd3cxx4tree3oneIN9vcard_4_028NonEmptyTextListPropertyTypeELb0EE3setESt8auto_ptrIS4_E@Base 1.1.0
 _ZN3xsd3cxx4tree3oneIN9vcard_4_05vcardELb0EE3setESt8auto_ptrIS4_E@Base 1.1.0
 _ZN3xsd3cxx4tree3oneIN9vcard_4_07SexTypeELb0EE3setESt8auto_ptrIS4_E@Base 1.1.0
 _ZN3xsd3cxx4tree3oneINS1_3uriIcNS1_11simple_typeIcNS1_5_typeEEEEELb0EE3setESt8auto_ptrIS7_E@Base 1.1.0
 _ZN3xsd3cxx4tree3oneINS1_3uriIcNS1_11simple_typeIcNS1_5_typeEEEEELb0EEC1ERKS8_NS1_5flagsEPS5_@Base 1.1.0
 _ZN3xsd3cxx4tree3oneINS1_3uriIcNS1_11simple_typeIcNS1_5_typeEEEEELb0EEC2ERKS8_NS1_5flagsEPS5_@Base 1.1.0
 _ZN3xsd3cxx4tree3oneINS1_3uriIcNS1_11simple_typeIcNS1_5_typeEEEEELb0EEaSERKS8_@Base 1.1.0
 _ZN3xsd3cxx4tree3oneINS1_6stringIcNS1_11simple_typeIcNS1_5_typeEEEEELb0EE3setERKS7_@Base 1.1.0
 _ZN3xsd3cxx4tree3oneINS1_6stringIcNS1_11simple_typeIcNS1_5_typeEEEEELb0EE3setESt8auto_ptrIS7_E@Base 1.1.0
 _ZN3xsd3cxx4tree3oneINS1_6stringIcNS1_11simple_typeIcNS1_5_typeEEEEELb0EEC1ERKS8_NS1_5flagsEPS5_@Base 1.1.0
 _ZN3xsd3cxx4tree3oneINS1_6stringIcNS1_11simple_typeIcNS1_5_typeEEEEELb0EEC2ERKS8_NS1_5flagsEPS5_@Base 1.1.0
 _ZN3xsd3cxx4tree3oneINS1_6stringIcNS1_11simple_typeIcNS1_5_typeEEEEELb0EEaSERKS8_@Base 1.1.0
 _ZN3xsd3cxx4tree3oneINS1_9date_timeIcNS1_11simple_typeIcNS1_5_typeEEEEELb0EE3setESt8auto_ptrIS7_E@Base 1.1.0
 _ZN3xsd3cxx4tree3oneINS1_9date_timeIcNS1_11simple_typeIcNS1_5_typeEEEEELb0EEC1ERKS8_NS1_5flagsEPS5_@Base 1.1.0
 _ZN3xsd3cxx4tree3oneINS1_9date_timeIcNS1_11simple_typeIcNS1_5_typeEEEEELb0EEC2ERKS8_NS1_5flagsEPS5_@Base 1.1.0
 _ZN3xsd3cxx4tree3oneINS1_9date_timeIcNS1_11simple_typeIcNS1_5_typeEEEEELb0EEaSERKS8_@Base 1.1.0
 _ZN3xsd3cxx4tree3uriIcNS1_11simple_typeIcNS1_5_typeEEEEC1ERKN11xercesc_3_110DOMElementENS1_5flagsEPS4_@Base 1.1.0
 _ZN3xsd3cxx4tree3uriIcNS1_11simple_typeIcNS1_5_typeEEEEC1ERKNSt7__cxx1112basic_stringIcSt11char_traitsIcESaIcEEE@Base 1.1.0
 _ZN3xsd3cxx4tree3uriIcNS1_11simple_typeIcNS1_5_typeEEEEC2ERKN11xercesc_3_110DOMElementENS1_5flagsEPS4_@Base 1.1.0
 _ZN3xsd3cxx4tree3uriIcNS1_11simple_typeIcNS1_5_typeEEEEC2ERKNSt7__cxx1112basic_stringIcSt11char_traitsIcESaIcEEE@Base 1.1.0
 _ZN3xsd3cxx4tree3uriIcNS1_11simple_typeIcNS1_5_typeEEEED0Ev@Base 1.1.0
 _ZN3xsd3cxx4tree3uriIcNS1_11simple_typeIcNS1_5_typeEEEED1Ev@Base 1.1.0
 _ZN3xsd3cxx4tree3uriIcNS1_11simple_typeIcNS1_5_typeEEEED2Ev@Base 1.1.0
 _ZN3xsd3cxx4tree4bits11zone_insertIcEEvRSt13basic_ostreamIT_St11char_traitsIS5_EERKNS1_9time_zoneE@Base 1.1.0
 _ZN3xsd3cxx4tree4bits14duration_delimIcEENS0_9ro_stringIT_E9size_typeEPKS5_S7_S7_@Base 1.1.0
 _ZN3xsd3cxx4tree4bits6insertIcEENSt7__cxx1112basic_stringIT_St11char_traitsIS6_ESaIS6_EEEf@Base 1.1.0
 _ZN3xsd3cxx4tree4bits6insertIcNS1_11simple_typeIcNS1_5_typeEEEEEvRSt13basic_ostreamIT_St11char_traitsIS8_EERKNS1_10gmonth_dayIS8_T0_EE@Base 1.1.0
 _ZN3xsd3cxx4tree4bits6insertIcNS1_11simple_typeIcNS1_5_typeEEEEEvRSt13basic_ostreamIT_St11char_traitsIS8_EERKNS1_4dateIS8_T0_EE@Base 1.1.0
 _ZN3xsd3cxx4tree4bits6insertIcNS1_11simple_typeIcNS1_5_typeEEEEEvRSt13basic_ostreamIT_St11char_traitsIS8_EERKNS1_4timeIS8_T0_EE@Base 1.1.0
 _ZN3xsd3cxx4tree4bits6insertIcNS1_11simple_typeIcNS1_5_typeEEEEEvRSt13basic_ostreamIT_St11char_traitsIS8_EERKNS1_8durationIS8_T0_EE@Base 1.1.0
 _ZN3xsd3cxx4tree4bits6insertIcNS1_11simple_typeIcNS1_5_typeEEEEEvRSt13basic_ostreamIT_St11char_traitsIS8_EERKNS1_9date_timeIS8_T0_EE@Base 1.1.0
 _ZN3xsd3cxx4tree4bits6insertIcNS1_5tokenIcNS1_17normalized_stringIcNS1_6stringIcNS1_11simple_typeIcNS1_5_typeEEEEEEEEEEEvRN11xercesc_3_17DOMAttrERKT0_@Base 1.1.0
 _ZN3xsd3cxx4tree4bits6insertIcNS1_6entityIcNS1_6ncnameIcNS1_4nameIcNS1_5tokenIcNS1_17normalized_stringIcNS1_6stringIcNS1_11simple_typeIcNS1_5_typeEEEEEEEEEEEEEEEEEvRN11xercesc_3_110DOMElementERKT0_@Base 1.1.0
 _ZN3xsd3cxx4tree4bits6insertIcNS1_6stringIcNS1_11simple_typeIcNS1_5_typeEEEEEEEvRN11xercesc_3_17DOMAttrERKT0_@Base 1.1.0
 _ZN3xsd3cxx4tree4dateIcNS1_11simple_typeIcNS1_5_typeEEEE5parseERKNSt7__cxx1112basic_stringIcSt11char_traitsIcESaIcEEE@Base 1.1.0
 _ZN3xsd3cxx4tree4dateIcNS1_11simple_typeIcNS1_5_typeEEEEC1ERKN11xercesc_3_110DOMElementENS1_5flagsEPS4_@Base 1.1.0
 _ZN3xsd3cxx4tree4dateIcNS1_11simple_typeIcNS1_5_typeEEEEC2ERKN11xercesc_3_110DOMElementENS1_5flagsEPS4_@Base 1.1.0
 _ZN3xsd3cxx4tree4dateIcNS1_11simple_typeIcNS1_5_typeEEEED0Ev@Base 1.1.0
 _ZN3xsd3cxx4tree4dateIcNS1_11simple_typeIcNS1_5_typeEEEED1Ev@Base 1.1.0
 _ZN3xsd3cxx4tree4dateIcNS1_11simple_typeIcNS1_5_typeEEEED2Ev@Base 1.1.0
 _ZN3xsd3cxx4tree4gdayIcNS1_11simple_typeIcNS1_5_typeEEEED0Ev@Base 1.1.0
 _ZN3xsd3cxx4tree4gdayIcNS1_11simple_typeIcNS1_5_typeEEEED1Ev@Base 1.1.0
 _ZN3xsd3cxx4tree4gdayIcNS1_11simple_typeIcNS1_5_typeEEEED2Ev@Base 1.1.0
 _ZN3xsd3cxx4tree4listINS1_5idrefIcNS1_6ncnameIcNS1_4nameIcNS1_5tokenIcNS1_17normalized_stringIcNS1_6stringIcNS1_11simple_typeIcNS1_5_typeEEEEEEEEEEEEESA_EEcLNS1_11schema_type5valueE0ELb0EE4initERKNSt7__cxx1112basic_stringIcSt11char_traitsIcESaIcEEEPKN11xercesc_3_110DOMElementENS1_5flagsE@Base 1.1.0
 _ZN3xsd3cxx4tree4listINS1_6entityIcNS1_6ncnameIcNS1_4nameIcNS1_5tokenIcNS1_17normalized_stringIcNS1_6stringIcNS1_11simple_typeIcNS1_5_typeEEEEEEEEEEEEEEEcLNS1_11schema_type5valueE0ELb0EE4initERKNSt7__cxx1112basic_stringIcSt11char_traitsIcESaIcEEEPKN11xercesc_3_110DOMElementENS1_5flagsE@Base 1.1.0
 _ZN3xsd3cxx4tree4listINS1_7nmtokenIcNS1_5tokenIcNS1_17normalized_stringIcNS1_6stringIcNS1_11simple_typeIcNS1_5_typeEEEEEEEEEEEcLNS1_11schema_type5valueE0ELb0EE4initERKNSt7__cxx1112basic_stringIcSt11char_traitsIcESaIcEEEPKN11xercesc_3_110DOMElementENS1_5flagsE@Base 1.1.0
 _ZN3xsd3cxx4tree4nameIcNS1_5tokenIcNS1_17normalized_stringIcNS1_6stringIcNS1_11simple_typeIcNS1_5_typeEEEEEEEEEED0Ev@Base 1.1.0
 _ZN3xsd3cxx4tree4nameIcNS1_5tokenIcNS1_17normalized_stringIcNS1_6stringIcNS1_11simple_typeIcNS1_5_typeEEEEEEEEEED1Ev@Base 1.1.0
 _ZN3xsd3cxx4tree4nameIcNS1_5tokenIcNS1_17normalized_stringIcNS1_6stringIcNS1_11simple_typeIcNS1_5_typeEEEEEEEEEED2Ev@Base 1.1.0
 _ZN3xsd3cxx4tree4timeIcNS1_11simple_typeIcNS1_5_typeEEEE5parseERKNSt7__cxx1112basic_stringIcSt11char_traitsIcESaIcEEE@Base 1.1.0
 _ZN3xsd3cxx4tree4timeIcNS1_11simple_typeIcNS1_5_typeEEEED0Ev@Base 1.1.0
 _ZN3xsd3cxx4tree4timeIcNS1_11simple_typeIcNS1_5_typeEEEED1Ev@Base 1.1.0
 _ZN3xsd3cxx4tree4timeIcNS1_11simple_typeIcNS1_5_typeEEEED2Ev@Base 1.1.0
 _ZN3xsd3cxx4tree5_type10_containerEPS2_@Base 1.1.0
 _ZN3xsd3cxx4tree5_type14not_registeredD0Ev@Base 1.1.0
 _ZN3xsd3cxx4tree5_type14not_registeredD1Ev@Base 1.1.0
 _ZN3xsd3cxx4tree5_type14not_registeredD2Ev@Base 1.1.0
 _ZN3xsd3cxx4tree5_type16dom_content_typeD0Ev@Base 1.1.0
 _ZN3xsd3cxx4tree5_type16dom_content_typeD1Ev@Base 1.1.0
 _ZN3xsd3cxx4tree5_type16dom_content_typeD2Ev@Base 1.1.0
 _ZN3xsd3cxx4tree5_type16dom_element_info4nodeEv@Base 1.1.0
 _ZN3xsd3cxx4tree5_type16dom_element_infoC1ERN11xercesc_3_110DOMElementERS2_b@Base 1.1.2
 _ZN3xsd3cxx4tree5_type16dom_element_infoC2ERN11xercesc_3_110DOMElementERS2_b@Base 1.1.2
 _ZN3xsd3cxx4tree5_type16dom_element_infoD0Ev@Base 1.1.0
 _ZN3xsd3cxx4tree5_type16dom_element_infoD1Ev@Base 1.1.0
 _ZN3xsd3cxx4tree5_type16dom_element_infoD2Ev@Base 1.1.0
 _ZN3xsd3cxx4tree5_type18dom_attribute_info4nodeEv@Base 1.1.0
 _ZN3xsd3cxx4tree5_type18dom_attribute_infoD0Ev@Base 1.1.0
 _ZN3xsd3cxx4tree5_type18dom_attribute_infoD1Ev@Base 1.1.0
 _ZN3xsd3cxx4tree5_type18dom_attribute_infoD2Ev@Base 1.1.0
 _ZN3xsd3cxx4tree5_typeC1ERKN11xercesc_3_110DOMElementENS1_5flagsEPS2_@Base 1.1.0
 _ZN3xsd3cxx4tree5_typeC1ERKS2_NS1_5flagsEPS2_@Base 1.1.0
 _ZN3xsd3cxx4tree5_typeC2ERKN11xercesc_3_110DOMElementENS1_5flagsEPS2_@Base 1.1.0
 _ZN3xsd3cxx4tree5_typeC2ERKS2_NS1_5flagsEPS2_@Base 1.1.0
 _ZN3xsd3cxx4tree5_typeD0Ev@Base 1.1.0
 _ZN3xsd3cxx4tree5_typeD1Ev@Base 1.1.0
 _ZN3xsd3cxx4tree5_typeD2Ev@Base 1.1.0
 _ZN3xsd3cxx4tree5_typeaSERKS2_@Base 1.1.0
 _ZN3xsd3cxx4tree5errorIcED1Ev@Base 1.1.0
 _ZN3xsd3cxx4tree5errorIcED2Ev@Base 1.1.0
 _ZN3xsd3cxx4tree5gyearIcNS1_11simple_typeIcNS1_5_typeEEEE5parseERKNSt7__cxx1112basic_stringIcSt11char_traitsIcESaIcEEE@Base 1.1.0
 _ZN3xsd3cxx4tree5gyearIcNS1_11simple_typeIcNS1_5_typeEEEED0Ev@Base 1.1.0
 _ZN3xsd3cxx4tree5gyearIcNS1_11simple_typeIcNS1_5_typeEEEED1Ev@Base 1.1.0
 _ZN3xsd3cxx4tree5gyearIcNS1_11simple_typeIcNS1_5_typeEEEED2Ev@Base 1.1.0
 _ZN3xsd3cxx4tree5idrefIcNS1_6ncnameIcNS1_4nameIcNS1_5tokenIcNS1_17normalized_stringIcNS1_6stringIcNS1_11simple_typeIcNS1_5_typeEEEEEEEEEEEEES9_ED0Ev@Base 1.1.0
 _ZN3xsd3cxx4tree5idrefIcNS1_6ncnameIcNS1_4nameIcNS1_5tokenIcNS1_17normalized_stringIcNS1_6stringIcNS1_11simple_typeIcNS1_5_typeEEEEEEEEEEEEES9_ED1Ev@Base 1.1.0
 _ZN3xsd3cxx4tree5idrefIcNS1_6ncnameIcNS1_4nameIcNS1_5tokenIcNS1_17normalized_stringIcNS1_6stringIcNS1_11simple_typeIcNS1_5_typeEEEEEEEEEEEEES9_ED2Ev@Base 1.1.0
 _ZN3xsd3cxx4tree5qnameIcNS1_11simple_typeIcNS1_5_typeEEENS1_3uriIcS5_EENS1_6ncnameIcNS1_4nameIcNS1_5tokenIcNS1_17normalized_stringIcNS1_6stringIcS5_EEEEEEEEEEE7resolveERKNSt7__cxx1112basic_stringIcSt11char_traitsIcESaIcEEEPKN11xercesc_3_110DOMElementE@Base 1.1.0
 _ZN3xsd3cxx4tree5qnameIcNS1_11simple_typeIcNS1_5_typeEEENS1_3uriIcS5_EENS1_6ncnameIcNS1_4nameIcNS1_5tokenIcNS1_17normalized_stringIcNS1_6stringIcS5_EEEEEEEEEEEC1ERKN11xercesc_3_110DOMElementENS1_5flagsEPS4_@Base 1.1.0
 _ZN3xsd3cxx4tree5qnameIcNS1_11simple_typeIcNS1_5_typeEEENS1_3uriIcS5_EENS1_6ncnameIcNS1_4nameIcNS1_5tokenIcNS1_17normalized_stringIcNS1_6stringIcS5_EEEEEEEEEEEC2ERKN11xercesc_3_110DOMElementENS1_5flagsEPS4_@Base 1.1.0
 _ZN3xsd3cxx4tree5qnameIcNS1_11simple_typeIcNS1_5_typeEEENS1_3uriIcS5_EENS1_6ncnameIcNS1_4nameIcNS1_5tokenIcNS1_17normalized_stringIcNS1_6stringIcS5_EEEEEEEEEEED0Ev@Base 1.1.0
 _ZN3xsd3cxx4tree5qnameIcNS1_11simple_typeIcNS1_5_typeEEENS1_3uriIcS5_EENS1_6ncnameIcNS1_4nameIcNS1_5tokenIcNS1_17normalized_stringIcNS1_6stringIcS5_EEEEEEEEEEED1Ev@Base 1.1.0
 _ZN3xsd3cxx4tree5qnameIcNS1_11simple_typeIcNS1_5_typeEEENS1_3uriIcS5_EENS1_6ncnameIcNS1_4nameIcNS1_5tokenIcNS1_17normalized_stringIcNS1_6stringIcS5_EEEEEEEEEEED2Ev@Base 1.1.0
 _ZN3xsd3cxx4tree5tokenIcNS1_17normalized_stringIcNS1_6stringIcNS1_11simple_typeIcNS1_5_typeEEEEEEEE8collapseEv@Base 1.1.0
 _ZN3xsd3cxx4tree5tokenIcNS1_17normalized_stringIcNS1_6stringIcNS1_11simple_typeIcNS1_5_typeEEEEEEEEC1ERKN11xercesc_3_110DOMElementENS1_5flagsEPS6_@Base 1.1.0
 _ZN3xsd3cxx4tree5tokenIcNS1_17normalized_stringIcNS1_6stringIcNS1_11simple_typeIcNS1_5_typeEEEEEEEEC1ERKN11xercesc_3_17DOMAttrENS1_5flagsEPS6_@Base 1.1.0
 _ZN3xsd3cxx4tree5tokenIcNS1_17normalized_stringIcNS1_6stringIcNS1_11simple_typeIcNS1_5_typeEEEEEEEEC1ERKNSt7__cxx1112basic_stringIcSt11char_traitsIcESaIcEEEPKN11xercesc_3_110DOMElementENS1_5flagsEPS6_@Base 1.1.0
 _ZN3xsd3cxx4tree5tokenIcNS1_17normalized_stringIcNS1_6stringIcNS1_11simple_typeIcNS1_5_typeEEEEEEEEC2ERKN11xercesc_3_110DOMElementENS1_5flagsEPS6_@Base 1.1.0
 _ZN3xsd3cxx4tree5tokenIcNS1_17normalized_stringIcNS1_6stringIcNS1_11simple_typeIcNS1_5_typeEEEEEEEEC2ERKN11xercesc_3_17DOMAttrENS1_5flagsEPS6_@Base 1.1.0
 _ZN3xsd3cxx4tree5tokenIcNS1_17normalized_stringIcNS1_6stringIcNS1_11simple_typeIcNS1_5_typeEEEEEEEEC2ERKNSt7__cxx1112basic_stringIcSt11char_traitsIcESaIcEEEPKN11xercesc_3_110DOMElementENS1_5flagsEPS6_@Base 1.1.0
 _ZN3xsd3cxx4tree5tokenIcNS1_17normalized_stringIcNS1_6stringIcNS1_11simple_typeIcNS1_5_typeEEEEEEEED0Ev@Base 1.1.0
 _ZN3xsd3cxx4tree5tokenIcNS1_17normalized_stringIcNS1_6stringIcNS1_11simple_typeIcNS1_5_typeEEEEEEEED1Ev@Base 1.1.0
 _ZN3xsd3cxx4tree5tokenIcNS1_17normalized_stringIcNS1_6stringIcNS1_11simple_typeIcNS1_5_typeEEEEEEEED2Ev@Base 1.1.0
 _ZN3xsd3cxx4tree6boundsIcED0Ev@Base 1.1.0
 _ZN3xsd3cxx4tree6boundsIcED1Ev@Base 1.1.0
 _ZN3xsd3cxx4tree6boundsIcED2Ev@Base 1.1.0
 _ZN3xsd3cxx4tree6bufferIcE8capacityEmb@Base 1.1.0
 _ZN3xsd3cxx4tree6bufferIcEC1ERKS3_@Base 1.1.0
 _ZN3xsd3cxx4tree6bufferIcEC1Em@Base 1.1.0
 _ZN3xsd3cxx4tree6bufferIcEC2ERKS3_@Base 1.1.0
 _ZN3xsd3cxx4tree6bufferIcEC2Em@Base 1.1.0
 _ZN3xsd3cxx4tree6bufferIcED0Ev@Base 1.1.0
 _ZN3xsd3cxx4tree6bufferIcED1Ev@Base 1.1.0
 _ZN3xsd3cxx4tree6bufferIcED2Ev@Base 1.1.0
 _ZN3xsd3cxx4tree6entityIcNS1_6ncnameIcNS1_4nameIcNS1_5tokenIcNS1_17normalized_stringIcNS1_6stringIcNS1_11simple_typeIcNS1_5_typeEEEEEEEEEEEEEED0Ev@Base 1.1.0
 _ZN3xsd3cxx4tree6entityIcNS1_6ncnameIcNS1_4nameIcNS1_5tokenIcNS1_17normalized_stringIcNS1_6stringIcNS1_11simple_typeIcNS1_5_typeEEEEEEEEEEEEEED1Ev@Base 1.1.0
 _ZN3xsd3cxx4tree6entityIcNS1_6ncnameIcNS1_4nameIcNS1_5tokenIcNS1_17normalized_stringIcNS1_6stringIcNS1_11simple_typeIcNS1_5_typeEEEEEEEEEEEEEED2Ev@Base 1.1.0
 _ZN3xsd3cxx4tree6gmonthIcNS1_11simple_typeIcNS1_5_typeEEEED0Ev@Base 1.1.0
 _ZN3xsd3cxx4tree6gmonthIcNS1_11simple_typeIcNS1_5_typeEEEED1Ev@Base 1.1.0
 _ZN3xsd3cxx4tree6gmonthIcNS1_11simple_typeIcNS1_5_typeEEEED2Ev@Base 1.1.0
 _ZN3xsd3cxx4tree6idrefsIcNS1_11simple_typeIcNS1_5_typeEEENS1_5idrefIcNS1_6ncnameIcNS1_4nameIcNS1_5tokenIcNS1_17normalized_stringIcNS1_6stringIcS5_EEEEEEEEEES4_EEED0Ev@Base 1.1.0
 _ZN3xsd3cxx4tree6idrefsIcNS1_11simple_typeIcNS1_5_typeEEENS1_5idrefIcNS1_6ncnameIcNS1_4nameIcNS1_5tokenIcNS1_17normalized_stringIcNS1_6stringIcS5_EEEEEEEEEES4_EEED1Ev@Base 1.1.0
 _ZN3xsd3cxx4tree6idrefsIcNS1_11simple_typeIcNS1_5_typeEEENS1_5idrefIcNS1_6ncnameIcNS1_4nameIcNS1_5tokenIcNS1_17normalized_stringIcNS1_6stringIcS5_EEEEEEEEEES4_EEED2Ev@Base 1.1.0
 _ZN3xsd3cxx4tree6ncnameIcNS1_4nameIcNS1_5tokenIcNS1_17normalized_stringIcNS1_6stringIcNS1_11simple_typeIcNS1_5_typeEEEEEEEEEEEED0Ev@Base 1.1.0
 _ZN3xsd3cxx4tree6ncnameIcNS1_4nameIcNS1_5tokenIcNS1_17normalized_stringIcNS1_6stringIcNS1_11simple_typeIcNS1_5_typeEEEEEEEEEEEED1Ev@Base 1.1.0
 _ZN3xsd3cxx4tree6ncnameIcNS1_4nameIcNS1_5tokenIcNS1_17normalized_stringIcNS1_6stringIcNS1_11simple_typeIcNS1_5_typeEEEEEEEEEEEED2Ev@Base 1.1.0
 _ZN3xsd3cxx4tree6stringIcNS1_11simple_typeIcNS1_5_typeEEEEC1EPKc@Base 1.1.0
 _ZN3xsd3cxx4tree6stringIcNS1_11simple_typeIcNS1_5_typeEEEEC1ERKN11xercesc_3_110DOMElementENS1_5flagsEPS4_@Base 1.1.0
 _ZN3xsd3cxx4tree6stringIcNS1_11simple_typeIcNS1_5_typeEEEEC1ERKN11xercesc_3_17DOMAttrENS1_5flagsEPS4_@Base 1.1.0
 _ZN3xsd3cxx4tree6stringIcNS1_11simple_typeIcNS1_5_typeEEEEC1ERKNSt7__cxx1112basic_stringIcSt11char_traitsIcESaIcEEE@Base 1.1.0
 _ZN3xsd3cxx4tree6stringIcNS1_11simple_typeIcNS1_5_typeEEEEC1ERKNSt7__cxx1112basic_stringIcSt11char_traitsIcESaIcEEEPKN11xercesc_3_110DOMElementENS1_5flagsEPS4_@Base 1.1.0
 _ZN3xsd3cxx4tree6stringIcNS1_11simple_typeIcNS1_5_typeEEEEC2EPKc@Base 1.1.0
 _ZN3xsd3cxx4tree6stringIcNS1_11simple_typeIcNS1_5_typeEEEEC2ERKN11xercesc_3_110DOMElementENS1_5flagsEPS4_@Base 1.1.0
 _ZN3xsd3cxx4tree6stringIcNS1_11simple_typeIcNS1_5_typeEEEEC2ERKN11xercesc_3_17DOMAttrENS1_5flagsEPS4_@Base 1.1.0
 _ZN3xsd3cxx4tree6stringIcNS1_11simple_typeIcNS1_5_typeEEEEC2ERKNSt7__cxx1112basic_stringIcSt11char_traitsIcESaIcEEE@Base 1.1.0
 _ZN3xsd3cxx4tree6stringIcNS1_11simple_typeIcNS1_5_typeEEEEC2ERKNSt7__cxx1112basic_stringIcSt11char_traitsIcESaIcEEEPKN11xercesc_3_110DOMElementENS1_5flagsEPS4_@Base 1.1.0
 _ZN3xsd3cxx4tree6stringIcNS1_11simple_typeIcNS1_5_typeEEEED0Ev@Base 1.1.0
 _ZN3xsd3cxx4tree6stringIcNS1_11simple_typeIcNS1_5_typeEEEED1Ev@Base 1.1.0
 _ZN3xsd3cxx4tree6stringIcNS1_11simple_typeIcNS1_5_typeEEEED2Ev@Base 1.1.0
 _ZN3xsd3cxx4tree6traitsINS1_6stringIcNS1_11simple_typeIcNS1_5_typeEEEEEcLNS1_11schema_type5valueE0EE6createERKN11xercesc_3_110DOMElementENS1_5flagsEPS5_@Base 1.1.0
 _ZN3xsd3cxx4tree6traitsIfcLNS1_11schema_type5valueE0EE6createERKN11xercesc_3_110DOMElementENS1_5flagsEPNS1_5_typeE@Base 1.1.0
 _ZN3xsd3cxx4tree6traitsIfcLNS1_11schema_type5valueE0EE6createERKNSt7__cxx1112basic_stringIcSt11char_traitsIcESaIcEEEPKN11xercesc_3_110DOMElementENS1_5flagsEPNS1_5_typeE@Base 1.1.2
 _ZN3xsd3cxx4tree7nmtokenIcNS1_5tokenIcNS1_17normalized_stringIcNS1_6stringIcNS1_11simple_typeIcNS1_5_typeEEEEEEEEEED0Ev@Base 1.1.0
 _ZN3xsd3cxx4tree7nmtokenIcNS1_5tokenIcNS1_17normalized_stringIcNS1_6stringIcNS1_11simple_typeIcNS1_5_typeEEEEEEEEEED1Ev@Base 1.1.0
 _ZN3xsd3cxx4tree7nmtokenIcNS1_5tokenIcNS1_17normalized_stringIcNS1_6stringIcNS1_11simple_typeIcNS1_5_typeEEEEEEEEEED2Ev@Base 1.1.0
 _ZN3xsd3cxx4tree7parsingIcEC1ERKNS1_11diagnosticsIcEE@Base 1.1.0
 _ZN3xsd3cxx4tree7parsingIcEC2ERKNS1_11diagnosticsIcEE@Base 1.1.0
 _ZN3xsd3cxx4tree7parsingIcED0Ev@Base 1.1.0
 _ZN3xsd3cxx4tree7parsingIcED1Ev@Base 1.1.0
 _ZN3xsd3cxx4tree7parsingIcED2Ev@Base 1.1.0
 _ZN3xsd3cxx4tree8durationIcNS1_11simple_typeIcNS1_5_typeEEEE5parseERKNSt7__cxx1112basic_stringIcSt11char_traitsIcESaIcEEE@Base 1.1.0
 _ZN3xsd3cxx4tree8durationIcNS1_11simple_typeIcNS1_5_typeEEEED0Ev@Base 1.1.0
 _ZN3xsd3cxx4tree8durationIcNS1_11simple_typeIcNS1_5_typeEEEED1Ev@Base 1.1.0
 _ZN3xsd3cxx4tree8durationIcNS1_11simple_typeIcNS1_5_typeEEEED2Ev@Base 1.1.0
 _ZN3xsd3cxx4tree8entitiesIcNS1_11simple_typeIcNS1_5_typeEEENS1_6entityIcNS1_6ncnameIcNS1_4nameIcNS1_5tokenIcNS1_17normalized_stringIcNS1_6stringIcS5_EEEEEEEEEEEEED0Ev@Base 1.1.0
 _ZN3xsd3cxx4tree8entitiesIcNS1_11simple_typeIcNS1_5_typeEEENS1_6entityIcNS1_6ncnameIcNS1_4nameIcNS1_5tokenIcNS1_17normalized_stringIcNS1_6stringIcS5_EEEEEEEEEEEEED1Ev@Base 1.1.0
 _ZN3xsd3cxx4tree8entitiesIcNS1_11simple_typeIcNS1_5_typeEEENS1_6entityIcNS1_6ncnameIcNS1_4nameIcNS1_5tokenIcNS1_17normalized_stringIcNS1_6stringIcS5_EEEEEEEEEEEEED2Ev@Base 1.1.0
 _ZN3xsd3cxx4tree8languageIcNS1_5tokenIcNS1_17normalized_stringIcNS1_6stringIcNS1_11simple_typeIcNS1_5_typeEEEEEEEEEED0Ev@Base 1.1.0
 _ZN3xsd3cxx4tree8languageIcNS1_5tokenIcNS1_17normalized_stringIcNS1_6stringIcNS1_11simple_typeIcNS1_5_typeEEEEEEEEEED1Ev@Base 1.1.0
 _ZN3xsd3cxx4tree8languageIcNS1_5tokenIcNS1_17normalized_stringIcNS1_6stringIcNS1_11simple_typeIcNS1_5_typeEEEEEEEEEED2Ev@Base 1.1.0
 _ZN3xsd3cxx4tree8nmtokensIcNS1_11simple_typeIcNS1_5_typeEEENS1_7nmtokenIcNS1_5tokenIcNS1_17normalized_stringIcNS1_6stringIcS5_EEEEEEEEED0Ev@Base 1.1.0
 _ZN3xsd3cxx4tree8nmtokensIcNS1_11simple_typeIcNS1_5_typeEEENS1_7nmtokenIcNS1_5tokenIcNS1_17normalized_stringIcNS1_6stringIcS5_EEEEEEEEED1Ev@Base 1.1.0
 _ZN3xsd3cxx4tree8nmtokensIcNS1_11simple_typeIcNS1_5_typeEEENS1_7nmtokenIcNS1_5tokenIcNS1_17normalized_stringIcNS1_6stringIcS5_EEEEEEEEED2Ev@Base 1.1.0
 _ZN3xsd3cxx4tree8optionalIN13icalendar_2_010componentsELb0EE3setESt8auto_ptrIS4_E@Base 1.1.0
 _ZN3xsd3cxx4tree8optionalIN13icalendar_2_010componentsELb0EE5true_Ev@Base 1.1.0
 _ZN3xsd3cxx4tree8optionalIN13icalendar_2_010componentsELb0EEC1ERKS5_NS1_5flagsEPNS1_5_typeE@Base 1.1.0
 _ZN3xsd3cxx4tree8optionalIN13icalendar_2_010componentsELb0EEC2ERKS5_NS1_5flagsEPNS1_5_typeE@Base 1.1.0
 _ZN3xsd3cxx4tree8optionalIN13icalendar_2_010componentsELb0EEaSERKS5_@Base 1.1.0
 _ZN3xsd3cxx4tree8optionalIN13icalendar_2_011DuePropTypeELb0EE3setESt8auto_ptrIS4_E@Base 1.1.0
 _ZN3xsd3cxx4tree8optionalIN13icalendar_2_011DuePropTypeELb0EE5true_Ev@Base 1.1.0
 _ZN3xsd3cxx4tree8optionalIN13icalendar_2_011DuePropTypeELb0EEaSERKS5_@Base 1.1.0
 _ZN3xsd3cxx4tree8optionalIN13icalendar_2_011UrlPropTypeELb0EE3setESt8auto_ptrIS4_E@Base 1.1.0
 _ZN3xsd3cxx4tree8optionalIN13icalendar_2_011UrlPropTypeELb0EE5true_Ev@Base 1.1.0
 _ZN3xsd3cxx4tree8optionalIN13icalendar_2_011UrlPropTypeELb0EEC1ERKS5_NS1_5flagsEPNS1_5_typeE@Base 1.1.0
 _ZN3xsd3cxx4tree8optionalIN13icalendar_2_011UrlPropTypeELb0EEC2ERKS5_NS1_5flagsEPNS1_5_typeE@Base 1.1.0
 _ZN3xsd3cxx4tree8optionalIN13icalendar_2_011UrlPropTypeELb0EEaSERKS5_@Base 1.1.0
 _ZN3xsd3cxx4tree8optionalIN13icalendar_2_012DateTimeTypeELb0EE3setESt8auto_ptrIS4_E@Base 1.1.0
 _ZN3xsd3cxx4tree8optionalIN13icalendar_2_012DateTimeTypeELb0EE5true_Ev@Base 1.1.0
 _ZN3xsd3cxx4tree8optionalIN13icalendar_2_012DateTimeTypeELb0EEC1ERKS5_NS1_5flagsEPNS1_5_typeE@Base 1.1.0
 _ZN3xsd3cxx4tree8optionalIN13icalendar_2_012DateTimeTypeELb0EEC2ERKS5_NS1_5flagsEPNS1_5_typeE@Base 1.1.0
 _ZN3xsd3cxx4tree8optionalIN13icalendar_2_012DateTimeTypeELb0EEaSERKS5_@Base 1.1.0
 _ZN3xsd3cxx4tree8optionalIN13icalendar_2_013ClassPropTypeELb0EE3setESt8auto_ptrIS4_E@Base 1.1.0
 _ZN3xsd3cxx4tree8optionalIN13icalendar_2_013ClassPropTypeELb0EE5true_Ev@Base 1.1.0
 _ZN3xsd3cxx4tree8optionalIN13icalendar_2_013ClassPropTypeELb0EEC1ERKS5_NS1_5flagsEPNS1_5_typeE@Base 1.1.0
 _ZN3xsd3cxx4tree8optionalIN13icalendar_2_013ClassPropTypeELb0EEC2ERKS5_NS1_5flagsEPNS1_5_typeE@Base 1.1.0
 _ZN3xsd3cxx4tree8optionalIN13icalendar_2_013ClassPropTypeELb0EEaSERKS5_@Base 1.1.0
 _ZN3xsd3cxx4tree8optionalIN13icalendar_2_013DtendPropTypeELb0EE3setESt8auto_ptrIS4_E@Base 1.1.0
 _ZN3xsd3cxx4tree8optionalIN13icalendar_2_013DtendPropTypeELb0EE5true_Ev@Base 1.1.0
 _ZN3xsd3cxx4tree8optionalIN13icalendar_2_013DtendPropTypeELb0EEC1ERKS5_NS1_5flagsEPNS1_5_typeE@Base 1.1.0
 _ZN3xsd3cxx4tree8optionalIN13icalendar_2_013DtendPropTypeELb0EEC2ERKS5_NS1_5flagsEPNS1_5_typeE@Base 1.1.0
 _ZN3xsd3cxx4tree8optionalIN13icalendar_2_013DtendPropTypeELb0EEaSERKS5_@Base 1.1.0
 _ZN3xsd3cxx4tree8optionalIN13icalendar_2_013RdatePropTypeELb0EE3setESt8auto_ptrIS4_E@Base 1.1.0
 _ZN3xsd3cxx4tree8optionalIN13icalendar_2_013RdatePropTypeELb0EE5true_Ev@Base 1.1.0
 _ZN3xsd3cxx4tree8optionalIN13icalendar_2_013RdatePropTypeELb0EEC1ERKS5_NS1_5flagsEPNS1_5_typeE@Base 1.1.0
 _ZN3xsd3cxx4tree8optionalIN13icalendar_2_013RdatePropTypeELb0EEC2ERKS5_NS1_5flagsEPNS1_5_typeE@Base 1.1.0
 _ZN3xsd3cxx4tree8optionalIN13icalendar_2_013RdatePropTypeELb0EEaSERKS5_@Base 1.1.0
 _ZN3xsd3cxx4tree8optionalIN13icalendar_2_013RrulePropTypeELb0EE3setESt8auto_ptrIS4_E@Base 1.1.0
 _ZN3xsd3cxx4tree8optionalIN13icalendar_2_013RrulePropTypeELb0EE5true_Ev@Base 1.1.0
 _ZN3xsd3cxx4tree8optionalIN13icalendar_2_013RrulePropTypeELb0EEC1ERKS5_NS1_5flagsEPNS1_5_typeE@Base 1.1.0
 _ZN3xsd3cxx4tree8optionalIN13icalendar_2_013RrulePropTypeELb0EEC2ERKS5_NS1_5flagsEPNS1_5_typeE@Base 1.1.0
 _ZN3xsd3cxx4tree8optionalIN13icalendar_2_013RrulePropTypeELb0EEaSERKS5_@Base 1.1.0
 _ZN3xsd3cxx4tree8optionalIN13icalendar_2_014AttachPropTypeELb0EE3setESt8auto_ptrIS4_E@Base 1.1.0
 _ZN3xsd3cxx4tree8optionalIN13icalendar_2_014AttachPropTypeELb0EE5true_Ev@Base 1.1.0
 _ZN3xsd3cxx4tree8optionalIN13icalendar_2_014AttachPropTypeELb0EEaSERKS5_@Base 1.1.0
 _ZN3xsd3cxx4tree8optionalIN13icalendar_2_014ExdatePropTypeELb0EE3setESt8auto_ptrIS4_E@Base 1.1.0
 _ZN3xsd3cxx4tree8optionalIN13icalendar_2_014ExdatePropTypeELb0EE5true_Ev@Base 1.1.0
 _ZN3xsd3cxx4tree8optionalIN13icalendar_2_014ExdatePropTypeELb0EEC1ERKS5_NS1_5flagsEPNS1_5_typeE@Base 1.1.0
 _ZN3xsd3cxx4tree8optionalIN13icalendar_2_014ExdatePropTypeELb0EEC2ERKS5_NS1_5flagsEPNS1_5_typeE@Base 1.1.0
 _ZN3xsd3cxx4tree8optionalIN13icalendar_2_014ExdatePropTypeELb0EEaSERKS5_@Base 1.1.0
 _ZN3xsd3cxx4tree8optionalIN13icalendar_2_014RepeatPropTypeELb0EE3setESt8auto_ptrIS4_E@Base 1.1.0
 _ZN3xsd3cxx4tree8optionalIN13icalendar_2_014RepeatPropTypeELb0EE5true_Ev@Base 1.1.0
 _ZN3xsd3cxx4tree8optionalIN13icalendar_2_014RepeatPropTypeELb0EEaSERKS5_@Base 1.1.0
 _ZN3xsd3cxx4tree8optionalIN13icalendar_2_014StatusPropTypeELb0EE3setESt8auto_ptrIS4_E@Base 1.1.0
 _ZN3xsd3cxx4tree8optionalIN13icalendar_2_014StatusPropTypeELb0EE5true_Ev@Base 1.1.0
 _ZN3xsd3cxx4tree8optionalIN13icalendar_2_014StatusPropTypeELb0EEC1ERKS5_NS1_5flagsEPNS1_5_typeE@Base 1.1.0
 _ZN3xsd3cxx4tree8optionalIN13icalendar_2_014StatusPropTypeELb0EEC2ERKS5_NS1_5flagsEPNS1_5_typeE@Base 1.1.0
 _ZN3xsd3cxx4tree8optionalIN13icalendar_2_014StatusPropTypeELb0EEaSERKS5_@Base 1.1.0
 _ZN3xsd3cxx4tree8optionalIN13icalendar_2_014TranspPropTypeELb0EE3setESt8auto_ptrIS4_E@Base 1.1.0
 _ZN3xsd3cxx4tree8optionalIN13icalendar_2_014TranspPropTypeELb0EE5true_Ev@Base 1.1.0
 _ZN3xsd3cxx4tree8optionalIN13icalendar_2_014TranspPropTypeELb0EEaSERKS5_@Base 1.1.0
 _ZN3xsd3cxx4tree8optionalIN13icalendar_2_014UntilRecurTypeELb0EE3setESt8auto_ptrIS4_E@Base 1.1.0
 _ZN3xsd3cxx4tree8optionalIN13icalendar_2_014UntilRecurTypeELb0EE5true_Ev@Base 1.1.0
 _ZN3xsd3cxx4tree8optionalIN13icalendar_2_014UntilRecurTypeELb0EEaSERKS5_@Base 1.1.0
 _ZN3xsd3cxx4tree8optionalIN13icalendar_2_015CommentPropTypeELb0EE3setESt8auto_ptrIS4_E@Base 1.1.0
 _ZN3xsd3cxx4tree8optionalIN13icalendar_2_015CommentPropTypeELb0EE5true_Ev@Base 1.1.0
 _ZN3xsd3cxx4tree8optionalIN13icalendar_2_015CommentPropTypeELb0EEC1ERKS5_NS1_5flagsEPNS1_5_typeE@Base 1.1.0
 _ZN3xsd3cxx4tree8optionalIN13icalendar_2_015CommentPropTypeELb0EEC2ERKS5_NS1_5flagsEPNS1_5_typeE@Base 1.1.0
 _ZN3xsd3cxx4tree8optionalIN13icalendar_2_015CommentPropTypeELb0EEaSERKS5_@Base 1.1.0
 _ZN3xsd3cxx4tree8optionalIN13icalendar_2_015ContactPropTypeELb0EE3setESt8auto_ptrIS4_E@Base 1.1.0
 _ZN3xsd3cxx4tree8optionalIN13icalendar_2_015ContactPropTypeELb0EE5true_Ev@Base 1.1.0
 _ZN3xsd3cxx4tree8optionalIN13icalendar_2_015ContactPropTypeELb0EEaSERKS5_@Base 1.1.0
 _ZN3xsd3cxx4tree8optionalIN13icalendar_2_015DtstartPropTypeELb0EE3setESt8auto_ptrIS4_E@Base 1.1.0
 _ZN3xsd3cxx4tree8optionalIN13icalendar_2_015DtstartPropTypeELb0EE5true_Ev@Base 1.1.0
 _ZN3xsd3cxx4tree8optionalIN13icalendar_2_015DtstartPropTypeELb0EEC1ERKS5_NS1_5flagsEPNS1_5_typeE@Base 1.1.0
 _ZN3xsd3cxx4tree8optionalIN13icalendar_2_015DtstartPropTypeELb0EEC2ERKS5_NS1_5flagsEPNS1_5_typeE@Base 1.1.0
 _ZN3xsd3cxx4tree8optionalIN13icalendar_2_015DtstartPropTypeELb0EEaSERKS5_@Base 1.1.0
 _ZN3xsd3cxx4tree8optionalIN13icalendar_2_015SummaryPropTypeELb0EE3setESt8auto_ptrIS4_E@Base 1.1.0
 _ZN3xsd3cxx4tree8optionalIN13icalendar_2_015SummaryPropTypeELb0EE5true_Ev@Base 1.1.0
 _ZN3xsd3cxx4tree8optionalIN13icalendar_2_015SummaryPropTypeELb0EEC1ERKS5_NS1_5flagsEPNS1_5_typeE@Base 1.1.0
 _ZN3xsd3cxx4tree8optionalIN13icalendar_2_015SummaryPropTypeELb0EEC2ERKS5_NS1_5flagsEPNS1_5_typeE@Base 1.1.0
 _ZN3xsd3cxx4tree8optionalIN13icalendar_2_015SummaryPropTypeELb0EEaSERKS5_@Base 1.1.0
 _ZN3xsd3cxx4tree8optionalIN13icalendar_2_015UTCDateTimeTypeELb0EE3setESt8auto_ptrIS4_E@Base 1.1.0
 _ZN3xsd3cxx4tree8optionalIN13icalendar_2_015UTCDateTimeTypeELb0EE5true_Ev@Base 1.1.0
 _ZN3xsd3cxx4tree8optionalIN13icalendar_2_015UTCDateTimeTypeELb0EEaSERKS5_@Base 1.1.0
 _ZN3xsd3cxx4tree8optionalIN13icalendar_2_016DurationPropTypeELb0EE3setESt8auto_ptrIS4_E@Base 1.1.0
 _ZN3xsd3cxx4tree8optionalIN13icalendar_2_016DurationPropTypeELb0EE5true_Ev@Base 1.1.0
 _ZN3xsd3cxx4tree8optionalIN13icalendar_2_016DurationPropTypeELb0EEC1ERKS5_NS1_5flagsEPNS1_5_typeE@Base 1.1.0
 _ZN3xsd3cxx4tree8optionalIN13icalendar_2_016DurationPropTypeELb0EEC2ERKS5_NS1_5flagsEPNS1_5_typeE@Base 1.1.0
 _ZN3xsd3cxx4tree8optionalIN13icalendar_2_016DurationPropTypeELb0EEaSERKS5_@Base 1.1.0
 _ZN3xsd3cxx4tree8optionalIN13icalendar_2_016LocationPropTypeELb0EE3setESt8auto_ptrIS4_E@Base 1.1.0
 _ZN3xsd3cxx4tree8optionalIN13icalendar_2_016LocationPropTypeELb0EE5true_Ev@Base 1.1.0
 _ZN3xsd3cxx4tree8optionalIN13icalendar_2_016LocationPropTypeELb0EEC1ERKS5_NS1_5flagsEPNS1_5_typeE@Base 1.1.0
 _ZN3xsd3cxx4tree8optionalIN13icalendar_2_016LocationPropTypeELb0EEC2ERKS5_NS1_5flagsEPNS1_5_typeE@Base 1.1.0
 _ZN3xsd3cxx4tree8optionalIN13icalendar_2_016LocationPropTypeELb0EEaSERKS5_@Base 1.1.0
 _ZN3xsd3cxx4tree8optionalIN13icalendar_2_016PriorityPropTypeELb0EE3setESt8auto_ptrIS4_E@Base 1.1.0
 _ZN3xsd3cxx4tree8optionalIN13icalendar_2_016PriorityPropTypeELb0EE5true_Ev@Base 1.1.0
 _ZN3xsd3cxx4tree8optionalIN13icalendar_2_016PriorityPropTypeELb0EEC1ERKS5_NS1_5flagsEPNS1_5_typeE@Base 1.1.0
 _ZN3xsd3cxx4tree8optionalIN13icalendar_2_016PriorityPropTypeELb0EEC2ERKS5_NS1_5flagsEPNS1_5_typeE@Base 1.1.0
 _ZN3xsd3cxx4tree8optionalIN13icalendar_2_016PriorityPropTypeELb0EEaSERKS5_@Base 1.1.0
 _ZN3xsd3cxx4tree8optionalIN13icalendar_2_016SequencePropTypeELb0EE3setESt8auto_ptrIS4_E@Base 1.1.0
 _ZN3xsd3cxx4tree8optionalIN13icalendar_2_016SequencePropTypeELb0EE5true_Ev@Base 1.1.0
 _ZN3xsd3cxx4tree8optionalIN13icalendar_2_016SequencePropTypeELb0EEC1ERKS5_NS1_5flagsEPNS1_5_typeE@Base 1.1.0
 _ZN3xsd3cxx4tree8optionalIN13icalendar_2_016SequencePropTypeELb0EEC2ERKS5_NS1_5flagsEPNS1_5_typeE@Base 1.1.0
 _ZN3xsd3cxx4tree8optionalIN13icalendar_2_016SequencePropTypeELb0EEaSERKS5_@Base 1.1.0
 _ZN3xsd3cxx4tree8optionalIN13icalendar_2_016TextPropertyTypeELb0EE3setESt8auto_ptrIS4_E@Base 1.1.0
 _ZN3xsd3cxx4tree8optionalIN13icalendar_2_016TextPropertyTypeELb0EE5true_Ev@Base 1.1.0
 _ZN3xsd3cxx4tree8optionalIN13icalendar_2_016TextPropertyTypeELb0EEC1ERKS5_NS1_5flagsEPNS1_5_typeE@Base 1.1.0
 _ZN3xsd3cxx4tree8optionalIN13icalendar_2_016TextPropertyTypeELb0EEC2ERKS5_NS1_5flagsEPNS1_5_typeE@Base 1.1.0
 _ZN3xsd3cxx4tree8optionalIN13icalendar_2_016TextPropertyTypeELb0EEaSERKS5_@Base 1.1.0
 _ZN3xsd3cxx4tree8optionalIN13icalendar_2_016WeekdayRecurTypeELb0EE3setESt8auto_ptrIS4_E@Base 1.1.0
 _ZN3xsd3cxx4tree8optionalIN13icalendar_2_016WeekdayRecurTypeELb0EE5true_Ev@Base 1.1.0
 _ZN3xsd3cxx4tree8optionalIN13icalendar_2_016WeekdayRecurTypeELb0EEaSERKS5_@Base 1.1.0
 _ZN3xsd3cxx4tree8optionalIN13icalendar_2_017ArrayOfParametersELb0EE3setESt8auto_ptrIS4_E@Base 1.1.0
 _ZN3xsd3cxx4tree8optionalIN13icalendar_2_017ArrayOfParametersELb0EE5true_Ev@Base 1.1.0
 _ZN3xsd3cxx4tree8optionalIN13icalendar_2_017ArrayOfParametersELb0EEaSERKS5_@Base 1.1.0
 _ZN3xsd3cxx4tree8optionalIN13icalendar_2_017DurationValueTypeELb0EE3setESt8auto_ptrIS4_E@Base 1.1.0
 _ZN3xsd3cxx4tree8optionalIN13icalendar_2_017DurationValueTypeELb0EE5true_Ev@Base 1.1.0
 _ZN3xsd3cxx4tree8optionalIN13icalendar_2_017DurationValueTypeELb0EEaSERKS5_@Base 1.1.0
 _ZN3xsd3cxx4tree8optionalIN13icalendar_2_017OrganizerPropTypeELb0EE3setESt8auto_ptrIS4_E@Base 1.1.0
 _ZN3xsd3cxx4tree8optionalIN13icalendar_2_017OrganizerPropTypeELb0EE5true_Ev@Base 1.1.0
 _ZN3xsd3cxx4tree8optionalIN13icalendar_2_017OrganizerPropTypeELb0EEC1ERKS5_NS1_5flagsEPNS1_5_typeE@Base 1.1.0
 _ZN3xsd3cxx4tree8optionalIN13icalendar_2_017OrganizerPropTypeELb0EEC2ERKS5_NS1_5flagsEPNS1_5_typeE@Base 1.1.0
 _ZN3xsd3cxx4tree8optionalIN13icalendar_2_017OrganizerPropTypeELb0EEaSERKS5_@Base 1.1.0
 _ZN3xsd3cxx4tree8optionalIN13icalendar_2_018CategoriesPropTypeELb0EE3setESt8auto_ptrIS4_E@Base 1.1.0
 _ZN3xsd3cxx4tree8optionalIN13icalendar_2_018CategoriesPropTypeELb0EE5true_Ev@Base 1.1.0
 _ZN3xsd3cxx4tree8optionalIN13icalendar_2_018CategoriesPropTypeELb0EEC1ERKS5_NS1_5flagsEPNS1_5_typeE@Base 1.1.0
 _ZN3xsd3cxx4tree8optionalIN13icalendar_2_018CategoriesPropTypeELb0EEC2ERKS5_NS1_5flagsEPNS1_5_typeE@Base 1.1.0
 _ZN3xsd3cxx4tree8optionalIN13icalendar_2_018CategoriesPropTypeELb0EEaSERKS5_@Base 1.1.0
 _ZN3xsd3cxx4tree8optionalIN13icalendar_2_019DescriptionPropTypeELb0EE3setESt8auto_ptrIS4_E@Base 1.1.0
 _ZN3xsd3cxx4tree8optionalIN13icalendar_2_019DescriptionPropTypeELb0EE5true_Ev@Base 1.1.0
 _ZN3xsd3cxx4tree8optionalIN13icalendar_2_019DescriptionPropTypeELb0EEC1ERKS5_NS1_5flagsEPNS1_5_typeE@Base 1.1.0
 _ZN3xsd3cxx4tree8optionalIN13icalendar_2_019DescriptionPropTypeELb0EEC2ERKS5_NS1_5flagsEPNS1_5_typeE@Base 1.1.0
 _ZN3xsd3cxx4tree8optionalIN13icalendar_2_019DescriptionPropTypeELb0EEaSERKS5_@Base 1.1.0
 _ZN3xsd3cxx4tree8optionalIN13icalendar_2_020RecurrenceIdPropTypeELb0EE3setESt8auto_ptrIS4_E@Base 1.1.0
 _ZN3xsd3cxx4tree8optionalIN13icalendar_2_020RecurrenceIdPropTypeELb0EE5true_Ev@Base 1.1.0
 _ZN3xsd3cxx4tree8optionalIN13icalendar_2_020RecurrenceIdPropTypeELb0EEC1ERKS5_NS1_5flagsEPNS1_5_typeE@Base 1.1.0
 _ZN3xsd3cxx4tree8optionalIN13icalendar_2_020RecurrenceIdPropTypeELb0EEC2ERKS5_NS1_5flagsEPNS1_5_typeE@Base 1.1.0
 _ZN3xsd3cxx4tree8optionalIN13icalendar_2_020RecurrenceIdPropTypeELb0EEaSERKS5_@Base 1.1.0
 _ZN3xsd3cxx4tree8optionalIN13icalendar_2_023PercentCompletePropTypeELb0EE3setESt8auto_ptrIS4_E@Base 1.1.0
 _ZN3xsd3cxx4tree8optionalIN13icalendar_2_023PercentCompletePropTypeELb0EE5true_Ev@Base 1.1.0
 _ZN3xsd3cxx4tree8optionalIN13icalendar_2_023PercentCompletePropTypeELb0EEaSERKS5_@Base 1.1.0
 _ZN3xsd3cxx4tree8optionalIN13icalendar_2_07UriTypeELb0EE3setESt8auto_ptrIS4_E@Base 1.1.0
 _ZN3xsd3cxx4tree8optionalIN13icalendar_2_07UriTypeELb0EE5true_Ev@Base 1.1.0
 _ZN3xsd3cxx4tree8optionalIN13icalendar_2_07UriTypeELb0EEaSERKS5_@Base 1.1.0
 _ZN3xsd3cxx4tree8optionalIN8KolabXSD18FileDriverSettingsELb0EE3setESt8auto_ptrIS4_E@Base 1.1.0
 _ZN3xsd3cxx4tree8optionalIN8KolabXSD18FileDriverSettingsELb0EE5true_Ev@Base 1.1.0
 _ZN3xsd3cxx4tree8optionalIN8KolabXSD18FileDriverSettingsELb0EEaSERKS5_@Base 1.1.0
 _ZN3xsd3cxx4tree8optionalIN8KolabXSD21classifcationPropTypeELb0EE3setESt8auto_ptrIS4_E@Base 1.1.0
 _ZN3xsd3cxx4tree8optionalIN8KolabXSD21classifcationPropTypeELb0EE5true_Ev@Base 1.1.0
 _ZN3xsd3cxx4tree8optionalIN8KolabXSD21classifcationPropTypeELb0EEC1ERKS5_NS1_5flagsEPNS1_5_typeE@Base 1.1.0
 _ZN3xsd3cxx4tree8optionalIN8KolabXSD21classifcationPropTypeELb0EEC2ERKS5_NS1_5flagsEPNS1_5_typeE@Base 1.1.0
 _ZN3xsd3cxx4tree8optionalIN8KolabXSD21classifcationPropTypeELb0EEaSERKS5_@Base 1.1.0
 _ZN3xsd3cxx4tree8optionalIN9vcard_4_010CryptoTypeELb0EE3setESt8auto_ptrIS4_E@Base 1.1.0
 _ZN3xsd3cxx4tree8optionalIN9vcard_4_010CryptoTypeELb0EE5true_Ev@Base 1.1.0
 _ZN3xsd3cxx4tree8optionalIN9vcard_4_010CryptoTypeELb0EEaSERKS5_@Base 1.1.0
 _ZN3xsd3cxx4tree8optionalIN9vcard_4_011encryptprefELb0EE3setESt8auto_ptrIS4_E@Base 1.1.0
 _ZN3xsd3cxx4tree8optionalIN9vcard_4_011encryptprefELb0EE5true_Ev@Base 1.1.0
 _ZN3xsd3cxx4tree8optionalIN9vcard_4_011encryptprefELb0EEaSERKS5_@Base 1.1.0
 _ZN3xsd3cxx4tree8optionalIN9vcard_4_012DateTimeTypeELb0EE3setESt8auto_ptrIS4_E@Base 1.1.0
 _ZN3xsd3cxx4tree8optionalIN9vcard_4_012DateTimeTypeELb0EE5true_Ev@Base 1.1.0
 _ZN3xsd3cxx4tree8optionalIN9vcard_4_012DateTimeTypeELb0EEaSERKS5_@Base 1.1.0
 _ZN3xsd3cxx4tree8optionalIN9vcard_4_012bdayPropTypeELb0EE3setESt8auto_ptrIS4_E@Base 1.1.0
 _ZN3xsd3cxx4tree8optionalIN9vcard_4_012bdayPropTypeELb0EE5true_Ev@Base 1.1.0
 _ZN3xsd3cxx4tree8optionalIN9vcard_4_012bdayPropTypeELb0EEaSERKS5_@Base 1.1.0
 _ZN3xsd3cxx4tree8optionalIN9vcard_4_012notePropTypeELb0EE3setESt8auto_ptrIS4_E@Base 1.1.0
 _ZN3xsd3cxx4tree8optionalIN9vcard_4_012notePropTypeELb0EE5true_Ev@Base 1.1.0
 _ZN3xsd3cxx4tree8optionalIN9vcard_4_012notePropTypeELb0EEaSERKS5_@Base 1.1.0
 _ZN3xsd3cxx4tree8optionalIN9vcard_4_013fburlPropTypeELb0EE3setESt8auto_ptrIS4_E@Base 1.1.0
 _ZN3xsd3cxx4tree8optionalIN9vcard_4_013fburlPropTypeELb0EE5true_Ev@Base 1.1.0
 _ZN3xsd3cxx4tree8optionalIN9vcard_4_013fburlPropTypeELb0EEaSERKS5_@Base 1.1.0
 _ZN3xsd3cxx4tree8optionalIN9vcard_4_013photoPropTypeELb0EE3setESt8auto_ptrIS4_E@Base 1.1.0
 _ZN3xsd3cxx4tree8optionalIN9vcard_4_013photoPropTypeELb0EE5true_Ev@Base 1.1.0
 _ZN3xsd3cxx4tree8optionalIN9vcard_4_013photoPropTypeELb0EEaSERKS5_@Base 1.1.0
 _ZN3xsd3cxx4tree8optionalIN9vcard_4_014genderPropTypeELb0EE3setESt8auto_ptrIS4_E@Base 1.1.0
 _ZN3xsd3cxx4tree8optionalIN9vcard_4_014genderPropTypeELb0EE5true_Ev@Base 1.1.0
 _ZN3xsd3cxx4tree8optionalIN9vcard_4_014genderPropTypeELb0EEaSERKS5_@Base 1.1.0
 _ZN3xsd3cxx4tree8optionalIN9vcard_4_015UriPropertyTypeELb0EE3setESt8auto_ptrIS4_E@Base 1.1.0
 _ZN3xsd3cxx4tree8optionalIN9vcard_4_015UriPropertyTypeELb0EE5true_Ev@Base 1.1.0
 _ZN3xsd3cxx4tree8optionalIN9vcard_4_015UriPropertyTypeELb0EEaSERKS5_@Base 1.1.0
 _ZN3xsd3cxx4tree8optionalIN9vcard_4_016nicknamePropTypeELb0EE3setESt8auto_ptrIS4_E@Base 1.1.0
 _ZN3xsd3cxx4tree8optionalIN9vcard_4_016nicknamePropTypeELb0EE5true_Ev@Base 1.1.0
 _ZN3xsd3cxx4tree8optionalIN9vcard_4_016nicknamePropTypeELb0EEaSERKS5_@Base 1.1.0
 _ZN3xsd3cxx4tree8optionalIN9vcard_4_017ArrayOfParametersELb0EE3setESt8auto_ptrIS4_E@Base 1.1.0
 _ZN3xsd3cxx4tree8optionalIN9vcard_4_017ArrayOfParametersELb0EE5true_Ev@Base 1.1.0
 _ZN3xsd3cxx4tree8optionalIN9vcard_4_017ArrayOfParametersELb0EEaSERKS5_@Base 1.1.0
 _ZN3xsd3cxx4tree8optionalIN9vcard_4_018categoriesPropTypeELb0EE3setESt8auto_ptrIS4_E@Base 1.1.0
 _ZN3xsd3cxx4tree8optionalIN9vcard_4_018categoriesPropTypeELb0EE5true_Ev@Base 1.1.0
 _ZN3xsd3cxx4tree8optionalIN9vcard_4_018categoriesPropTypeELb0EEaSERKS5_@Base 1.1.0
 _ZN3xsd3cxx4tree8optionalIN9vcard_4_019anniversaryPropTypeELb0EE3setESt8auto_ptrIS4_E@Base 1.1.0
 _ZN3xsd3cxx4tree8optionalIN9vcard_4_019anniversaryPropTypeELb0EE5true_Ev@Base 1.1.0
 _ZN3xsd3cxx4tree8optionalIN9vcard_4_019anniversaryPropTypeELb0EEaSERKS5_@Base 1.1.0
 _ZN3xsd3cxx4tree8optionalIN9vcard_4_07allowedELb0EE3setESt8auto_ptrIS4_E@Base 1.1.0
 _ZN3xsd3cxx4tree8optionalIN9vcard_4_07allowedELb0EE5true_Ev@Base 1.1.0
 _ZN3xsd3cxx4tree8optionalIN9vcard_4_07allowedELb0EEaSERKS5_@Base 1.1.0
 _ZN3xsd3cxx4tree8optionalIN9vcard_4_08DateTypeELb0EE3setESt8auto_ptrIS4_E@Base 1.1.0
 _ZN3xsd3cxx4tree8optionalIN9vcard_4_08DateTypeELb0EE5true_Ev@Base 1.1.0
 _ZN3xsd3cxx4tree8optionalIN9vcard_4_08DateTypeELb0EEaSERKS5_@Base 1.1.0
 _ZN3xsd3cxx4tree8optionalIN9vcard_4_08signprefELb0EE3setESt8auto_ptrIS4_E@Base 1.1.0
 _ZN3xsd3cxx4tree8optionalIN9vcard_4_08signprefELb0EE5true_Ev@Base 1.1.0
 _ZN3xsd3cxx4tree8optionalIN9vcard_4_08signprefELb0EEaSERKS5_@Base 1.1.0
 _ZN3xsd3cxx4tree8optionalIN9vcard_4_09nPropTypeELb0EE3setESt8auto_ptrIS4_E@Base 1.1.0
 _ZN3xsd3cxx4tree8optionalIN9vcard_4_09nPropTypeELb0EE5true_Ev@Base 1.1.0
 _ZN3xsd3cxx4tree8optionalIN9vcard_4_09nPropTypeELb0EEaSERKS5_@Base 1.1.0
 _ZN3xsd3cxx4tree8optionalINS1_3uriIcNS1_11simple_typeIcNS1_5_typeEEEEELb0EE3setESt8auto_ptrIS7_E@Base 1.1.0
 _ZN3xsd3cxx4tree8optionalINS1_3uriIcNS1_11simple_typeIcNS1_5_typeEEEEELb0EE5true_Ev@Base 1.1.0
 _ZN3xsd3cxx4tree8optionalINS1_3uriIcNS1_11simple_typeIcNS1_5_typeEEEEELb0EEaSERKS8_@Base 1.1.0
 _ZN3xsd3cxx4tree8optionalINS1_4dateIcNS1_11simple_typeIcNS1_5_typeEEEEELb0EE3setESt8auto_ptrIS7_E@Base 1.1.0
 _ZN3xsd3cxx4tree8optionalINS1_4dateIcNS1_11simple_typeIcNS1_5_typeEEEEELb0EE5true_Ev@Base 1.1.0
 _ZN3xsd3cxx4tree8optionalINS1_4dateIcNS1_11simple_typeIcNS1_5_typeEEEEELb0EEaSERKS8_@Base 1.1.0
 _ZN3xsd3cxx4tree8optionalINS1_6stringIcNS1_11simple_typeIcNS1_5_typeEEEEELb0EE3setESt8auto_ptrIS7_E@Base 1.1.0
 _ZN3xsd3cxx4tree8optionalINS1_6stringIcNS1_11simple_typeIcNS1_5_typeEEEEELb0EE5true_Ev@Base 1.1.0
 _ZN3xsd3cxx4tree8optionalINS1_6stringIcNS1_11simple_typeIcNS1_5_typeEEEEELb0EEC1ERKS8_NS1_5flagsEPS5_@Base 1.1.0
 _ZN3xsd3cxx4tree8optionalINS1_6stringIcNS1_11simple_typeIcNS1_5_typeEEEEELb0EEC2ERKS8_NS1_5flagsEPS5_@Base 1.1.0
 _ZN3xsd3cxx4tree8optionalINS1_6stringIcNS1_11simple_typeIcNS1_5_typeEEEEELb0EEaSERKS8_@Base 1.1.0
 _ZN3xsd3cxx4tree8optionalIbLb1EE5true_Ev@Base 1.1.0
 _ZN3xsd3cxx4tree8optionalIxLb1EE5true_Ev@Base 1.1.0
 _ZN3xsd3cxx4tree8optionalIyLb1EE5true_Ev@Base 1.1.0
 _ZN3xsd3cxx4tree8sequenceIN13icalendar_2_010CustomTypeELb0EE9push_backESt8auto_ptrIS4_E@Base 1.1.0
 _ZN3xsd3cxx4tree8sequenceIN13icalendar_2_014AttachPropTypeELb0EE9push_backESt8auto_ptrIS4_E@Base 1.1.0
 _ZN3xsd3cxx4tree8sequenceIN13icalendar_2_016AttendeePropTypeELb0EE9push_backESt8auto_ptrIS4_E@Base 1.1.0
 _ZN3xsd3cxx4tree8sequenceIN13icalendar_2_017BaseParameterTypeELb0EE9push_backERKS4_@Base 1.1.0
 _ZN3xsd3cxx4tree8sequenceIN9vcard_4_010CustomTypeELb0EE9push_backESt8auto_ptrIS4_E@Base 1.1.0
 _ZN3xsd3cxx4tree8sequenceIN9vcard_4_011geoPropTypeELb0EE9push_backESt8auto_ptrIS4_E@Base 1.1.0
 _ZN3xsd3cxx4tree8sequenceIN9vcard_4_011keyPropTypeELb0EE9push_backESt8auto_ptrIS4_E@Base 1.1.0
 _ZN3xsd3cxx4tree8sequenceIN9vcard_4_011telPropTypeELb0EE9push_backESt8auto_ptrIS4_E@Base 1.1.0
 _ZN3xsd3cxx4tree8sequenceIN9vcard_4_012imppPropTypeELb0EE9push_backESt8auto_ptrIS4_E@Base 1.1.0
 _ZN3xsd3cxx4tree8sequenceIN9vcard_4_012langPropTypeELb0EE9push_backESt8auto_ptrIS4_E@Base 1.1.0
 _ZN3xsd3cxx4tree8sequenceIN9vcard_4_013TypeValueTypeELb0EE9push_backERKS4_@Base 1.1.0
 _ZN3xsd3cxx4tree8sequenceIN9vcard_4_013emailPropTypeELb0EE9push_backESt8auto_ptrIS4_E@Base 1.1.0
 _ZN3xsd3cxx4tree8sequenceIN9vcard_4_014memberPropTypeELb0EE9push_backESt8auto_ptrIS4_E@Base 1.1.0
 _ZN3xsd3cxx4tree8sequenceIN9vcard_4_017BaseParameterTypeELb0EE9push_backERKS4_@Base 1.1.0
 _ZN3xsd3cxx4tree8sequenceIN9vcard_4_019CryptoTypeValueTypeELb0EE9push_backERKS4_@Base 1.1.0
 _ZN3xsd3cxx4tree8sequenceINS1_6stringIcNS1_11simple_typeIcNS1_5_typeEEEEELb0EE9push_backERKS7_@Base 1.1.0
 _ZN3xsd3cxx4tree8sequenceINS1_6stringIcNS1_11simple_typeIcNS1_5_typeEEEEELb0EE9push_backESt8auto_ptrIS7_E@Base 1.1.0
 _ZN3xsd3cxx4tree9date_timeIcNS1_11simple_typeIcNS1_5_typeEEEE5parseERKNSt7__cxx1112basic_stringIcSt11char_traitsIcESaIcEEE@Base 1.1.0
 _ZN3xsd3cxx4tree9date_timeIcNS1_11simple_typeIcNS1_5_typeEEEEC1ERKN11xercesc_3_110DOMElementENS1_5flagsEPS4_@Base 1.1.0
 _ZN3xsd3cxx4tree9date_timeIcNS1_11simple_typeIcNS1_5_typeEEEEC1ERKN11xercesc_3_17DOMAttrENS1_5flagsEPS4_@Base 1.1.0
 _ZN3xsd3cxx4tree9date_timeIcNS1_11simple_typeIcNS1_5_typeEEEEC1ERKNSt7__cxx1112basic_stringIcSt11char_traitsIcESaIcEEEPKN11xercesc_3_110DOMElementENS1_5flagsEPS4_@Base 1.1.0
 _ZN3xsd3cxx4tree9date_timeIcNS1_11simple_typeIcNS1_5_typeEEEEC2ERKN11xercesc_3_110DOMElementENS1_5flagsEPS4_@Base 1.1.0
 _ZN3xsd3cxx4tree9date_timeIcNS1_11simple_typeIcNS1_5_typeEEEEC2ERKN11xercesc_3_17DOMAttrENS1_5flagsEPS4_@Base 1.1.0
 _ZN3xsd3cxx4tree9date_timeIcNS1_11simple_typeIcNS1_5_typeEEEEC2ERKNSt7__cxx1112basic_stringIcSt11char_traitsIcESaIcEEEPKN11xercesc_3_110DOMElementENS1_5flagsEPS4_@Base 1.1.0
 _ZN3xsd3cxx4tree9date_timeIcNS1_11simple_typeIcNS1_5_typeEEEED0Ev@Base 1.1.0
 _ZN3xsd3cxx4tree9date_timeIcNS1_11simple_typeIcNS1_5_typeEEEED1Ev@Base 1.1.0
 _ZN3xsd3cxx4tree9date_timeIcNS1_11simple_typeIcNS1_5_typeEEEED2Ev@Base 1.1.0
 _ZN3xsd3cxx4treelsERN11xercesc_3_110DOMElementERKNS1_5_typeE@Base 1.1.0
 _ZN3xsd3cxx4treelsIcEERSt13basic_ostreamIT_St11char_traitsIS4_EES8_RKNS1_11diagnosticsIS4_EE@Base 1.1.0
 _ZN3xsd3cxx4treelsIcNS1_11simple_typeIcNS1_5_typeEEEEEvRN11xercesc_3_110DOMElementERKNS1_10gmonth_dayIT_T0_EE@Base 1.1.2
 _ZN3xsd3cxx4treelsIcNS1_11simple_typeIcNS1_5_typeEEEEEvRN11xercesc_3_110DOMElementERKNS1_11gyear_monthIT_T0_EE@Base 1.1.2
 _ZN3xsd3cxx4treelsIcNS1_11simple_typeIcNS1_5_typeEEEEEvRN11xercesc_3_110DOMElementERKNS1_4dateIT_T0_EE@Base 1.1.2
 _ZN3xsd3cxx4treelsIcNS1_11simple_typeIcNS1_5_typeEEEEEvRN11xercesc_3_110DOMElementERKNS1_4gdayIT_T0_EE@Base 1.1.2
 _ZN3xsd3cxx4treelsIcNS1_11simple_typeIcNS1_5_typeEEEEEvRN11xercesc_3_110DOMElementERKNS1_4timeIT_T0_EE@Base 1.1.2
 _ZN3xsd3cxx4treelsIcNS1_11simple_typeIcNS1_5_typeEEEEEvRN11xercesc_3_110DOMElementERKNS1_5gyearIT_T0_EE@Base 1.1.2
 _ZN3xsd3cxx4treelsIcNS1_11simple_typeIcNS1_5_typeEEEEEvRN11xercesc_3_110DOMElementERKNS1_6gmonthIT_T0_EE@Base 1.1.2
 _ZN3xsd3cxx4treelsIcNS1_11simple_typeIcNS1_5_typeEEEEEvRN11xercesc_3_110DOMElementERKNS1_8durationIT_T0_EE@Base 1.1.2
 _ZN3xsd3cxx4treelsIcNS1_11simple_typeIcNS1_5_typeEEEEEvRN11xercesc_3_110DOMElementERKNS1_9date_timeIT_T0_EE@Base 1.1.0
 _ZN3xsd3cxx4treelsIcNS1_11simple_typeIcNS1_5_typeEEEEEvRN11xercesc_3_17DOMAttrERKNS1_9date_timeIT_T0_EE@Base 1.1.2
 _ZN3xsd3cxx4treelsIcNS1_11simple_typeIcNS1_5_typeEEENS1_3uriIcS5_EENS1_6ncnameIcNS1_4nameIcNS1_5tokenIcNS1_17normalized_stringIcNS1_6stringIcS5_EEEEEEEEEEEEvRN11xercesc_3_110DOMElementERKNS1_5qnameIT_T0_T1_T2_EE@Base 1.1.0
 _ZN3xsd3cxx4treelsIcNS1_6entityIcNS1_6ncnameIcNS1_4nameIcNS1_5tokenIcNS1_17normalized_stringIcNS1_6stringIcNS1_11simple_typeIcNS1_5_typeEEEEEEEEEEEEEEELNS1_11schema_type5valueE0ELb0EEEvRN11xercesc_3_110DOMElementERKNS1_4listIT0_T_XT1_EXT2_EEE@Base 1.1.0
 _ZN3xsd3cxx4trimIcEENS0_9ro_stringIT_E9size_typeERS4_@Base 1.1.0
 _ZN3xsd3cxx4trimIcEENSt7__cxx1112basic_stringIT_St11char_traitsIS4_ESaIS4_EEERKS8_@Base 1.1.0
 _ZN3xsd3cxx9exceptionD0Ev@Base 1.1.0
 _ZN3xsd3cxx9exceptionD1Ev@Base 1.1.0
 _ZN3xsd3cxx9exceptionD2Ev@Base 1.1.0
 _ZN5Kolab10Attachment6setUriERKNSt7__cxx1112basic_stringIcSt11char_traitsIcESaIcEEES8_@Base 1.1.0
 _ZN5Kolab10Attachment7setDataERKNSt7__cxx1112basic_stringIcSt11char_traitsIcESaIcEEES8_@Base 1.1.0
 _ZN5Kolab10Attachment8setLabelERKNSt7__cxx1112basic_stringIcSt11char_traitsIcESaIcEEE@Base 1.1.0
 _ZN5Kolab10AttachmentC1ERKS0_@Base 1.1.0
 _ZN5Kolab10AttachmentC1Ev@Base 1.1.0
 _ZN5Kolab10AttachmentC2ERKS0_@Base 1.1.0
 _ZN5Kolab10AttachmentC2Ev@Base 1.1.0
 _ZN5Kolab10AttachmentD1Ev@Base 1.1.0
 _ZN5Kolab10AttachmentD2Ev@Base 1.1.0
 _ZN5Kolab10AttachmentaSERKS0_@Base 1.1.0
 _ZN5Kolab10DictionaryD1Ev@Base 1.1.0
 _ZN5Kolab10DictionaryD2Ev@Base 1.1.0
 _ZN5Kolab10FileDriverD1Ev@Base 1.1.0
 _ZN5Kolab10FileDriverD2Ev@Base 1.1.0
 _ZN5Kolab10writeEventERKNS_5EventERKNSt7__cxx1112basic_stringIcSt11char_traitsIcESaIcEEE@Base 1.1.0
 _ZN5Kolab11AffiliationC1ERKS0_@Base 1.1.0
 _ZN5Kolab11AffiliationC2ERKS0_@Base 1.1.0
 _ZN5Kolab11AffiliationD1Ev@Base 1.1.0
 _ZN5Kolab11AffiliationD2Ev@Base 1.1.0
 _ZN5Kolab11generateUIDB5cxx11Ev@Base 1.1.0
 _ZN5Kolab11readContactERKNSt7__cxx1112basic_stringIcSt11char_traitsIcESaIcEEEb@Base 1.1.0
 _ZN5Kolab11readJournalERKNSt7__cxx1112basic_stringIcSt11char_traitsIcESaIcEEEb@Base 1.1.0
 _ZN5Kolab11xCalVersionB5cxx11Ev@Base 1.1.0
 _ZN5Kolab12KolabObjects10readColorsERKN3xsd3cxx4tree8sequenceIN8KolabXSD13CategoryColorELb0EEE@Base 1.1.0
 _ZN5Kolab12KolabObjects11writeColorsERN3xsd3cxx4tree8sequenceIN8KolabXSD13CategoryColorELb0EEERKSt6vectorINS_13CategoryColorESaISA_EE@Base 1.1.0
 _ZN5Kolab12KolabObjects12toAttachmentEN8KolabXSD18attachmentPropTypeE@Base 1.1.0
 _ZN5Kolab12KolabObjects14fromAttachmentERKNS_10AttachmentE@Base 1.1.0
 _ZN5Kolab12KolabObjects15serializeObjectINS_13ConfigurationEEENSt7__cxx1112basic_stringIcSt11char_traitsIcESaIcEEERKT_S8_@Base 1.1.0
 _ZN5Kolab12KolabObjects15serializeObjectINS_4FileEEENSt7__cxx1112basic_stringIcSt11char_traitsIcESaIcEEERKT_S8_@Base 1.1.0
 _ZN5Kolab12KolabObjects15serializeObjectINS_4NoteEEENSt7__cxx1112basic_stringIcSt11char_traitsIcESaIcEEERKT_S8_@Base 1.1.0
 _ZN5Kolab12KolabObjects17deserializeObjectINS_13ConfigurationEEEN5boost10shared_ptrIT_EERKNSt7__cxx1112basic_stringIcSt11char_traitsIcESaIcEEEb@Base 1.1.0
 _ZN5Kolab12KolabObjects17deserializeObjectINS_4FileEEEN5boost10shared_ptrIT_EERKNSt7__cxx1112basic_stringIcSt11char_traitsIcESaIcEEEb@Base 1.1.0
 _ZN5Kolab12KolabObjects17deserializeObjectINS_4NoteEEEN5boost10shared_ptrIT_EERKNSt7__cxx1112basic_stringIcSt11char_traitsIcESaIcEEEb@Base 1.1.0
 _ZN5Kolab12KolabObjects20getConfigurationTypeENS_13Configuration17ConfigurationTypeE@Base 1.1.0
 _ZN5Kolab12errorMessageB5cxx11Ev@Base 1.1.0
 _ZN5Kolab12readDistlistERKNSt7__cxx1112basic_stringIcSt11char_traitsIcESaIcEEEb@Base 1.1.0
 _ZN5Kolab12readFreebusyERKNSt7__cxx1112basic_stringIcSt11char_traitsIcESaIcEEEb@Base 1.1.0
 _ZN5Kolab12writeContactERKNS_7ContactERKNSt7__cxx1112basic_stringIcSt11char_traitsIcESaIcEEE@Base 1.1.0
 _ZN5Kolab12writeJournalERKNS_7JournalERKNSt7__cxx1112basic_stringIcSt11char_traitsIcESaIcEEE@Base 1.1.0
 _ZN5Kolab13CategoryColorC1ERKS0_@Base 1.1.0
 _ZN5Kolab13CategoryColorC2ERKS0_@Base 1.1.0
 _ZN5Kolab13CategoryColorD1Ev@Base 1.1.0
 _ZN5Kolab13CategoryColorD2Ev@Base 1.1.0
 _ZN5Kolab13Configuration10setCreatedERKNS_9cDateTimeE@Base 1.1.0
 _ZN5Kolab13Configuration15setLastModifiedERKNS_9cDateTimeE@Base 1.1.0
 _ZN5Kolab13Configuration6setUidERKNSt7__cxx1112basic_stringIcSt11char_traitsIcESaIcEEE@Base 1.1.0
 _ZN5Kolab13ConfigurationC1ERKNS_10DictionaryE@Base 1.1.0
 _ZN5Kolab13ConfigurationC1ERKNS_10FileDriverE@Base 1.1.0
 _ZN5Kolab13ConfigurationC1ERKNS_18SnippetsCollectionE@Base 1.1.0
 _ZN5Kolab13ConfigurationC1ERKNS_8RelationE@Base 1.1.0
 _ZN5Kolab13ConfigurationC1ERKS0_@Base 1.1.0
 _ZN5Kolab13ConfigurationC1ERKSt6vectorINS_13CategoryColorESaIS2_EE@Base 1.1.0
 _ZN5Kolab13ConfigurationC1Ev@Base 1.1.0
 _ZN5Kolab13ConfigurationC2ERKNS_10DictionaryE@Base 1.1.0
 _ZN5Kolab13ConfigurationC2ERKNS_10FileDriverE@Base 1.1.0
 _ZN5Kolab13ConfigurationC2ERKNS_18SnippetsCollectionE@Base 1.1.0
 _ZN5Kolab13ConfigurationC2ERKNS_8RelationE@Base 1.1.0
 _ZN5Kolab13ConfigurationC2ERKS0_@Base 1.1.0
 _ZN5Kolab13ConfigurationC2ERKSt6vectorINS_13CategoryColorESaIS2_EE@Base 1.1.0
 _ZN5Kolab13ConfigurationC2Ev@Base 1.1.0
 _ZN5Kolab13ConfigurationD1Ev@Base 1.1.0
 _ZN5Kolab13ConfigurationD2Ev@Base 1.1.0
 _ZN5Kolab13ConfigurationaSERKS0_@Base 1.1.0
 _ZN5Kolab13errorOccurredEv@Base 1.1.0
 _ZN5Kolab13writeDistlistERKNS_8DistListERKNSt7__cxx1112basic_stringIcSt11char_traitsIcESaIcEEE@Base 1.1.0
 _ZN5Kolab13writeFreebusyERKNS_8FreebusyERKNSt7__cxx1112basic_stringIcSt11char_traitsIcESaIcEEE@Base 1.1.0
 _ZN5Kolab13xKolabVersionB5cxx11Ev@Base 1.1.0
 _ZN5Kolab14CustomPropertyC1ERKNSt7__cxx1112basic_stringIcSt11char_traitsIcESaIcEEES8_@Base 1.1.0
 _ZN5Kolab14CustomPropertyC2ERKNSt7__cxx1112basic_stringIcSt11char_traitsIcESaIcEEES8_@Base 1.1.0
 _ZN5Kolab14CustomPropertyD1Ev@Base 1.1.0
 _ZN5Kolab14CustomPropertyD2Ev@Base 1.1.0
 _ZN5Kolab14FreebusyPeriod10setPeriodsERKSt6vectorINS_6PeriodESaIS2_EE@Base 1.1.0
 _ZN5Kolab14FreebusyPeriod7setTypeENS0_6FBTypeE@Base 1.1.0
 _ZN5Kolab14FreebusyPeriod8setEventERKNSt7__cxx1112basic_stringIcSt11char_traitsIcESaIcEEES8_S8_@Base 1.1.0
 _ZN5Kolab14FreebusyPeriodC1ERKS0_@Base 1.1.0
 _ZN5Kolab14FreebusyPeriodC1Ev@Base 1.1.0
 _ZN5Kolab14FreebusyPeriodC2ERKS0_@Base 1.1.0
 _ZN5Kolab14FreebusyPeriodC2Ev@Base 1.1.0
 _ZN5Kolab14FreebusyPeriodD1Ev@Base 1.1.0
 _ZN5Kolab14FreebusyPeriodD2Ev@Base 1.1.0
 _ZN5Kolab14FreebusyPeriodaSERKS0_@Base 1.1.0
 _ZN5Kolab14NameComponentsD1Ev@Base 1.1.0
 _ZN5Kolab14NameComponentsD2Ev@Base 1.1.0
 _ZN5Kolab14RecurrenceRule10setBymonthERKSt6vectorIiSaIiEE@Base 1.1.0
 _ZN5Kolab14RecurrenceRule11setByminuteERKSt6vectorIiSaIiEE@Base 1.1.0
 _ZN5Kolab14RecurrenceRule11setBysecondERKSt6vectorIiSaIiEE@Base 1.1.0
 _ZN5Kolab14RecurrenceRule11setByweeknoERKSt6vectorIiSaIiEE@Base 1.1.0
 _ZN5Kolab14RecurrenceRule11setIntervalEi@Base 1.1.0
 _ZN5Kolab14RecurrenceRule12setByyeardayERKSt6vectorIiSaIiEE@Base 1.1.0
 _ZN5Kolab14RecurrenceRule12setFrequencyENS0_9FrequencyE@Base 1.1.0
 _ZN5Kolab14RecurrenceRule12setWeekStartENS_7WeekdayE@Base 1.1.0
 _ZN5Kolab14RecurrenceRule13setBymonthdayERKSt6vectorIiSaIiEE@Base 1.1.0
 _ZN5Kolab14RecurrenceRule6setEndERKNS_9cDateTimeE@Base 1.1.0
 _ZN5Kolab14RecurrenceRule8setBydayERKSt6vectorINS_6DayPosESaIS2_EE@Base 1.1.0
 _ZN5Kolab14RecurrenceRule8setCountEi@Base 1.1.0
 _ZN5Kolab14RecurrenceRule9setByhourERKSt6vectorIiSaIiEE@Base 1.1.0
 _ZN5Kolab14RecurrenceRuleC1ERKS0_@Base 1.1.0
 _ZN5Kolab14RecurrenceRuleC1Ev@Base 1.1.0
 _ZN5Kolab14RecurrenceRuleC2ERKS0_@Base 1.1.0
 _ZN5Kolab14RecurrenceRuleC2Ev@Base 1.1.0
 _ZN5Kolab14RecurrenceRuleD1Ev@Base 1.1.0
 _ZN5Kolab14RecurrenceRuleD2Ev@Base 1.1.0
 _ZN5Kolab14RecurrenceRuleaSERKS0_@Base 1.1.0
 _ZN5Kolab16ContactReferenceC1ERKS0_@Base 1.1.0
 _ZN5Kolab16ContactReferenceC2ERKS0_@Base 1.1.0
 _ZN5Kolab16ContactReferenceD1Ev@Base 1.1.0
 _ZN5Kolab16ContactReferenceD2Ev@Base 1.1.0
 _ZN5Kolab16PrivateIncidenceD1Ev@Base 1.1.0
 _ZN5Kolab16PrivateIncidenceD2Ev@Base 1.1.0
 _ZN5Kolab16getSerializedUIDB5cxx11Ev@Base 1.1.0
 _ZN5Kolab17overrideTimestampERKNS_9cDateTimeE@Base 1.1.0
 _ZN5Kolab17readConfigurationERKNSt7__cxx1112basic_stringIcSt11char_traitsIcESaIcEEEb@Base 1.1.0
 _ZN5Kolab18SnippetsCollectionD1Ev@Base 1.1.0
 _ZN5Kolab18SnippetsCollectionD2Ev@Base 1.1.0
 _ZN5Kolab18writeConfigurationERKNS_13ConfigurationERKNSt7__cxx1112basic_stringIcSt11char_traitsIcESaIcEEE@Base 1.1.0
 _ZN5Kolab4File10setCreatedERKNS_9cDateTimeE@Base 1.1.0
 _ZN5Kolab4File11addCategoryERKNSt7__cxx1112basic_stringIcSt11char_traitsIcESaIcEEE@Base 1.1.0
 _ZN5Kolab4File13setCategoriesERKSt6vectorINSt7__cxx1112basic_stringIcSt11char_traitsIcESaIcEEESaIS7_EE@Base 1.1.0
 _ZN5Kolab4File15setLastModifiedERKNS_9cDateTimeE@Base 1.1.0
 _ZN5Kolab4File17setClassificationENS_14ClassificationE@Base 1.1.0
 _ZN5Kolab4File19setCustomPropertiesERKSt6vectorINS_14CustomPropertyESaIS2_EE@Base 1.1.0
 _ZN5Kolab4File6setUidERKNSt7__cxx1112basic_stringIcSt11char_traitsIcESaIcEEE@Base 1.1.0
 _ZN5Kolab4File7setFileERKNS_10AttachmentE@Base 1.1.0
 _ZN5Kolab4File7setNoteERKNSt7__cxx1112basic_stringIcSt11char_traitsIcESaIcEEE@Base 1.1.0
 _ZN5Kolab4FileC1ERKS0_@Base 1.1.0
 _ZN5Kolab4FileC1Ev@Base 1.1.0
 _ZN5Kolab4FileC2ERKS0_@Base 1.1.0
 _ZN5Kolab4FileC2Ev@Base 1.1.0
 _ZN5Kolab4FileD1Ev@Base 1.1.0
 _ZN5Kolab4FileD2Ev@Base 1.1.0
 _ZN5Kolab4FileaSERKS0_@Base 1.1.0
 _ZN5Kolab4Note10setCreatedERKNS_9cDateTimeE@Base 1.1.0
 _ZN5Kolab4Note10setSummaryERKNSt7__cxx1112basic_stringIcSt11char_traitsIcESaIcEEE@Base 1.1.0
 _ZN5Kolab4Note11addCategoryERKNSt7__cxx1112basic_stringIcSt11char_traitsIcESaIcEEE@Base 1.1.0
 _ZN5Kolab4Note13setCategoriesERKSt6vectorINSt7__cxx1112basic_stringIcSt11char_traitsIcESaIcEEESaIS7_EE@Base 1.1.0
 _ZN5Kolab4Note14setAttachmentsERKSt6vectorINS_10AttachmentESaIS2_EE@Base 1.1.0
 _ZN5Kolab4Note14setDescriptionERKNSt7__cxx1112basic_stringIcSt11char_traitsIcESaIcEEE@Base 1.1.0
 _ZN5Kolab4Note15setLastModifiedERKNS_9cDateTimeE@Base 1.1.0
 _ZN5Kolab4Note17setClassificationENS_14ClassificationE@Base 1.1.0
 _ZN5Kolab4Note19setCustomPropertiesERKSt6vectorINS_14CustomPropertyESaIS2_EE@Base 1.1.0
 _ZN5Kolab4Note6setUidERKNSt7__cxx1112basic_stringIcSt11char_traitsIcESaIcEEE@Base 1.1.0
 _ZN5Kolab4Note8setColorERKNSt7__cxx1112basic_stringIcSt11char_traitsIcESaIcEEE@Base 1.1.0
 _ZN5Kolab4NoteC1ERKS0_@Base 1.1.0
 _ZN5Kolab4NoteC1Ev@Base 1.1.0
 _ZN5Kolab4NoteC2ERKS0_@Base 1.1.0
 _ZN5Kolab4NoteC2Ev@Base 1.1.0
 _ZN5Kolab4NoteD1Ev@Base 1.1.0
 _ZN5Kolab4NoteD2Ev@Base 1.1.0
 _ZN5Kolab4NoteaSERKS0_@Base 1.1.0
 _ZN5Kolab4Todo10setCommentERKNSt7__cxx1112basic_stringIcSt11char_traitsIcESaIcEEE@Base 1.1.0
 _ZN5Kolab4Todo10setCreatedERKNS_9cDateTimeE@Base 1.1.0
 _ZN5Kolab4Todo10setSummaryERKNSt7__cxx1112basic_stringIcSt11char_traitsIcESaIcEEE@Base 1.1.0
 _ZN5Kolab4Todo11addCategoryERKNSt7__cxx1112basic_stringIcSt11char_traitsIcESaIcEEE@Base 1.1.0
 _ZN5Kolab4Todo11setLocationERKNSt7__cxx1112basic_stringIcSt11char_traitsIcESaIcEEE@Base 1.1.0
 _ZN5Kolab4Todo11setPriorityEi@Base 1.1.0
 _ZN5Kolab4Todo11setSequenceEi@Base 1.1.0
 _ZN5Kolab4Todo12addRelatedToERKNSt7__cxx1112basic_stringIcSt11char_traitsIcESaIcEEE@Base 1.1.0
 _ZN5Kolab4Todo12setAttendeesERKSt6vectorINS_8AttendeeESaIS2_EE@Base 1.1.0
 _ZN5Kolab4Todo12setOrganizerERKNS_16ContactReferenceE@Base 1.1.0
 _ZN5Kolab4Todo12setRelatedToERKSt6vectorINSt7__cxx1112basic_stringIcSt11char_traitsIcESaIcEEESaIS7_EE@Base 1.1.0
 _ZN5Kolab4Todo13setCategoriesERKSt6vectorINSt7__cxx1112basic_stringIcSt11char_traitsIcESaIcEEESaIS7_EE@Base 1.1.0
 _ZN5Kolab4Todo13setExceptionsERKSt6vectorIS0_SaIS0_EE@Base 1.1.0
 _ZN5Kolab4Todo14setAttachmentsERKSt6vectorINS_10AttachmentESaIS2_EE@Base 1.1.0
 _ZN5Kolab4Todo14setDescriptionERKNSt7__cxx1112basic_stringIcSt11char_traitsIcESaIcEEE@Base 1.1.0
 _ZN5Kolab4Todo15setLastModifiedERKNS_9cDateTimeE@Base 1.1.0
 _ZN5Kolab4Todo15setRecurrenceIDERKNS_9cDateTimeEb@Base 1.1.0
 _ZN5Kolab4Todo16addExceptionDateERKNS_9cDateTimeE@Base 1.1.0
 _ZN5Kolab4Todo17addRecurrenceDateERKNS_9cDateTimeE@Base 1.1.0
 _ZN5Kolab4Todo17setClassificationENS_14ClassificationE@Base 1.1.0
 _ZN5Kolab4Todo17setExceptionDatesERKSt6vectorINS_9cDateTimeESaIS2_EE@Base 1.1.0
 _ZN5Kolab4Todo17setRecurrenceRuleERKNS_14RecurrenceRuleE@Base 1.1.0
 _ZN5Kolab4Todo18setPercentCompleteEi@Base 1.1.0
 _ZN5Kolab4Todo18setRecurrenceDatesERKSt6vectorINS_9cDateTimeESaIS2_EE@Base 1.1.0
 _ZN5Kolab4Todo19setCustomPropertiesERKSt6vectorINS_14CustomPropertyESaIS2_EE@Base 1.1.0
 _ZN5Kolab4Todo6setDueERKNS_9cDateTimeE@Base 1.1.0
 _ZN5Kolab4Todo6setUidERKNSt7__cxx1112basic_stringIcSt11char_traitsIcESaIcEEE@Base 1.1.0
 _ZN5Kolab4Todo6setUrlERKNSt7__cxx1112basic_stringIcSt11char_traitsIcESaIcEEE@Base 1.1.0
 _ZN5Kolab4Todo8setStartERKNS_9cDateTimeE@Base 1.1.0
 _ZN5Kolab4Todo9setAlarmsERKSt6vectorINS_5AlarmESaIS2_EE@Base 1.1.0
 _ZN5Kolab4Todo9setStatusENS_6StatusE@Base 1.1.0
 _ZN5Kolab4TodoC1ERKS0_@Base 1.1.0
 _ZN5Kolab4TodoC1Ev@Base 1.1.0
 _ZN5Kolab4TodoC2ERKS0_@Base 1.1.0
 _ZN5Kolab4TodoC2Ev@Base 1.1.0
 _ZN5Kolab4TodoD1Ev@Base 1.1.0
 _ZN5Kolab4TodoD2Ev@Base 1.1.0
 _ZN5Kolab4TodoaSERKS0_@Base 1.1.0
 _ZN5Kolab4XCAL10fromDayPosB5cxx11ERKNS_6DayPosE@Base 1.1.0
 _ZN5Kolab4XCAL10toDurationERKN13icalendar_2_017DurationValueTypeE@Base 1.1.0
 _ZN5Kolab4XCAL11getTimezoneB5cxx11ERKN13icalendar_2_017ArrayOfParametersE@Base 1.1.0
 _ZN5Kolab4XCAL11mapPartStatB5cxx11ENS_10PartStatusE@Base 1.1.0
 _ZN5Kolab4XCAL11mapPartStatERKNSt7__cxx1112basic_stringIcSt11char_traitsIcESaIcEEE@Base 1.1.0
 _ZN5Kolab4XCAL12fromDurationB5cxx11ERKNS_8DurationE@Base 1.1.0
 _ZN5Kolab4XCAL12toAttachmentIN13icalendar_2_014AttachPropTypeEEENS_10AttachmentET_@Base 1.1.0
 _ZN5Kolab4XCAL12toStringListB5cxx11ERKN13icalendar_2_020TextListPropertyTypeE@Base 1.1.0
 _ZN5Kolab4XCAL14IncidenceTraitINS_4TodoEE14writeIncidenceERN13icalendar_2_09KolabTodoERKS2_@Base 1.1.0
 _ZN5Kolab4XCAL14IncidenceTraitINS_5EventEE13addExceptionsERN13icalendar_2_011components1ERKS2_NS4_11properties1E@Base 1.1.0
 _ZN5Kolab4XCAL14IncidenceTraitINS_5EventEE14writeIncidenceERN13icalendar_2_010KolabEventERKS2_@Base 1.1.0
 _ZN5Kolab4XCAL14IncidenceTraitINS_8FreebusyEE13readIncidenceERS2_RKN13icalendar_2_013KolabFreebusyE@Base 1.1.0
 _ZN5Kolab4XCAL14IncidenceTraitINS_8FreebusyEE14writeIncidenceERN13icalendar_2_013KolabFreebusyERKS2_@Base 1.1.0
 _ZN5Kolab4XCAL14fromAttachmentERKNS_10AttachmentE@Base 1.1.0
 _ZN5Kolab4XCAL14fromStringListIN13icalendar_2_018CategoriesPropTypeEEESt8auto_ptrIT_ERKSt6vectorINSt7__cxx1112basic_stringIcSt11char_traitsIcESaIcEEESaISD_EE@Base 1.1.0
 _ZN5Kolab4XCAL14toDateTimeListIN13icalendar_2_013RdatePropTypeEEESt6vectorINS_9cDateTimeESaIS5_EET_@Base 1.1.0
 _ZN5Kolab4XCAL14toDateTimeListIN13icalendar_2_014ExdatePropTypeEEESt6vectorINS_9cDateTimeESaIS5_EET_@Base 1.1.0
 _ZN5Kolab4XCAL16fromDateTimeListIN13icalendar_2_013RdatePropTypeEEESt8auto_ptrIT_ERKSt6vectorINS_9cDateTimeESaIS8_EE@Base 1.1.0
 _ZN5Kolab4XCAL16fromDateTimeListIN13icalendar_2_014ExdatePropTypeEEESt8auto_ptrIT_ERKSt6vectorINS_9cDateTimeESaIS8_EE@Base 1.1.0
 _ZN5Kolab4XCAL17serializeFreebusyINS0_14IncidenceTraitINS_8FreebusyEEEEENSt7__cxx1112basic_stringIcSt11char_traitsIcESaIcEEERKS3_SA_@Base 1.1.0
 _ZN5Kolab4XCAL18recurrencePropertyERKNS_14RecurrenceRuleE@Base 1.1.0
 _ZN5Kolab4XCAL18serializeIncidenceINS0_14IncidenceTraitINS_4TodoEEEEENSt7__cxx1112basic_stringIcSt11char_traitsIcESaIcEEERKNT_13IncidenceTypeESA_@Base 1.1.0
 _ZN5Kolab4XCAL18serializeIncidenceINS0_14IncidenceTraitINS_5EventEEEEENSt7__cxx1112basic_stringIcSt11char_traitsIcESaIcEEERKNT_13IncidenceTypeESA_@Base 1.1.0
 _ZN5Kolab4XCAL18serializeIncidenceINS0_14IncidenceTraitINS_7JournalEEEEENSt7__cxx1112basic_stringIcSt11char_traitsIcESaIcEEERKNT_13IncidenceTypeESA_@Base 1.1.0
 _ZN5Kolab4XCAL18toContactReferenceERKN13icalendar_2_022CalAddressPropertyTypeE@Base 1.1.0
 _ZN5Kolab4XCAL20deserializeIncidenceINS0_14IncidenceTraitINS_4TodoEEEEENT_12IncidencePtrERKNSt7__cxx1112basic_stringIcSt11char_traitsIcESaIcEEEb@Base 1.1.0
 _ZN5Kolab4XCAL20deserializeIncidenceINS0_14IncidenceTraitINS_5EventEEEEENT_12IncidencePtrERKNSt7__cxx1112basic_stringIcSt11char_traitsIcESaIcEEEb@Base 1.1.0
 _ZN5Kolab4XCAL20deserializeIncidenceINS0_14IncidenceTraitINS_7JournalEEEEENT_12IncidencePtrERKNSt7__cxx1112basic_stringIcSt11char_traitsIcESaIcEEEb@Base 1.1.0
 _ZN5Kolab4XCAL20deserializeIncidenceINS0_14IncidenceTraitINS_8FreebusyEEEEENT_12IncidencePtrERKNSt7__cxx1112basic_stringIcSt11char_traitsIcESaIcEEEb@Base 1.1.0
 _ZN5Kolab4XCAL20fromContactReferenceIN13icalendar_2_016AttendeePropTypeEEET_RKNS_16ContactReferenceE@Base 1.1.0
 _ZN5Kolab4XCAL20fromContactReferenceIN13icalendar_2_017OrganizerPropTypeEEET_RKNS_16ContactReferenceE@Base 1.1.0
 _ZN5Kolab4XCAL22getIncidencePropertiesIN13icalendar_2_011properties1ENS_5EventEEEvRT_RKT0_@Base 1.1.0
 _ZN5Kolab4XCAL22getIncidencePropertiesIN13icalendar_2_011properties2ENS_4TodoEEEvRT_RKT0_@Base 1.1.0
 _ZN5Kolab4XCAL22getIncidencePropertiesIN13icalendar_2_011properties3ENS_7JournalEEEvRT_RKT0_@Base 1.1.0
 _ZN5Kolab4XCAL22getTodoEventPropertiesIN13icalendar_2_011properties1ENS_5EventEEEvRT_RKT0_@Base 1.1.0
 _ZN5Kolab4XCAL22getTodoEventPropertiesIN13icalendar_2_011properties2ENS_4TodoEEEvRT_RKT0_@Base 1.1.0
 _ZN5Kolab4XCAL22mapRecurrenceFrequencyENS_14RecurrenceRule9FrequencyE@Base 1.1.0
 _ZN5Kolab4XCAL22mapRecurrenceFrequencyERKN13icalendar_2_013FreqRecurTypeE@Base 1.1.0
 _ZN5Kolab4XCAL22setIncidencePropertiesINS_4TodoEN13icalendar_2_011properties2EEEvRT_RKT0_@Base 1.1.0
 _ZN5Kolab4XCAL22setIncidencePropertiesINS_5EventEN13icalendar_2_011properties1EEEvRT_RKT0_@Base 1.1.0
 _ZN5Kolab4XCAL22setIncidencePropertiesINS_7JournalEN13icalendar_2_011properties3EEEvRT_RKT0_@Base 1.1.0
 _ZN5Kolab4XCAL22setTodoEventPropertiesINS_4TodoEN13icalendar_2_011properties2EEEvRT_RKT0_@Base 1.1.0
 _ZN5Kolab4XCAL22setTodoEventPropertiesINS_5EventEN13icalendar_2_011properties1EEEvRT_RKT0_@Base 1.1.0
 _ZN5Kolab4XCAL5toIntERKN13icalendar_2_019IntegerPropertyTypeE@Base 1.1.0
 _ZN5Kolab4XCAL6bylistIN13icalendar_2_015ByhourRecurTypeEyEESt6vectorIiSaIiEERKN3xsd3cxx4tree8sequenceIT_XsrNS9_13fundamental_pISB_EE1rEEE@Base 1.1.0
 _ZN5Kolab4XCAL6bylistIN13icalendar_2_016BymonthRecurTypeExEESt6vectorIiSaIiEERKN3xsd3cxx4tree8sequenceIT_XsrNS9_13fundamental_pISB_EE1rEEE@Base 1.1.0
 _ZN5Kolab4XCAL6bylistIN13icalendar_2_017ByminuteRecurTypeEyEESt6vectorIiSaIiEERKN3xsd3cxx4tree8sequenceIT_XsrNS9_13fundamental_pISB_EE1rEEE@Base 1.1.0
 _ZN5Kolab4XCAL6bylistIN13icalendar_2_017BysecondRecurTypeEyEESt6vectorIiSaIiEERKN3xsd3cxx4tree8sequenceIT_XsrNS9_13fundamental_pISB_EE1rEEE@Base 1.1.0
 _ZN5Kolab4XCAL6bylistIN13icalendar_2_017ByweeknoRecurTypeExEESt6vectorIiSaIiEERKN3xsd3cxx4tree8sequenceIT_XsrNS9_13fundamental_pISB_EE1rEEE@Base 1.1.0
 _ZN5Kolab4XCAL6bylistIN13icalendar_2_018ByyeardayRecurTypeExEESt6vectorIiSaIiEERKN3xsd3cxx4tree8sequenceIT_XsrNS9_13fundamental_pISB_EE1rEEE@Base 1.1.0
 _ZN5Kolab4XCAL6bylistIN13icalendar_2_019BymonthdayRecurTypeExEESt6vectorIiSaIiEERKN3xsd3cxx4tree8sequenceIT_XsrNS9_13fundamental_pISB_EE1rEEE@Base 1.1.0
 _ZN5Kolab4XCAL6toDateERKN13icalendar_2_023UtcDatetimePropertyTypeE@Base 1.1.0
 _ZN5Kolab4XCAL6toDateERKN13icalendar_2_024DateDatetimePropertyTypeE@Base 1.1.0
 _ZN5Kolab4XCAL7mapRoleB5cxx11ENS_4RoleE@Base 1.1.0
 _ZN5Kolab4XCAL7mapRoleERKNSt7__cxx1112basic_stringIcSt11char_traitsIcESaIcEEE@Base 1.1.0
 _ZN5Kolab4XCAL7toRRuleERKN13icalendar_2_09RecurTypeE@Base 1.1.0
 _ZN5Kolab4XCAL8fromDateIN13icalendar_2_011DuePropTypeEEESt8auto_ptrIT_ERKNS_9cDateTimeE@Base 1.1.0
 _ZN5Kolab4XCAL8fromDateIN13icalendar_2_013DtendPropTypeEEESt8auto_ptrIT_ERKNS_9cDateTimeE@Base 1.1.0
 _ZN5Kolab4XCAL8fromDateIN13icalendar_2_015DtstartPropTypeEEESt8auto_ptrIT_ERKNS_9cDateTimeE@Base 1.1.0
 _ZN5Kolab4XCAL8fromDateIN13icalendar_2_020RecurrenceIdPropTypeEEESt8auto_ptrIT_ERKNS_9cDateTimeE@Base 1.1.0
 _ZN5Kolab4XCAL8fromListIN3xsd3cxx4tree8sequenceIN13icalendar_2_015ByhourRecurTypeELb0EEEyEET_RKSt6vectorIiSaIiEE@Base 1.1.0
 _ZN5Kolab4XCAL8fromListIN3xsd3cxx4tree8sequenceIN13icalendar_2_016BymonthRecurTypeELb0EEExEET_RKSt6vectorIiSaIiEE@Base 1.1.0
 _ZN5Kolab4XCAL8fromListIN3xsd3cxx4tree8sequenceIN13icalendar_2_017ByminuteRecurTypeELb0EEEyEET_RKSt6vectorIiSaIiEE@Base 1.1.0
 _ZN5Kolab4XCAL8fromListIN3xsd3cxx4tree8sequenceIN13icalendar_2_017BysecondRecurTypeELb0EEEyEET_RKSt6vectorIiSaIiEE@Base 1.1.0
 _ZN5Kolab4XCAL8fromListIN3xsd3cxx4tree8sequenceIN13icalendar_2_017ByweeknoRecurTypeELb0EEExEET_RKSt6vectorIiSaIiEE@Base 1.1.0
 _ZN5Kolab4XCAL8fromListIN3xsd3cxx4tree8sequenceIN13icalendar_2_018ByyeardayRecurTypeELb0EEExEET_RKSt6vectorIiSaIiEE@Base 1.1.0
 _ZN5Kolab4XCAL8fromListIN3xsd3cxx4tree8sequenceIN13icalendar_2_019BymonthdayRecurTypeELb0EEExEET_RKSt6vectorIiSaIiEE@Base 1.1.0
 _ZN5Kolab4XCAL8toDayPosERKNSt7__cxx1112basic_stringIcSt11char_traitsIcESaIcEEE@Base 1.1.0
 _ZN5Kolab4XCAL8toStringB5cxx11ERKN13icalendar_2_016TextPropertyTypeE@Base 1.1.0
 _ZN5Kolab4XCAL9getAlarmsINS_4TodoEN13icalendar_2_09KolabTodoEEEvRT_RKNT0_15components_typeE@Base 1.1.0
 _ZN5Kolab4XCAL9getAlarmsINS_5EventEN13icalendar_2_010KolabEventEEEvRT_RKNT0_15components_typeE@Base 1.1.0
 _ZN5Kolab4XCAL9setAlarmsIN13icalendar_2_010KolabEventENS_5EventEEEvRNT_15components_typeERKT0_@Base 1.1.0
 _ZN5Kolab4XCAL9setAlarmsIN13icalendar_2_09KolabTodoENS_4TodoEEEvRNT_15components_typeERKT0_@Base 1.1.0
 _ZN5Kolab5Alarm11setDurationERKNS_8DurationEi@Base 1.1.0
 _ZN5Kolab5Alarm16setRelativeStartERKNS_8DurationENS_8RelativeE@Base 1.1.0
 _ZN5Kolab5Alarm8setStartERKNS_9cDateTimeE@Base 1.1.0
 _ZN5Kolab5AlarmC1ERKNS_10AttachmentE@Base 1.1.0
 _ZN5Kolab5AlarmC1ERKNSt7__cxx1112basic_stringIcSt11char_traitsIcESaIcEEE@Base 1.1.0
 _ZN5Kolab5AlarmC1ERKNSt7__cxx1112basic_stringIcSt11char_traitsIcESaIcEEES8_St6vectorINS_16ContactReferenceESaISA_EE@Base 1.1.0
 _ZN5Kolab5AlarmC1ERKS0_@Base 1.1.0
 _ZN5Kolab5AlarmC1Ev@Base 1.1.0
 _ZN5Kolab5AlarmC2ERKNS_10AttachmentE@Base 1.1.0
 _ZN5Kolab5AlarmC2ERKNSt7__cxx1112basic_stringIcSt11char_traitsIcESaIcEEE@Base 1.1.0
 _ZN5Kolab5AlarmC2ERKNSt7__cxx1112basic_stringIcSt11char_traitsIcESaIcEEES8_St6vectorINS_16ContactReferenceESaISA_EE@Base 1.1.0
 _ZN5Kolab5AlarmC2ERKS0_@Base 1.1.0
 _ZN5Kolab5AlarmC2Ev@Base 1.1.0
 _ZN5Kolab5AlarmD1Ev@Base 1.1.0
 _ZN5Kolab5AlarmD2Ev@Base 1.1.0
 _ZN5Kolab5AlarmaSERKS0_@Base 1.1.0
 _ZN5Kolab5Event10setCommentERKNSt7__cxx1112basic_stringIcSt11char_traitsIcESaIcEEE@Base 1.1.0
 _ZN5Kolab5Event10setCreatedERKNS_9cDateTimeE@Base 1.1.0
 _ZN5Kolab5Event10setSummaryERKNSt7__cxx1112basic_stringIcSt11char_traitsIcESaIcEEE@Base 1.1.0
 _ZN5Kolab5Event11addCategoryERKNSt7__cxx1112basic_stringIcSt11char_traitsIcESaIcEEE@Base 1.1.0
 _ZN5Kolab5Event11setDurationERKNS_8DurationE@Base 1.1.0
 _ZN5Kolab5Event11setLocationERKNSt7__cxx1112basic_stringIcSt11char_traitsIcESaIcEEE@Base 1.1.0
 _ZN5Kolab5Event11setPriorityEi@Base 1.1.0
 _ZN5Kolab5Event11setSequenceEi@Base 1.1.0
 _ZN5Kolab5Event12setAttendeesERKSt6vectorINS_8AttendeeESaIS2_EE@Base 1.1.0
 _ZN5Kolab5Event12setOrganizerERKNS_16ContactReferenceE@Base 1.1.0
 _ZN5Kolab5Event13setCategoriesERKSt6vectorINSt7__cxx1112basic_stringIcSt11char_traitsIcESaIcEEESaIS7_EE@Base 1.1.0
 _ZN5Kolab5Event13setExceptionsERKSt6vectorIS0_SaIS0_EE@Base 1.1.0
 _ZN5Kolab5Event14setAttachmentsERKSt6vectorINS_10AttachmentESaIS2_EE@Base 1.1.0
 _ZN5Kolab5Event14setDescriptionERKNSt7__cxx1112basic_stringIcSt11char_traitsIcESaIcEEE@Base 1.1.0
 _ZN5Kolab5Event15setLastModifiedERKNS_9cDateTimeE@Base 1.1.0
 _ZN5Kolab5Event15setRecurrenceIDERKNS_9cDateTimeEb@Base 1.1.0
 _ZN5Kolab5Event15setTransparencyEb@Base 1.1.0
 _ZN5Kolab5Event16addExceptionDateERKNS_9cDateTimeE@Base 1.1.0
 _ZN5Kolab5Event17addRecurrenceDateERKNS_9cDateTimeE@Base 1.1.0
 _ZN5Kolab5Event17setClassificationENS_14ClassificationE@Base 1.1.0
 _ZN5Kolab5Event17setExceptionDatesERKSt6vectorINS_9cDateTimeESaIS2_EE@Base 1.1.0
 _ZN5Kolab5Event17setRecurrenceRuleERKNS_14RecurrenceRuleE@Base 1.1.0
 _ZN5Kolab5Event18setRecurrenceDatesERKSt6vectorINS_9cDateTimeESaIS2_EE@Base 1.1.0
 _ZN5Kolab5Event19setCustomPropertiesERKSt6vectorINS_14CustomPropertyESaIS2_EE@Base 1.1.0
 _ZN5Kolab5Event6setEndERKNS_9cDateTimeE@Base 1.1.0
 _ZN5Kolab5Event6setUidERKNSt7__cxx1112basic_stringIcSt11char_traitsIcESaIcEEE@Base 1.1.0
 _ZN5Kolab5Event6setUrlERKNSt7__cxx1112basic_stringIcSt11char_traitsIcESaIcEEE@Base 1.1.0
 _ZN5Kolab5Event8setStartERKNS_9cDateTimeE@Base 1.1.0
 _ZN5Kolab5Event9setAlarmsERKSt6vectorINS_5AlarmESaIS2_EE@Base 1.1.0
 _ZN5Kolab5Event9setStatusENS_6StatusE@Base 1.1.0
 _ZN5Kolab5EventC1ERKS0_@Base 1.1.0
 _ZN5Kolab5EventC1Ev@Base 1.1.0
 _ZN5Kolab5EventC2ERKS0_@Base 1.1.0
 _ZN5Kolab5EventC2Ev@Base 1.1.0
 _ZN5Kolab5EventD1Ev@Base 1.1.0
 _ZN5Kolab5EventD2Ev@Base 1.1.0
 _ZN5Kolab5EventaSERKS0_@Base 1.1.0
 _ZN5Kolab5Utils10createdUidB5cxx11Ev@Base 1.1.0
 _ZN5Kolab5Utils10fromMailtoERKNSt7__cxx1112basic_stringIcSt11char_traitsIcESaIcEEE@Base 1.1.0
 _ZN5Kolab5Utils10fromMailtoERKNSt7__cxx1112basic_stringIcSt11char_traitsIcESaIcEEERS6_@Base 1.1.0
 _ZN5Kolab5Utils10logMessageERKNSt7__cxx1112basic_stringIcSt11char_traitsIcESaIcEEENS_13ErrorSeverityE@Base 1.1.0
 _ZN5Kolab5Utils10logMessageERKNSt7__cxx1112basic_stringIcSt11char_traitsIcESaIcEEES8_iNS_13ErrorSeverityE@Base 1.1.0
 _ZN5Kolab5Utils11ThreadLocal4instEv@Base 1.1.0
 _ZN5Kolab5Utils11clearErrorsEv@Base 1.1.0
 _ZN5Kolab5Utils11xCalVersionB5cxx11Ev@Base 1.1.0
 _ZN5Kolab5Utils12convertToIntIdEEiT_@Base 1.1.0
 _ZN5Kolab5Utils12convertToIntIxEEiT_@Base 1.1.0
 _ZN5Kolab5Utils12convertToIntIyEEiT_@Base 1.1.0
 _ZN5Kolab5Utils12getProductIdERKNSt7__cxx1112basic_stringIcSt11char_traitsIcESaIcEEE@Base 1.1.0
 _ZN5Kolab5Utils12kolabVersionB5cxx11Ev@Base 1.1.0
 _ZN5Kolab5Utils12setProductIdERKNSt7__cxx1112basic_stringIcSt11char_traitsIcESaIcEEE@Base 1.1.0
 _ZN5Kolab5Utils13setCreatedUidERKNSt7__cxx1112basic_stringIcSt11char_traitsIcESaIcEEE@Base 1.1.0
 _ZN5Kolab5Utils14getCurrentTimeEv@Base 1.1.0
 _ZN5Kolab5Utils14setXCalVersionERKNSt7__cxx1112basic_stringIcSt11char_traitsIcESaIcEEE@Base 1.1.0
 _ZN5Kolab5Utils15getErrorMessageB5cxx11Ev@Base 1.1.0
 _ZN5Kolab5Utils15setKolabVersionERKNSt7__cxx1112basic_stringIcSt11char_traitsIcESaIcEEE@Base 1.1.0
 _ZN5Kolab5Utils17uriInlineDecodingERKNSt7__cxx1112basic_stringIcSt11char_traitsIcESaIcEEERS6_@Base 1.1.0
 _ZN5Kolab5Utils17uriInlineEncodingERKNSt7__cxx1112basic_stringIcSt11char_traitsIcESaIcEEES8_@Base 1.1.0
 _ZN5Kolab5Utils20setOverrideTimestampERKNS_9cDateTimeE@Base 1.1.0
 _ZN5Kolab5Utils3ptrE@Base 1.1.0
 _ZN5Kolab5Utils6getUIDERKNSt7__cxx1112basic_stringIcSt11char_traitsIcESaIcEEE@Base 1.1.0
 _ZN5Kolab5Utils7fromIntItEET_i@Base 1.1.0
 _ZN5Kolab5Utils7fromIntIyEET_i@Base 1.1.0
 _ZN5Kolab5Utils8getErrorEv@Base 1.1.0
 _ZN5Kolab5Utils8toMailtoERKNSt7__cxx1112basic_stringIcSt11char_traitsIcESaIcEEES8_@Base 1.1.0
 _ZN5Kolab5Utils9productIdB5cxx11Ev@Base 1.1.0
 _ZN5Kolab5Utils9timestampEv@Base 1.1.0
 _ZN5Kolab5XCARD10fromGeoUriERKNSt7__cxx1112basic_stringIcSt11char_traitsIcESaIcEEERdS9_@Base 1.1.0
 _ZN5Kolab5XCARD10toDateTimeERKN9vcard_4_024DateDatetimePropertyTypeE@Base 1.1.0
 _ZN5Kolab5XCARD10toDateTimeERKNSt7__cxx1112basic_stringIcSt11char_traitsIcESaIcEEE@Base 1.1.0
 _ZN5Kolab5XCARD10toTextListIN3xsd3cxx4tree6stringIcNS4_11simple_typeIcNS4_5_typeEEEEEEESt6vectorINSt7__cxx1112basic_stringIcSt11char_traitsIcESaIcEEESaISG_EERKNS4_8sequenceIT_XsrNS4_13fundamental_pISK_EE1rEEE@Base 1.1.0
 _ZN5Kolab5XCARD10toTextListIN9vcard_4_013titlePropTypeEEESt6vectorINSt7__cxx1112basic_stringIcSt11char_traitsIcESaIcEEESaISA_EERKN3xsd3cxx4tree8sequenceIT_XsrNSF_13fundamental_pISH_EE1rEEE@Base 1.1.0
 _ZN5Kolab5XCARD10toTextListIN9vcard_4_016TextPropertyTypeEEESt6vectorINSt7__cxx1112basic_stringIcSt11char_traitsIcESaIcEEESaISA_EERKN3xsd3cxx4tree8sequenceIT_XsrNSF_13fundamental_pISH_EE1rEEE@Base 1.1.0
 _ZN5Kolab5XCARD11fromAddressERKNS_7AddressE@Base 1.1.0
 _ZN5Kolab5XCARD11fromRelatedERKNS_7RelatedE@Base 1.1.0
 _ZN5Kolab5XCARD12fromDateTimeB5cxx11ERKNS_9cDateTimeE@Base 1.1.0
 _ZN5Kolab5XCARD12fromDateTimeIN9vcard_4_012bdayPropTypeEEET_RKNS_9cDateTimeE@Base 1.1.0
 _ZN5Kolab5XCARD12fromDateTimeIN9vcard_4_019anniversaryPropTypeEEET_RKNS_9cDateTimeE@Base 1.1.0
 _ZN5Kolab5XCARD12toCryptoPrefEN9vcard_4_017PrefTypeValueTypeE@Base 1.1.0
 _ZN5Kolab5XCARD12toStringListB5cxx11ERKN3xsd3cxx4tree8sequenceINS3_6stringIcNS3_11simple_typeIcNS3_5_typeEEEEELb0EEE@Base 1.1.0
 _ZN5Kolab5XCARD13serializeCardINS_7ContactEEENSt7__cxx1112basic_stringIcSt11char_traitsIcESaIcEEERKT_S8_@Base 1.1.0
 _ZN5Kolab5XCARD13serializeCardINS_8DistListEEENSt7__cxx1112basic_stringIcSt11char_traitsIcESaIcEEERKT_S8_@Base 1.1.0
 _ZN5Kolab5XCARD14fromCryptoPrefENS_6Crypto10CryptoPrefE@Base 1.1.0
 _ZN5Kolab5XCARD14fromStringListERKSt6vectorINSt7__cxx1112basic_stringIcSt11char_traitsIcESaIcEEESaIS7_EE@Base 1.1.0
 _ZN5Kolab5XCARD15deserializeCardINS_7ContactEEEN5boost10shared_ptrIT_EERKNSt7__cxx1112basic_stringIcSt11char_traitsIcESaIcEEEb@Base 1.1.0
 _ZN5Kolab5XCARD15deserializeCardINS_8DistListEEEN5boost10shared_ptrIT_EERKNSt7__cxx1112basic_stringIcSt11char_traitsIcESaIcEEEb@Base 1.1.0
 _ZN5Kolab5XCARD7getTypeINS_7ContactEEENSt7__cxx1112basic_stringIcSt11char_traitsIcESaIcEEEv@Base 1.1.0
 _ZN5Kolab5XCARD7getTypeINS_8DistListEEENSt7__cxx1112basic_stringIcSt11char_traitsIcESaIcEEEv@Base 1.1.0
 _ZN5Kolab5XCARD8fromDateB5cxx11ERKNS_9cDateTimeE@Base 1.1.0
 _ZN5Kolab5XCARD8fromListIN9vcard_4_012imppPropTypeEEEN3xsd3cxx4tree8sequenceIT_XsrNS6_13fundamental_pIS8_EE1rEEERKSt6vectorINSt7__cxx1112basic_stringIcSt11char_traitsIcESaIcEEESaISI_EEi@Base 1.1.0
 _ZN5Kolab5XCARD8fromListIN9vcard_4_012langPropTypeEEEN3xsd3cxx4tree8sequenceIT_XsrNS6_13fundamental_pIS8_EE1rEEERKSt6vectorINSt7__cxx1112basic_stringIcSt11char_traitsIcESaIcEEESaISI_EE@Base 1.1.0
 _ZN5Kolab5XCARD8fromListIN9vcard_4_013titlePropTypeEEEN3xsd3cxx4tree8sequenceIT_XsrNS6_13fundamental_pIS8_EE1rEEERKSt6vectorINSt7__cxx1112basic_stringIcSt11char_traitsIcESaIcEEESaISI_EE@Base 1.1.0
 _ZN5Kolab5XCARD8fromListIN9vcard_4_016TextPropertyTypeEEEN3xsd3cxx4tree8sequenceIT_XsrNS6_13fundamental_pIS8_EE1rEEERKSt6vectorINSt7__cxx1112basic_stringIcSt11char_traitsIcESaIcEEESaISI_EE@Base 1.1.0
 _ZN5Kolab5XCARD8readCardINS_7ContactEEEN5boost10shared_ptrIT_EERKN9vcard_4_05vcardE@Base 1.1.0
 _ZN5Kolab5XCARD8readCardINS_8DistListEEEN5boost10shared_ptrIT_EERKN9vcard_4_05vcardE@Base 1.1.0
 _ZN5Kolab5XCARD8toGeoUriB5cxx11Edd@Base 1.1.0
 _ZN5Kolab5XCARD9toAddressERKN9vcard_4_011adrPropTypeEPb@Base 1.1.0
 _ZN5Kolab5XCARD9toRelatedERKN9vcard_4_015relatedPropTypeE@Base 1.1.0
 _ZN5Kolab5XCARD9writeCardINS_7ContactEEEvRN9vcard_4_05vcardERKT_@Base 1.1.0
 _ZN5Kolab5XCARD9writeCardINS_8DistListEEEvRN9vcard_4_05vcardERKT_@Base 1.1.0
 _ZN5Kolab5errorEv@Base 1.1.0
 _ZN5Kolab6PeriodD1Ev@Base 1.1.0
 _ZN5Kolab6PeriodD2Ev@Base 1.1.0
 _ZN5Kolab6Shared12fromDateTimeERKNS_9cDateTimeE@Base 1.1.0
 _ZN5Kolab6Shared18toContactReferenceERKNSt7__cxx1112basic_stringIcSt11char_traitsIcESaIcEEE@Base 1.1.0
 _ZN5Kolab6Shared5toURNERKNSt7__cxx1112basic_stringIcSt11char_traitsIcESaIcEEE@Base 1.1.0
 _ZN5Kolab6Shared6toDateERKN3xsd3cxx4tree4dateIcNS3_11simple_typeIcNS3_5_typeEEEEE@Base 1.1.0
 _ZN5Kolab6Shared6toDateERKN3xsd3cxx4tree9date_timeIcNS3_11simple_typeIcNS3_5_typeEEEEE@Base 1.1.0
 _ZN5Kolab6Shared7fromURNERKNSt7__cxx1112basic_stringIcSt11char_traitsIcESaIcEEE@Base 1.1.0
 _ZN5Kolab6Shared8fromDateERKNS_9cDateTimeE@Base 1.1.0
 _ZN5Kolab7AddressC1ERKS0_@Base 1.1.0
 _ZN5Kolab7AddressC2ERKS0_@Base 1.1.0
 _ZN5Kolab7AddressD1Ev@Base 1.1.0
 _ZN5Kolab7AddressD2Ev@Base 1.1.0
 _ZN5Kolab7Contact11addCategoryERKNSt7__cxx1112basic_stringIcSt11char_traitsIcESaIcEEE@Base 1.1.0
 _ZN5Kolab7Contact11setRelatedsERKSt6vectorINS_7RelatedESaIS2_EE@Base 1.1.0
 _ZN5Kolab7Contact12setAddressesERKSt6vectorINS_7AddressESaIS2_EEi@Base 1.1.0
 _ZN5Kolab7Contact12setLanguagesERKSt6vectorINSt7__cxx1112basic_stringIcSt11char_traitsIcESaIcEEESaIS7_EE@Base 1.1.0
 _ZN5Kolab7Contact12setNickNamesERKSt6vectorINSt7__cxx1112basic_stringIcSt11char_traitsIcESaIcEEESaIS7_EE@Base 1.1.0
 _ZN5Kolab7Contact13setCategoriesERKSt6vectorINSt7__cxx1112basic_stringIcSt11char_traitsIcESaIcEEESaIS7_EE@Base 1.1.0
 _ZN5Kolab7Contact13setTelephonesERKSt6vectorINS_9TelephoneESaIS2_EEi@Base 1.1.0
 _ZN5Kolab7Contact14setAnniversaryERKNS_9cDateTimeE@Base 1.1.0
 _ZN5Kolab7Contact14setFreeBusyUrlERKNSt7__cxx1112basic_stringIcSt11char_traitsIcESaIcEEE@Base 1.1.0
 _ZN5Kolab7Contact14setIMaddressesERKSt6vectorINSt7__cxx1112basic_stringIcSt11char_traitsIcESaIcEEESaIS7_EEi@Base 1.1.0
 _ZN5Kolab7Contact15setAffiliationsERKSt6vectorINS_11AffiliationESaIS2_EE@Base 1.1.0
 _ZN5Kolab7Contact15setLastModifiedERKNS_9cDateTimeE@Base 1.1.0
 _ZN5Kolab7Contact17setEmailAddressesERKSt6vectorINS_5EmailESaIS2_EEi@Base 1.1.0
 _ZN5Kolab7Contact17setNameComponentsERKNS_14NameComponentsE@Base 1.1.0
 _ZN5Kolab7Contact19setCustomPropertiesERKSt6vectorINS_14CustomPropertyESaIS2_EE@Base 1.1.0
 _ZN5Kolab7Contact6setUidERKNSt7__cxx1112basic_stringIcSt11char_traitsIcESaIcEEE@Base 1.1.0
 _ZN5Kolab7Contact7PrivateD1Ev@Base 1.1.0
 _ZN5Kolab7Contact7PrivateD2Ev@Base 1.1.0
 _ZN5Kolab7Contact7setBDayERKNS_9cDateTimeE@Base 1.1.0
 _ZN5Kolab7Contact7setKeysERKSt6vectorINS_3KeyESaIS2_EE@Base 1.1.0
 _ZN5Kolab7Contact7setNameERKNSt7__cxx1112basic_stringIcSt11char_traitsIcESaIcEEE@Base 1.1.0
 _ZN5Kolab7Contact7setNoteERKNSt7__cxx1112basic_stringIcSt11char_traitsIcESaIcEEE@Base 1.1.0
 _ZN5Kolab7Contact7setUrlsERKSt6vectorINS_3UrlESaIS2_EE@Base 1.1.0
 _ZN5Kolab7Contact8setPhotoERKNSt7__cxx1112basic_stringIcSt11char_traitsIcESaIcEEES8_@Base 1.1.0
 _ZN5Kolab7Contact9setCryptoERKNS_6CryptoE@Base 1.1.0
 _ZN5Kolab7Contact9setGPSposERKSt6vectorINS_3GeoESaIS2_EE@Base 1.1.0
 _ZN5Kolab7Contact9setGenderENS0_6GenderE@Base 1.1.0
 _ZN5Kolab7Contact9setTitlesERKSt6vectorINSt7__cxx1112basic_stringIcSt11char_traitsIcESaIcEEESaIS7_EE@Base 1.1.0
 _ZN5Kolab7ContactC1ERKS0_@Base 1.1.0
 _ZN5Kolab7ContactC1Ev@Base 1.1.0
 _ZN5Kolab7ContactC2ERKS0_@Base 1.1.0
 _ZN5Kolab7ContactC2Ev@Base 1.1.0
 _ZN5Kolab7ContactD1Ev@Base 1.1.0
 _ZN5Kolab7ContactD2Ev@Base 1.1.0
 _ZN5Kolab7ContactaSERKS0_@Base 1.1.0
 _ZN5Kolab7Journal10setCommentERKNSt7__cxx1112basic_stringIcSt11char_traitsIcESaIcEEE@Base 1.1.0
 _ZN5Kolab7Journal10setCreatedERKNS_9cDateTimeE@Base 1.1.0
 _ZN5Kolab7Journal10setSummaryERKNSt7__cxx1112basic_stringIcSt11char_traitsIcESaIcEEE@Base 1.1.0
 _ZN5Kolab7Journal11addCategoryERKNSt7__cxx1112basic_stringIcSt11char_traitsIcESaIcEEE@Base 1.1.0
 _ZN5Kolab7Journal11setSequenceEi@Base 1.1.0
 _ZN5Kolab7Journal12setAttendeesERKSt6vectorINS_8AttendeeESaIS2_EE@Base 1.1.0
 _ZN5Kolab7Journal13setCategoriesERKSt6vectorINSt7__cxx1112basic_stringIcSt11char_traitsIcESaIcEEESaIS7_EE@Base 1.1.0
 _ZN5Kolab7Journal14setAttachmentsERKSt6vectorINS_10AttachmentESaIS2_EE@Base 1.1.0
 _ZN5Kolab7Journal14setDescriptionERKNSt7__cxx1112basic_stringIcSt11char_traitsIcESaIcEEE@Base 1.1.0
 _ZN5Kolab7Journal15setLastModifiedERKNS_9cDateTimeE@Base 1.1.0
 _ZN5Kolab7Journal17setClassificationENS_14ClassificationE@Base 1.1.0
 _ZN5Kolab7Journal19setCustomPropertiesERKSt6vectorINS_14CustomPropertyESaIS2_EE@Base 1.1.0
 _ZN5Kolab7Journal6setUidERKNSt7__cxx1112basic_stringIcSt11char_traitsIcESaIcEEE@Base 1.1.0
 _ZN5Kolab7Journal8setStartERKNS_9cDateTimeE@Base 1.1.0
 _ZN5Kolab7Journal9setStatusENS_6StatusE@Base 1.1.0
 _ZN5Kolab7JournalC1ERKS0_@Base 1.1.0
 _ZN5Kolab7JournalC1Ev@Base 1.1.0
 _ZN5Kolab7JournalC2ERKS0_@Base 1.1.0
 _ZN5Kolab7JournalC2Ev@Base 1.1.0
 _ZN5Kolab7JournalD1Ev@Base 1.1.0
 _ZN5Kolab7JournalD2Ev@Base 1.1.0
 _ZN5Kolab7JournalaSERKS0_@Base 1.1.0
 _ZN5Kolab7RelatedC1ERKS0_@Base 1.1.0
 _ZN5Kolab7RelatedC2ERKS0_@Base 1.1.0
 _ZN5Kolab7RelatedD1Ev@Base 1.1.0
 _ZN5Kolab7RelatedD2Ev@Base 1.1.0
 _ZN5Kolab7SnippetC1ERKS0_@Base 1.1.0
 _ZN5Kolab7SnippetC2ERKS0_@Base 1.1.0
 _ZN5Kolab7SnippetD1Ev@Base 1.1.0
 _ZN5Kolab7SnippetD2Ev@Base 1.1.0
 _ZN5Kolab7isValidERKNS_9cDateTimeE@Base 1.1.0
 _ZN5Kolab8Attendee10setContactERKNS_16ContactReferenceE@Base 1.1.0
 _ZN5Kolab8Attendee11setPartStatENS_10PartStatusE@Base 1.1.0
 _ZN5Kolab8Attendee14setDelegatedToERKSt6vectorINS_16ContactReferenceESaIS2_EE@Base 1.1.0
 _ZN5Kolab8Attendee16setDelegatedFromERKSt6vectorINS_16ContactReferenceESaIS2_EE@Base 1.1.0
 _ZN5Kolab8Attendee7setRSVPEb@Base 1.1.0
 _ZN5Kolab8Attendee7setRoleENS_4RoleE@Base 1.1.0
 _ZN5Kolab8Attendee9setCutypeENS_6CutypeE@Base 1.1.0
 _ZN5Kolab8AttendeeC1ERKNS_16ContactReferenceE@Base 1.1.0
 _ZN5Kolab8AttendeeC1ERKS0_@Base 1.1.0
 _ZN5Kolab8AttendeeC1Ev@Base 1.1.0
 _ZN5Kolab8AttendeeC2ERKNS_16ContactReferenceE@Base 1.1.0
 _ZN5Kolab8AttendeeC2ERKS0_@Base 1.1.0
 _ZN5Kolab8AttendeeC2Ev@Base 1.1.0
 _ZN5Kolab8AttendeeD1Ev@Base 1.1.0
 _ZN5Kolab8AttendeeD2Ev@Base 1.1.0
 _ZN5Kolab8AttendeeaSERKS0_@Base 1.1.0
 _ZN5Kolab8DistList10setMembersERKSt6vectorINS_16ContactReferenceESaIS2_EE@Base 1.1.0
 _ZN5Kolab8DistList15setLastModifiedERKNS_9cDateTimeE@Base 1.1.0
 _ZN5Kolab8DistList19setCustomPropertiesERKSt6vectorINS_14CustomPropertyESaIS2_EE@Base 1.1.0
 _ZN5Kolab8DistList6setUidERKNSt7__cxx1112basic_stringIcSt11char_traitsIcESaIcEEE@Base 1.1.0
 _ZN5Kolab8DistList7setNameERKNSt7__cxx1112basic_stringIcSt11char_traitsIcESaIcEEE@Base 1.1.0
 _ZN5Kolab8DistListC1ERKS0_@Base 1.1.0
 _ZN5Kolab8DistListC1Ev@Base 1.1.0
 _ZN5Kolab8DistListC2ERKS0_@Base 1.1.0
 _ZN5Kolab8DistListC2Ev@Base 1.1.0
 _ZN5Kolab8DistListD1Ev@Base 1.1.0
 _ZN5Kolab8DistListD2Ev@Base 1.1.0
 _ZN5Kolab8DistListaSERKS0_@Base 1.1.0
 _ZN5Kolab8Freebusy10setPeriodsERKSt6vectorINS_14FreebusyPeriodESaIS2_EE@Base 1.1.0
 _ZN5Kolab8Freebusy12setOrganizerERKNS_16ContactReferenceE@Base 1.1.0
 _ZN5Kolab8Freebusy12setTimestampERKNS_9cDateTimeE@Base 1.1.0
 _ZN5Kolab8Freebusy6setEndERKNS_9cDateTimeE@Base 1.1.0
 _ZN5Kolab8Freebusy6setUidERKNSt7__cxx1112basic_stringIcSt11char_traitsIcESaIcEEE@Base 1.1.0
 _ZN5Kolab8Freebusy8setStartERKNS_9cDateTimeE@Base 1.1.0
 _ZN5Kolab8FreebusyC1ERKS0_@Base 1.1.0
 _ZN5Kolab8FreebusyC1Ev@Base 1.1.0
 _ZN5Kolab8FreebusyC2ERKS0_@Base 1.1.0
 _ZN5Kolab8FreebusyC2Ev@Base 1.1.0
 _ZN5Kolab8FreebusyD1Ev@Base 1.1.0
 _ZN5Kolab8FreebusyD2Ev@Base 1.1.0
 _ZN5Kolab8FreebusyaSERKS0_@Base 1.1.0
 _ZN5Kolab8RelationD1Ev@Base 1.1.0
 _ZN5Kolab8RelationD2Ev@Base 1.1.0
 _ZN5Kolab8readFileERKNSt7__cxx1112basic_stringIcSt11char_traitsIcESaIcEEEb@Base 1.1.0
 _ZN5Kolab8readNoteERKNSt7__cxx1112basic_stringIcSt11char_traitsIcESaIcEEEb@Base 1.1.0
 _ZN5Kolab8readTodoERKNSt7__cxx1112basic_stringIcSt11char_traitsIcESaIcEEEb@Base 1.1.0
 _ZN5Kolab8validateERKNS_13ConfigurationE@Base 1.1.0
 _ZN5Kolab8validateERKNS_4FileE@Base 1.1.0
 _ZN5Kolab8validateERKNS_4NoteE@Base 1.1.0
 _ZN5Kolab8validateERKNS_4TodoE@Base 1.1.0
 _ZN5Kolab8validateERKNS_5EventE@Base 1.1.0
 _ZN5Kolab8validateERKNS_7ContactE@Base 1.1.0
 _ZN5Kolab8validateERKNS_7JournalE@Base 1.1.0
 _ZN5Kolab8validateERKNS_8DistListE@Base 1.1.0
 _ZN5Kolab8validateERKNS_8FreebusyE@Base 1.1.0
 _ZN5Kolab9cDateTime11setTimezoneERKNSt7__cxx1112basic_stringIcSt11char_traitsIcESaIcEEE@Base 1.1.0
 _ZN5Kolab9cDateTime6setUTCEb@Base 1.1.0
 _ZN5Kolab9cDateTime7setDateEiii@Base 1.1.0
 _ZN5Kolab9cDateTime7setTimeEiii@Base 1.1.0
 _ZN5Kolab9cDateTimeC1ERKNSt7__cxx1112basic_stringIcSt11char_traitsIcESaIcEEEiiiiii@Base 1.1.0
 _ZN5Kolab9cDateTimeC1ERKS0_@Base 1.1.0
 _ZN5Kolab9cDateTimeC1Eiii@Base 1.1.0
 _ZN5Kolab9cDateTimeC1Eiiiiiib@Base 1.1.0
 _ZN5Kolab9cDateTimeC1Ev@Base 1.1.0
 _ZN5Kolab9cDateTimeC2ERKNSt7__cxx1112basic_stringIcSt11char_traitsIcESaIcEEEiiiiii@Base 1.1.0
 _ZN5Kolab9cDateTimeC2ERKS0_@Base 1.1.0
 _ZN5Kolab9cDateTimeC2Eiii@Base 1.1.0
 _ZN5Kolab9cDateTimeC2Eiiiiiib@Base 1.1.0
 _ZN5Kolab9cDateTimeC2Ev@Base 1.1.0
 _ZN5Kolab9cDateTimeD1Ev@Base 1.1.0
 _ZN5Kolab9cDateTimeD2Ev@Base 1.1.0
 _ZN5Kolab9cDateTimeaSERKS0_@Base 1.1.0
 _ZN5Kolab9productIdB5cxx11Ev@Base 1.1.0
 _ZN5Kolab9readEventERKNSt7__cxx1112basic_stringIcSt11char_traitsIcESaIcEEEb@Base 1.1.0
 _ZN5Kolab9writeFileERKNS_4FileERKNSt7__cxx1112basic_stringIcSt11char_traitsIcESaIcEEE@Base 1.1.0
 _ZN5Kolab9writeNoteERKNS_4NoteERKNSt7__cxx1112basic_stringIcSt11char_traitsIcESaIcEEE@Base 1.1.0
 _ZN5Kolab9writeTodoERKNS_4TodoERKNSt7__cxx1112basic_stringIcSt11char_traitsIcESaIcEEE@Base 1.1.0
 _ZN5boost10conversion6detail14throw_bad_castINSt7__cxx1112basic_stringIcSt11char_traitsIcESaIcEEEdEEvv@Base 1.1.0
 _ZN5boost10scoped_ptrIN5Kolab13Configuration7PrivateEED1Ev@Base 1.1.0
 _ZN5boost10scoped_ptrIN5Kolab13Configuration7PrivateEED2Ev@Base 1.1.0
 _ZN5boost10scoped_ptrIN5Kolab14FreebusyPeriod7PrivateEED1Ev@Base 1.1.0
 _ZN5boost10scoped_ptrIN5Kolab14FreebusyPeriod7PrivateEED2Ev@Base 1.1.0
 _ZN5boost10scoped_ptrIN5Kolab14RecurrenceRule7PrivateEED1Ev@Base 1.1.0
 _ZN5boost10scoped_ptrIN5Kolab14RecurrenceRule7PrivateEED2Ev@Base 1.1.0
 _ZN5boost10scoped_ptrIN5Kolab4File7PrivateEED1Ev@Base 1.1.0
 _ZN5boost10scoped_ptrIN5Kolab4File7PrivateEED2Ev@Base 1.1.0
 _ZN5boost10scoped_ptrIN5Kolab4Note7PrivateEED1Ev@Base 1.1.0
 _ZN5boost10scoped_ptrIN5Kolab4Note7PrivateEED2Ev@Base 1.1.0
 _ZN5boost10scoped_ptrIN5Kolab4Todo7PrivateEED1Ev@Base 1.1.0
 _ZN5boost10scoped_ptrIN5Kolab4Todo7PrivateEED2Ev@Base 1.1.0
 _ZN5boost10scoped_ptrIN5Kolab5Alarm7PrivateEED1Ev@Base 1.1.0
 _ZN5boost10scoped_ptrIN5Kolab5Alarm7PrivateEED2Ev@Base 1.1.0
 _ZN5boost10scoped_ptrIN5Kolab5Event7PrivateEED1Ev@Base 1.1.0
 _ZN5boost10scoped_ptrIN5Kolab5Event7PrivateEED2Ev@Base 1.1.0
 _ZN5boost10scoped_ptrIN5Kolab8Attendee7PrivateEED1Ev@Base 1.1.0
 _ZN5boost10scoped_ptrIN5Kolab8Attendee7PrivateEED2Ev@Base 1.1.0
 _ZN5boost10scoped_ptrIN5Kolab8DistList7PrivateEED1Ev@Base 1.1.0
 _ZN5boost10scoped_ptrIN5Kolab8DistList7PrivateEED2Ev@Base 1.1.0
 _ZN5boost10scoped_ptrIN5Kolab8Freebusy7PrivateEED1Ev@Base 1.1.0
 _ZN5boost10scoped_ptrIN5Kolab8Freebusy7PrivateEED2Ev@Base 1.1.0
 _ZN5boost10shared_ptrIN5Kolab13ConfigurationEEC1IS2_EEPT_@Base 1.1.0
 _ZN5boost10shared_ptrIN5Kolab13ConfigurationEEC2IS2_EEPT_@Base 1.1.0
 _ZN5boost10shared_ptrIN5Kolab13ConfigurationEEaSERKS3_@Base 1.1.0
 _ZN5boost12lexical_castINSt7__cxx1112basic_stringIcSt11char_traitsIcESaIcEEEiEET_RKT0_@Base 1.1.0
 _ZN5boost12lexical_castIiNSt7__cxx1112basic_stringIcSt11char_traitsIcESaIcEEEEET_RKT0_@Base 1.1.0
 _ZN5boost13exception_ptrD1Ev@Base 1.1.0
 _ZN5boost13exception_ptrD2Ev@Base 1.1.0
 _ZN5boost14checked_deleteIN5Kolab9cDateTime7PrivateEEEvPT_@Base 1.1.0
 _ZN5boost15foreach_detail_14simple_variantISt6vectorIN5Kolab6DayPosESaIS4_EEED1Ev@Base 1.1.0
 _ZN5boost15foreach_detail_14simple_variantISt6vectorIN5Kolab6DayPosESaIS4_EEED2Ev@Base 1.1.0
 _ZN5boost15foreach_detail_14simple_variantISt6vectorIiSaIiEEED1Ev@Base 1.1.0
 _ZN5boost15foreach_detail_14simple_variantISt6vectorIiSaIiEEED2Ev@Base 1.1.0
 _ZN5boost15throw_exceptionINS_16bad_lexical_castEEEvRKT_@Base 1.1.0
 _ZN5boost15throw_exceptionINS_16exception_detail19error_info_injectorISt13runtime_errorEEEEvRKT_@Base 1.1.0
 _ZN5boost15throw_exceptionISt16invalid_argumentEEvRKT_@Base 1.1.0
 _ZN5boost16bad_lexical_castD0Ev@Base 1.1.0
 _ZN5boost16bad_lexical_castD1Ev@Base 1.1.0
 _ZN5boost16bad_lexical_castD2Ev@Base 1.1.0
 _ZN5boost16exception_detail10bad_alloc_D0Ev@Base 1.1.0
 _ZN5boost16exception_detail10bad_alloc_D1Ev@Base 1.1.0
 _ZN5boost16exception_detail10bad_alloc_D2Ev@Base 1.1.0
 _ZN5boost16exception_detail10clone_implINS0_10bad_alloc_EED0Ev@Base 1.1.0
 _ZN5boost16exception_detail10clone_implINS0_10bad_alloc_EED1Ev@Base 1.1.0
 _ZN5boost16exception_detail10clone_implINS0_14bad_exception_EED0Ev@Base 1.1.0
 _ZN5boost16exception_detail10clone_implINS0_14bad_exception_EED1Ev@Base 1.1.0
 _ZN5boost16exception_detail10clone_implINS0_19error_info_injectorINS_16bad_lexical_castEEEED0Ev@Base 1.1.0
 _ZN5boost16exception_detail10clone_implINS0_19error_info_injectorINS_16bad_lexical_castEEEED1Ev@Base 1.1.0
 _ZN5boost16exception_detail10clone_implINS0_19error_info_injectorISt13runtime_errorEEED0Ev@Base 1.1.0
 _ZN5boost16exception_detail10clone_implINS0_19error_info_injectorISt13runtime_errorEEED1Ev@Base 1.1.0
 _ZN5boost16exception_detail10clone_implINS0_19error_info_injectorISt16invalid_argumentEEED0Ev@Base 1.1.0
 _ZN5boost16exception_detail10clone_implINS0_19error_info_injectorISt16invalid_argumentEEED1Ev@Base 1.1.0
 _ZN5boost16exception_detail14bad_exception_D0Ev@Base 1.1.0
 _ZN5boost16exception_detail14bad_exception_D1Ev@Base 1.1.0
 _ZN5boost16exception_detail14bad_exception_D2Ev@Base 1.1.0
 _ZN5boost16exception_detail16throw_exception_ISt13runtime_errorEEvRKT_PKcS7_i@Base 1.1.0
 _ZN5boost16exception_detail19error_info_injectorINS_16bad_lexical_castEEC1ERKS3_@Base 1.1.2
 _ZN5boost16exception_detail19error_info_injectorINS_16bad_lexical_castEEC2ERKS3_@Base 1.1.2
 _ZN5boost16exception_detail19error_info_injectorINS_16bad_lexical_castEED0Ev@Base 1.1.0
 _ZN5boost16exception_detail19error_info_injectorINS_16bad_lexical_castEED1Ev@Base 1.1.0
 _ZN5boost16exception_detail19error_info_injectorINS_16bad_lexical_castEED2Ev@Base 1.1.0
 _ZN5boost16exception_detail19error_info_injectorISt13runtime_errorEC1ERKS3_@Base 1.1.0
 _ZN5boost16exception_detail19error_info_injectorISt13runtime_errorEC2ERKS3_@Base 1.1.0
 _ZN5boost16exception_detail19error_info_injectorISt13runtime_errorED0Ev@Base 1.1.0
 _ZN5boost16exception_detail19error_info_injectorISt13runtime_errorED1Ev@Base 1.1.0
 _ZN5boost16exception_detail19error_info_injectorISt13runtime_errorED2Ev@Base 1.1.0
 _ZN5boost16exception_detail19error_info_injectorISt16invalid_argumentEC1ERKS3_@Base 1.1.2
 _ZN5boost16exception_detail19error_info_injectorISt16invalid_argumentEC2ERKS3_@Base 1.1.2
 _ZN5boost16exception_detail19error_info_injectorISt16invalid_argumentED0Ev@Base 1.1.0
 _ZN5boost16exception_detail19error_info_injectorISt16invalid_argumentED1Ev@Base 1.1.0
 _ZN5boost16exception_detail19error_info_injectorISt16invalid_argumentED2Ev@Base 1.1.0
 _ZN5boost16exception_detail20copy_boost_exceptionEPNS_9exceptionEPKS1_@Base 1.1.0
 _ZN5boost16exception_detail25error_info_container_impl3setERKNS_10shared_ptrINS0_15error_info_baseEEERKNS0_10type_info_E@Base 1.1.0
 _ZN5boost16exception_detail27get_static_exception_objectINS0_10bad_alloc_EEENS_13exception_ptrEv@Base 1.1.0
 _ZN5boost16exception_detail27get_static_exception_objectINS0_14bad_exception_EEENS_13exception_ptrEv@Base 1.1.0
 _ZN5boost16exception_detail37exception_ptr_static_exception_objectINS0_10bad_alloc_EE1eE@Base 1.1.0
 _ZN5boost16exception_detail37exception_ptr_static_exception_objectINS0_14bad_exception_EE1eE@Base 1.1.0
 _ZN5boost19thread_specific_ptrI16XMLParserWrapperE11delete_dataD0Ev@Base 1.1.0
 _ZN5boost19thread_specific_ptrI16XMLParserWrapperE11delete_dataD1Ev@Base 1.1.0
 _ZN5boost19thread_specific_ptrI16XMLParserWrapperE11delete_dataD2Ev@Base 1.1.0
 _ZN5boost19thread_specific_ptrI16XMLParserWrapperE11delete_dataclEPv@Base 1.1.0
 _ZN5boost19thread_specific_ptrI16XMLParserWrapperEC1Ev@Base 1.1.0
 _ZN5boost19thread_specific_ptrI16XMLParserWrapperEC2Ev@Base 1.1.0
 _ZN5boost19thread_specific_ptrI16XMLParserWrapperED1Ev@Base 1.1.0
 _ZN5boost19thread_specific_ptrI16XMLParserWrapperED2Ev@Base 1.1.0
 _ZN5boost19thread_specific_ptrIN5Kolab5Utils6GlobalEE11delete_dataD0Ev@Base 1.1.0
 _ZN5boost19thread_specific_ptrIN5Kolab5Utils6GlobalEE11delete_dataD1Ev@Base 1.1.0
 _ZN5boost19thread_specific_ptrIN5Kolab5Utils6GlobalEE11delete_dataD2Ev@Base 1.1.0
 _ZN5boost19thread_specific_ptrIN5Kolab5Utils6GlobalEE11delete_dataclEPv@Base 1.1.0
 _ZN5boost19thread_specific_ptrIN5Kolab5Utils6GlobalEEC1Ev@Base 1.1.0
 _ZN5boost19thread_specific_ptrIN5Kolab5Utils6GlobalEEC2Ev@Base 1.1.0
 _ZN5boost19thread_specific_ptrIN5Kolab5Utils6GlobalEED1Ev@Base 1.1.0
 _ZN5boost19thread_specific_ptrIN5Kolab5Utils6GlobalEED2Ev@Base 1.1.0
 _ZN5boost5uuids6detail8seed_rng19sha1_random_digest_Ev@Base 1.1.0
 _ZN5boost6detail15sp_counted_base7destroyEv@Base 1.1.0
 _ZN5boost6detail16basic_pointerbufIcSt15basic_streambufIcSt11char_traitsIcEEE6setbufEPcl@Base 1.1.0
 _ZN5boost6detail16basic_pointerbufIcSt15basic_streambufIcSt11char_traitsIcEEE7seekoffElSt12_Ios_SeekdirSt13_Ios_Openmode@Base 1.1.0
 _ZN5boost6detail16basic_pointerbufIcSt15basic_streambufIcSt11char_traitsIcEEE7seekposESt4fposI11__mbstate_tESt13_Ios_Openmode@Base 1.1.0
 _ZN5boost6detail16basic_pointerbufIcSt15basic_streambufIcSt11char_traitsIcEEED0Ev@Base 1.1.0
 _ZN5boost6detail16basic_pointerbufIcSt15basic_streambufIcSt11char_traitsIcEEED1Ev@Base 1.1.0
 _ZN5boost6detail16basic_pointerbufIcSt15basic_streambufIcSt11char_traitsIcEEED2Ev@Base 1.1.0
 _ZN5boost6detail17basic_unlockedbufISt15basic_streambufIcSt11char_traitsIcEEcED0Ev@Base 1.1.0
 _ZN5boost6detail17basic_unlockedbufISt15basic_streambufIcSt11char_traitsIcEEcED1Ev@Base 1.1.0
 _ZN5boost6detail17basic_unlockedbufISt15basic_streambufIcSt11char_traitsIcEEcED2Ev@Base 1.1.0
 _ZN5boost6detail17sp_counted_impl_pIN5Kolab13ConfigurationEE11get_deleterERKSt9type_info@Base 1.1.0
 _ZN5boost6detail17sp_counted_impl_pIN5Kolab13ConfigurationEE19get_untyped_deleterEv@Base 1.1.0
 _ZN5boost6detail17sp_counted_impl_pIN5Kolab13ConfigurationEE7disposeEv@Base 1.1.0
 _ZN5boost6detail17sp_counted_impl_pIN5Kolab13ConfigurationEED0Ev@Base 1.1.0
 _ZN5boost6detail17sp_counted_impl_pIN5Kolab13ConfigurationEED1Ev@Base 1.1.0
 _ZN5boost6detail17sp_counted_impl_pIN5Kolab13ConfigurationEED2Ev@Base 1.1.0
 _ZN5boost6detail17sp_counted_impl_pIN5Kolab4FileEE11get_deleterERKSt9type_info@Base 1.1.0
 _ZN5boost6detail17sp_counted_impl_pIN5Kolab4FileEE19get_untyped_deleterEv@Base 1.1.0
 _ZN5boost6detail17sp_counted_impl_pIN5Kolab4FileEE7disposeEv@Base 1.1.0
 _ZN5boost6detail17sp_counted_impl_pIN5Kolab4FileEED0Ev@Base 1.1.0
 _ZN5boost6detail17sp_counted_impl_pIN5Kolab4FileEED1Ev@Base 1.1.0
 _ZN5boost6detail17sp_counted_impl_pIN5Kolab4FileEED2Ev@Base 1.1.0
 _ZN5boost6detail17sp_counted_impl_pIN5Kolab4NoteEE11get_deleterERKSt9type_info@Base 1.1.0
 _ZN5boost6detail17sp_counted_impl_pIN5Kolab4NoteEE19get_untyped_deleterEv@Base 1.1.0
 _ZN5boost6detail17sp_counted_impl_pIN5Kolab4NoteEE7disposeEv@Base 1.1.0
 _ZN5boost6detail17sp_counted_impl_pIN5Kolab4NoteEED0Ev@Base 1.1.0
 _ZN5boost6detail17sp_counted_impl_pIN5Kolab4NoteEED1Ev@Base 1.1.0
 _ZN5boost6detail17sp_counted_impl_pIN5Kolab4NoteEED2Ev@Base 1.1.0
 _ZN5boost6detail17sp_counted_impl_pIN5Kolab4TodoEE11get_deleterERKSt9type_info@Base 1.1.0
 _ZN5boost6detail17sp_counted_impl_pIN5Kolab4TodoEE19get_untyped_deleterEv@Base 1.1.0
 _ZN5boost6detail17sp_counted_impl_pIN5Kolab4TodoEE7disposeEv@Base 1.1.0
 _ZN5boost6detail17sp_counted_impl_pIN5Kolab4TodoEED0Ev@Base 1.1.0
 _ZN5boost6detail17sp_counted_impl_pIN5Kolab4TodoEED1Ev@Base 1.1.0
 _ZN5boost6detail17sp_counted_impl_pIN5Kolab4TodoEED2Ev@Base 1.1.0
 _ZN5boost6detail17sp_counted_impl_pIN5Kolab5EventEE11get_deleterERKSt9type_info@Base 1.1.0
 _ZN5boost6detail17sp_counted_impl_pIN5Kolab5EventEE19get_untyped_deleterEv@Base 1.1.0
 _ZN5boost6detail17sp_counted_impl_pIN5Kolab5EventEE7disposeEv@Base 1.1.0
 _ZN5boost6detail17sp_counted_impl_pIN5Kolab5EventEED0Ev@Base 1.1.0
 _ZN5boost6detail17sp_counted_impl_pIN5Kolab5EventEED1Ev@Base 1.1.0
 _ZN5boost6detail17sp_counted_impl_pIN5Kolab5EventEED2Ev@Base 1.1.0
 _ZN5boost6detail17sp_counted_impl_pIN5Kolab7ContactEE11get_deleterERKSt9type_info@Base 1.1.0
 _ZN5boost6detail17sp_counted_impl_pIN5Kolab7ContactEE19get_untyped_deleterEv@Base 1.1.0
 _ZN5boost6detail17sp_counted_impl_pIN5Kolab7ContactEE7disposeEv@Base 1.1.0
 _ZN5boost6detail17sp_counted_impl_pIN5Kolab7ContactEED0Ev@Base 1.1.0
 _ZN5boost6detail17sp_counted_impl_pIN5Kolab7ContactEED1Ev@Base 1.1.0
 _ZN5boost6detail17sp_counted_impl_pIN5Kolab7ContactEED2Ev@Base 1.1.0
 _ZN5boost6detail17sp_counted_impl_pIN5Kolab7JournalEE11get_deleterERKSt9type_info@Base 1.1.0
 _ZN5boost6detail17sp_counted_impl_pIN5Kolab7JournalEE19get_untyped_deleterEv@Base 1.1.0
 _ZN5boost6detail17sp_counted_impl_pIN5Kolab7JournalEE7disposeEv@Base 1.1.0
 _ZN5boost6detail17sp_counted_impl_pIN5Kolab7JournalEED0Ev@Base 1.1.0
 _ZN5boost6detail17sp_counted_impl_pIN5Kolab7JournalEED1Ev@Base 1.1.0
 _ZN5boost6detail17sp_counted_impl_pIN5Kolab7JournalEED2Ev@Base 1.1.0
 _ZN5boost6detail17sp_counted_impl_pIN5Kolab8DistListEE11get_deleterERKSt9type_info@Base 1.1.0
 _ZN5boost6detail17sp_counted_impl_pIN5Kolab8DistListEE19get_untyped_deleterEv@Base 1.1.0
 _ZN5boost6detail17sp_counted_impl_pIN5Kolab8DistListEE7disposeEv@Base 1.1.0
 _ZN5boost6detail17sp_counted_impl_pIN5Kolab8DistListEED0Ev@Base 1.1.0
 _ZN5boost6detail17sp_counted_impl_pIN5Kolab8DistListEED1Ev@Base 1.1.0
 _ZN5boost6detail17sp_counted_impl_pIN5Kolab8DistListEED2Ev@Base 1.1.0
 _ZN5boost6detail17sp_counted_impl_pIN5Kolab8FreebusyEE11get_deleterERKSt9type_info@Base 1.1.0
 _ZN5boost6detail17sp_counted_impl_pIN5Kolab8FreebusyEE19get_untyped_deleterEv@Base 1.1.0
 _ZN5boost6detail17sp_counted_impl_pIN5Kolab8FreebusyEE7disposeEv@Base 1.1.0
 _ZN5boost6detail17sp_counted_impl_pIN5Kolab8FreebusyEED0Ev@Base 1.1.0
 _ZN5boost6detail17sp_counted_impl_pIN5Kolab8FreebusyEED1Ev@Base 1.1.0
 _ZN5boost6detail17sp_counted_impl_pIN5Kolab8FreebusyEED2Ev@Base 1.1.0
 _ZN5boost6detail17sp_counted_impl_pIN5Kolab9cDateTimeEE11get_deleterERKSt9type_info@Base 1.1.0
 _ZN5boost6detail17sp_counted_impl_pIN5Kolab9cDateTimeEE19get_untyped_deleterEv@Base 1.1.0
 _ZN5boost6detail17sp_counted_impl_pIN5Kolab9cDateTimeEE7disposeEv@Base 1.1.0
 _ZN5boost6detail17sp_counted_impl_pIN5Kolab9cDateTimeEED0Ev@Base 1.1.0
 _ZN5boost6detail17sp_counted_impl_pIN5Kolab9cDateTimeEED1Ev@Base 1.1.0
 _ZN5boost6detail17sp_counted_impl_pIN5Kolab9cDateTimeEED2Ev@Base 1.1.0
 _ZN5boost6detail17sp_counted_impl_pINS_16exception_detail10clone_implINS2_10bad_alloc_EEEE11get_deleterERKSt9type_info@Base 1.1.0
 _ZN5boost6detail17sp_counted_impl_pINS_16exception_detail10clone_implINS2_10bad_alloc_EEEE19get_untyped_deleterEv@Base 1.1.0
 _ZN5boost6detail17sp_counted_impl_pINS_16exception_detail10clone_implINS2_10bad_alloc_EEEE7disposeEv@Base 1.1.0
 _ZN5boost6detail17sp_counted_impl_pINS_16exception_detail10clone_implINS2_10bad_alloc_EEEED0Ev@Base 1.1.0
 _ZN5boost6detail17sp_counted_impl_pINS_16exception_detail10clone_implINS2_10bad_alloc_EEEED1Ev@Base 1.1.0
 _ZN5boost6detail17sp_counted_impl_pINS_16exception_detail10clone_implINS2_10bad_alloc_EEEED2Ev@Base 1.1.0
 _ZN5boost6detail17sp_counted_impl_pINS_16exception_detail10clone_implINS2_14bad_exception_EEEE11get_deleterERKSt9type_info@Base 1.1.0
 _ZN5boost6detail17sp_counted_impl_pINS_16exception_detail10clone_implINS2_14bad_exception_EEEE19get_untyped_deleterEv@Base 1.1.0
 _ZN5boost6detail17sp_counted_impl_pINS_16exception_detail10clone_implINS2_14bad_exception_EEEE7disposeEv@Base 1.1.0
 _ZN5boost6detail17sp_counted_impl_pINS_16exception_detail10clone_implINS2_14bad_exception_EEEED0Ev@Base 1.1.0
 _ZN5boost6detail17sp_counted_impl_pINS_16exception_detail10clone_implINS2_14bad_exception_EEEED1Ev@Base 1.1.0
 _ZN5boost6detail17sp_counted_impl_pINS_16exception_detail10clone_implINS2_14bad_exception_EEEED2Ev@Base 1.1.0
 _ZN5boost6detail17sp_counted_impl_pINS_6random23mersenne_twister_engineIjLm32ELm624ELm397ELm31ELj2567483615ELm11ELj4294967295ELm7ELj2636928640ELm15ELj4022730752ELm18ELj1812433253EEEE11get_deleterERKSt9type_info@Base 1.1.0
 _ZN5boost6detail17sp_counted_impl_pINS_6random23mersenne_twister_engineIjLm32ELm624ELm397ELm31ELj2567483615ELm11ELj4294967295ELm7ELj2636928640ELm15ELj4022730752ELm18ELj1812433253EEEE19get_untyped_deleterEv@Base 1.1.0
 _ZN5boost6detail17sp_counted_impl_pINS_6random23mersenne_twister_engineIjLm32ELm624ELm397ELm31ELj2567483615ELm11ELj4294967295ELm7ELj2636928640ELm15ELj4022730752ELm18ELj1812433253EEEE7disposeEv@Base 1.1.0
 _ZN5boost6detail17sp_counted_impl_pINS_6random23mersenne_twister_engineIjLm32ELm624ELm397ELm31ELj2567483615ELm11ELj4294967295ELm7ELj2636928640ELm15ELj4022730752ELm18ELj1812433253EEEED0Ev@Base 1.1.0
 _ZN5boost6detail17sp_counted_impl_pINS_6random23mersenne_twister_engineIjLm32ELm624ELm397ELm31ELj2567483615ELm11ELj4294967295ELm7ELj2636928640ELm15ELj4022730752ELm18ELj1812433253EEEED1Ev@Base 1.1.0
 _ZN5boost6detail17sp_counted_impl_pINS_6random23mersenne_twister_engineIjLm32ELm624ELm397ELm31ELj2567483615ELm11ELj4294967295ELm7ELj2636928640ELm15ELj4022730752ELm18ELj1812433253EEEED2Ev@Base 1.1.0
 _ZN5boost6detail18sp_counted_impl_pdIPNS_19thread_specific_ptrI16XMLParserWrapperE11delete_dataENS0_14do_heap_deleteIS5_EEE11get_deleterERKSt9type_info@Base 1.1.0
 _ZN5boost6detail18sp_counted_impl_pdIPNS_19thread_specific_ptrI16XMLParserWrapperE11delete_dataENS0_14do_heap_deleteIS5_EEE19get_untyped_deleterEv@Base 1.1.0
 _ZN5boost6detail18sp_counted_impl_pdIPNS_19thread_specific_ptrI16XMLParserWrapperE11delete_dataENS0_14do_heap_deleteIS5_EEE7disposeEv@Base 1.1.0
 _ZN5boost6detail18sp_counted_impl_pdIPNS_19thread_specific_ptrI16XMLParserWrapperE11delete_dataENS0_14do_heap_deleteIS5_EEED0Ev@Base 1.1.0
 _ZN5boost6detail18sp_counted_impl_pdIPNS_19thread_specific_ptrI16XMLParserWrapperE11delete_dataENS0_14do_heap_deleteIS5_EEED1Ev@Base 1.1.0
 _ZN5boost6detail18sp_counted_impl_pdIPNS_19thread_specific_ptrI16XMLParserWrapperE11delete_dataENS0_14do_heap_deleteIS5_EEED2Ev@Base 1.1.0
 _ZN5boost6detail18sp_counted_impl_pdIPNS_19thread_specific_ptrIN5Kolab5Utils6GlobalEE11delete_dataENS0_14do_heap_deleteIS7_EEE11get_deleterERKSt9type_info@Base 1.1.0
 _ZN5boost6detail18sp_counted_impl_pdIPNS_19thread_specific_ptrIN5Kolab5Utils6GlobalEE11delete_dataENS0_14do_heap_deleteIS7_EEE19get_untyped_deleterEv@Base 1.1.0
 _ZN5boost6detail18sp_counted_impl_pdIPNS_19thread_specific_ptrIN5Kolab5Utils6GlobalEE11delete_dataENS0_14do_heap_deleteIS7_EEE7disposeEv@Base 1.1.0
 _ZN5boost6detail18sp_counted_impl_pdIPNS_19thread_specific_ptrIN5Kolab5Utils6GlobalEE11delete_dataENS0_14do_heap_deleteIS7_EEED0Ev@Base 1.1.0
 _ZN5boost6detail18sp_counted_impl_pdIPNS_19thread_specific_ptrIN5Kolab5Utils6GlobalEE11delete_dataENS0_14do_heap_deleteIS7_EEED1Ev@Base 1.1.0
 _ZN5boost6detail18sp_counted_impl_pdIPNS_19thread_specific_ptrIN5Kolab5Utils6GlobalEE11delete_dataENS0_14do_heap_deleteIS7_EEED2Ev@Base 1.1.0
 _ZN5boost6random23mersenne_twister_engineIjLm32ELm624ELm397ELm31ELj2567483615ELm11ELj4294967295ELm7ELj2636928640ELm15ELj4022730752ELm18ELj1812433253EE5twistEv@Base 1.1.0
 _ZN5boost6random6detail20generate_uniform_intINS0_23mersenne_twister_engineIjLm32ELm624ELm397ELm31ELj2567483615ELm11ELj4294967295ELm7ELj2636928640ELm15ELj4022730752ELm18ELj1812433253EEEmEET0_RT_S5_S5_N4mpl_5bool_ILb1EEE@Base 1.1.0
 _ZN5boost6system12system_errorD0Ev@Base 1.1.2
 _ZN5boost6system12system_errorD1Ev@Base 1.1.2
 _ZN5boost6system12system_errorD2Ev@Base 1.1.2
 _ZN5boost7numeric16bad_numeric_castD0Ev@Base 1.1.0
 _ZN5boost7numeric16bad_numeric_castD1Ev@Base 1.1.0
 _ZN5boost7numeric16bad_numeric_castD2Ev@Base 1.1.0
 _ZN5boost7numeric17negative_overflowD0Ev@Base 1.1.0
 _ZN5boost7numeric17negative_overflowD1Ev@Base 1.1.0
 _ZN5boost7numeric17negative_overflowD2Ev@Base 1.1.0
 _ZN5boost7numeric17positive_overflowD0Ev@Base 1.1.0
 _ZN5boost7numeric17positive_overflowD1Ev@Base 1.1.0
 _ZN5boost7numeric17positive_overflowD2Ev@Base 1.1.0
 _ZN5boost9exceptionD0Ev@Base 1.1.0
 _ZN5boost9exceptionD1Ev@Base 1.1.0
 _ZN5boost9exceptionD2Ev@Base 1.1.0
 _ZN5boost9unordered13unordered_setINSt7__cxx1112basic_stringIcSt11char_traitsIcESaIcEEENS_4hashIS7_EESt8equal_toIS7_ESaIS7_EED1Ev@Base 1.1.0
 _ZN5boost9unordered13unordered_setINSt7__cxx1112basic_stringIcSt11char_traitsIcESaIcEEENS_4hashIS7_EESt8equal_toIS7_ESaIS7_EED2Ev@Base 1.1.0
 _ZN5boost9unordered6detail16node_constructorISaINS1_8ptr_nodeINSt7__cxx1112basic_stringIcSt11char_traitsIcESaIcEEEEEEED1Ev@Base 1.1.0
 _ZN5boost9unordered6detail16node_constructorISaINS1_8ptr_nodeINSt7__cxx1112basic_stringIcSt11char_traitsIcESaIcEEEEEEED2Ev@Base 1.1.0
 _ZN5boost9unordered6detail5tableINS1_3setISaINSt7__cxx1112basic_stringIcSt11char_traitsIcESaIcEEEES9_NS_4hashIS9_EESt8equal_toIS9_EEEE14delete_bucketsEv@Base 1.1.0
 _ZN8KolabXSD10CustomType10identifierERKN3xsd3cxx4tree6stringIcNS3_11simple_typeIcNS3_5_typeEEEEE@Base 1.1.0
 _ZN8KolabXSD10CustomType10identifierESt8auto_ptrIN3xsd3cxx4tree6stringIcNS4_11simple_typeIcNS4_5_typeEEEEEE@Base 1.1.0
 _ZN8KolabXSD10CustomType10identifierEv@Base 1.1.0
 _ZN8KolabXSD10CustomType5parseERN3xsd3cxx3xml3dom6parserIcEENS2_4tree5flagsE@Base 1.1.0
 _ZN8KolabXSD10CustomType5valueERKN3xsd3cxx4tree6stringIcNS3_11simple_typeIcNS3_5_typeEEEEE@Base 1.1.0
 _ZN8KolabXSD10CustomType5valueESt8auto_ptrIN3xsd3cxx4tree6stringIcNS4_11simple_typeIcNS4_5_typeEEEEEE@Base 1.1.0
 _ZN8KolabXSD10CustomType5valueEv@Base 1.1.0
 _ZN8KolabXSD10CustomTypeC1ERKN11xercesc_3_110DOMElementEN3xsd3cxx4tree5flagsEPNS7_5_typeE@Base 1.1.0
 _ZN8KolabXSD10CustomTypeC1ERKN3xsd3cxx4tree6stringIcNS3_11simple_typeIcNS3_5_typeEEEEESA_@Base 1.1.0
 _ZN8KolabXSD10CustomTypeC1ERKS0_N3xsd3cxx4tree5flagsEPNS5_5_typeE@Base 1.1.0
 _ZN8KolabXSD10CustomTypeC2ERKN11xercesc_3_110DOMElementEN3xsd3cxx4tree5flagsEPNS7_5_typeE@Base 1.1.0
 _ZN8KolabXSD10CustomTypeC2ERKN3xsd3cxx4tree6stringIcNS3_11simple_typeIcNS3_5_typeEEEEESA_@Base 1.1.0
 _ZN8KolabXSD10CustomTypeC2ERKS0_N3xsd3cxx4tree5flagsEPNS5_5_typeE@Base 1.1.0
 _ZN8KolabXSD10CustomTypeD0Ev@Base 1.1.0
 _ZN8KolabXSD10CustomTypeD1Ev@Base 1.1.0
 _ZN8KolabXSD10CustomTypeD2Ev@Base 1.1.0
 _ZN8KolabXSD10CustomTypeaSERKS0_@Base 1.1.0
 _ZN8KolabXSD10parameters22encoding_default_valueEv@Base 1.1.0
 _ZN8KolabXSD10parameters23encoding_default_value_E@Base 1.1.0
 _ZN8KolabXSD10parameters5parseERN3xsd3cxx3xml3dom6parserIcEENS2_4tree5flagsE@Base 1.1.0
 _ZN8KolabXSD10parameters7fmttypeERKN3xsd3cxx4tree6stringIcNS3_11simple_typeIcNS3_5_typeEEEEE@Base 1.1.0
 _ZN8KolabXSD10parameters7fmttypeESt8auto_ptrIN3xsd3cxx4tree6stringIcNS4_11simple_typeIcNS4_5_typeEEEEEE@Base 1.1.0
 _ZN8KolabXSD10parameters7fmttypeEv@Base 1.1.0
 _ZN8KolabXSD10parameters7x_labelERKN3xsd3cxx4tree6stringIcNS3_11simple_typeIcNS3_5_typeEEEEE@Base 1.1.0
 _ZN8KolabXSD10parameters7x_labelERKN3xsd3cxx4tree8optionalINS3_6stringIcNS3_11simple_typeIcNS3_5_typeEEEEELb0EEE@Base 1.1.0
 _ZN8KolabXSD10parameters7x_labelESt8auto_ptrIN3xsd3cxx4tree6stringIcNS4_11simple_typeIcNS4_5_typeEEEEEE@Base 1.1.0
 _ZN8KolabXSD10parameters7x_labelEv@Base 1.1.0
 _ZN8KolabXSD10parameters8encodingERKN3xsd3cxx4tree6stringIcNS3_11simple_typeIcNS3_5_typeEEEEE@Base 1.1.0
 _ZN8KolabXSD10parameters8encodingERKN3xsd3cxx4tree8optionalINS3_6stringIcNS3_11simple_typeIcNS3_5_typeEEEEELb0EEE@Base 1.1.0
 _ZN8KolabXSD10parameters8encodingESt8auto_ptrIN3xsd3cxx4tree6stringIcNS4_11simple_typeIcNS4_5_typeEEEEEE@Base 1.1.0
 _ZN8KolabXSD10parameters8encodingEv@Base 1.1.0
 _ZN8KolabXSD10parametersC1ERKN11xercesc_3_110DOMElementEN3xsd3cxx4tree5flagsEPNS7_5_typeE@Base 1.1.0
 _ZN8KolabXSD10parametersC1ERKN3xsd3cxx4tree6stringIcNS3_11simple_typeIcNS3_5_typeEEEEE@Base 1.1.0
 _ZN8KolabXSD10parametersC1ERKS0_N3xsd3cxx4tree5flagsEPNS5_5_typeE@Base 1.1.0
 _ZN8KolabXSD10parametersC2ERKN11xercesc_3_110DOMElementEN3xsd3cxx4tree5flagsEPNS7_5_typeE@Base 1.1.0
 _ZN8KolabXSD10parametersC2ERKN3xsd3cxx4tree6stringIcNS3_11simple_typeIcNS3_5_typeEEEEE@Base 1.1.0
 _ZN8KolabXSD10parametersC2ERKS0_N3xsd3cxx4tree5flagsEPNS5_5_typeE@Base 1.1.0
 _ZN8KolabXSD10parametersD0Ev@Base 1.1.0
 _ZN8KolabXSD10parametersD1Ev@Base 1.1.0
 _ZN8KolabXSD10parametersD2Ev@Base 1.1.0
 _ZN8KolabXSD10parametersaSERKS0_@Base 1.1.0
 _ZN8KolabXSD13CategoryColor13categorycolorERKN3xsd3cxx4tree8sequenceIS0_Lb0EEE@Base 1.1.0
 _ZN8KolabXSD13CategoryColor13categorycolorEv@Base 1.1.0
 _ZN8KolabXSD13CategoryColor5colorERKN3xsd3cxx4tree6stringIcNS3_11simple_typeIcNS3_5_typeEEEEE@Base 1.1.0
 _ZN8KolabXSD13CategoryColor5colorERKN3xsd3cxx4tree8optionalINS3_6stringIcNS3_11simple_typeIcNS3_5_typeEEEEELb0EEE@Base 1.1.0
 _ZN8KolabXSD13CategoryColor5colorESt8auto_ptrIN3xsd3cxx4tree6stringIcNS4_11simple_typeIcNS4_5_typeEEEEEE@Base 1.1.0
 _ZN8KolabXSD13CategoryColor5colorEv@Base 1.1.0
 _ZN8KolabXSD13CategoryColor5parseERN3xsd3cxx3xml3dom6parserIcEENS2_4tree5flagsE@Base 1.1.0
 _ZN8KolabXSD13CategoryColor8categoryERKN3xsd3cxx4tree6stringIcNS3_11simple_typeIcNS3_5_typeEEEEE@Base 1.1.0
 _ZN8KolabXSD13CategoryColor8categoryESt8auto_ptrIN3xsd3cxx4tree6stringIcNS4_11simple_typeIcNS4_5_typeEEEEEE@Base 1.1.0
 _ZN8KolabXSD13CategoryColor8categoryEv@Base 1.1.0
 _ZN8KolabXSD13CategoryColorC1ERKN11xercesc_3_110DOMElementEN3xsd3cxx4tree5flagsEPNS7_5_typeE@Base 1.1.0
 _ZN8KolabXSD13CategoryColorC1ERKN3xsd3cxx4tree6stringIcNS3_11simple_typeIcNS3_5_typeEEEEE@Base 1.1.0
 _ZN8KolabXSD13CategoryColorC1ERKS0_N3xsd3cxx4tree5flagsEPNS5_5_typeE@Base 1.1.0
 _ZN8KolabXSD13CategoryColorC2ERKN11xercesc_3_110DOMElementEN3xsd3cxx4tree5flagsEPNS7_5_typeE@Base 1.1.0
 _ZN8KolabXSD13CategoryColorC2ERKN3xsd3cxx4tree6stringIcNS3_11simple_typeIcNS3_5_typeEEEEE@Base 1.1.0
 _ZN8KolabXSD13CategoryColorC2ERKS0_N3xsd3cxx4tree5flagsEPNS5_5_typeE@Base 1.1.0
 _ZN8KolabXSD13CategoryColorD0Ev@Base 1.1.0
 _ZN8KolabXSD13CategoryColorD1Ev@Base 1.1.0
 _ZN8KolabXSD13CategoryColorD2Ev@Base 1.1.0
 _ZN8KolabXSD13CategoryColoraSERKS0_@Base 1.1.0
 _ZN8KolabXSD13Configuration12relationTypeERKN3xsd3cxx4tree6stringIcNS3_11simple_typeIcNS3_5_typeEEEEE@Base 1.1.0
 _ZN8KolabXSD13Configuration12relationTypeERKN3xsd3cxx4tree8optionalINS3_6stringIcNS3_11simple_typeIcNS3_5_typeEEEEELb0EEE@Base 1.1.0
 _ZN8KolabXSD13Configuration12relationTypeESt8auto_ptrIN3xsd3cxx4tree6stringIcNS4_11simple_typeIcNS4_5_typeEEEEEE@Base 1.1.0
 _ZN8KolabXSD13Configuration12relationTypeEv@Base 1.1.0
 _ZN8KolabXSD13Configuration13categorycolorERKN3xsd3cxx4tree8sequenceINS_13CategoryColorELb0EEE@Base 1.1.0
 _ZN8KolabXSD13Configuration13categorycolorEv@Base 1.1.0
 _ZN8KolabXSD13Configuration13creation_dateERKN3xsd3cxx4tree9date_timeIcNS3_11simple_typeIcNS3_5_typeEEEEE@Base 1.1.0
 _ZN8KolabXSD13Configuration13creation_dateESt8auto_ptrIN3xsd3cxx4tree9date_timeIcNS4_11simple_typeIcNS4_5_typeEEEEEE@Base 1.1.0
 _ZN8KolabXSD13Configuration13creation_dateEv@Base 1.1.0
 _ZN8KolabXSD13Configuration1eERKN3xsd3cxx4tree8sequenceINS3_6stringIcNS3_11simple_typeIcNS3_5_typeEEEEELb0EEE@Base 1.1.0
 _ZN8KolabXSD13Configuration1eEv@Base 1.1.0
 _ZN8KolabXSD13Configuration22last_modification_dateERKN3xsd3cxx4tree9date_timeIcNS3_11simple_typeIcNS3_5_typeEEEEE@Base 1.1.0
 _ZN8KolabXSD13Configuration22last_modification_dateESt8auto_ptrIN3xsd3cxx4tree9date_timeIcNS4_11simple_typeIcNS4_5_typeEEEEEE@Base 1.1.0
 _ZN8KolabXSD13Configuration22last_modification_dateEv@Base 1.1.0
 _ZN8KolabXSD13Configuration3uidERKN3xsd3cxx4tree6stringIcNS3_11simple_typeIcNS3_5_typeEEEEE@Base 1.1.0
 _ZN8KolabXSD13Configuration3uidESt8auto_ptrIN3xsd3cxx4tree6stringIcNS4_11simple_typeIcNS4_5_typeEEEEEE@Base 1.1.0
 _ZN8KolabXSD13Configuration3uidEv@Base 1.1.0
 _ZN8KolabXSD13Configuration4nameERKN3xsd3cxx4tree6stringIcNS3_11simple_typeIcNS3_5_typeEEEEE@Base 1.1.0
 _ZN8KolabXSD13Configuration4nameERKN3xsd3cxx4tree8optionalINS3_6stringIcNS3_11simple_typeIcNS3_5_typeEEEEELb0EEE@Base 1.1.0
 _ZN8KolabXSD13Configuration4nameESt8auto_ptrIN3xsd3cxx4tree6stringIcNS4_11simple_typeIcNS4_5_typeEEEEEE@Base 1.1.0
 _ZN8KolabXSD13Configuration4nameEv@Base 1.1.0
 _ZN8KolabXSD13Configuration4typeERKNS_17ConfigurationTypeE@Base 1.1.0
 _ZN8KolabXSD13Configuration4typeESt8auto_ptrINS_17ConfigurationTypeEE@Base 1.1.0
 _ZN8KolabXSD13Configuration4typeEv@Base 1.1.0
 _ZN8KolabXSD13Configuration5colorERKN3xsd3cxx4tree6stringIcNS3_11simple_typeIcNS3_5_typeEEEEE@Base 1.1.0
 _ZN8KolabXSD13Configuration5colorERKN3xsd3cxx4tree8optionalINS3_6stringIcNS3_11simple_typeIcNS3_5_typeEEEEELb0EEE@Base 1.1.0
 _ZN8KolabXSD13Configuration5colorESt8auto_ptrIN3xsd3cxx4tree6stringIcNS4_11simple_typeIcNS4_5_typeEEEEEE@Base 1.1.0
 _ZN8KolabXSD13Configuration5colorEv@Base 1.1.0
 _ZN8KolabXSD13Configuration5parseERN3xsd3cxx3xml3dom6parserIcEENS2_4tree5flagsE@Base 1.1.0
 _ZN8KolabXSD13Configuration5titleERKN3xsd3cxx4tree6stringIcNS3_11simple_typeIcNS3_5_typeEEEEE@Base 1.1.0
 _ZN8KolabXSD13Configuration5titleERKN3xsd3cxx4tree8optionalINS3_6stringIcNS3_11simple_typeIcNS3_5_typeEEEEELb0EEE@Base 1.1.0
 _ZN8KolabXSD13Configuration5titleESt8auto_ptrIN3xsd3cxx4tree6stringIcNS4_11simple_typeIcNS4_5_typeEEEEEE@Base 1.1.0
 _ZN8KolabXSD13Configuration5titleEv@Base 1.1.0
 _ZN8KolabXSD13Configuration6driverERKN3xsd3cxx4tree6stringIcNS3_11simple_typeIcNS3_5_typeEEEEE@Base 1.1.0
 _ZN8KolabXSD13Configuration6driverERKN3xsd3cxx4tree8optionalINS3_6stringIcNS3_11simple_typeIcNS3_5_typeEEEEELb0EEE@Base 1.1.0
 _ZN8KolabXSD13Configuration6driverESt8auto_ptrIN3xsd3cxx4tree6stringIcNS4_11simple_typeIcNS4_5_typeEEEEEE@Base 1.1.0
 _ZN8KolabXSD13Configuration6driverEv@Base 1.1.0
 _ZN8KolabXSD13Configuration6memberERKN3xsd3cxx4tree8sequenceINS3_6stringIcNS3_11simple_typeIcNS3_5_typeEEEEELb0EEE@Base 1.1.0
 _ZN8KolabXSD13Configuration6memberEv@Base 1.1.0
 _ZN8KolabXSD13Configuration6parentERKN3xsd3cxx4tree6stringIcNS3_11simple_typeIcNS3_5_typeEEEEE@Base 1.1.0
 _ZN8KolabXSD13Configuration6parentERKN3xsd3cxx4tree8optionalINS3_6stringIcNS3_11simple_typeIcNS3_5_typeEEEEELb0EEE@Base 1.1.0
 _ZN8KolabXSD13Configuration6parentESt8auto_ptrIN3xsd3cxx4tree6stringIcNS4_11simple_typeIcNS4_5_typeEEEEEE@Base 1.1.0
 _ZN8KolabXSD13Configuration6parentEv@Base 1.1.0
 _ZN8KolabXSD13Configuration6prodidERKN3xsd3cxx4tree6stringIcNS3_11simple_typeIcNS3_5_typeEEEEE@Base 1.1.0
 _ZN8KolabXSD13Configuration6prodidESt8auto_ptrIN3xsd3cxx4tree6stringIcNS4_11simple_typeIcNS4_5_typeEEEEEE@Base 1.1.0
 _ZN8KolabXSD13Configuration6prodidEv@Base 1.1.0
 _ZN8KolabXSD13Configuration7enabledERKN3xsd3cxx4tree8optionalIbLb1EEE@Base 1.1.0
 _ZN8KolabXSD13Configuration7enabledERKb@Base 1.1.0
 _ZN8KolabXSD13Configuration7enabledEv@Base 1.1.0
 _ZN8KolabXSD13Configuration7snippetERKN3xsd3cxx4tree8sequenceINS_7SnippetELb0EEE@Base 1.1.0
 _ZN8KolabXSD13Configuration7snippetEv@Base 1.1.0
 _ZN8KolabXSD13Configuration8iconNameERKN3xsd3cxx4tree6stringIcNS3_11simple_typeIcNS3_5_typeEEEEE@Base 1.1.0
 _ZN8KolabXSD13Configuration8iconNameERKN3xsd3cxx4tree8optionalINS3_6stringIcNS3_11simple_typeIcNS3_5_typeEEEEELb0EEE@Base 1.1.0
 _ZN8KolabXSD13Configuration8iconNameESt8auto_ptrIN3xsd3cxx4tree6stringIcNS4_11simple_typeIcNS4_5_typeEEEEEE@Base 1.1.0
 _ZN8KolabXSD13Configuration8iconNameEv@Base 1.1.0
 _ZN8KolabXSD13Configuration8languageERKN3xsd3cxx4tree6stringIcNS3_11simple_typeIcNS3_5_typeEEEEE@Base 1.1.0
 _ZN8KolabXSD13Configuration8languageERKN3xsd3cxx4tree8optionalINS3_6stringIcNS3_11simple_typeIcNS3_5_typeEEEEELb0EEE@Base 1.1.0
 _ZN8KolabXSD13Configuration8languageESt8auto_ptrIN3xsd3cxx4tree6stringIcNS4_11simple_typeIcNS4_5_typeEEEEEE@Base 1.1.0
 _ZN8KolabXSD13Configuration8languageEv@Base 1.1.0
 _ZN8KolabXSD13Configuration8priorityERKN3xsd3cxx4tree8optionalIxLb1EEE@Base 1.1.0
 _ZN8KolabXSD13Configuration8priorityERKx@Base 1.1.0
 _ZN8KolabXSD13Configuration8priorityEv@Base 1.1.0
 _ZN8KolabXSD13Configuration8settingsERKN3xsd3cxx4tree8optionalINS_18FileDriverSettingsELb0EEE@Base 1.1.0
 _ZN8KolabXSD13Configuration8settingsERKNS_18FileDriverSettingsE@Base 1.1.0
 _ZN8KolabXSD13Configuration8settingsESt8auto_ptrINS_18FileDriverSettingsEE@Base 1.1.0
 _ZN8KolabXSD13Configuration8settingsEv@Base 1.1.0
 _ZN8KolabXSD13ConfigurationC1ERKN11xercesc_3_110DOMElementEN3xsd3cxx4tree5flagsEPNS7_5_typeE@Base 1.1.0
 _ZN8KolabXSD13ConfigurationC1ERKN3xsd3cxx4tree6stringIcNS3_11simple_typeIcNS3_5_typeEEEEESA_RKNS3_9date_timeIcS7_EESE_RKNS_17ConfigurationTypeE@Base 1.1.0
 _ZN8KolabXSD13ConfigurationC1ERKS0_N3xsd3cxx4tree5flagsEPNS5_5_typeE@Base 1.1.0
 _ZN8KolabXSD13ConfigurationC2ERKN11xercesc_3_110DOMElementEN3xsd3cxx4tree5flagsEPNS7_5_typeE@Base 1.1.0
 _ZN8KolabXSD13ConfigurationC2ERKN3xsd3cxx4tree6stringIcNS3_11simple_typeIcNS3_5_typeEEEEESA_RKNS3_9date_timeIcS7_EESE_RKNS_17ConfigurationTypeE@Base 1.1.0
 _ZN8KolabXSD13ConfigurationC2ERKS0_N3xsd3cxx4tree5flagsEPNS5_5_typeE@Base 1.1.0
 _ZN8KolabXSD13ConfigurationD0Ev@Base 1.1.0
 _ZN8KolabXSD13ConfigurationD1Ev@Base 1.1.0
 _ZN8KolabXSD13ConfigurationD2Ev@Base 1.1.0
 _ZN8KolabXSD13ConfigurationaSERKS0_@Base 1.1.0
 _ZN8KolabXSD13configurationEN3xsd3cxx3xml3dom8auto_ptrIN11xercesc_3_111DOMDocumentEEENS1_4tree5flagsERKNS8_10propertiesIcEE@Base 1.1.0
 _ZN8KolabXSD13configurationERKN11xercesc_3_111DOMDocumentEN3xsd3cxx4tree5flagsERKNS6_10propertiesIcEE@Base 1.1.0
 _ZN8KolabXSD13configurationERKNS_13ConfigurationERKN3xsd3cxx3xml3dom17namespace_infomapIcEENS4_4tree5flagsE@Base 1.1.0
 _ZN8KolabXSD13configurationERKNSt7__cxx1112basic_stringIcSt11char_traitsIcESaIcEEEN3xsd3cxx4tree5flagsERKNSA_10propertiesIcEE@Base 1.1.0
 _ZN8KolabXSD13configurationERKNSt7__cxx1112basic_stringIcSt11char_traitsIcESaIcEEERN11xercesc_3_115DOMErrorHandlerEN3xsd3cxx4tree5flagsERKNSD_10propertiesIcEE@Base 1.1.0
 _ZN8KolabXSD13configurationERKNSt7__cxx1112basic_stringIcSt11char_traitsIcESaIcEEERN3xsd3cxx3xml13error_handlerIcEENS9_4tree5flagsERKNSE_10propertiesIcEE@Base 1.1.0
 _ZN8KolabXSD13configurationERN11xercesc_3_111DOMDocumentERKNS_13ConfigurationEN3xsd3cxx4tree5flagsE@Base 1.1.0
 _ZN8KolabXSD13configurationERN11xercesc_3_111InputSourceEN3xsd3cxx4tree5flagsERKNS5_10propertiesIcEE@Base 1.1.0
 _ZN8KolabXSD13configurationERN11xercesc_3_111InputSourceERN3xsd3cxx3xml13error_handlerIcEENS4_4tree5flagsERKNS9_10propertiesIcEE@Base 1.1.0
 _ZN8KolabXSD13configurationERN11xercesc_3_111InputSourceERNS0_15DOMErrorHandlerEN3xsd3cxx4tree5flagsERKNS7_10propertiesIcEE@Base 1.1.0
 _ZN8KolabXSD13configurationERN11xercesc_3_115XMLFormatTargetERKNS_13ConfigurationERKN3xsd3cxx3xml3dom17namespace_infomapIcEERKNSt7__cxx1112basic_stringIcSt11char_traitsIcESaIcEEENS7_4tree5flagsE@Base 1.1.0
 _ZN8KolabXSD13configurationERN11xercesc_3_115XMLFormatTargetERKNS_13ConfigurationERN3xsd3cxx3xml13error_handlerIcEERKNS8_3dom17namespace_infomapIcEERKNSt7__cxx1112basic_stringIcSt11char_traitsIcESaIcEEENS7_4tree5flagsE@Base 1.1.0
 _ZN8KolabXSD13configurationERN11xercesc_3_115XMLFormatTargetERKNS_13ConfigurationERNS0_15DOMErrorHandlerERKN3xsd3cxx3xml3dom17namespace_infomapIcEERKNSt7__cxx1112basic_stringIcSt11char_traitsIcESaIcEEENS9_4tree5flagsE@Base 1.1.0
 _ZN8KolabXSD13configurationERSiN3xsd3cxx4tree5flagsERKNS3_10propertiesIcEE@Base 1.1.0
 _ZN8KolabXSD13configurationERSiRKNSt7__cxx1112basic_stringIcSt11char_traitsIcESaIcEEEN3xsd3cxx4tree5flagsERKNSB_10propertiesIcEE@Base 1.1.0
 _ZN8KolabXSD13configurationERSiRKNSt7__cxx1112basic_stringIcSt11char_traitsIcESaIcEEERN11xercesc_3_115DOMErrorHandlerEN3xsd3cxx4tree5flagsERKNSE_10propertiesIcEE@Base 1.1.0
 _ZN8KolabXSD13configurationERSiRKNSt7__cxx1112basic_stringIcSt11char_traitsIcESaIcEEERN3xsd3cxx3xml13error_handlerIcEENSA_4tree5flagsERKNSF_10propertiesIcEE@Base 1.1.0
 _ZN8KolabXSD13configurationERSiRN11xercesc_3_115DOMErrorHandlerEN3xsd3cxx4tree5flagsERKNS6_10propertiesIcEE@Base 1.1.0
 _ZN8KolabXSD13configurationERSiRN3xsd3cxx3xml13error_handlerIcEENS2_4tree5flagsERKNS7_10propertiesIcEE@Base 1.1.0
 _ZN8KolabXSD13configurationERSoRKNS_13ConfigurationERKN3xsd3cxx3xml3dom17namespace_infomapIcEERKNSt7__cxx1112basic_stringIcSt11char_traitsIcESaIcEEENS5_4tree5flagsE@Base 1.1.0
 _ZN8KolabXSD13configurationERSoRKNS_13ConfigurationERN11xercesc_3_115DOMErrorHandlerERKN3xsd3cxx3xml3dom17namespace_infomapIcEERKNSt7__cxx1112basic_stringIcSt11char_traitsIcESaIcEEENS8_4tree5flagsE@Base 1.1.0
 _ZN8KolabXSD13configurationERSoRKNS_13ConfigurationERN3xsd3cxx3xml13error_handlerIcEERKNS6_3dom17namespace_infomapIcEERKNSt7__cxx1112basic_stringIcSt11char_traitsIcESaIcEEENS5_4tree5flagsE@Base 1.1.0
 _ZN8KolabXSD14textformatType28_xsd_textformatType_indexes_E@Base 1.1.0
 _ZN8KolabXSD14textformatType29_xsd_textformatType_literals_E@Base 1.1.0
 _ZN8KolabXSD14textformatTypeC1ENS0_5valueE@Base 1.1.0
 _ZN8KolabXSD14textformatTypeC1EPKc@Base 1.1.0
 _ZN8KolabXSD14textformatTypeC1ERKN11xercesc_3_110DOMElementEN3xsd3cxx4tree5flagsEPNS7_5_typeE@Base 1.1.0
 _ZN8KolabXSD14textformatTypeC1ERKN11xercesc_3_17DOMAttrEN3xsd3cxx4tree5flagsEPNS7_5_typeE@Base 1.1.0
 _ZN8KolabXSD14textformatTypeC1ERKN3xsd3cxx4tree5tokenIcNS3_17normalized_stringIcNS3_6stringIcNS3_11simple_typeIcNS3_5_typeEEEEEEEEE@Base 1.1.0
 _ZN8KolabXSD14textformatTypeC1ERKNSt7__cxx1112basic_stringIcSt11char_traitsIcESaIcEEE@Base 1.1.0
 _ZN8KolabXSD14textformatTypeC1ERKNSt7__cxx1112basic_stringIcSt11char_traitsIcESaIcEEEPKN11xercesc_3_110DOMElementEN3xsd3cxx4tree5flagsEPNSF_5_typeE@Base 1.1.0
 _ZN8KolabXSD14textformatTypeC1ERKS0_N3xsd3cxx4tree5flagsEPNS5_5_typeE@Base 1.1.0
 _ZN8KolabXSD14textformatTypeC2ENS0_5valueE@Base 1.1.0
 _ZN8KolabXSD14textformatTypeC2EPKc@Base 1.1.0
 _ZN8KolabXSD14textformatTypeC2ERKN11xercesc_3_110DOMElementEN3xsd3cxx4tree5flagsEPNS7_5_typeE@Base 1.1.0
 _ZN8KolabXSD14textformatTypeC2ERKN11xercesc_3_17DOMAttrEN3xsd3cxx4tree5flagsEPNS7_5_typeE@Base 1.1.0
 _ZN8KolabXSD14textformatTypeC2ERKN3xsd3cxx4tree5tokenIcNS3_17normalized_stringIcNS3_6stringIcNS3_11simple_typeIcNS3_5_typeEEEEEEEEE@Base 1.1.0
 _ZN8KolabXSD14textformatTypeC2ERKNSt7__cxx1112basic_stringIcSt11char_traitsIcESaIcEEE@Base 1.1.0
 _ZN8KolabXSD14textformatTypeC2ERKNSt7__cxx1112basic_stringIcSt11char_traitsIcESaIcEEEPKN11xercesc_3_110DOMElementEN3xsd3cxx4tree5flagsEPNSF_5_typeE@Base 1.1.0
 _ZN8KolabXSD14textformatTypeC2ERKS0_N3xsd3cxx4tree5flagsEPNS5_5_typeE@Base 1.1.0
 _ZN8KolabXSD14textformatTypeD0Ev@Base 1.1.0
 _ZN8KolabXSD14textformatTypeD1Ev@Base 1.1.0
 _ZN8KolabXSD14textformatTypeD2Ev@Base 1.1.0
 _ZN8KolabXSD14textformatTypeaSENS0_5valueE@Base 1.1.0
 _ZN8KolabXSD17ConfigurationType31_xsd_ConfigurationType_indexes_E@Base 1.1.0
 _ZN8KolabXSD17ConfigurationType32_xsd_ConfigurationType_literals_E@Base 1.1.0
 _ZN8KolabXSD17ConfigurationTypeC1ENS0_5valueE@Base 1.1.0
 _ZN8KolabXSD17ConfigurationTypeC1EPKc@Base 1.1.0
 _ZN8KolabXSD17ConfigurationTypeC1ERKN11xercesc_3_110DOMElementEN3xsd3cxx4tree5flagsEPNS7_5_typeE@Base 1.1.0
 _ZN8KolabXSD17ConfigurationTypeC1ERKN11xercesc_3_17DOMAttrEN3xsd3cxx4tree5flagsEPNS7_5_typeE@Base 1.1.0
 _ZN8KolabXSD17ConfigurationTypeC1ERKN3xsd3cxx4tree5tokenIcNS3_17normalized_stringIcNS3_6stringIcNS3_11simple_typeIcNS3_5_typeEEEEEEEEE@Base 1.1.0
 _ZN8KolabXSD17ConfigurationTypeC1ERKNSt7__cxx1112basic_stringIcSt11char_traitsIcESaIcEEE@Base 1.1.0
 _ZN8KolabXSD17ConfigurationTypeC1ERKNSt7__cxx1112basic_stringIcSt11char_traitsIcESaIcEEEPKN11xercesc_3_110DOMElementEN3xsd3cxx4tree5flagsEPNSF_5_typeE@Base 1.1.0
 _ZN8KolabXSD17ConfigurationTypeC1ERKS0_N3xsd3cxx4tree5flagsEPNS5_5_typeE@Base 1.1.0
 _ZN8KolabXSD17ConfigurationTypeC2ENS0_5valueE@Base 1.1.0
 _ZN8KolabXSD17ConfigurationTypeC2EPKc@Base 1.1.0
 _ZN8KolabXSD17ConfigurationTypeC2ERKN11xercesc_3_110DOMElementEN3xsd3cxx4tree5flagsEPNS7_5_typeE@Base 1.1.0
 _ZN8KolabXSD17ConfigurationTypeC2ERKN11xercesc_3_17DOMAttrEN3xsd3cxx4tree5flagsEPNS7_5_typeE@Base 1.1.0
 _ZN8KolabXSD17ConfigurationTypeC2ERKN3xsd3cxx4tree5tokenIcNS3_17normalized_stringIcNS3_6stringIcNS3_11simple_typeIcNS3_5_typeEEEEEEEEE@Base 1.1.0
 _ZN8KolabXSD17ConfigurationTypeC2ERKNSt7__cxx1112basic_stringIcSt11char_traitsIcESaIcEEE@Base 1.1.0
 _ZN8KolabXSD17ConfigurationTypeC2ERKNSt7__cxx1112basic_stringIcSt11char_traitsIcESaIcEEEPKN11xercesc_3_110DOMElementEN3xsd3cxx4tree5flagsEPNSF_5_typeE@Base 1.1.0
 _ZN8KolabXSD17ConfigurationTypeC2ERKS0_N3xsd3cxx4tree5flagsEPNS5_5_typeE@Base 1.1.0
 _ZN8KolabXSD17ConfigurationTypeD0Ev@Base 1.1.0
 _ZN8KolabXSD17ConfigurationTypeD1Ev@Base 1.1.0
 _ZN8KolabXSD17ConfigurationTypeD2Ev@Base 1.1.0
 _ZN8KolabXSD17ConfigurationTypeaSENS0_5valueE@Base 1.1.0
 _ZN8KolabXSD18FileDriverSettings4hostERKN3xsd3cxx4tree6stringIcNS3_11simple_typeIcNS3_5_typeEEEEE@Base 1.1.0
 _ZN8KolabXSD18FileDriverSettings4hostERKN3xsd3cxx4tree8optionalINS3_6stringIcNS3_11simple_typeIcNS3_5_typeEEEEELb0EEE@Base 1.1.0
 _ZN8KolabXSD18FileDriverSettings4hostESt8auto_ptrIN3xsd3cxx4tree6stringIcNS4_11simple_typeIcNS4_5_typeEEEEEE@Base 1.1.0
 _ZN8KolabXSD18FileDriverSettings4hostEv@Base 1.1.0
 _ZN8KolabXSD18FileDriverSettings4portERKN3xsd3cxx4tree8optionalIxLb1EEE@Base 1.1.0
 _ZN8KolabXSD18FileDriverSettings4portERKx@Base 1.1.0
 _ZN8KolabXSD18FileDriverSettings4portEv@Base 1.1.0
 _ZN8KolabXSD18FileDriverSettings5parseERN3xsd3cxx3xml3dom6parserIcEENS2_4tree5flagsE@Base 1.1.0
 _ZN8KolabXSD18FileDriverSettings8passwordERKN3xsd3cxx4tree6stringIcNS3_11simple_typeIcNS3_5_typeEEEEE@Base 1.1.0
 _ZN8KolabXSD18FileDriverSettings8passwordERKN3xsd3cxx4tree8optionalINS3_6stringIcNS3_11simple_typeIcNS3_5_typeEEEEELb0EEE@Base 1.1.0
 _ZN8KolabXSD18FileDriverSettings8passwordESt8auto_ptrIN3xsd3cxx4tree6stringIcNS4_11simple_typeIcNS4_5_typeEEEEEE@Base 1.1.0
 _ZN8KolabXSD18FileDriverSettings8passwordEv@Base 1.1.0
 _ZN8KolabXSD18FileDriverSettings8usernameERKN3xsd3cxx4tree6stringIcNS3_11simple_typeIcNS3_5_typeEEEEE@Base 1.1.0
 _ZN8KolabXSD18FileDriverSettings8usernameERKN3xsd3cxx4tree8optionalINS3_6stringIcNS3_11simple_typeIcNS3_5_typeEEEEELb0EEE@Base 1.1.0
 _ZN8KolabXSD18FileDriverSettings8usernameESt8auto_ptrIN3xsd3cxx4tree6stringIcNS4_11simple_typeIcNS4_5_typeEEEEEE@Base 1.1.0
 _ZN8KolabXSD18FileDriverSettings8usernameEv@Base 1.1.0
 _ZN8KolabXSD18FileDriverSettingsC1ERKN11xercesc_3_110DOMElementEN3xsd3cxx4tree5flagsEPNS7_5_typeE@Base 1.1.0
 _ZN8KolabXSD18FileDriverSettingsC1ERKS0_N3xsd3cxx4tree5flagsEPNS5_5_typeE@Base 1.1.0
 _ZN8KolabXSD18FileDriverSettingsC1Ev@Base 1.1.0
 _ZN8KolabXSD18FileDriverSettingsC2ERKN11xercesc_3_110DOMElementEN3xsd3cxx4tree5flagsEPNS7_5_typeE@Base 1.1.0
 _ZN8KolabXSD18FileDriverSettingsC2ERKS0_N3xsd3cxx4tree5flagsEPNS5_5_typeE@Base 1.1.0
 _ZN8KolabXSD18FileDriverSettingsC2Ev@Base 1.1.0
 _ZN8KolabXSD18FileDriverSettingsD0Ev@Base 1.1.0
 _ZN8KolabXSD18FileDriverSettingsD1Ev@Base 1.1.0
 _ZN8KolabXSD18FileDriverSettingsD2Ev@Base 1.1.0
 _ZN8KolabXSD18FileDriverSettingsaSERKS0_@Base 1.1.0
 _ZN8KolabXSD18attachmentPropType10parametersERKNS_10parametersE@Base 1.1.0
 _ZN8KolabXSD18attachmentPropType10parametersESt8auto_ptrINS_10parametersEE@Base 1.1.0
 _ZN8KolabXSD18attachmentPropType10parametersEv@Base 1.1.0
 _ZN8KolabXSD18attachmentPropType3uriERKN3xsd3cxx4tree6stringIcNS3_11simple_typeIcNS3_5_typeEEEEE@Base 1.1.0
 _ZN8KolabXSD18attachmentPropType3uriERKN3xsd3cxx4tree8optionalINS3_6stringIcNS3_11simple_typeIcNS3_5_typeEEEEELb0EEE@Base 1.1.0
 _ZN8KolabXSD18attachmentPropType3uriESt8auto_ptrIN3xsd3cxx4tree6stringIcNS4_11simple_typeIcNS4_5_typeEEEEEE@Base 1.1.0
 _ZN8KolabXSD18attachmentPropType3uriEv@Base 1.1.0
 _ZN8KolabXSD18attachmentPropType5parseERN3xsd3cxx3xml3dom6parserIcEENS2_4tree5flagsE@Base 1.1.0
 _ZN8KolabXSD18attachmentPropType6binaryERKN3xsd3cxx4tree6stringIcNS3_11simple_typeIcNS3_5_typeEEEEE@Base 1.1.0
 _ZN8KolabXSD18attachmentPropType6binaryERKN3xsd3cxx4tree8optionalINS3_6stringIcNS3_11simple_typeIcNS3_5_typeEEEEELb0EEE@Base 1.1.0
 _ZN8KolabXSD18attachmentPropType6binaryESt8auto_ptrIN3xsd3cxx4tree6stringIcNS4_11simple_typeIcNS4_5_typeEEEEEE@Base 1.1.0
 _ZN8KolabXSD18attachmentPropType6binaryEv@Base 1.1.0
 _ZN8KolabXSD18attachmentPropTypeC1ERKN11xercesc_3_110DOMElementEN3xsd3cxx4tree5flagsEPNS7_5_typeE@Base 1.1.0
 _ZN8KolabXSD18attachmentPropTypeC1ERKNS_10parametersE@Base 1.1.0
 _ZN8KolabXSD18attachmentPropTypeC1ERKS0_N3xsd3cxx4tree5flagsEPNS5_5_typeE@Base 1.1.0
 _ZN8KolabXSD18attachmentPropTypeC1ESt8auto_ptrINS_10parametersEE@Base 1.1.0
 _ZN8KolabXSD18attachmentPropTypeC2ERKN11xercesc_3_110DOMElementEN3xsd3cxx4tree5flagsEPNS7_5_typeE@Base 1.1.0
 _ZN8KolabXSD18attachmentPropTypeC2ERKNS_10parametersE@Base 1.1.0
 _ZN8KolabXSD18attachmentPropTypeC2ERKS0_N3xsd3cxx4tree5flagsEPNS5_5_typeE@Base 1.1.0
 _ZN8KolabXSD18attachmentPropTypeC2ESt8auto_ptrINS_10parametersEE@Base 1.1.0
 _ZN8KolabXSD18attachmentPropTypeD0Ev@Base 1.1.0
 _ZN8KolabXSD18attachmentPropTypeD1Ev@Base 1.1.0
 _ZN8KolabXSD18attachmentPropTypeD2Ev@Base 1.1.0
 _ZN8KolabXSD18attachmentPropTypeaSERKS0_@Base 1.1.0
 _ZN8KolabXSD21classifcationPropType35_xsd_classifcationPropType_indexes_E@Base 1.1.0
 _ZN8KolabXSD21classifcationPropType36_xsd_classifcationPropType_literals_E@Base 1.1.0
 _ZN8KolabXSD21classifcationPropTypeC1ENS0_5valueE@Base 1.1.0
 _ZN8KolabXSD21classifcationPropTypeC1EPKc@Base 1.1.0
 _ZN8KolabXSD21classifcationPropTypeC1ERKN11xercesc_3_110DOMElementEN3xsd3cxx4tree5flagsEPNS7_5_typeE@Base 1.1.0
 _ZN8KolabXSD21classifcationPropTypeC1ERKN11xercesc_3_17DOMAttrEN3xsd3cxx4tree5flagsEPNS7_5_typeE@Base 1.1.0
 _ZN8KolabXSD21classifcationPropTypeC1ERKN3xsd3cxx4tree5tokenIcNS3_17normalized_stringIcNS3_6stringIcNS3_11simple_typeIcNS3_5_typeEEEEEEEEE@Base 1.1.0
 _ZN8KolabXSD21classifcationPropTypeC1ERKNSt7__cxx1112basic_stringIcSt11char_traitsIcESaIcEEE@Base 1.1.0
 _ZN8KolabXSD21classifcationPropTypeC1ERKNSt7__cxx1112basic_stringIcSt11char_traitsIcESaIcEEEPKN11xercesc_3_110DOMElementEN3xsd3cxx4tree5flagsEPNSF_5_typeE@Base 1.1.0
 _ZN8KolabXSD21classifcationPropTypeC1ERKS0_N3xsd3cxx4tree5flagsEPNS5_5_typeE@Base 1.1.0
 _ZN8KolabXSD21classifcationPropTypeC2ENS0_5valueE@Base 1.1.0
 _ZN8KolabXSD21classifcationPropTypeC2EPKc@Base 1.1.0
 _ZN8KolabXSD21classifcationPropTypeC2ERKN11xercesc_3_110DOMElementEN3xsd3cxx4tree5flagsEPNS7_5_typeE@Base 1.1.0
 _ZN8KolabXSD21classifcationPropTypeC2ERKN11xercesc_3_17DOMAttrEN3xsd3cxx4tree5flagsEPNS7_5_typeE@Base 1.1.0
 _ZN8KolabXSD21classifcationPropTypeC2ERKN3xsd3cxx4tree5tokenIcNS3_17normalized_stringIcNS3_6stringIcNS3_11simple_typeIcNS3_5_typeEEEEEEEEE@Base 1.1.0
 _ZN8KolabXSD21classifcationPropTypeC2ERKNSt7__cxx1112basic_stringIcSt11char_traitsIcESaIcEEE@Base 1.1.0
 _ZN8KolabXSD21classifcationPropTypeC2ERKNSt7__cxx1112basic_stringIcSt11char_traitsIcESaIcEEEPKN11xercesc_3_110DOMElementEN3xsd3cxx4tree5flagsEPNSF_5_typeE@Base 1.1.0
 _ZN8KolabXSD21classifcationPropTypeC2ERKS0_N3xsd3cxx4tree5flagsEPNS5_5_typeE@Base 1.1.0
 _ZN8KolabXSD21classifcationPropTypeD0Ev@Base 1.1.0
 _ZN8KolabXSD21classifcationPropTypeD1Ev@Base 1.1.0
 _ZN8KolabXSD21classifcationPropTypeD2Ev@Base 1.1.0
 _ZN8KolabXSD21classifcationPropTypeaSENS0_5valueE@Base 1.1.0
 _ZN8KolabXSD4File10categoriesERKN3xsd3cxx4tree8sequenceINS3_6stringIcNS3_11simple_typeIcNS3_5_typeEEEEELb0EEE@Base 1.1.0
 _ZN8KolabXSD4File10categoriesEv@Base 1.1.0
 _ZN8KolabXSD4File13creation_dateERKN3xsd3cxx4tree9date_timeIcNS3_11simple_typeIcNS3_5_typeEEEEE@Base 1.1.0
 _ZN8KolabXSD4File13creation_dateESt8auto_ptrIN3xsd3cxx4tree9date_timeIcNS4_11simple_typeIcNS4_5_typeEEEEEE@Base 1.1.0
 _ZN8KolabXSD4File13creation_dateEv@Base 1.1.0
 _ZN8KolabXSD4File14classificationERKN3xsd3cxx4tree8optionalINS_21classifcationPropTypeELb0EEE@Base 1.1.0
 _ZN8KolabXSD4File14classificationERKNS_21classifcationPropTypeE@Base 1.1.0
 _ZN8KolabXSD4File14classificationESt8auto_ptrINS_21classifcationPropTypeEE@Base 1.1.0
 _ZN8KolabXSD4File14classificationEv@Base 1.1.0
 _ZN8KolabXSD4File22last_modification_dateERKN3xsd3cxx4tree9date_timeIcNS3_11simple_typeIcNS3_5_typeEEEEE@Base 1.1.0
 _ZN8KolabXSD4File22last_modification_dateESt8auto_ptrIN3xsd3cxx4tree9date_timeIcNS4_11simple_typeIcNS4_5_typeEEEEEE@Base 1.1.0
 _ZN8KolabXSD4File22last_modification_dateEv@Base 1.1.0
 _ZN8KolabXSD4File3uidERKN3xsd3cxx4tree6stringIcNS3_11simple_typeIcNS3_5_typeEEEEE@Base 1.1.0
 _ZN8KolabXSD4File3uidESt8auto_ptrIN3xsd3cxx4tree6stringIcNS4_11simple_typeIcNS4_5_typeEEEEEE@Base 1.1.0
 _ZN8KolabXSD4File3uidEv@Base 1.1.0
 _ZN8KolabXSD4File4fileERKNS_18attachmentPropTypeE@Base 1.1.0
 _ZN8KolabXSD4File4fileESt8auto_ptrINS_18attachmentPropTypeEE@Base 1.1.0
 _ZN8KolabXSD4File4fileEv@Base 1.1.0
 _ZN8KolabXSD4File4noteERKN3xsd3cxx4tree6stringIcNS3_11simple_typeIcNS3_5_typeEEEEE@Base 1.1.0
 _ZN8KolabXSD4File4noteERKN3xsd3cxx4tree8optionalINS3_6stringIcNS3_11simple_typeIcNS3_5_typeEEEEELb0EEE@Base 1.1.0
 _ZN8KolabXSD4File4noteESt8auto_ptrIN3xsd3cxx4tree6stringIcNS4_11simple_typeIcNS4_5_typeEEEEEE@Base 1.1.0
 _ZN8KolabXSD4File4noteEv@Base 1.1.0
 _ZN8KolabXSD4File5parseERN3xsd3cxx3xml3dom6parserIcEENS2_4tree5flagsE@Base 1.1.0
 _ZN8KolabXSD4File6prodidERKN3xsd3cxx4tree6stringIcNS3_11simple_typeIcNS3_5_typeEEEEE@Base 1.1.0
 _ZN8KolabXSD4File6prodidESt8auto_ptrIN3xsd3cxx4tree6stringIcNS4_11simple_typeIcNS4_5_typeEEEEEE@Base 1.1.0
 _ZN8KolabXSD4File6prodidEv@Base 1.1.0
 _ZN8KolabXSD4File8x_customERKN3xsd3cxx4tree8sequenceINS_10CustomTypeELb0EEE@Base 1.1.0
 _ZN8KolabXSD4File8x_customEv@Base 1.1.0
 _ZN8KolabXSD4FileC1ERKN11xercesc_3_110DOMElementEN3xsd3cxx4tree5flagsEPNS7_5_typeE@Base 1.1.0
 _ZN8KolabXSD4FileC1ERKN3xsd3cxx4tree6stringIcNS3_11simple_typeIcNS3_5_typeEEEEESA_RKNS3_9date_timeIcS7_EESE_RKNS_18attachmentPropTypeE@Base 1.1.0
 _ZN8KolabXSD4FileC1ERKN3xsd3cxx4tree6stringIcNS3_11simple_typeIcNS3_5_typeEEEEESA_RKNS3_9date_timeIcS7_EESE_St8auto_ptrINS_18attachmentPropTypeEE@Base 1.1.0
 _ZN8KolabXSD4FileC1ERKS0_N3xsd3cxx4tree5flagsEPNS5_5_typeE@Base 1.1.0
 _ZN8KolabXSD4FileC2ERKN11xercesc_3_110DOMElementEN3xsd3cxx4tree5flagsEPNS7_5_typeE@Base 1.1.0
 _ZN8KolabXSD4FileC2ERKN3xsd3cxx4tree6stringIcNS3_11simple_typeIcNS3_5_typeEEEEESA_RKNS3_9date_timeIcS7_EESE_RKNS_18attachmentPropTypeE@Base 1.1.0
 _ZN8KolabXSD4FileC2ERKN3xsd3cxx4tree6stringIcNS3_11simple_typeIcNS3_5_typeEEEEESA_RKNS3_9date_timeIcS7_EESE_St8auto_ptrINS_18attachmentPropTypeEE@Base 1.1.0
 _ZN8KolabXSD4FileC2ERKS0_N3xsd3cxx4tree5flagsEPNS5_5_typeE@Base 1.1.0
 _ZN8KolabXSD4FileD0Ev@Base 1.1.0
 _ZN8KolabXSD4FileD1Ev@Base 1.1.0
 _ZN8KolabXSD4FileD2Ev@Base 1.1.0
 _ZN8KolabXSD4FileaSERKS0_@Base 1.1.0
 _ZN8KolabXSD4Note10attachmentERKN3xsd3cxx4tree8sequenceINS_18attachmentPropTypeELb0EEE@Base 1.1.0
 _ZN8KolabXSD4Note10attachmentEv@Base 1.1.0
 _ZN8KolabXSD4Note10categoriesERKN3xsd3cxx4tree8sequenceINS3_6stringIcNS3_11simple_typeIcNS3_5_typeEEEEELb0EEE@Base 1.1.0
 _ZN8KolabXSD4Note10categoriesEv@Base 1.1.0
 _ZN8KolabXSD4Note11descriptionERKN3xsd3cxx4tree6stringIcNS3_11simple_typeIcNS3_5_typeEEEEE@Base 1.1.0
 _ZN8KolabXSD4Note11descriptionERKN3xsd3cxx4tree8optionalINS3_6stringIcNS3_11simple_typeIcNS3_5_typeEEEEELb0EEE@Base 1.1.0
 _ZN8KolabXSD4Note11descriptionESt8auto_ptrIN3xsd3cxx4tree6stringIcNS4_11simple_typeIcNS4_5_typeEEEEEE@Base 1.1.0
 _ZN8KolabXSD4Note11descriptionEv@Base 1.1.0
 _ZN8KolabXSD4Note13creation_dateERKN3xsd3cxx4tree9date_timeIcNS3_11simple_typeIcNS3_5_typeEEEEE@Base 1.1.0
 _ZN8KolabXSD4Note13creation_dateESt8auto_ptrIN3xsd3cxx4tree9date_timeIcNS4_11simple_typeIcNS4_5_typeEEEEEE@Base 1.1.0
 _ZN8KolabXSD4Note13creation_dateEv@Base 1.1.0
 _ZN8KolabXSD4Note14classificationERKN3xsd3cxx4tree8optionalINS_21classifcationPropTypeELb0EEE@Base 1.1.0
 _ZN8KolabXSD4Note14classificationERKNS_21classifcationPropTypeE@Base 1.1.0
 _ZN8KolabXSD4Note14classificationESt8auto_ptrINS_21classifcationPropTypeEE@Base 1.1.0
 _ZN8KolabXSD4Note14classificationEv@Base 1.1.0
 _ZN8KolabXSD4Note22last_modification_dateERKN3xsd3cxx4tree9date_timeIcNS3_11simple_typeIcNS3_5_typeEEEEE@Base 1.1.0
 _ZN8KolabXSD4Note22last_modification_dateESt8auto_ptrIN3xsd3cxx4tree9date_timeIcNS4_11simple_typeIcNS4_5_typeEEEEEE@Base 1.1.0
 _ZN8KolabXSD4Note22last_modification_dateEv@Base 1.1.0
 _ZN8KolabXSD4Note3uidERKN3xsd3cxx4tree6stringIcNS3_11simple_typeIcNS3_5_typeEEEEE@Base 1.1.0
 _ZN8KolabXSD4Note3uidESt8auto_ptrIN3xsd3cxx4tree6stringIcNS4_11simple_typeIcNS4_5_typeEEEEEE@Base 1.1.0
 _ZN8KolabXSD4Note3uidEv@Base 1.1.0
 _ZN8KolabXSD4Note5colorERKN3xsd3cxx4tree6stringIcNS3_11simple_typeIcNS3_5_typeEEEEE@Base 1.1.0
 _ZN8KolabXSD4Note5colorERKN3xsd3cxx4tree8optionalINS3_6stringIcNS3_11simple_typeIcNS3_5_typeEEEEELb0EEE@Base 1.1.0
 _ZN8KolabXSD4Note5colorESt8auto_ptrIN3xsd3cxx4tree6stringIcNS4_11simple_typeIcNS4_5_typeEEEEEE@Base 1.1.0
 _ZN8KolabXSD4Note5colorEv@Base 1.1.0
 _ZN8KolabXSD4Note5parseERN3xsd3cxx3xml3dom6parserIcEENS2_4tree5flagsE@Base 1.1.0
 _ZN8KolabXSD4Note6prodidERKN3xsd3cxx4tree6stringIcNS3_11simple_typeIcNS3_5_typeEEEEE@Base 1.1.0
 _ZN8KolabXSD4Note6prodidESt8auto_ptrIN3xsd3cxx4tree6stringIcNS4_11simple_typeIcNS4_5_typeEEEEEE@Base 1.1.0
 _ZN8KolabXSD4Note6prodidEv@Base 1.1.0
 _ZN8KolabXSD4Note7summaryERKN3xsd3cxx4tree6stringIcNS3_11simple_typeIcNS3_5_typeEEEEE@Base 1.1.0
 _ZN8KolabXSD4Note7summaryERKN3xsd3cxx4tree8optionalINS3_6stringIcNS3_11simple_typeIcNS3_5_typeEEEEELb0EEE@Base 1.1.0
 _ZN8KolabXSD4Note7summaryESt8auto_ptrIN3xsd3cxx4tree6stringIcNS4_11simple_typeIcNS4_5_typeEEEEEE@Base 1.1.0
 _ZN8KolabXSD4Note7summaryEv@Base 1.1.0
 _ZN8KolabXSD4Note8x_customERKN3xsd3cxx4tree8sequenceINS_10CustomTypeELb0EEE@Base 1.1.0
 _ZN8KolabXSD4Note8x_customEv@Base 1.1.0
 _ZN8KolabXSD4NoteC1ERKN11xercesc_3_110DOMElementEN3xsd3cxx4tree5flagsEPNS7_5_typeE@Base 1.1.0
 _ZN8KolabXSD4NoteC1ERKN3xsd3cxx4tree6stringIcNS3_11simple_typeIcNS3_5_typeEEEEESA_RKNS3_9date_timeIcS7_EESE_@Base 1.1.0
 _ZN8KolabXSD4NoteC1ERKS0_N3xsd3cxx4tree5flagsEPNS5_5_typeE@Base 1.1.0
 _ZN8KolabXSD4NoteC2ERKN11xercesc_3_110DOMElementEN3xsd3cxx4tree5flagsEPNS7_5_typeE@Base 1.1.0
 _ZN8KolabXSD4NoteC2ERKN3xsd3cxx4tree6stringIcNS3_11simple_typeIcNS3_5_typeEEEEESA_RKNS3_9date_timeIcS7_EESE_@Base 1.1.0
 _ZN8KolabXSD4NoteC2ERKS0_N3xsd3cxx4tree5flagsEPNS5_5_typeE@Base 1.1.0
 _ZN8KolabXSD4NoteD0Ev@Base 1.1.0
 _ZN8KolabXSD4NoteD1Ev@Base 1.1.0
 _ZN8KolabXSD4NoteD2Ev@Base 1.1.0
 _ZN8KolabXSD4NoteaSERKS0_@Base 1.1.0
 _ZN8KolabXSD4fileEN3xsd3cxx3xml3dom8auto_ptrIN11xercesc_3_111DOMDocumentEEENS1_4tree5flagsERKNS8_10propertiesIcEE@Base 1.1.0
 _ZN8KolabXSD4fileERKN11xercesc_3_111DOMDocumentEN3xsd3cxx4tree5flagsERKNS6_10propertiesIcEE@Base 1.1.0
 _ZN8KolabXSD4fileERKNS_4FileERKN3xsd3cxx3xml3dom17namespace_infomapIcEENS4_4tree5flagsE@Base 1.1.0
 _ZN8KolabXSD4fileERKNSt7__cxx1112basic_stringIcSt11char_traitsIcESaIcEEEN3xsd3cxx4tree5flagsERKNSA_10propertiesIcEE@Base 1.1.0
 _ZN8KolabXSD4fileERKNSt7__cxx1112basic_stringIcSt11char_traitsIcESaIcEEERN11xercesc_3_115DOMErrorHandlerEN3xsd3cxx4tree5flagsERKNSD_10propertiesIcEE@Base 1.1.0
 _ZN8KolabXSD4fileERKNSt7__cxx1112basic_stringIcSt11char_traitsIcESaIcEEERN3xsd3cxx3xml13error_handlerIcEENS9_4tree5flagsERKNSE_10propertiesIcEE@Base 1.1.0
 _ZN8KolabXSD4fileERN11xercesc_3_111DOMDocumentERKNS_4FileEN3xsd3cxx4tree5flagsE@Base 1.1.0
 _ZN8KolabXSD4fileERN11xercesc_3_111InputSourceEN3xsd3cxx4tree5flagsERKNS5_10propertiesIcEE@Base 1.1.0
 _ZN8KolabXSD4fileERN11xercesc_3_111InputSourceERN3xsd3cxx3xml13error_handlerIcEENS4_4tree5flagsERKNS9_10propertiesIcEE@Base 1.1.0
 _ZN8KolabXSD4fileERN11xercesc_3_111InputSourceERNS0_15DOMErrorHandlerEN3xsd3cxx4tree5flagsERKNS7_10propertiesIcEE@Base 1.1.0
 _ZN8KolabXSD4fileERN11xercesc_3_115XMLFormatTargetERKNS_4FileERKN3xsd3cxx3xml3dom17namespace_infomapIcEERKNSt7__cxx1112basic_stringIcSt11char_traitsIcESaIcEEENS7_4tree5flagsE@Base 1.1.0
 _ZN8KolabXSD4fileERN11xercesc_3_115XMLFormatTargetERKNS_4FileERN3xsd3cxx3xml13error_handlerIcEERKNS8_3dom17namespace_infomapIcEERKNSt7__cxx1112basic_stringIcSt11char_traitsIcESaIcEEENS7_4tree5flagsE@Base 1.1.0
 _ZN8KolabXSD4fileERN11xercesc_3_115XMLFormatTargetERKNS_4FileERNS0_15DOMErrorHandlerERKN3xsd3cxx3xml3dom17namespace_infomapIcEERKNSt7__cxx1112basic_stringIcSt11char_traitsIcESaIcEEENS9_4tree5flagsE@Base 1.1.0
 _ZN8KolabXSD4fileERSiN3xsd3cxx4tree5flagsERKNS3_10propertiesIcEE@Base 1.1.0
 _ZN8KolabXSD4fileERSiRKNSt7__cxx1112basic_stringIcSt11char_traitsIcESaIcEEEN3xsd3cxx4tree5flagsERKNSB_10propertiesIcEE@Base 1.1.0
 _ZN8KolabXSD4fileERSiRKNSt7__cxx1112basic_stringIcSt11char_traitsIcESaIcEEERN11xercesc_3_115DOMErrorHandlerEN3xsd3cxx4tree5flagsERKNSE_10propertiesIcEE@Base 1.1.0
 _ZN8KolabXSD4fileERSiRKNSt7__cxx1112basic_stringIcSt11char_traitsIcESaIcEEERN3xsd3cxx3xml13error_handlerIcEENSA_4tree5flagsERKNSF_10propertiesIcEE@Base 1.1.0
 _ZN8KolabXSD4fileERSiRN11xercesc_3_115DOMErrorHandlerEN3xsd3cxx4tree5flagsERKNS6_10propertiesIcEE@Base 1.1.0
 _ZN8KolabXSD4fileERSiRN3xsd3cxx3xml13error_handlerIcEENS2_4tree5flagsERKNS7_10propertiesIcEE@Base 1.1.0
 _ZN8KolabXSD4fileERSoRKNS_4FileERKN3xsd3cxx3xml3dom17namespace_infomapIcEERKNSt7__cxx1112basic_stringIcSt11char_traitsIcESaIcEEENS5_4tree5flagsE@Base 1.1.0
 _ZN8KolabXSD4fileERSoRKNS_4FileERN11xercesc_3_115DOMErrorHandlerERKN3xsd3cxx3xml3dom17namespace_infomapIcEERKNSt7__cxx1112basic_stringIcSt11char_traitsIcESaIcEEENS8_4tree5flagsE@Base 1.1.0
 _ZN8KolabXSD4fileERSoRKNS_4FileERN3xsd3cxx3xml13error_handlerIcEERKNS6_3dom17namespace_infomapIcEERKNSt7__cxx1112basic_stringIcSt11char_traitsIcESaIcEEENS5_4tree5flagsE@Base 1.1.0
 _ZN8KolabXSD4noteEN3xsd3cxx3xml3dom8auto_ptrIN11xercesc_3_111DOMDocumentEEENS1_4tree5flagsERKNS8_10propertiesIcEE@Base 1.1.0
 _ZN8KolabXSD4noteERKN11xercesc_3_111DOMDocumentEN3xsd3cxx4tree5flagsERKNS6_10propertiesIcEE@Base 1.1.0
 _ZN8KolabXSD4noteERKNS_4NoteERKN3xsd3cxx3xml3dom17namespace_infomapIcEENS4_4tree5flagsE@Base 1.1.0
 _ZN8KolabXSD4noteERKNSt7__cxx1112basic_stringIcSt11char_traitsIcESaIcEEEN3xsd3cxx4tree5flagsERKNSA_10propertiesIcEE@Base 1.1.0
 _ZN8KolabXSD4noteERKNSt7__cxx1112basic_stringIcSt11char_traitsIcESaIcEEERN11xercesc_3_115DOMErrorHandlerEN3xsd3cxx4tree5flagsERKNSD_10propertiesIcEE@Base 1.1.0
 _ZN8KolabXSD4noteERKNSt7__cxx1112basic_stringIcSt11char_traitsIcESaIcEEERN3xsd3cxx3xml13error_handlerIcEENS9_4tree5flagsERKNSE_10propertiesIcEE@Base 1.1.0
 _ZN8KolabXSD4noteERN11xercesc_3_111DOMDocumentERKNS_4NoteEN3xsd3cxx4tree5flagsE@Base 1.1.0
 _ZN8KolabXSD4noteERN11xercesc_3_111InputSourceEN3xsd3cxx4tree5flagsERKNS5_10propertiesIcEE@Base 1.1.0
 _ZN8KolabXSD4noteERN11xercesc_3_111InputSourceERN3xsd3cxx3xml13error_handlerIcEENS4_4tree5flagsERKNS9_10propertiesIcEE@Base 1.1.0
 _ZN8KolabXSD4noteERN11xercesc_3_111InputSourceERNS0_15DOMErrorHandlerEN3xsd3cxx4tree5flagsERKNS7_10propertiesIcEE@Base 1.1.0
 _ZN8KolabXSD4noteERN11xercesc_3_115XMLFormatTargetERKNS_4NoteERKN3xsd3cxx3xml3dom17namespace_infomapIcEERKNSt7__cxx1112basic_stringIcSt11char_traitsIcESaIcEEENS7_4tree5flagsE@Base 1.1.0
 _ZN8KolabXSD4noteERN11xercesc_3_115XMLFormatTargetERKNS_4NoteERN3xsd3cxx3xml13error_handlerIcEERKNS8_3dom17namespace_infomapIcEERKNSt7__cxx1112basic_stringIcSt11char_traitsIcESaIcEEENS7_4tree5flagsE@Base 1.1.0
 _ZN8KolabXSD4noteERN11xercesc_3_115XMLFormatTargetERKNS_4NoteERNS0_15DOMErrorHandlerERKN3xsd3cxx3xml3dom17namespace_infomapIcEERKNSt7__cxx1112basic_stringIcSt11char_traitsIcESaIcEEENS9_4tree5flagsE@Base 1.1.0
 _ZN8KolabXSD4noteERSiN3xsd3cxx4tree5flagsERKNS3_10propertiesIcEE@Base 1.1.0
 _ZN8KolabXSD4noteERSiRKNSt7__cxx1112basic_stringIcSt11char_traitsIcESaIcEEEN3xsd3cxx4tree5flagsERKNSB_10propertiesIcEE@Base 1.1.0
 _ZN8KolabXSD4noteERSiRKNSt7__cxx1112basic_stringIcSt11char_traitsIcESaIcEEERN11xercesc_3_115DOMErrorHandlerEN3xsd3cxx4tree5flagsERKNSE_10propertiesIcEE@Base 1.1.0
 _ZN8KolabXSD4noteERSiRKNSt7__cxx1112basic_stringIcSt11char_traitsIcESaIcEEERN3xsd3cxx3xml13error_handlerIcEENSA_4tree5flagsERKNSF_10propertiesIcEE@Base 1.1.0
 _ZN8KolabXSD4noteERSiRN11xercesc_3_115DOMErrorHandlerEN3xsd3cxx4tree5flagsERKNS6_10propertiesIcEE@Base 1.1.0
 _ZN8KolabXSD4noteERSiRN3xsd3cxx3xml13error_handlerIcEENS2_4tree5flagsERKNS7_10propertiesIcEE@Base 1.1.0
 _ZN8KolabXSD4noteERSoRKNS_4NoteERKN3xsd3cxx3xml3dom17namespace_infomapIcEERKNSt7__cxx1112basic_stringIcSt11char_traitsIcESaIcEEENS5_4tree5flagsE@Base 1.1.0
 _ZN8KolabXSD4noteERSoRKNS_4NoteERN11xercesc_3_115DOMErrorHandlerERKN3xsd3cxx3xml3dom17namespace_infomapIcEERKNSt7__cxx1112basic_stringIcSt11char_traitsIcESaIcEEENS8_4tree5flagsE@Base 1.1.0
 _ZN8KolabXSD4noteERSoRKNS_4NoteERN3xsd3cxx3xml13error_handlerIcEERKNS6_3dom17namespace_infomapIcEERKNSt7__cxx1112basic_stringIcSt11char_traitsIcESaIcEEENS5_4tree5flagsE@Base 1.1.0
 _ZN8KolabXSD7Snippet10textformatERKNS_14textformatTypeE@Base 1.1.0
 _ZN8KolabXSD7Snippet10textformatESt8auto_ptrINS_14textformatTypeEE@Base 1.1.0
 _ZN8KolabXSD7Snippet10textformatEv@Base 1.1.0
 _ZN8KolabXSD7Snippet4nameERKN3xsd3cxx4tree6stringIcNS3_11simple_typeIcNS3_5_typeEEEEE@Base 1.1.0
 _ZN8KolabXSD7Snippet4nameESt8auto_ptrIN3xsd3cxx4tree6stringIcNS4_11simple_typeIcNS4_5_typeEEEEEE@Base 1.1.0
 _ZN8KolabXSD7Snippet4nameEv@Base 1.1.0
 _ZN8KolabXSD7Snippet4textERKN3xsd3cxx4tree6stringIcNS3_11simple_typeIcNS3_5_typeEEEEE@Base 1.1.0
 _ZN8KolabXSD7Snippet4textESt8auto_ptrIN3xsd3cxx4tree6stringIcNS4_11simple_typeIcNS4_5_typeEEEEEE@Base 1.1.0
 _ZN8KolabXSD7Snippet4textEv@Base 1.1.0
 _ZN8KolabXSD7Snippet5colorERKN3xsd3cxx4tree6stringIcNS3_11simple_typeIcNS3_5_typeEEEEE@Base 1.1.0
 _ZN8KolabXSD7Snippet5colorERKN3xsd3cxx4tree8optionalINS3_6stringIcNS3_11simple_typeIcNS3_5_typeEEEEELb0EEE@Base 1.1.0
 _ZN8KolabXSD7Snippet5colorESt8auto_ptrIN3xsd3cxx4tree6stringIcNS4_11simple_typeIcNS4_5_typeEEEEEE@Base 1.1.0
 _ZN8KolabXSD7Snippet5colorEv@Base 1.1.0
 _ZN8KolabXSD7Snippet5parseERN3xsd3cxx3xml3dom6parserIcEENS2_4tree5flagsE@Base 1.1.0
 _ZN8KolabXSD7Snippet8shortcutERKN3xsd3cxx4tree6stringIcNS3_11simple_typeIcNS3_5_typeEEEEE@Base 1.1.0
 _ZN8KolabXSD7Snippet8shortcutERKN3xsd3cxx4tree8optionalINS3_6stringIcNS3_11simple_typeIcNS3_5_typeEEEEELb0EEE@Base 1.1.0
 _ZN8KolabXSD7Snippet8shortcutESt8auto_ptrIN3xsd3cxx4tree6stringIcNS4_11simple_typeIcNS4_5_typeEEEEEE@Base 1.1.0
 _ZN8KolabXSD7Snippet8shortcutEv@Base 1.1.0
 _ZN8KolabXSD7SnippetC1ERKN11xercesc_3_110DOMElementEN3xsd3cxx4tree5flagsEPNS7_5_typeE@Base 1.1.0
 _ZN8KolabXSD7SnippetC1ERKN3xsd3cxx4tree6stringIcNS3_11simple_typeIcNS3_5_typeEEEEESA_RKNS_14textformatTypeE@Base 1.1.0
 _ZN8KolabXSD7SnippetC1ERKS0_N3xsd3cxx4tree5flagsEPNS5_5_typeE@Base 1.1.0
 _ZN8KolabXSD7SnippetC2ERKN11xercesc_3_110DOMElementEN3xsd3cxx4tree5flagsEPNS7_5_typeE@Base 1.1.0
 _ZN8KolabXSD7SnippetC2ERKN3xsd3cxx4tree6stringIcNS3_11simple_typeIcNS3_5_typeEEEEESA_RKNS_14textformatTypeE@Base 1.1.0
 _ZN8KolabXSD7SnippetC2ERKS0_N3xsd3cxx4tree5flagsEPNS5_5_typeE@Base 1.1.0
 _ZN8KolabXSD7SnippetD0Ev@Base 1.1.0
 _ZN8KolabXSD7SnippetD1Ev@Base 1.1.0
 _ZN8KolabXSD7SnippetD2Ev@Base 1.1.0
 _ZN8KolabXSD7SnippetaSERKS0_@Base 1.1.0
 _ZN8KolabXSD9KolabBase21version_default_valueEv@Base 1.1.0
 _ZN8KolabXSD9KolabBase22version_default_value_E@Base 1.1.0
 _ZN8KolabXSD9KolabBase5parseERN3xsd3cxx3xml3dom6parserIcEENS2_4tree5flagsE@Base 1.1.0
 _ZN8KolabXSD9KolabBase7versionERKN3xsd3cxx4tree6stringIcNS3_11simple_typeIcNS3_5_typeEEEEE@Base 1.1.0
 _ZN8KolabXSD9KolabBase7versionESt8auto_ptrIN3xsd3cxx4tree6stringIcNS4_11simple_typeIcNS4_5_typeEEEEEE@Base 1.1.0
 _ZN8KolabXSD9KolabBase7versionEv@Base 1.1.0
 _ZN8KolabXSD9KolabBaseC1ERKN11xercesc_3_110DOMElementEN3xsd3cxx4tree5flagsEPNS7_5_typeE@Base 1.1.0
 _ZN8KolabXSD9KolabBaseC1ERKS0_N3xsd3cxx4tree5flagsEPNS5_5_typeE@Base 1.1.0
 _ZN8KolabXSD9KolabBaseC1Ev@Base 1.1.0
 _ZN8KolabXSD9KolabBaseC2ERKN11xercesc_3_110DOMElementEN3xsd3cxx4tree5flagsEPNS7_5_typeE@Base 1.1.0
 _ZN8KolabXSD9KolabBaseC2ERKS0_N3xsd3cxx4tree5flagsEPNS5_5_typeE@Base 1.1.0
 _ZN8KolabXSD9KolabBaseC2Ev@Base 1.1.0
 _ZN8KolabXSD9KolabBaseD0Ev@Base 1.1.0
 _ZN8KolabXSD9KolabBaseD1Ev@Base 1.1.0
 _ZN8KolabXSD9KolabBaseD2Ev@Base 1.1.0
 _ZN8KolabXSD9KolabBaseaSERKS0_@Base 1.1.0
 _ZN8KolabXSDlsERN11xercesc_3_110DOMElementERKNS_10CustomTypeE@Base 1.1.0
 _ZN8KolabXSDlsERN11xercesc_3_110DOMElementERKNS_10parametersE@Base 1.1.0
