libKF5WidgetsAddons.so.5 libkf5widgetsaddons5 #MINVER#
 _ZN10KPageModel11qt_metacallEN11QMetaObject4CallEiPPv@Base 4.96.0
 _ZN10KPageModel11qt_metacastEPKc@Base 4.96.0
 _ZN10KPageModel16staticMetaObjectE@Base 4.96.0
 _ZN10KPageModelC1EP7QObject@Base 4.96.0
 _ZN10KPageModelC1ER17KPageModelPrivateP7QObject@Base 4.96.0
 _ZN10KPageModelC2EP7QObject@Base 4.96.0
 _ZN10KPageModelC2ER17KPageModelPrivateP7QObject@Base 4.96.0
 _ZN10KPageModelD0Ev@Base 4.96.0
 _ZN10KPageModelD1Ev@Base 4.96.0
 _ZN10KPageModelD2Ev@Base 4.96.0
 _ZN10KSeparator11qt_metacallEN11QMetaObject4CallEiPPv@Base 4.96.0
 _ZN10KSeparator11qt_metacastEPKc@Base 4.96.0
 _ZN10KSeparator14setOrientationEN2Qt11OrientationE@Base 4.96.0
 _ZN10KSeparator16staticMetaObjectE@Base 4.96.0
 _ZN10KSeparatorC1EN2Qt11OrientationEP7QWidget6QFlagsINS0_10WindowTypeEE@Base 4.96.0
 _ZN10KSeparatorC1EP7QWidget6QFlagsIN2Qt10WindowTypeEE@Base 4.96.0
 _ZN10KSeparatorC2EN2Qt11OrientationEP7QWidget6QFlagsINS0_10WindowTypeEE@Base 4.96.0
 _ZN10KSeparatorC2EP7QWidget6QFlagsIN2Qt10WindowTypeEE@Base 4.96.0
 _ZN11KActionMenu10setDelayedEb@Base 4.96.0
 _ZN11KActionMenu11qt_metacallEN11QMetaObject4CallEiPPv@Base 4.96.0
 _ZN11KActionMenu11qt_metacastEPKc@Base 4.96.0
 _ZN11KActionMenu12addSeparatorEv@Base 4.96.0
 _ZN11KActionMenu12createWidgetEP7QWidget@Base 4.96.0
 _ZN11KActionMenu12insertActionEP7QActionS1_@Base 4.96.0
 _ZN11KActionMenu12removeActionEP7QAction@Base 4.96.0
 _ZN11KActionMenu13setStickyMenuEb@Base 4.96.0
 _ZN11KActionMenu15insertSeparatorEP7QAction@Base 4.96.0
 _ZN11KActionMenu16staticMetaObjectE@Base 4.96.0
 _ZN11KActionMenu6removeEP7QAction@Base 4.96.0
 _ZN11KActionMenu9addActionEP7QAction@Base 4.96.0
 _ZN11KActionMenuC1EP7QObject@Base 4.96.0
 _ZN11KActionMenuC1ERK5QIconRK7QStringP7QObject@Base 4.96.0
 _ZN11KActionMenuC1ERK7QStringP7QObject@Base 4.96.0
 _ZN11KActionMenuC2EP7QObject@Base 4.96.0
 _ZN11KActionMenuC2ERK5QIconRK7QStringP7QObject@Base 4.96.0
 _ZN11KActionMenuC2ERK7QStringP7QObject@Base 4.96.0
 _ZN11KActionMenuD0Ev@Base 4.96.0
 _ZN11KActionMenuD1Ev@Base 4.96.0
 _ZN11KActionMenuD2Ev@Base 4.96.0
 _ZN11KCharSelect10initWidgetE6QFlagsINS_7ControlEEP7QObject@Base 4.96.0
 _ZN11KCharSelect11qt_metacallEN11QMetaObject4CallEiPPv@Base 4.96.0
 _ZN11KCharSelect11qt_metacastEPKc@Base 4.96.0
 _ZN11KCharSelect12charSelectedERK5QChar@Base 4.96.0
 _ZN11KCharSelect14setCurrentCharERK5QChar@Base 4.96.0
 _ZN11KCharSelect14setCurrentFontERK5QFont@Base 4.96.0
 _ZN11KCharSelect16staticMetaObjectE@Base 4.96.0
 _ZN11KCharSelect18KCharSelectPrivate10_k_forwardEv@Base 4.96.0
 _ZN11KCharSelect18KCharSelectPrivate10historyAddE5QCharbRK7QString@Base 5.13.0
 _ZN11KCharSelect18KCharSelectPrivate11createLinksE7QString@Base 4.96.0
 _ZN11KCharSelect18KCharSelectPrivate14_k_linkClickedE4QUrl@Base 4.96.0
 _ZN11KCharSelect18KCharSelectPrivate15_k_fontSelectedEv@Base 4.96.0
 _ZN11KCharSelect18KCharSelectPrivate15showFromHistoryEi@Base 4.96.0
 _ZN11KCharSelect18KCharSelectPrivate16_k_blockSelectedEi@Base 4.96.0
 _ZN11KCharSelect18KCharSelectPrivate18_k_sectionSelectedEi@Base 4.96.0
 _ZN11KCharSelect18KCharSelectPrivate20_k_searchEditChangedEv@Base 4.96.0
 _ZN11KCharSelect18KCharSelectPrivate20_k_slotUpdateUnicodeE5QChar@Base 5.13.0
 _ZN11KCharSelect18KCharSelectPrivate20_k_updateCurrentCharE5QChar@Base 5.13.0
 _ZN11KCharSelect18KCharSelectPrivate21_k_activateSearchLineEv@Base 4.96.0
 _ZN11KCharSelect18KCharSelectPrivate24updateBackForwardButtonsEv@Base 4.96.0
 _ZN11KCharSelect18KCharSelectPrivate7_k_backEv@Base 4.96.0
 _ZN11KCharSelect18KCharSelectPrivate9_k_searchEv@Base 4.96.0
 _ZN11KCharSelect18currentCharChangedERK5QChar@Base 4.96.0
 _ZN11KCharSelect18currentFontChangedERK5QFont@Base 4.96.0
 _ZN11KCharSelect21displayedCharsChangedEv@Base 4.96.0
 _ZN11KCharSelectC1EP7QWidget6QFlagsINS_7ControlEE@Base 4.96.0
 _ZN11KCharSelectC1EP7QWidgetP7QObject6QFlagsINS_7ControlEE@Base 4.96.0
 _ZN11KCharSelectC2EP7QWidget6QFlagsINS_7ControlEE@Base 4.96.0
 _ZN11KCharSelectC2EP7QWidgetP7QObject6QFlagsINS_7ControlEE@Base 4.96.0
 _ZN11KCharSelectD0Ev@Base 4.96.0
 _ZN11KCharSelectD1Ev@Base 4.96.0
 _ZN11KCharSelectD2Ev@Base 4.96.0
 _ZN11KColorCombo10paintEventEP11QPaintEvent@Base 4.96.0
 _ZN11KColorCombo11highlightedERK6QColor@Base 4.96.0
 _ZN11KColorCombo11qt_metacallEN11QMetaObject4CallEiPPv@Base 4.96.0
 _ZN11KColorCombo11qt_metacastEPKc@Base 4.96.0
 _ZN11KColorCombo13showEmptyListEv@Base 4.96.0
 _ZN11KColorCombo16staticMetaObjectE@Base 4.96.0
 _ZN11KColorCombo8setColorERK6QColor@Base 4.96.0
 _ZN11KColorCombo9activatedERK6QColor@Base 4.96.0
 _ZN11KColorCombo9setColorsERK5QListI6QColorE@Base 4.96.0
 _ZN11KColorComboC1EP7QWidget@Base 4.96.0
 _ZN11KColorComboC2EP7QWidget@Base 4.96.0
 _ZN11KColorComboD0Ev@Base 4.96.0
 _ZN11KColorComboD1Ev@Base 4.96.0
 _ZN11KColorComboD2Ev@Base 4.96.0
 _ZN11KDatePicker10initWidgetERK5QDate@Base 4.96.0
 _ZN11KDatePicker11changeEventEP6QEvent@Base 4.99.0
 _ZN11KDatePicker11dateChangedERK5QDate@Base 4.96.0
 _ZN11KDatePicker11dateEnteredERK5QDate@Base 4.96.0
 _ZN11KDatePicker11eventFilterEP7QObjectP6QEvent@Base 4.96.0
 _ZN11KDatePicker11qt_metacallEN11QMetaObject4CallEiPPv@Base 4.96.0
 _ZN11KDatePicker11qt_metacastEPKc@Base 4.96.0
 _ZN11KDatePicker11resizeEventEP12QResizeEvent@Base 4.96.0
 _ZN11KDatePicker11setFontSizeEi@Base 4.96.0
 _ZN11KDatePicker12dateSelectedERK5QDate@Base 4.96.0
 _ZN11KDatePicker12tableClickedEv@Base 4.96.0
 _ZN11KDatePicker12weekSelectedEi@Base 4.96.0
 _ZN11KDatePicker14setCloseButtonEb@Base 4.96.0
 _ZN11KDatePicker15dateChangedSlotERK5QDate@Base 4.96.0
 _ZN11KDatePicker16lineEnterPressedEv@Base 4.96.0
 _ZN11KDatePicker16staticMetaObjectE@Base 4.96.0
 _ZN11KDatePicker16tableClickedSlotEv@Base 4.96.0
 _ZN11KDatePicker17selectYearClickedEv@Base 4.96.0
 _ZN11KDatePicker18KDatePickerPrivate14fillWeeksComboEv@Base 4.96.0
 _ZN11KDatePicker18KDatePickerPrivate20validDateInYearMonthEii@Base 4.96.0
 _ZN11KDatePicker18selectMonthClickedEv@Base 4.96.0
 _ZN11KDatePicker18todayButtonClickedEv@Base 4.96.0
 _ZN11KDatePicker18yearForwardClickedEv@Base 4.96.0
 _ZN11KDatePicker19monthForwardClickedEv@Base 4.96.0
 _ZN11KDatePicker19uncheckYearSelectorEv@Base 4.96.0
 _ZN11KDatePicker19yearBackwardClickedEv@Base 4.96.0
 _ZN11KDatePicker20monthBackwardClickedEv@Base 4.96.0
 _ZN11KDatePicker7setDateERK5QDate@Base 4.96.0
 _ZN11KDatePickerC1EP7QWidget@Base 4.96.0
 _ZN11KDatePickerC1ERK5QDateP7QWidget@Base 4.96.0
 _ZN11KDatePickerC2EP7QWidget@Base 4.96.0
 _ZN11KDatePickerC2ERK5QDateP7QWidget@Base 4.96.0
 _ZN11KDatePickerD0Ev@Base 4.96.0
 _ZN11KDatePickerD1Ev@Base 4.96.0
 _ZN11KDatePickerD2Ev@Base 4.96.0
 _ZN11KDualAction11qt_metacallEN11QMetaObject4CallEiPPv@Base 4.96.0
 _ZN11KDualAction11qt_metacastEPKc@Base 4.96.0
 _ZN11KDualAction13activeChangedEb@Base 4.96.0
 _ZN11KDualAction13setActiveIconERK5QIcon@Base 4.96.0
 _ZN11KDualAction13setActiveTextERK7QString@Base 4.96.0
 _ZN11KDualAction13setAutoToggleEb@Base 4.96.0
 _ZN11KDualAction15setInactiveIconERK5QIcon@Base 4.96.0
 _ZN11KDualAction15setInactiveTextERK7QString@Base 4.96.0
 _ZN11KDualAction16setActiveGuiItemERK8KGuiItem@Base 4.96.0
 _ZN11KDualAction16setActiveToolTipERK7QString@Base 4.96.0
 _ZN11KDualAction16setIconForStatesERK5QIcon@Base 4.96.0
 _ZN11KDualAction16staticMetaObjectE@Base 4.96.0
 _ZN11KDualAction18setInactiveGuiItemERK8KGuiItem@Base 4.96.0
 _ZN11KDualAction18setInactiveToolTipERK7QString@Base 4.96.0
 _ZN11KDualAction19activeChangedByUserEb@Base 4.96.0
 _ZN11KDualAction9setActiveEb@Base 4.96.0
 _ZN11KDualActionC1EP7QObject@Base 4.96.0
 _ZN11KDualActionC1ERK7QStringS2_P7QObject@Base 4.96.0
 _ZN11KDualActionC2EP7QObject@Base 4.96.0
 _ZN11KDualActionC2ERK7QStringS2_P7QObject@Base 4.96.0
 _ZN11KDualActionD0Ev@Base 4.96.0
 _ZN11KDualActionD1Ev@Base 4.96.0
 _ZN11KDualActionD2Ev@Base 4.96.0
 _ZN11KFontAction11qt_metacallEN11QMetaObject4CallEiPPv@Base 4.96.0
 _ZN11KFontAction11qt_metacastEPKc@Base 4.96.0
 _ZN11KFontAction12createWidgetEP7QWidget@Base 4.96.0
 _ZN11KFontAction16staticMetaObjectE@Base 4.96.0
 _ZN11KFontAction7setFontERK7QString@Base 4.96.0
 _ZN11KFontActionC1EP7QObject@Base 4.96.0
 _ZN11KFontActionC1ERK5QIconRK7QStringP7QObject@Base 4.96.0
 _ZN11KFontActionC1ERK7QStringP7QObject@Base 4.96.0
 _ZN11KFontActionC1EjP7QObject@Base 4.96.0
 _ZN11KFontActionC2EP7QObject@Base 4.96.0
 _ZN11KFontActionC2ERK5QIconRK7QStringP7QObject@Base 4.96.0
 _ZN11KFontActionC2ERK7QStringP7QObject@Base 4.96.0
 _ZN11KFontActionC2EjP7QObject@Base 4.96.0
 _ZN11KFontActionD0Ev@Base 4.96.0
 _ZN11KFontActionD1Ev@Base 4.96.0
 _ZN11KFontActionD2Ev@Base 4.96.0
 _ZN11KMessageBox10messageBoxEP7QWidgetNS_10DialogTypeERK7QStringS5_RK8KGuiItemS8_S8_S5_6QFlagsINS_6OptionEE@Base 4.96.0
 _ZN11KMessageBox11informationEP7QWidgetRK7QStringS4_S4_6QFlagsINS_6OptionEE@Base 4.96.0
 _ZN11KMessageBox12errorListWIdEyRK7QStringRK11QStringListS2_6QFlagsINS_6OptionEE@Base 4.96.0
 _ZN11KMessageBox12warningYesNoEP7QWidgetRK7QStringS4_RK8KGuiItemS7_S4_6QFlagsINS_6OptionEE@Base 4.96.0
 _ZN11KMessageBox13detailedErrorEP7QWidgetRK7QStringS4_S4_6QFlagsINS_6OptionEE@Base 4.96.0
 _ZN11KMessageBox13detailedSorryEP7QWidgetRK7QStringS4_S4_6QFlagsINS_6OptionEE@Base 4.96.0
 _ZN11KMessageBox13enableMessageERK7QString@Base 4.96.0
 _ZN11KMessageBox13messageBoxWIdEyNS_10DialogTypeERK7QStringS3_RK8KGuiItemS6_S6_S3_6QFlagsINS_6OptionEE@Base 4.96.0
 _ZN11KMessageBox13questionYesNoEP7QWidgetRK7QStringS4_RK8KGuiItemS7_S4_6QFlagsINS_6OptionEE@Base 4.96.0
 _ZN11KMessageBox14informationWIdEyRK7QStringS2_S2_6QFlagsINS_6OptionEE@Base 4.96.0
 _ZN11KMessageBox15informationListEP7QWidgetRK7QStringRK11QStringListS4_S4_6QFlagsINS_6OptionEE@Base 4.96.0
 _ZN11KMessageBox15warningYesNoWIdEyRK7QStringS2_RK8KGuiItemS5_S2_6QFlagsINS_6OptionEE@Base 4.96.0
 _ZN11KMessageBox16detailedErrorWIdEyRK7QStringS2_S2_6QFlagsINS_6OptionEE@Base 4.96.0
 _ZN11KMessageBox16detailedSorryWIdEyRK7QStringS2_S2_6QFlagsINS_6OptionEE@Base 4.96.0
 _ZN11KMessageBox16questionYesNoWIdEyRK7QStringS2_RK8KGuiItemS5_S2_6QFlagsINS_6OptionEE@Base 4.96.0
 _ZN11KMessageBox16warningYesNoListEP7QWidgetRK7QStringRK11QStringListS4_RK8KGuiItemSA_S4_6QFlagsINS_6OptionEE@Base 4.96.0
 _ZN11KMessageBox17createKMessageBoxEP7QDialogP16QDialogButtonBoxN11QMessageBox4IconERK7QStringRK11QStringListS8_Pb6QFlagsINS_6OptionEES8_@Base 4.96.0
 _ZN11KMessageBox17createKMessageBoxEP7QDialogP16QDialogButtonBoxRK5QIconRK7QStringRK11QStringListS9_Pb6QFlagsINS_6OptionEES9_N11QMessageBox4IconE@Base 4.96.0
 _ZN11KMessageBox17enableAllMessagesEv@Base 4.96.0
 _ZN11KMessageBox17questionYesNoListEP7QWidgetRK7QStringRK11QStringListS4_RK8KGuiItemSA_S4_6QFlagsINS_6OptionEE@Base 4.96.0
 _ZN11KMessageBox18informationListWIdEyRK7QStringRK11QStringListS2_S2_6QFlagsINS_6OptionEE@Base 4.96.0
 _ZN11KMessageBox18setNotifyInterfaceEP26KMessageBoxNotifyInterface@Base 4.96.0
 _ZN11KMessageBox18shouldBeShownYesNoERK7QStringRNS_10ButtonCodeE@Base 4.96.0
 _ZN11KMessageBox18warningYesNoCancelEP7QWidgetRK7QStringS4_RK8KGuiItemS7_S7_S4_6QFlagsINS_6OptionEE@Base 4.96.0
 _ZN11KMessageBox19questionYesNoCancelEP7QWidgetRK7QStringS4_RK8KGuiItemS7_S7_S4_6QFlagsINS_6OptionEE@Base 4.96.0
 _ZN11KMessageBox19warningYesNoListWIdEyRK7QStringRK11QStringListS2_RK8KGuiItemS8_S2_6QFlagsINS_6OptionEE@Base 4.96.0
 _ZN11KMessageBox20questionYesNoListWIdEyRK7QStringRK11QStringListS2_RK8KGuiItemS8_S2_6QFlagsINS_6OptionEE@Base 4.96.0
 _ZN11KMessageBox21KMessageBox_exec_hookE@Base 4.96.0
 _ZN11KMessageBox21shouldBeShownContinueERK7QString@Base 4.96.0
 _ZN11KMessageBox21warningContinueCancelEP7QWidgetRK7QStringS4_RK8KGuiItemS7_S4_6QFlagsINS_6OptionEE@Base 4.96.0
 _ZN11KMessageBox21warningYesNoCancelWIdEyRK7QStringS2_RK8KGuiItemS5_S5_S2_6QFlagsINS_6OptionEE@Base 4.96.0
 _ZN11KMessageBox22questionYesNoCancelWIdEyRK7QStringS2_RK8KGuiItemS5_S5_S2_6QFlagsINS_6OptionEE@Base 4.96.0
 _ZN11KMessageBox22saveDontShowAgainYesNoERK7QStringNS_10ButtonCodeE@Base 4.96.0
 _ZN11KMessageBox22setDontShowAgainConfigEP7KConfig@Base 4.96.0
 _ZN11KMessageBox22warningYesNoCancelListEP7QWidgetRK7QStringRK11QStringListS4_RK8KGuiItemSA_SA_S4_6QFlagsINS_6OptionEE@Base 4.96.0
 _ZN11KMessageBox24warningContinueCancelWIdEyRK7QStringS2_RK8KGuiItemS5_S2_6QFlagsINS_6OptionEE@Base 4.96.0
 _ZN11KMessageBox25saveDontShowAgainContinueERK7QString@Base 4.96.0
 _ZN11KMessageBox25setDontShowAgainInterfaceEP32KMessageBoxDontAskAgainInterface@Base 4.96.0
 _ZN11KMessageBox25warningContinueCancelListEP7QWidgetRK7QStringRK11QStringListS4_RK8KGuiItemSA_S4_6QFlagsINS_6OptionEE@Base 4.96.0
 _ZN11KMessageBox25warningYesNoCancelListWIdEyRK7QStringRK11QStringListS2_RK8KGuiItemS8_S8_S2_6QFlagsINS_6OptionEE@Base 4.96.0
 _ZN11KMessageBox28warningContinueCancelListWIdEyRK7QStringRK11QStringListS2_RK8KGuiItemS8_S2_6QFlagsINS_6OptionEE@Base 4.96.0
 _ZN11KMessageBox5aboutEP7QWidgetRK7QStringS4_6QFlagsINS_6OptionEE@Base 4.96.0
 _ZN11KMessageBox5errorEP7QWidgetRK7QStringS4_6QFlagsINS_6OptionEE@Base 4.96.0
 _ZN11KMessageBox5sorryEP7QWidgetRK7QStringS4_6QFlagsINS_6OptionEE@Base 4.96.0
 _ZN11KMessageBox8errorWIdEyRK7QStringS2_6QFlagsINS_6OptionEE@Base 4.96.0
 _ZN11KMessageBox8sorryWIdEyRK7QStringS2_6QFlagsINS_6OptionEE@Base 4.96.0
 _ZN11KMessageBox9errorListEP7QWidgetRK7QStringRK11QStringListS4_6QFlagsINS_6OptionEE@Base 4.96.0
 _ZN11KPageDialog10addSubPageEP15KPageWidgetItemP7QWidgetRK7QString@Base 4.96.0
 _ZN11KPageDialog10addSubPageEP15KPageWidgetItemS1_@Base 4.96.0
 _ZN11KPageDialog10insertPageEP15KPageWidgetItemP7QWidgetRK7QString@Base 4.96.0
 _ZN11KPageDialog10insertPageEP15KPageWidgetItemS1_@Base 4.96.0
 _ZN11KPageDialog10pageWidgetEv@Base 4.96.0
 _ZN11KPageDialog10removePageEP15KPageWidgetItem@Base 4.96.0
 _ZN11KPageDialog11pageRemovedEP15KPageWidgetItem@Base 4.96.0
 _ZN11KPageDialog11qt_metacallEN11QMetaObject4CallEiPPv@Base 4.96.0
 _ZN11KPageDialog11qt_metacastEPKc@Base 4.96.0
 _ZN11KPageDialog11setFaceTypeENS_8FaceTypeE@Base 4.96.0
 _ZN11KPageDialog12setButtonBoxEP16QDialogButtonBox@Base 4.96.0
 _ZN11KPageDialog13setPageWidgetEP11KPageWidget@Base 4.96.0
 _ZN11KPageDialog14setCurrentPageEP15KPageWidgetItem@Base 4.96.0
 _ZN11KPageDialog15addActionButtonEP15QAbstractButton@Base 5.1.0
 _ZN11KPageDialog16staticMetaObjectE@Base 4.96.0
 _ZN11KPageDialog18currentPageChangedEP15KPageWidgetItemS1_@Base 4.96.0
 _ZN11KPageDialog18setStandardButtonsE6QFlagsIN16QDialogButtonBox14StandardButtonEE@Base 4.96.0
 _ZN11KPageDialog7addPageEP15KPageWidgetItem@Base 4.96.0
 _ZN11KPageDialog7addPageEP7QWidgetRK7QString@Base 4.96.0
 _ZN11KPageDialog9buttonBoxEv@Base 4.96.0
 _ZN11KPageDialogC1EP11KPageWidgetP7QWidget6QFlagsIN2Qt10WindowTypeEE@Base 4.96.0
 _ZN11KPageDialogC1EP7QWidget6QFlagsIN2Qt10WindowTypeEE@Base 4.96.0
 _ZN11KPageDialogC1ER18KPageDialogPrivateP11KPageWidgetP7QWidget6QFlagsIN2Qt10WindowTypeEE@Base 4.96.0
 _ZN11KPageDialogC2EP11KPageWidgetP7QWidget6QFlagsIN2Qt10WindowTypeEE@Base 4.96.0
 _ZN11KPageDialogC2EP7QWidget6QFlagsIN2Qt10WindowTypeEE@Base 4.96.0
 _ZN11KPageDialogC2ER18KPageDialogPrivateP11KPageWidgetP7QWidget6QFlagsIN2Qt10WindowTypeEE@Base 4.96.0
 _ZN11KPageDialogD0Ev@Base 4.96.0
 _ZN11KPageDialogD1Ev@Base 4.96.0
 _ZN11KPageDialogD2Ev@Base 4.96.0
 _ZN11KPageWidget10addSubPageEP15KPageWidgetItemP7QWidgetRK7QString@Base 4.96.0
 _ZN11KPageWidget10addSubPageEP15KPageWidgetItemS1_@Base 4.96.0
 _ZN11KPageWidget10insertPageEP15KPageWidgetItemP7QWidgetRK7QString@Base 4.96.0
 _ZN11KPageWidget10insertPageEP15KPageWidgetItemS1_@Base 4.96.0
 _ZN11KPageWidget10removePageEP15KPageWidgetItem@Base 4.96.0
 _ZN11KPageWidget11pageRemovedEP15KPageWidgetItem@Base 4.96.0
 _ZN11KPageWidget11pageToggledEP15KPageWidgetItemb@Base 4.96.0
 _ZN11KPageWidget11qt_metacallEN11QMetaObject4CallEiPPv@Base 4.96.0
 _ZN11KPageWidget11qt_metacastEPKc@Base 4.96.0
 _ZN11KPageWidget14setCurrentPageEP15KPageWidgetItem@Base 4.96.0
 _ZN11KPageWidget16staticMetaObjectE@Base 4.96.0
 _ZN11KPageWidget18currentPageChangedEP15KPageWidgetItemS1_@Base 4.96.0
 _ZN11KPageWidget7addPageEP15KPageWidgetItem@Base 4.96.0
 _ZN11KPageWidget7addPageEP7QWidgetRK7QString@Base 4.96.0
 _ZN11KPageWidgetC1EP7QWidget@Base 4.96.0
 _ZN11KPageWidgetC1ER18KPageWidgetPrivateP7QWidget@Base 4.96.0
 _ZN11KPageWidgetC2EP7QWidget@Base 4.96.0
 _ZN11KPageWidgetC2ER18KPageWidgetPrivateP7QWidget@Base 4.96.0
 _ZN11KPageWidgetD0Ev@Base 4.96.0
 _ZN11KPageWidgetD1Ev@Base 4.96.0
 _ZN11KPageWidgetD2Ev@Base 4.96.0
 _ZN11KPopupFrame11qt_metacallEN11QMetaObject4CallEiPPv@Base 4.96.0
 _ZN11KPopupFrame11qt_metacastEPKc@Base 4.96.0
 _ZN11KPopupFrame11resizeEventEP12QResizeEvent@Base 4.96.0
 _ZN11KPopupFrame13keyPressEventEP9QKeyEvent@Base 4.96.0
 _ZN11KPopupFrame13leaveModalityEv@Base 4.96.0
 _ZN11KPopupFrame13setMainWidgetEP7QWidget@Base 4.96.0
 _ZN11KPopupFrame16staticMetaObjectE@Base 4.96.0
 _ZN11KPopupFrame18KPopupFramePrivateC1EPS_@Base 4.96.0
 _ZN11KPopupFrame18KPopupFramePrivateC2EPS_@Base 4.96.0
 _ZN11KPopupFrame18KPopupFramePrivateD1Ev@Base 4.96.0
 _ZN11KPopupFrame18KPopupFramePrivateD2Ev@Base 4.96.0
 _ZN11KPopupFrame4execERK6QPoint@Base 4.96.0
 _ZN11KPopupFrame4execEii@Base 4.96.0
 _ZN11KPopupFrame5closeEi@Base 4.96.0
 _ZN11KPopupFrame5popupERK6QPoint@Base 4.96.0
 _ZN11KPopupFrame9hideEventEP10QHideEvent@Base 4.98.0
 _ZN11KPopupFrameC1EP7QWidget@Base 4.96.0
 _ZN11KPopupFrameC2EP7QWidget@Base 4.96.0
 _ZN11KPopupFrameD0Ev@Base 4.96.0
 _ZN11KPopupFrameD1Ev@Base 4.96.0
 _ZN11KPopupFrameD2Ev@Base 4.96.0
 _ZN11KXYSelector10drawMarkerEP8QPainterii@Base 4.96.0
 _ZN11KXYSelector10paintEventEP11QPaintEvent@Base 4.96.0
 _ZN11KXYSelector10wheelEventEP11QWheelEvent@Base 4.96.0
 _ZN11KXYSelector11qt_metacallEN11QMetaObject4CallEiPPv@Base 4.96.0
 _ZN11KXYSelector11qt_metacastEPKc@Base 4.96.0
 _ZN11KXYSelector11setPositionEii@Base 4.96.0
 _ZN11KXYSelector12drawContentsEP8QPainter@Base 4.96.0
 _ZN11KXYSelector12valueChangedEii@Base 4.96.0
 _ZN11KXYSelector14mouseMoveEventEP11QMouseEvent@Base 4.96.0
 _ZN11KXYSelector14setMarkerColorERK6QColor@Base 4.96.0
 _ZN11KXYSelector15mousePressEventEP11QMouseEvent@Base 4.96.0
 _ZN11KXYSelector16staticMetaObjectE@Base 4.96.0
 _ZN11KXYSelector7Private9setValuesEii@Base 4.96.0
 _ZN11KXYSelector8setRangeEiiii@Base 4.96.0
 _ZN11KXYSelector9setValuesEii@Base 4.96.0
 _ZN11KXYSelector9setXValueEi@Base 4.96.0
 _ZN11KXYSelector9setYValueEi@Base 4.96.0
 _ZN11KXYSelectorC1EP7QWidget@Base 4.96.0
 _ZN11KXYSelectorC2EP7QWidget@Base 4.96.0
 _ZN11KXYSelectorD0Ev@Base 4.96.0
 _ZN11KXYSelectorD1Ev@Base 4.96.0
 _ZN11KXYSelectorD2Ev@Base 4.96.0
 _ZN12KCapacityBar10paintEventEP11QPaintEvent@Base 4.96.0
 _ZN12KCapacityBar11changeEventEP6QEvent@Base 5.6.0+git20150110.0009+15.04
 _ZN12KCapacityBar11qt_metacallEN11QMetaObject4CallEiPPv@Base 4.96.0
 _ZN12KCapacityBar11qt_metacastEPKc@Base 4.96.0
 _ZN12KCapacityBar12setBarHeightEi@Base 4.96.0
 _ZN12KCapacityBar13setContinuousEb@Base 4.96.0
 _ZN12KCapacityBar15setDrawTextModeENS_12DrawTextModeE@Base 4.96.0
 _ZN12KCapacityBar16staticMetaObjectE@Base 4.96.0
 _ZN12KCapacityBar17setFillFullBlocksEb@Base 4.96.0
 _ZN12KCapacityBar26setHorizontalTextAlignmentE6QFlagsIN2Qt13AlignmentFlagEE@Base 4.96.0
 _ZN12KCapacityBar7setTextERK7QString@Base 4.96.0
 _ZN12KCapacityBar8setValueEi@Base 4.96.0
 _ZN12KCapacityBarC1ENS_12DrawTextModeEP7QWidget@Base 4.96.0
 _ZN12KCapacityBarC2ENS_12DrawTextModeEP7QWidget@Base 4.96.0
 _ZN12KCapacityBarD0Ev@Base 4.96.0
 _ZN12KCapacityBarD1Ev@Base 4.96.0
 _ZN12KCapacityBarD2Ev@Base 4.96.0
 _ZN12KColorButton10paintEventEP11QPaintEvent@Base 4.96.0
 _ZN12KColorButton11qt_metacallEN11QMetaObject4CallEiPPv@Base 4.96.0
 _ZN12KColorButton11qt_metacastEPKc@Base 4.96.0
 _ZN12KColorButton13keyPressEventEP9QKeyEvent@Base 4.96.0
 _ZN12KColorButton14dragEnterEventEP15QDragEnterEvent@Base 4.96.0
 _ZN12KColorButton14mouseMoveEventEP11QMouseEvent@Base 4.96.0
 _ZN12KColorButton15mousePressEventEP11QMouseEvent@Base 4.96.0
 _ZN12KColorButton15setDefaultColorERK6QColor@Base 4.96.0
 _ZN12KColorButton16staticMetaObjectE@Base 4.96.0
 _ZN12KColorButton19KColorButtonPrivate14_k_chooseColorEv@Base 4.96.0
 _ZN12KColorButton19KColorButtonPrivate14_k_colorChosenEv@Base 4.96.0
 _ZN12KColorButton19KColorButtonPrivateC1EPS_@Base 4.96.0
 _ZN12KColorButton19KColorButtonPrivateC2EPS_@Base 4.96.0
 _ZN12KColorButton22setAlphaChannelEnabledEb@Base 4.96.0
 _ZN12KColorButton7changedERK6QColor@Base 4.96.0
 _ZN12KColorButton8setColorERK6QColor@Base 4.96.0
 _ZN12KColorButton9dropEventEP10QDropEvent@Base 4.96.0
 _ZN12KColorButtonC1EP7QWidget@Base 4.96.0
 _ZN12KColorButtonC1ERK6QColorP7QWidget@Base 4.96.0
 _ZN12KColorButtonC1ERK6QColorS2_P7QWidget@Base 4.96.0
 _ZN12KColorButtonC2EP7QWidget@Base 4.96.0
 _ZN12KColorButtonC2ERK6QColorP7QWidget@Base 4.96.0
 _ZN12KColorButtonC2ERK6QColorS2_P7QWidget@Base 4.96.0
 _ZN12KColorButtonD0Ev@Base 4.96.0
 _ZN12KColorButtonD1Ev@Base 4.96.0
 _ZN12KColorButtonD2Ev@Base 4.96.0
 _ZN12KFontChooser11getFontListER11QStringListj@Base 4.96.0
 _ZN12KFontChooser11qt_metacallEN11QMetaObject4CallEiPPv@Base 4.96.0
 _ZN12KFontChooser11qt_metacastEPKc@Base 4.96.0
 _ZN12KFontChooser12enableColumnEib@Base 4.96.0
 _ZN12KFontChooser12fontSelectedERK5QFont@Base 4.96.0
 _ZN12KFontChooser13setSampleTextERK7QString@Base 4.96.0
 _ZN12KFontChooser16staticMetaObjectE@Base 4.96.0
 _ZN12KFontChooser17setSizeIsRelativeEN2Qt10CheckStateE@Base 4.96.0
 _ZN12KFontChooser18setBackgroundColorERK6QColor@Base 4.96.0
 _ZN12KFontChooser19setSampleBoxVisibleEb@Base 4.96.0
 _ZN12KFontChooser7Private12fillSizeListERK5QListIdE@Base 4.96.0
 _ZN12KFontChooser7Private12setupDisplayEv@Base 4.96.0
 _ZN12KFontChooser7Private14nearestSizeRowEdb@Base 4.96.0
 _ZN12KFontChooser7Private15styleIdentifierERK5QFont@Base 4.96.0
 _ZN12KFontChooser7Private16_k_displaySampleERK5QFont@Base 4.96.0
 _ZN12KFontChooser7Private16setupSizeListBoxERK7QStringS3_@Base 4.96.0
 _ZN12KFontChooser7Private17fillFamilyListBoxEb@Base 4.96.0
 _ZN12KFontChooser7Private17setFamilyBoxItemsERK11QStringList@Base 4.96.0
 _ZN12KFontChooser7Private18_k_size_value_slotEd@Base 4.96.0
 _ZN12KFontChooser7Private19_k_size_chosen_slotERK7QString@Base 4.96.0
 _ZN12KFontChooser7Private19_k_toggled_checkboxEv@Base 4.96.0
 _ZN12KFontChooser7Private20_k_style_chosen_slotERK7QString@Base 4.96.0
 _ZN12KFontChooser7Private21_k_family_chosen_slotERK7QString@Base 4.96.0
 _ZN12KFontChooser7setFontERK5QFontb@Base 4.96.0
 _ZN12KFontChooser8setColorERK6QColor@Base 4.96.0
 _ZN12KFontChooserC1EP7QWidgetRK6QFlagsINS_11DisplayFlagEERK11QStringListiPN2Qt10CheckStateE@Base 4.96.0
 _ZN12KFontChooserC2EP7QWidgetRK6QFlagsINS_11DisplayFlagEERK11QStringListiPN2Qt10CheckStateE@Base 4.96.0
 _ZN12KFontChooserD0Ev@Base 4.96.0
 _ZN12KFontChooserD1Ev@Base 4.96.0
 _ZN12KFontChooserD2Ev@Base 4.96.0
 _ZN12KMultiTabBar10fontChangeERK5QFont@Base 4.96.0
 _ZN12KMultiTabBar11qt_metacallEN11QMetaObject4CallEiPPv@Base 4.96.0
 _ZN12KMultiTabBar11qt_metacastEPKc@Base 4.96.0
 _ZN12KMultiTabBar11setPositionENS_20KMultiTabBarPositionE@Base 4.96.0
 _ZN12KMultiTabBar12appendButtonERK5QIconiP5QMenuRK7QString@Base 5.13.0
 _ZN12KMultiTabBar12appendButtonERK7QPixmapiP5QMenuRK7QString@Base 4.96.0
 _ZN12KMultiTabBar12removeButtonEi@Base 4.96.0
 _ZN12KMultiTabBar15updateSeparatorEv@Base 4.96.0
 _ZN12KMultiTabBar16staticMetaObjectE@Base 4.96.0
 _ZN12KMultiTabBar6setTabEib@Base 4.96.0
 _ZN12KMultiTabBar8setStyleENS_17KMultiTabBarStyleE@Base 4.96.0
 _ZN12KMultiTabBar9appendTabERK5QIconiRK7QString@Base 5.13.0
 _ZN12KMultiTabBar9appendTabERK7QPixmapiRK7QString@Base 4.96.0
 _ZN12KMultiTabBar9removeTabEi@Base 4.96.0
 _ZN12KMultiTabBarC1ENS_20KMultiTabBarPositionEP7QWidget@Base 4.96.0
 _ZN12KMultiTabBarC2ENS_20KMultiTabBarPositionEP7QWidget@Base 4.96.0
 _ZN12KMultiTabBarD0Ev@Base 4.96.0
 _ZN12KMultiTabBarD1Ev@Base 4.96.0
 _ZN12KMultiTabBarD2Ev@Base 4.96.0
 _ZN12KTitleWidget10setCommentERK7QStringNS_11MessageTypeE@Base 4.96.0
 _ZN12KTitleWidget11changeEventEP6QEvent@Base 4.96.0
 _ZN12KTitleWidget11eventFilterEP7QObjectP6QEvent@Base 4.96.0
 _ZN12KTitleWidget11qt_metacallEN11QMetaObject4CallEiPPv@Base 4.96.0
 _ZN12KTitleWidget11qt_metacastEPKc@Base 4.96.0
 _ZN12KTitleWidget16staticMetaObjectE@Base 4.96.0
 _ZN12KTitleWidget18setAutoHideTimeoutEi@Base 4.96.0
 _ZN12KTitleWidget7Private18iconTypeToIconNameENS_11MessageTypeE@Base 4.96.0
 _ZN12KTitleWidget7setTextERK7QString6QFlagsIN2Qt13AlignmentFlagEE@Base 4.96.0
 _ZN12KTitleWidget7setTextERK7QStringNS_11MessageTypeE@Base 4.96.0
 _ZN12KTitleWidget8setBuddyEP7QWidget@Base 4.96.0
 _ZN12KTitleWidget9setPixmapENS_11MessageTypeENS_14ImageAlignmentE@Base 4.96.0
 _ZN12KTitleWidget9setPixmapERK5QIconNS_14ImageAlignmentE@Base 4.96.0
 _ZN12KTitleWidget9setPixmapERK7QPixmapNS_14ImageAlignmentE@Base 4.96.0
 _ZN12KTitleWidget9setPixmapERK7QStringNS_14ImageAlignmentE@Base 4.96.0
 _ZN12KTitleWidget9setWidgetEP7QWidget@Base 4.96.0
 _ZN12KTitleWidget9showEventEP10QShowEvent@Base 4.96.0
 _ZN12KTitleWidgetC1EP7QWidget@Base 4.96.0
 _ZN12KTitleWidgetC2EP7QWidget@Base 4.96.0
 _ZN12KTitleWidgetD0Ev@Base 4.96.0
 _ZN12KTitleWidgetD1Ev@Base 4.96.0
 _ZN12KTitleWidgetD2Ev@Base 4.96.0
 _ZN13KDateComboBox10assignDateERK5QDate@Base 4.96.0
 _ZN13KDateComboBox10dateEditedERK5QDate@Base 4.96.0
 _ZN13KDateComboBox10setDateMapE4QMapI5QDate7QStringE@Base 4.96.0
 _ZN13KDateComboBox10setOptionsE6QFlagsINS_6OptionEE@Base 4.96.0
 _ZN13KDateComboBox10wheelEventEP11QWheelEvent@Base 4.96.0
 _ZN13KDateComboBox11dateChangedERK5QDate@Base 4.96.0
 _ZN13KDateComboBox11dateEnteredERK5QDate@Base 4.96.0
 _ZN13KDateComboBox11eventFilterEP7QObjectP6QEvent@Base 4.96.0
 _ZN13KDateComboBox11qt_metacallEN11QMetaObject4CallEiPPv@Base 4.96.0
 _ZN13KDateComboBox11qt_metacastEPKc@Base 4.96.0
 _ZN13KDateComboBox11resizeEventEP12QResizeEvent@Base 4.96.0
 _ZN13KDateComboBox12focusInEventEP11QFocusEvent@Base 4.96.0
 _ZN13KDateComboBox12setDateRangeERK5QDateS2_RK7QStringS5_@Base 4.96.0
 _ZN13KDateComboBox13focusOutEventEP11QFocusEvent@Base 4.96.0
 _ZN13KDateComboBox13keyPressEventEP9QKeyEvent@Base 4.96.0
 _ZN13KDateComboBox14resetDateRangeEv@Base 4.96.0
 _ZN13KDateComboBox14setMaximumDateERK5QDateRK7QString@Base 4.96.0
 _ZN13KDateComboBox14setMinimumDateERK5QDateRK7QString@Base 4.96.0
 _ZN13KDateComboBox15mousePressEventEP11QMouseEvent@Base 4.96.0
 _ZN13KDateComboBox16resetMaximumDateEv@Base 4.96.0
 _ZN13KDateComboBox16resetMinimumDateEv@Base 4.96.0
 _ZN13KDateComboBox16setDisplayFormatEN7QLocale10FormatTypeE@Base 4.96.0
 _ZN13KDateComboBox16staticMetaObjectE@Base 4.96.0
 _ZN13KDateComboBox7setDateERK5QDate@Base 4.96.0
 _ZN13KDateComboBox9hidePopupEv@Base 4.96.0
 _ZN13KDateComboBox9showPopupEv@Base 4.96.0
 _ZN13KDateComboBoxC1EP7QWidget@Base 4.96.0
 _ZN13KDateComboBoxC2EP7QWidget@Base 4.96.0
 _ZN13KDateComboBoxD0Ev@Base 4.96.0
 _ZN13KDateComboBoxD1Ev@Base 4.96.0
 _ZN13KDateComboBoxD2Ev@Base 4.96.0
 _ZN13KDateTimeEdit10assignDateERK5QDate@Base 4.96.0
 _ZN13KDateTimeEdit10assignTimeERK5QTime@Base 4.96.0
 _ZN13KDateTimeEdit10dateEditedERK5QDate@Base 4.96.0
 _ZN13KDateTimeEdit10setDateMapE4QMapI5QDate7QStringE@Base 4.96.0
 _ZN13KDateTimeEdit10setOptionsE6QFlagsINS_6OptionEE@Base 4.96.0
 _ZN13KDateTimeEdit10timeEditedERK5QTime@Base 4.96.0
 _ZN13KDateTimeEdit11dateChangedERK5QDate@Base 4.96.0
 _ZN13KDateTimeEdit11dateEnteredERK5QDate@Base 4.96.0
 _ZN13KDateTimeEdit11eventFilterEP7QObjectP6QEvent@Base 4.96.0
 _ZN13KDateTimeEdit11qt_metacallEN11QMetaObject4CallEiPPv@Base 4.96.0
 _ZN13KDateTimeEdit11qt_metacastEPKc@Base 4.96.0
 _ZN13KDateTimeEdit11resizeEventEP12QResizeEvent@Base 4.96.0
 _ZN13KDateTimeEdit11setDateTimeERK9QDateTime@Base 4.96.0
 _ZN13KDateTimeEdit11setTimeListE5QListI5QTimeERK7QStringS5_@Base 4.96.0
 _ZN13KDateTimeEdit11setTimeZoneERK9QTimeZone@Base 4.96.0
 _ZN13KDateTimeEdit11timeChangedERK5QTime@Base 4.96.0
 _ZN13KDateTimeEdit11timeEnteredERK5QTime@Base 4.96.0
 _ZN13KDateTimeEdit12focusInEventEP11QFocusEvent@Base 4.96.0
 _ZN13KDateTimeEdit12setTimeZonesERK5QListI9QTimeZoneE@Base 4.96.0
 _ZN13KDateTimeEdit13focusOutEventEP11QFocusEvent@Base 4.96.0
 _ZN13KDateTimeEdit14assignDateTimeERK9QDateTime@Base 4.96.0
 _ZN13KDateTimeEdit14assignTimeZoneERK9QTimeZone@Base 4.96.0
 _ZN13KDateTimeEdit14dateTimeEditedERK9QDateTime@Base 4.96.0
 _ZN13KDateTimeEdit15calendarChangedERK7QLocale@Base 4.96.0
 _ZN13KDateTimeEdit15calendarEnteredERK7QLocale@Base 4.96.0
 _ZN13KDateTimeEdit15dateTimeChangedERK9QDateTime@Base 4.96.0
 _ZN13KDateTimeEdit15dateTimeEnteredERK9QDateTime@Base 4.96.0
 _ZN13KDateTimeEdit15timeZoneChangedERK9QTimeZone@Base 4.96.0
 _ZN13KDateTimeEdit15timeZoneEnteredERK9QTimeZone@Base 4.96.0
 _ZN13KDateTimeEdit16setDateTimeRangeERK9QDateTimeS2_RK7QStringS5_@Base 4.96.0
 _ZN13KDateTimeEdit16staticMetaObjectE@Base 4.96.0
 _ZN13KDateTimeEdit18resetDateTimeRangeEv@Base 4.96.0
 _ZN13KDateTimeEdit18setMaximumDateTimeERK9QDateTimeRK7QString@Base 4.96.0
 _ZN13KDateTimeEdit18setMinimumDateTimeERK9QDateTimeRK7QString@Base 4.96.0
 _ZN13KDateTimeEdit19setTimeListIntervalEi@Base 4.96.0
 _ZN13KDateTimeEdit20resetMaximumDateTimeEv@Base 4.96.0
 _ZN13KDateTimeEdit20resetMinimumDateTimeEv@Base 4.96.0
 _ZN13KDateTimeEdit20setDateDisplayFormatEN7QLocale10FormatTypeE@Base 4.96.0
 _ZN13KDateTimeEdit20setTimeDisplayFormatEN7QLocale10FormatTypeE@Base 4.96.0
 _ZN13KDateTimeEdit22setCalendarLocalesListERK5QListI7QLocaleE@Base 4.96.0
 _ZN13KDateTimeEdit7setDateERK5QDate@Base 4.96.0
 _ZN13KDateTimeEdit7setTimeERK5QTime@Base 4.96.0
 _ZN13KDateTimeEditC1EP7QWidget@Base 4.96.0
 _ZN13KDateTimeEditC2EP7QWidget@Base 4.96.0
 _ZN13KDateTimeEditD0Ev@Base 4.96.0
 _ZN13KDateTimeEditD1Ev@Base 4.96.0
 _ZN13KDateTimeEditD2Ev@Base 4.96.0
 _ZN13KRatingWidget10leaveEventEP6QEvent@Base 4.96.0
 _ZN13KRatingWidget10paintEventEP11QPaintEvent@Base 4.96.0
 _ZN13KRatingWidget10setSpacingEi@Base 4.96.0
 _ZN13KRatingWidget11qt_metacallEN11QMetaObject4CallEiPPv@Base 4.96.0
 _ZN13KRatingWidget11qt_metacastEPKc@Base 4.96.0
 _ZN13KRatingWidget11resizeEventEP12QResizeEvent@Base 4.96.0
 _ZN13KRatingWidget12setAlignmentE6QFlagsIN2Qt13AlignmentFlagEE@Base 4.96.0
 _ZN13KRatingWidget12setMaxRatingEi@Base 4.96.0
 _ZN13KRatingWidget12setMaxRatingEj@Base 4.96.0
 _ZN13KRatingWidget13ratingChangedEi@Base 4.96.0
 _ZN13KRatingWidget13ratingChangedEj@Base 4.96.0
 _ZN13KRatingWidget13setPixmapSizeEi@Base 4.96.0
 _ZN13KRatingWidget14mouseMoveEventEP11QMouseEvent@Base 4.96.0
 _ZN13KRatingWidget15mousePressEventEP11QMouseEvent@Base 4.96.0
 _ZN13KRatingWidget15setCustomPixmapERK7QPixmap@Base 4.96.0
 _ZN13KRatingWidget16staticMetaObjectE@Base 4.96.0
 _ZN13KRatingWidget18setLayoutDirectionEN2Qt15LayoutDirectionE@Base 4.96.0
 _ZN13KRatingWidget19setHalfStepsEnabledEb@Base 4.96.0
 _ZN13KRatingWidget21setOnlyPaintFullStepsEb@Base 4.96.0
 _ZN13KRatingWidget7setIconERK5QIcon@Base 4.96.0
 _ZN13KRatingWidget9setPixmapERK7QPixmap@Base 4.96.0
 _ZN13KRatingWidget9setRatingEi@Base 4.96.0
 _ZN13KRatingWidget9setRatingEj@Base 4.96.0
 _ZN13KRatingWidgetC1EP7QWidget@Base 4.96.0
 _ZN13KRatingWidgetC2EP7QWidget@Base 4.96.0
 _ZN13KRatingWidgetD0Ev@Base 4.96.0
 _ZN13KRatingWidgetD1Ev@Base 4.96.0
 _ZN13KRatingWidgetD2Ev@Base 4.96.0
 _ZN13KSelectAction10changeItemEiRK7QString@Base 4.96.0
 _ZN13KSelectAction11eventFilterEP7QObjectP6QEvent@Base 4.96.0
 _ZN13KSelectAction11qt_metacallEN11QMetaObject4CallEiPPv@Base 4.96.0
 _ZN13KSelectAction11qt_metacastEPKc@Base 4.96.0
 _ZN13KSelectAction11setEditableEb@Base 4.96.0
 _ZN13KSelectAction11slotToggledEb@Base 4.96.0
 _ZN13KSelectAction12createWidgetEP7QWidget@Base 4.96.0
 _ZN13KSelectAction12deleteWidgetEP7QWidget@Base 4.96.0
 _ZN13KSelectAction12insertActionEP7QActionS1_@Base 4.96.0
 _ZN13KSelectAction12removeActionEP7QAction@Base 4.96.0
 _ZN13KSelectAction13setComboWidthEi@Base 4.96.0
 _ZN13KSelectAction14setCurrentItemEi@Base 4.96.0
 _ZN13KSelectAction14setToolBarModeENS_11ToolBarModeE@Base 4.96.0
 _ZN13KSelectAction15actionTriggeredEP7QAction@Base 4.96.0
 _ZN13KSelectAction16removeAllActionsEv@Base 4.96.0
 _ZN13KSelectAction16setCurrentActionEP7QAction@Base 4.96.0
 _ZN13KSelectAction16setCurrentActionERK7QStringN2Qt15CaseSensitivityE@Base 4.96.0
 _ZN13KSelectAction16staticMetaObjectE@Base 4.96.0
 _ZN13KSelectAction20setMaxComboViewCountEi@Base 4.96.0
 _ZN13KSelectAction20setMenuAccelsEnabledEb@Base 4.96.0
 _ZN13KSelectAction22setToolButtonPopupModeEN11QToolButton19ToolButtonPopupModeE@Base 4.96.0
 _ZN13KSelectAction5clearEv@Base 4.96.0
 _ZN13KSelectAction5eventEP6QEvent@Base 4.96.0
 _ZN13KSelectAction8setItemsERK11QStringList@Base 4.96.0
 _ZN13KSelectAction9addActionEP7QAction@Base 4.96.0
 _ZN13KSelectAction9addActionERK5QIconRK7QString@Base 4.96.0
 _ZN13KSelectAction9addActionERK7QString@Base 4.96.0
 _ZN13KSelectAction9triggeredEP7QAction@Base 4.96.0
 _ZN13KSelectAction9triggeredERK7QString@Base 4.96.0
 _ZN13KSelectAction9triggeredEi@Base 4.96.0
 _ZN13KSelectActionC1EP7QObject@Base 4.96.0
 _ZN13KSelectActionC1ER20KSelectActionPrivateP7QObject@Base 4.96.0
 _ZN13KSelectActionC1ERK5QIconRK7QStringP7QObject@Base 4.96.0
 _ZN13KSelectActionC1ERK7QStringP7QObject@Base 4.96.0
 _ZN13KSelectActionC2EP7QObject@Base 4.96.0
 _ZN13KSelectActionC2ER20KSelectActionPrivateP7QObject@Base 4.96.0
 _ZN13KSelectActionC2ERK5QIconRK7QStringP7QObject@Base 4.96.0
 _ZN13KSelectActionC2ERK7QStringP7QObject@Base 4.96.0
 _ZN13KSelectActionD0Ev@Base 4.96.0
 _ZN13KSelectActionD1Ev@Base 4.96.0
 _ZN13KSelectActionD2Ev@Base 4.96.0
 _ZN13KTimeComboBox10assignTimeERK5QTime@Base 4.96.0
 _ZN13KTimeComboBox10setOptionsE6QFlagsINS_6OptionEE@Base 4.96.0
 _ZN13KTimeComboBox10timeEditedERK5QTime@Base 4.96.0
 _ZN13KTimeComboBox10wheelEventEP11QWheelEvent@Base 4.96.0
 _ZN13KTimeComboBox11eventFilterEP7QObjectP6QEvent@Base 4.96.0
 _ZN13KTimeComboBox11qt_metacallEN11QMetaObject4CallEiPPv@Base 4.96.0
 _ZN13KTimeComboBox11qt_metacastEPKc@Base 4.96.0
 _ZN13KTimeComboBox11resizeEventEP12QResizeEvent@Base 4.96.0
 _ZN13KTimeComboBox11setTimeListE5QListI5QTimeERK7QStringS5_@Base 4.96.0
 _ZN13KTimeComboBox11timeChangedERK5QTime@Base 4.96.0
 _ZN13KTimeComboBox11timeEnteredERK5QTime@Base 4.96.0
 _ZN13KTimeComboBox12focusInEventEP11QFocusEvent@Base 4.96.0
 _ZN13KTimeComboBox12setTimeRangeERK5QTimeS2_RK7QStringS5_@Base 4.96.0
 _ZN13KTimeComboBox13focusOutEventEP11QFocusEvent@Base 4.96.0
 _ZN13KTimeComboBox13keyPressEventEP9QKeyEvent@Base 4.96.0
 _ZN13KTimeComboBox14resetTimeRangeEv@Base 4.96.0
 _ZN13KTimeComboBox14setMaximumTimeERK5QTimeRK7QString@Base 4.96.0
 _ZN13KTimeComboBox14setMinimumTimeERK5QTimeRK7QString@Base 4.96.0
 _ZN13KTimeComboBox15mousePressEventEP11QMouseEvent@Base 4.96.0
 _ZN13KTimeComboBox16resetMaximumTimeEv@Base 4.96.0
 _ZN13KTimeComboBox16resetMinimumTimeEv@Base 4.96.0
 _ZN13KTimeComboBox16setDisplayFormatEN7QLocale10FormatTypeE@Base 4.96.0
 _ZN13KTimeComboBox16staticMetaObjectE@Base 4.96.0
 _ZN13KTimeComboBox19setTimeListIntervalEi@Base 4.96.0
 _ZN13KTimeComboBox7setTimeERK5QTime@Base 4.96.0
 _ZN13KTimeComboBox9hidePopupEv@Base 4.96.0
 _ZN13KTimeComboBox9showPopupEv@Base 4.96.0
 _ZN13KTimeComboBoxC1EP7QWidget@Base 4.96.0
 _ZN13KTimeComboBoxC2EP7QWidget@Base 4.96.0
 _ZN13KTimeComboBoxD0Ev@Base 4.96.0
 _ZN13KTimeComboBoxD1Ev@Base 4.96.0
 _ZN13KTimeComboBoxD2Ev@Base 4.96.0
 _ZN13KToggleAction11qt_metacallEN11QMetaObject4CallEiPPv@Base 4.96.0
 _ZN13KToggleAction11qt_metacastEPKc@Base 4.96.0
 _ZN13KToggleAction11slotToggledEb@Base 4.96.0
 _ZN13KToggleAction15setCheckedStateERK8KGuiItem@Base 4.96.0
 _ZN13KToggleAction16staticMetaObjectE@Base 4.96.0
 _ZN13KToggleActionC1EP7QObject@Base 4.96.0
 _ZN13KToggleActionC1ERK5QIconRK7QStringP7QObject@Base 4.96.0
 _ZN13KToggleActionC1ERK7QStringP7QObject@Base 4.96.0
 _ZN13KToggleActionC2EP7QObject@Base 4.96.0
 _ZN13KToggleActionC2ERK5QIconRK7QStringP7QObject@Base 4.96.0
 _ZN13KToggleActionC2ERK7QStringP7QObject@Base 4.96.0
 _ZN13KToggleActionD0Ev@Base 4.96.0
 _ZN13KToggleActionD1Ev@Base 4.96.0
 _ZN13KToggleActionD2Ev@Base 4.96.0
 _ZN14KColumnResizer11eventFilterEP7QObjectP6QEvent@Base 5.2.0
 _ZN14KColumnResizer11qt_metacallEN11QMetaObject4CallEiPPv@Base 5.2.0
 _ZN14KColumnResizer11qt_metacastEPKc@Base 5.2.0
 _ZN14KColumnResizer12removeWidgetEP7QWidget@Base 5.2.0
 _ZN14KColumnResizer16staticMetaObjectE@Base 5.2.0
 _ZN14KColumnResizer20addWidgetsFromLayoutEP7QLayouti@Base 5.2.0
 _ZN14KColumnResizer9addWidgetEP7QWidget@Base 5.2.0
 _ZN14KColumnResizerC1EP7QObject@Base 5.2.0
 _ZN14KColumnResizerC2EP7QObject@Base 5.2.0
 _ZN14KColumnResizerD0Ev@Base 5.2.0
 _ZN14KColumnResizerD1Ev@Base 5.2.0
 _ZN14KColumnResizerD2Ev@Base 5.2.0
 _ZN14KFontRequester11qt_metacallEN11QMetaObject4CallEiPPv@Base 4.96.0
 _ZN14KFontRequester11qt_metacastEPKc@Base 4.96.0
 _ZN14KFontRequester12fontSelectedERK5QFont@Base 4.96.0
 _ZN14KFontRequester13setSampleTextERK7QString@Base 4.96.0
 _ZN14KFontRequester16staticMetaObjectE@Base 4.96.0
 _ZN14KFontRequester21KFontRequesterPrivate10setToolTipEv@Base 4.96.0
 _ZN14KFontRequester21KFontRequesterPrivate16_k_buttonClickedEv@Base 4.96.0
 _ZN14KFontRequester21KFontRequesterPrivate17displaySampleTextEv@Base 4.96.0
 _ZN14KFontRequester7setFontERK5QFontb@Base 4.96.0
 _ZN14KFontRequester8setTitleERK7QString@Base 4.96.0
 _ZN14KFontRequesterC1EP7QWidgetb@Base 4.96.0
 _ZN14KFontRequesterC2EP7QWidgetb@Base 4.96.0
 _ZN14KFontRequesterD0Ev@Base 4.96.0
 _ZN14KFontRequesterD1Ev@Base 4.96.0
 _ZN14KFontRequesterD2Ev@Base 4.96.0
 _ZN14KMessageWidget10paintEventEP11QPaintEvent@Base 4.96.0
 _ZN14KMessageWidget11linkHoveredERK7QString@Base 4.96.0
 _ZN14KMessageWidget11qt_metacallEN11QMetaObject4CallEiPPv@Base 4.96.0
 _ZN14KMessageWidget11qt_metacastEPKc@Base 4.96.0
 _ZN14KMessageWidget11resizeEventEP12QResizeEvent@Base 4.96.0
 _ZN14KMessageWidget11setWordWrapEb@Base 4.96.0
 _ZN14KMessageWidget12animatedHideEv@Base 4.96.0
 _ZN14KMessageWidget12animatedShowEv@Base 4.96.0
 _ZN14KMessageWidget12removeActionEP7QAction@Base 4.96.0
 _ZN14KMessageWidget13linkActivatedERK7QString@Base 4.96.0
 _ZN14KMessageWidget14setMessageTypeENS_11MessageTypeE@Base 4.96.0
 _ZN14KMessageWidget16staticMetaObjectE@Base 4.96.0
 _ZN14KMessageWidget21hideAnimationFinishedEv@Base 4.96.0
 _ZN14KMessageWidget21setCloseButtonVisibleEb@Base 4.96.0
 _ZN14KMessageWidget21showAnimationFinishedEv@Base 4.96.0
 _ZN14KMessageWidget5eventEP6QEvent@Base 4.96.0
 _ZN14KMessageWidget7setIconERK5QIcon@Base 4.96.0
 _ZN14KMessageWidget7setTextERK7QString@Base 4.96.0
 _ZN14KMessageWidget9addActionEP7QAction@Base 4.96.0
 _ZN14KMessageWidgetC1EP7QWidget@Base 4.96.0
 _ZN14KMessageWidgetC1ERK7QStringP7QWidget@Base 4.96.0
 _ZN14KMessageWidgetC2EP7QWidget@Base 4.96.0
 _ZN14KMessageWidgetC2ERK7QStringP7QWidget@Base 4.96.0
 _ZN14KMessageWidgetD0Ev@Base 4.96.0
 _ZN14KMessageWidgetD1Ev@Base 4.96.0
 _ZN14KMessageWidgetD2Ev@Base 4.96.0
 _ZN14KRatingPainter10setEnabledEb@Base 4.96.0
 _ZN14KRatingPainter10setSpacingEi@Base 4.96.0
 _ZN14KRatingPainter11paintRatingEP8QPainterRK5QRect6QFlagsIN2Qt13AlignmentFlagEEii@Base 4.96.0
 _ZN14KRatingPainter12setAlignmentE6QFlagsIN2Qt13AlignmentFlagEE@Base 4.96.0
 _ZN14KRatingPainter12setMaxRatingEi@Base 4.96.0
 _ZN14KRatingPainter15setCustomPixmapERK7QPixmap@Base 4.96.0
 _ZN14KRatingPainter18setLayoutDirectionEN2Qt15LayoutDirectionE@Base 4.96.0
 _ZN14KRatingPainter19setHalfStepsEnabledEb@Base 4.96.0
 _ZN14KRatingPainter21getRatingFromPositionERK5QRect6QFlagsIN2Qt13AlignmentFlagEENS4_15LayoutDirectionERK6QPoint@Base 4.96.0
 _ZN14KRatingPainter7Private9getPixmapEiN5QIcon5StateE@Base 5.4.0+git20141117.0007
 _ZN14KRatingPainter7setIconERK5QIcon@Base 4.96.0
 _ZN14KRatingPainterC1Ev@Base 4.96.0
 _ZN14KRatingPainterC2Ev@Base 4.96.0
 _ZN14KRatingPainterD1Ev@Base 4.96.0
 _ZN14KRatingPainterD2Ev@Base 4.96.0
 _ZN15KActionSelector11eventFilterEP7QObjectP6QEvent@Base 4.96.0
 _ZN15KActionSelector11qt_metacallEN11QMetaObject4CallEiPPv@Base 4.96.0
 _ZN15KActionSelector11qt_metacastEPKc@Base 4.96.0
 _ZN15KActionSelector13keyPressEventEP9QKeyEvent@Base 4.96.0
 _ZN15KActionSelector13setButtonIconERK7QStringNS_10MoveButtonE@Base 4.96.0
 _ZN15KActionSelector16setButtonIconSetERK5QIconNS_10MoveButtonE@Base 4.96.0
 _ZN15KActionSelector16setButtonTooltipERK7QStringNS_10MoveButtonE@Base 4.96.0
 _ZN15KActionSelector16setSelectedLabelERK7QString@Base 4.96.0
 _ZN15KActionSelector16staticMetaObjectE@Base 4.96.0
 _ZN15KActionSelector17setAvailableLabelERK7QString@Base 4.96.0
 _ZN15KActionSelector17setButtonsEnabledEv@Base 4.96.0
 _ZN15KActionSelector18setButtonWhatsThisERK7QStringNS_10MoveButtonE@Base 4.96.0
 _ZN15KActionSelector18setKeyboardEnabledEb@Base 4.96.0
 _ZN15KActionSelector20setMoveOnDoubleClickEb@Base 4.96.0
 _ZN15KActionSelector20setShowUpDownButtonsEb@Base 4.96.0
 _ZN15KActionSelector26setSelectedInsertionPolicyENS_15InsertionPolicyE@Base 4.96.0
 _ZN15KActionSelector27setAvailableInsertionPolicyENS_15InsertionPolicyE@Base 4.96.0
 _ZN15KActionSelector5addedEP15QListWidgetItem@Base 4.96.0
 _ZN15KActionSelector7movedUpEP15QListWidgetItem@Base 4.96.0
 _ZN15KActionSelector7removedEP15QListWidgetItem@Base 4.96.0
 _ZN15KActionSelector9movedDownEP15QListWidgetItem@Base 4.96.0
 _ZN15KActionSelectorC1EP7QWidget@Base 4.96.0
 _ZN15KActionSelectorC2EP7QWidget@Base 4.96.0
 _ZN15KActionSelectorD0Ev@Base 4.96.0
 _ZN15KActionSelectorD1Ev@Base 4.96.0
 _ZN15KActionSelectorD2Ev@Base 4.96.0
 _ZN15KAnimatedButton11qt_metacallEN11QMetaObject4CallEiPPv@Base 4.96.0
 _ZN15KAnimatedButton11qt_metacastEPKc@Base 4.96.0
 _ZN15KAnimatedButton16setAnimationPathERK7QString@Base 4.96.0
 _ZN15KAnimatedButton16staticMetaObjectE@Base 4.96.0
 _ZN15KAnimatedButton4stopEv@Base 4.96.0
 _ZN15KAnimatedButton5startEv@Base 4.96.0
 _ZN15KAnimatedButtonC1EP7QWidget@Base 4.96.0
 _ZN15KAnimatedButtonC2EP7QWidget@Base 4.96.0
 _ZN15KAnimatedButtonD0Ev@Base 4.96.0
 _ZN15KAnimatedButtonD1Ev@Base 4.96.0
 _ZN15KAnimatedButtonD2Ev@Base 4.96.0
 _ZN15KEditListWidget10insertItemERK7QStringi@Base 4.96.0
 _ZN15KEditListWidget10moveItemUpEv@Base 4.96.0
 _ZN15KEditListWidget10removeItemEv@Base 4.96.0
 _ZN15KEditListWidget10setButtonsE6QFlagsINS_6ButtonEE@Base 4.96.0
 _ZN15KEditListWidget11eventFilterEP7QObjectP6QEvent@Base 4.96.0
 _ZN15KEditListWidget11qt_metacallEN11QMetaObject4CallEiPPv@Base 4.96.0
 _ZN15KEditListWidget11qt_metacastEPKc@Base 4.96.0
 _ZN15KEditListWidget12CustomEditor11setLineEditEP9QLineEdit@Base 4.96.0
 _ZN15KEditListWidget12CustomEditor23setRepresentationWidgetEP7QWidget@Base 4.96.0
 _ZN15KEditListWidget12CustomEditorC1EP7QWidgetP9QLineEdit@Base 4.96.0
 _ZN15KEditListWidget12CustomEditorC1EP9QComboBox@Base 4.96.0
 _ZN15KEditListWidget12CustomEditorC1Ev@Base 4.96.0
 _ZN15KEditListWidget12CustomEditorC2EP7QWidgetP9QLineEdit@Base 4.96.0
 _ZN15KEditListWidget12CustomEditorC2EP9QComboBox@Base 4.96.0
 _ZN15KEditListWidget12CustomEditorC2Ev@Base 4.96.0
 _ZN15KEditListWidget12CustomEditorD0Ev@Base 4.96.0
 _ZN15KEditListWidget12CustomEditorD1Ev@Base 4.96.0
 _ZN15KEditListWidget12CustomEditorD2Ev@Base 4.96.0
 _ZN15KEditListWidget12moveItemDownEv@Base 4.96.0
 _ZN15KEditListWidget14typedSomethingERK7QString@Base 4.96.0
 _ZN15KEditListWidget15checkAtEnteringEv@Base 4.96.0
 _ZN15KEditListWidget15setCustomEditorERKNS_12CustomEditorE@Base 4.96.0
 _ZN15KEditListWidget16insertStringListERK11QStringListi@Base 4.96.0
 _ZN15KEditListWidget16staticMetaObjectE@Base 4.96.0
 _ZN15KEditListWidget17enableMoveButtonsERK11QModelIndexS2_@Base 4.96.0
 _ZN15KEditListWidget18setCheckAtEnteringEb@Base 4.96.0
 _ZN15KEditListWidget20slotSelectionChangedERK14QItemSelectionS2_@Base 4.96.0
 _ZN15KEditListWidget5addedERK7QString@Base 4.96.0
 _ZN15KEditListWidget5clearEv@Base 4.96.0
 _ZN15KEditListWidget7addItemEv@Base 4.96.0
 _ZN15KEditListWidget7changedEv@Base 4.96.0
 _ZN15KEditListWidget7removedERK7QString@Base 4.96.0
 _ZN15KEditListWidget8setItemsERK11QStringList@Base 4.96.0
 _ZN15KEditListWidgetC1EP7QWidget@Base 4.96.0
 _ZN15KEditListWidgetC1ERKNS_12CustomEditorEP7QWidgetb6QFlagsINS_6ButtonEE@Base 4.96.0
 _ZN15KEditListWidgetC2EP7QWidget@Base 4.96.0
 _ZN15KEditListWidgetC2ERKNS_12CustomEditorEP7QWidgetb6QFlagsINS_6ButtonEE@Base 4.96.0
 _ZN15KEditListWidgetD0Ev@Base 4.96.0
 _ZN15KEditListWidgetD1Ev@Base 4.96.0
 _ZN15KEditListWidgetD2Ev@Base 4.96.0
 _ZN15KFontSizeAction11qt_metacallEN11QMetaObject4CallEiPPv@Base 4.96.0
 _ZN15KFontSizeAction11qt_metacastEPKc@Base 4.96.0
 _ZN15KFontSizeAction11setFontSizeEi@Base 4.96.0
 _ZN15KFontSizeAction15actionTriggeredEP7QAction@Base 4.96.0
 _ZN15KFontSizeAction15fontSizeChangedEi@Base 4.96.0
 _ZN15KFontSizeAction16staticMetaObjectE@Base 4.96.0
 _ZN15KFontSizeAction7Private4initEv@Base 4.96.0
 _ZN15KFontSizeActionC1EP7QObject@Base 4.96.0
 _ZN15KFontSizeActionC1ERK5QIconRK7QStringP7QObject@Base 4.96.0
 _ZN15KFontSizeActionC1ERK7QStringP7QObject@Base 4.96.0
 _ZN15KFontSizeActionC2EP7QObject@Base 4.96.0
 _ZN15KFontSizeActionC2ERK5QIconRK7QStringP7QObject@Base 4.96.0
 _ZN15KFontSizeActionC2ERK7QStringP7QObject@Base 4.96.0
 _ZN15KFontSizeActionD0Ev@Base 4.96.0
 _ZN15KFontSizeActionD1Ev@Base 4.96.0
 _ZN15KFontSizeActionD2Ev@Base 4.96.0
 _ZN15KMimeTypeEditor12editMimeTypeERK7QStringP7QWidget@Base 5.3.0+git20141027.0844
 _ZN15KMultiTabBarTab10paintEventEP11QPaintEvent@Base 4.96.0
 _ZN15KMultiTabBarTab11qt_metacallEN11QMetaObject4CallEiPPv@Base 4.96.0
 _ZN15KMultiTabBarTab11qt_metacastEPKc@Base 4.96.0
 _ZN15KMultiTabBarTab11setPositionEN12KMultiTabBar20KMultiTabBarPositionE@Base 4.96.0
 _ZN15KMultiTabBarTab16staticMetaObjectE@Base 4.96.0
 _ZN15KMultiTabBarTab7setIconERK7QPixmap@Base 4.96.0
 _ZN15KMultiTabBarTab7setIconERK7QString@Base 4.96.0
 _ZN15KMultiTabBarTab8setStateEb@Base 4.96.0
 _ZN15KMultiTabBarTab8setStyleEN12KMultiTabBar17KMultiTabBarStyleE@Base 4.96.0
 _ZN15KMultiTabBarTabC1ERK5QIconRK7QStringiP7QWidgetN12KMultiTabBar20KMultiTabBarPositionENS8_17KMultiTabBarStyleE@Base 5.13.0
 _ZN15KMultiTabBarTabC1ERK7QPixmapRK7QStringiP7QWidgetN12KMultiTabBar20KMultiTabBarPositionENS8_17KMultiTabBarStyleE@Base 4.96.0
 _ZN15KMultiTabBarTabC2ERK5QIconRK7QStringiP7QWidgetN12KMultiTabBar20KMultiTabBarPositionENS8_17KMultiTabBarStyleE@Base 5.13.0
 _ZN15KMultiTabBarTabC2ERK7QPixmapRK7QStringiP7QWidgetN12KMultiTabBar20KMultiTabBarPositionENS8_17KMultiTabBarStyleE@Base 4.96.0
 _ZN15KMultiTabBarTabD0Ev@Base 4.96.0
 _ZN15KMultiTabBarTabD1Ev@Base 4.96.0
 _ZN15KMultiTabBarTabD2Ev@Base 4.96.0
 _ZN15KPageWidgetItem10setCheckedEb@Base 4.96.0
 _ZN15KPageWidgetItem10setEnabledEb@Base 4.96.0
 _ZN15KPageWidgetItem11qt_metacallEN11QMetaObject4CallEiPPv@Base 4.96.0
 _ZN15KPageWidgetItem11qt_metacastEPKc@Base 4.96.0
 _ZN15KPageWidgetItem12setCheckableEb@Base 4.96.0
 _ZN15KPageWidgetItem16staticMetaObjectE@Base 4.96.0
 _ZN15KPageWidgetItem7changedEv@Base 4.96.0
 _ZN15KPageWidgetItem7setIconERK5QIcon@Base 4.96.0
 _ZN15KPageWidgetItem7setNameERK7QString@Base 4.96.0
 _ZN15KPageWidgetItem7toggledEb@Base 4.96.0
 _ZN15KPageWidgetItem9setHeaderERK7QString@Base 4.96.0
 _ZN15KPageWidgetItemC1EP7QWidget@Base 4.96.0
 _ZN15KPageWidgetItemC1EP7QWidgetRK7QString@Base 4.96.0
 _ZN15KPageWidgetItemC2EP7QWidget@Base 4.96.0
 _ZN15KPageWidgetItemC2EP7QWidgetRK7QString@Base 4.96.0
 _ZN15KPageWidgetItemD0Ev@Base 4.96.0
 _ZN15KPageWidgetItemD1Ev@Base 4.96.0
 _ZN15KPageWidgetItemD2Ev@Base 4.96.0
 _ZN15KPasswordDialog11gotPasswordERK7QStringb@Base 4.96.0
 _ZN15KPasswordDialog11qt_metacallEN11QMetaObject4CallEiPPv@Base 4.96.0
 _ZN15KPasswordDialog11qt_metacastEPKc@Base 4.96.0
 _ZN15KPasswordDialog11setPasswordERK7QString@Base 4.96.0
 _ZN15KPasswordDialog11setUsernameERK7QString@Base 4.96.0
 _ZN15KPasswordDialog13checkPasswordEv@Base 4.96.0
 _ZN15KPasswordDialog14addCommentLineERK7QStringS2_@Base 4.96.0
 _ZN15KPasswordDialog14setKnownLoginsERK4QMapI7QStringS1_E@Base 4.96.0
 _ZN15KPasswordDialog15setKeepPasswordEb@Base 4.96.0
 _ZN15KPasswordDialog16setAnonymousModeEb@Base 4.96.0
 _ZN15KPasswordDialog16showErrorMessageERK7QStringNS_9ErrorTypeE@Base 4.96.0
 _ZN15KPasswordDialog16staticMetaObjectE@Base 4.96.0
 _ZN15KPasswordDialog19setUsernameReadOnlyEb@Base 4.96.0
 _ZN15KPasswordDialog22KPasswordDialogPrivate12updateFieldsEv@Base 4.96.0
 _ZN15KPasswordDialog22KPasswordDialogPrivate14actuallyAcceptEv@Base 4.96.0
 _ZN15KPasswordDialog22KPasswordDialogPrivate14toggleEchoModeEv@Base 5.14.0
 _ZN15KPasswordDialog22KPasswordDialogPrivate24showToggleEchoModeActionERK7QString@Base 5.14.0
 _ZN15KPasswordDialog22KPasswordDialogPrivate4initEv@Base 4.96.0
 _ZN15KPasswordDialog22KPasswordDialogPrivate9activatedERK7QString@Base 4.96.0
 _ZN15KPasswordDialog22gotUsernameAndPasswordERK7QStringS2_b@Base 4.96.0
 _ZN15KPasswordDialog6acceptEv@Base 4.96.0
 _ZN15KPasswordDialog9setDomainERK7QString@Base 4.96.0
 _ZN15KPasswordDialog9setPixmapERK7QPixmap@Base 4.96.0
 _ZN15KPasswordDialog9setPromptERK7QString@Base 4.96.0
 _ZN15KPasswordDialogC1EP7QWidgetRK6QFlagsINS_19KPasswordDialogFlagEE@Base 4.96.0
 _ZN15KPasswordDialogC2EP7QWidgetRK6QFlagsINS_19KPasswordDialogFlagEE@Base 4.96.0
 _ZN15KPasswordDialogD0Ev@Base 4.96.0
 _ZN15KPasswordDialogD1Ev@Base 4.96.0
 _ZN15KPasswordDialogD2Ev@Base 4.96.0
 _ZN15KPixmapSequence7Private12loadSequenceERK7QPixmapRK5QSize@Base 4.96.0
 _ZN15KPixmapSequenceC1ERK7QPixmapRK5QSize@Base 4.96.0
 _ZN15KPixmapSequenceC1ERK7QStringi@Base 4.96.0
 _ZN15KPixmapSequenceC1ERKS_@Base 4.96.0
 _ZN15KPixmapSequenceC1Ev@Base 4.96.0
 _ZN15KPixmapSequenceC2ERK7QPixmapRK5QSize@Base 4.96.0
 _ZN15KPixmapSequenceC2ERK7QStringi@Base 4.96.0
 _ZN15KPixmapSequenceC2ERKS_@Base 4.96.0
 _ZN15KPixmapSequenceC2Ev@Base 4.96.0
 _ZN15KPixmapSequenceD1Ev@Base 4.96.0
 _ZN15KPixmapSequenceD2Ev@Base 4.96.0
 _ZN15KPixmapSequenceaSERKS_@Base 4.96.0
 _ZN16KAssistantDialog11qt_metacallEN11QMetaObject4CallEiPPv@Base 4.96.0
 _ZN16KAssistantDialog11qt_metacastEPKc@Base 4.96.0
 _ZN16KAssistantDialog14setAppropriateEP15KPageWidgetItemb@Base 4.96.0
 _ZN16KAssistantDialog16staticMetaObjectE@Base 4.96.0
 _ZN16KAssistantDialog4backEv@Base 4.96.0
 _ZN16KAssistantDialog4nextEv@Base 4.96.0
 _ZN16KAssistantDialog7Private20_k_slotUpdateButtonsEv@Base 4.96.0
 _ZN16KAssistantDialog7Private4initEv@Base 4.96.0
 _ZN16KAssistantDialog8setValidEP15KPageWidgetItemb@Base 4.96.0
 _ZN16KAssistantDialog9showEventEP10QShowEvent@Base 4.96.0
 _ZN16KAssistantDialogC1EP11KPageWidgetP7QWidget6QFlagsIN2Qt10WindowTypeEE@Base 4.96.0
 _ZN16KAssistantDialogC1EP7QWidget6QFlagsIN2Qt10WindowTypeEE@Base 4.96.0
 _ZN16KAssistantDialogC2EP11KPageWidgetP7QWidget6QFlagsIN2Qt10WindowTypeEE@Base 4.96.0
 _ZN16KAssistantDialogC2EP7QWidget6QFlagsIN2Qt10WindowTypeEE@Base 4.96.0
 _ZN16KAssistantDialogD0Ev@Base 4.96.0
 _ZN16KAssistantDialogD1Ev@Base 4.96.0
 _ZN16KAssistantDialogD2Ev@Base 4.96.0
 _ZN16KMimeTypeChooser11qt_metacallEN11QMetaObject4CallEiPPv@Base 4.96.0
 _ZN16KMimeTypeChooser11qt_metacastEPKc@Base 4.96.0
 _ZN16KMimeTypeChooser16staticMetaObjectE@Base 4.96.0
 _ZN16KMimeTypeChooserC1ERK7QStringRK11QStringListS2_S5_iP7QWidget@Base 4.96.0
 _ZN16KMimeTypeChooserC2ERK7QStringRK11QStringListS2_S5_iP7QWidget@Base 4.96.0
 _ZN16KMimeTypeChooserD0Ev@Base 4.96.0
 _ZN16KMimeTypeChooserD1Ev@Base 4.96.0
 _ZN16KMimeTypeChooserD2Ev@Base 4.96.0
 _ZN16KPageWidgetModel10addSubPageEP15KPageWidgetItemP7QWidgetRK7QString@Base 4.96.0
 _ZN16KPageWidgetModel10addSubPageEP15KPageWidgetItemS1_@Base 4.96.0
 _ZN16KPageWidgetModel10insertPageEP15KPageWidgetItemP7QWidgetRK7QString@Base 4.96.0
 _ZN16KPageWidgetModel10insertPageEP15KPageWidgetItemS1_@Base 4.96.0
 _ZN16KPageWidgetModel10removePageEP15KPageWidgetItem@Base 4.96.0
 _ZN16KPageWidgetModel11qt_metacallEN11QMetaObject4CallEiPPv@Base 4.96.0
 _ZN16KPageWidgetModel11qt_metacastEPKc@Base 4.96.0
 _ZN16KPageWidgetModel16staticMetaObjectE@Base 4.96.0
 _ZN16KPageWidgetModel7addPageEP15KPageWidgetItem@Base 4.96.0
 _ZN16KPageWidgetModel7addPageEP7QWidgetRK7QString@Base 4.96.0
 _ZN16KPageWidgetModel7setDataERK11QModelIndexRK8QVarianti@Base 4.96.0
 _ZN16KPageWidgetModel7toggledEP15KPageWidgetItemb@Base 4.96.0
 _ZN16KPageWidgetModelC1EP7QObject@Base 4.96.0
 _ZN16KPageWidgetModelC2EP7QObject@Base 4.96.0
 _ZN16KPageWidgetModelD0Ev@Base 4.96.0
 _ZN16KPageWidgetModelD1Ev@Base 4.96.0
 _ZN16KPageWidgetModelD2Ev@Base 4.96.0
 _ZN16KStandardGuiItem10propertiesEv@Base 4.96.0
 _ZN16KStandardGuiItem11closeWindowEv@Base 4.96.0
 _ZN16KStandardGuiItem12standardItemENS_12StandardItemE@Base 4.96.0
 _ZN16KStandardGuiItem13closeDocumentEv@Base 4.96.0
 _ZN16KStandardGuiItem14backAndForwardEv@Base 4.96.0
 _ZN16KStandardGuiItem2noEv@Base 4.96.0
 _ZN16KStandardGuiItem2okEv@Base 4.96.0
 _ZN16KStandardGuiItem3addEv@Base 4.96.0
 _ZN16KStandardGuiItem3delEv@Base 4.96.0
 _ZN16KStandardGuiItem3yesEv@Base 4.96.0
 _ZN16KStandardGuiItem4backENS_8BidiModeE@Base 4.96.0
 _ZN16KStandardGuiItem4contEv@Base 4.96.0
 _ZN16KStandardGuiItem4findEv@Base 4.96.0
 _ZN16KStandardGuiItem4helpEv@Base 4.96.0
 _ZN16KStandardGuiItem4openEv@Base 4.96.0
 _ZN16KStandardGuiItem4quitEv@Base 4.96.0
 _ZN16KStandardGuiItem4saveEv@Base 4.96.0
 _ZN16KStandardGuiItem4stopEv@Base 4.96.0
 _ZN16KStandardGuiItem4testEv@Base 4.96.0
 _ZN16KStandardGuiItem5applyEv@Base 4.96.0
 _ZN16KStandardGuiItem5clearEv@Base 4.96.0
 _ZN16KStandardGuiItem5closeEv@Base 4.96.0
 _ZN16KStandardGuiItem5printEv@Base 4.96.0
 _ZN16KStandardGuiItem5resetEv@Base 4.96.0
 _ZN16KStandardGuiItem6assignEP11QPushButtonNS_12StandardItemE@Base 4.96.0
 _ZN16KStandardGuiItem6cancelEv@Base 4.96.0
 _ZN16KStandardGuiItem6insertEv@Base 4.96.0
 _ZN16KStandardGuiItem6removeEv@Base 4.96.0
 _ZN16KStandardGuiItem6saveAsEv@Base 4.96.0
 _ZN16KStandardGuiItem7discardEv@Base 4.96.0
 _ZN16KStandardGuiItem7forwardENS_8BidiModeE@Base 4.96.0
 _ZN16KStandardGuiItem7guiItemENS_12StandardItemE@Base 4.96.0
 _ZN16KStandardGuiItem8defaultsEv@Base 4.96.0
 _ZN16KStandardGuiItem8dontSaveEv@Base 4.96.0
 _ZN16KStandardGuiItem9adminModeEv@Base 4.96.0
 _ZN16KStandardGuiItem9configureEv@Base 4.96.0
 _ZN16KStandardGuiItem9overwriteEv@Base 4.96.0
 _ZN16KStyleExtensions15customStyleHintERK7QStringPK7QWidget@Base 5.5.0+git20141217.1552+15.04
 _ZN16KStyleExtensions16customSubElementERK7QStringPK7QWidget@Base 5.5.0+git20141217.1552+15.04
 _ZN16KStyleExtensions20customControlElementERK7QStringPK7QWidget@Base 5.5.0+git20141217.1552+15.04
 _ZN17KGradientSelector11qt_metacallEN11QMetaObject4CallEiPPv@Base 4.96.0
 _ZN17KGradientSelector11qt_metacastEPKc@Base 4.96.0
 _ZN17KGradientSelector12drawContentsEP8QPainter@Base 4.96.0
 _ZN17KGradientSelector12setFirstTextERK7QString@Base 4.96.0
 _ZN17KGradientSelector13setFirstColorERK6QColor@Base 4.96.0
 _ZN17KGradientSelector13setSecondTextERK7QString@Base 4.96.0
 _ZN17KGradientSelector14setSecondColorERK6QColor@Base 4.96.0
 _ZN17KGradientSelector16staticMetaObjectE@Base 4.96.0
 _ZN17KGradientSelector7setTextERK7QStringS2_@Base 4.96.0
 _ZN17KGradientSelector8setStopsERK7QVectorI5QPairId6QColorEE@Base 4.96.0
 _ZN17KGradientSelector9setColorsERK6QColorS2_@Base 4.96.0
 _ZN17KGradientSelectorC1EN2Qt11OrientationEP7QWidget@Base 4.96.0
 _ZN17KGradientSelectorC1EP7QWidget@Base 4.96.0
 _ZN17KGradientSelectorC2EN2Qt11OrientationEP7QWidget@Base 4.96.0
 _ZN17KGradientSelectorC2EP7QWidget@Base 4.96.0
 _ZN17KGradientSelectorD0Ev@Base 4.96.0
 _ZN17KGradientSelectorD1Ev@Base 4.96.0
 _ZN17KGradientSelectorD2Ev@Base 4.96.0
 _ZN18KMultiTabBarButton10paintEventEP11QPaintEvent@Base 4.96.0
 _ZN18KMultiTabBarButton11qt_metacallEN11QMetaObject4CallEiPPv@Base 4.96.0
 _ZN18KMultiTabBarButton11qt_metacastEPKc@Base 4.96.0
 _ZN18KMultiTabBarButton11slotClickedEv@Base 4.96.0
 _ZN18KMultiTabBarButton16staticMetaObjectE@Base 4.96.0
 _ZN18KMultiTabBarButton7clickedEi@Base 4.96.0
 _ZN18KMultiTabBarButton7setTextERK7QString@Base 4.96.0
 _ZN18KMultiTabBarButton9hideEventEP10QHideEvent@Base 4.96.0
 _ZN18KMultiTabBarButton9showEventEP10QShowEvent@Base 4.96.0
 _ZN18KMultiTabBarButtonC1ERK5QIconRK7QStringiP7QWidget@Base 5.13.0
 _ZN18KMultiTabBarButtonC1ERK7QPixmapRK7QStringiP7QWidget@Base 4.96.0
 _ZN18KMultiTabBarButtonC2ERK5QIconRK7QStringiP7QWidget@Base 5.13.0
 _ZN18KMultiTabBarButtonC2ERK7QPixmapRK7QStringiP7QWidget@Base 4.96.0
 _ZN18KMultiTabBarButtonD0Ev@Base 4.96.0
 _ZN18KMultiTabBarButtonD1Ev@Base 4.96.0
 _ZN18KMultiTabBarButtonD2Ev@Base 4.96.0
 _ZN18KNewPasswordDialog11newPasswordERK7QString@Base 4.96.0
 _ZN18KNewPasswordDialog11qt_metacallEN11QMetaObject4CallEiPPv@Base 4.96.0
 _ZN18KNewPasswordDialog11qt_metacastEPKc@Base 4.96.0
 _ZN18KNewPasswordDialog13checkPasswordERK7QString@Base 4.96.0
 _ZN18KNewPasswordDialog16staticMetaObjectE@Base 4.96.0
 _ZN18KNewPasswordDialog19checkAndGetPasswordEP7QString@Base 4.96.0
 _ZN18KNewPasswordDialog22setAllowEmptyPasswordsEb@Base 4.96.0
 _ZN18KNewPasswordDialog24setMaximumPasswordLengthEi@Base 4.96.0
 _ZN18KNewPasswordDialog24setMinimumPasswordLengthEi@Base 4.96.0
 _ZN18KNewPasswordDialog25KNewPasswordDialogPrivate24_k_passwordStatusChangedEv@Base 5.16.0
 _ZN18KNewPasswordDialog25KNewPasswordDialogPrivate4initEv@Base 4.96.0
 _ZN18KNewPasswordDialog25setBackgroundWarningColorERK6QColor@Base 5.16.0
 _ZN18KNewPasswordDialog27setReasonablePasswordLengthEi@Base 4.96.0
 _ZN18KNewPasswordDialog31setPasswordStrengthWarningLevelEi@Base 4.96.0
 _ZN18KNewPasswordDialog6acceptEv@Base 4.96.0
 _ZN18KNewPasswordDialog9setPixmapERK7QPixmap@Base 4.96.0
 _ZN18KNewPasswordDialog9setPromptERK7QString@Base 4.96.0
 _ZN18KNewPasswordDialogC1EP7QWidget@Base 4.96.0
 _ZN18KNewPasswordDialogC2EP7QWidget@Base 4.96.0
 _ZN18KNewPasswordDialogD0Ev@Base 4.96.0
 _ZN18KNewPasswordDialogD1Ev@Base 4.96.0
 _ZN18KNewPasswordDialogD2Ev@Base 4.96.0
 _ZN18KNewPasswordWidget11qt_metacallEN11QMetaObject4CallEiPPv@Base 5.16.0
 _ZN18KNewPasswordWidget11qt_metacastEPKc@Base 5.16.0
 _ZN18KNewPasswordWidget16staticMetaObjectE@Base 5.16.0
 _ZN18KNewPasswordWidget21passwordStatusChangedEv@Base 5.16.0
 _ZN18KNewPasswordWidget22setAllowEmptyPasswordsEb@Base 5.16.0
 _ZN18KNewPasswordWidget24setMaximumPasswordLengthEi@Base 5.16.0
 _ZN18KNewPasswordWidget24setMinimumPasswordLengthEi@Base 5.16.0
 _ZN18KNewPasswordWidget25KNewPasswordWidgetPrivate14_k_textChangedEv@Base 5.16.0
 _ZN18KNewPasswordWidget25KNewPasswordWidgetPrivate17_k_toggleEchoModeEv@Base 5.16.0
 _ZN18KNewPasswordWidget25KNewPasswordWidgetPrivate20updatePasswordStatusENS_14PasswordStatusE@Base 5.16.0
 _ZN18KNewPasswordWidget25KNewPasswordWidgetPrivate23effectivePasswordLengthERK7QString@Base 5.16.0
 _ZN18KNewPasswordWidget25KNewPasswordWidgetPrivate27_k_showToggleEchoModeActionERK7QString@Base 5.16.0
 _ZN18KNewPasswordWidget25KNewPasswordWidgetPrivate4initEv@Base 5.16.0
 _ZN18KNewPasswordWidget25setBackgroundWarningColorERK6QColor@Base 5.16.0
 _ZN18KNewPasswordWidget27setReasonablePasswordLengthEi@Base 5.16.0
 _ZN18KNewPasswordWidget31setPasswordStrengthMeterVisibleEb@Base 5.16.0
 _ZN18KNewPasswordWidget31setPasswordStrengthWarningLevelEi@Base 5.16.0
 _ZN18KNewPasswordWidgetC1EP7QWidget@Base 5.16.0
 _ZN18KNewPasswordWidgetC2EP7QWidget@Base 5.16.0
 _ZN18KNewPasswordWidgetD0Ev@Base 5.16.0
 _ZN18KNewPasswordWidgetD1Ev@Base 5.16.0
 _ZN18KNewPasswordWidgetD2Ev@Base 5.16.0
 _ZN18KSqueezedTextLabel11qt_metacallEN11QMetaObject4CallEiPPv@Base 4.96.0
 _ZN18KSqueezedTextLabel11qt_metacastEPKc@Base 4.96.0
 _ZN18KSqueezedTextLabel11resizeEventEP12QResizeEvent@Base 4.96.0
 _ZN18KSqueezedTextLabel12setAlignmentE6QFlagsIN2Qt13AlignmentFlagEE@Base 4.96.0
 _ZN18KSqueezedTextLabel16contextMenuEventEP17QContextMenuEvent@Base 4.96.0
 _ZN18KSqueezedTextLabel16setTextElideModeEN2Qt13TextElideModeE@Base 4.96.0
 _ZN18KSqueezedTextLabel16staticMetaObjectE@Base 4.96.0
 _ZN18KSqueezedTextLabel17mouseReleaseEventEP11QMouseEvent@Base 4.96.0
 _ZN18KSqueezedTextLabel18squeezeTextToLabelEv@Base 4.96.0
 _ZN18KSqueezedTextLabel5clearEv@Base 4.96.0
 _ZN18KSqueezedTextLabel7setTextERK7QString@Base 4.96.0
 _ZN18KSqueezedTextLabelC1EP7QWidget@Base 4.96.0
 _ZN18KSqueezedTextLabelC1ERK7QStringP7QWidget@Base 4.96.0
 _ZN18KSqueezedTextLabelC2EP7QWidget@Base 4.96.0
 _ZN18KSqueezedTextLabelC2ERK7QStringP7QWidget@Base 4.96.0
 _ZN18KSqueezedTextLabelD0Ev@Base 4.96.0
 _ZN18KSqueezedTextLabelD1Ev@Base 4.96.0
 _ZN18KSqueezedTextLabelD2Ev@Base 4.96.0
 _ZN19KAcceleratorManager10setNoAccelEP7QWidget@Base 4.96.0
 _ZN19KAcceleratorManager11last_manageER7QStringS1_S1_@Base 4.96.0
 _ZN19KAcceleratorManager22addStandardActionNamesERK11QStringList@Base 4.96.0
 _ZN19KAcceleratorManager6manageEP7QWidgetb@Base 4.96.0
 _ZN19KToolBarLabelAction11eventFilterEP7QObjectP6QEvent@Base 4.96.0
 _ZN19KToolBarLabelAction11qt_metacallEN11QMetaObject4CallEiPPv@Base 4.96.0
 _ZN19KToolBarLabelAction11qt_metacastEPKc@Base 4.96.0
 _ZN19KToolBarLabelAction11textChangedERK7QString@Base 4.96.0
 _ZN19KToolBarLabelAction12createWidgetEP7QWidget@Base 4.96.0
 _ZN19KToolBarLabelAction16staticMetaObjectE@Base 4.96.0
 _ZN19KToolBarLabelAction5eventEP6QEvent@Base 4.96.0
 _ZN19KToolBarLabelAction8setBuddyEP7QAction@Base 4.96.0
 _ZN19KToolBarLabelActionC1EP7QActionRK7QStringP7QObject@Base 4.96.0
 _ZN19KToolBarLabelActionC1ERK7QStringP7QObject@Base 4.96.0
 _ZN19KToolBarLabelActionC2EP7QActionRK7QStringP7QObject@Base 4.96.0
 _ZN19KToolBarLabelActionC2ERK7QStringP7QObject@Base 4.96.0
 _ZN19KToolBarLabelActionD0Ev@Base 4.96.0
 _ZN19KToolBarLabelActionD1Ev@Base 4.96.0
 _ZN19KToolBarLabelActionD2Ev@Base 4.96.0
 _ZN19KToolBarPopupAction10setDelayedEb@Base 4.96.0
 _ZN19KToolBarPopupAction11qt_metacallEN11QMetaObject4CallEiPPv@Base 4.96.0
 _ZN19KToolBarPopupAction11qt_metacastEPKc@Base 4.96.0
 _ZN19KToolBarPopupAction12createWidgetEP7QWidget@Base 4.96.0
 _ZN19KToolBarPopupAction13setStickyMenuEb@Base 4.96.0
 _ZN19KToolBarPopupAction16staticMetaObjectE@Base 4.96.0
 _ZN19KToolBarPopupActionC1ERK5QIconRK7QStringP7QObject@Base 4.96.0
 _ZN19KToolBarPopupActionC2ERK5QIconRK7QStringP7QObject@Base 4.96.0
 _ZN19KToolBarPopupActionD0Ev@Base 4.96.0
 _ZN19KToolBarPopupActionD1Ev@Base 4.96.0
 _ZN19KToolBarPopupActionD2Ev@Base 4.96.0
 _ZN20KCollapsibleGroupBox10leaveEventEP6QEvent@Base 5.16.0
 _ZN20KCollapsibleGroupBox10paintEventEP11QPaintEvent@Base 5.16.0
 _ZN20KCollapsibleGroupBox11qt_metacallEN11QMetaObject4CallEiPPv@Base 5.16.0
 _ZN20KCollapsibleGroupBox11qt_metacastEPKc@Base 5.16.0
 _ZN20KCollapsibleGroupBox11resizeEventEP12QResizeEvent@Base 5.16.0
 _ZN20KCollapsibleGroupBox11setExpandedEb@Base 5.16.0
 _ZN20KCollapsibleGroupBox12titleChangedEv@Base 5.16.0
 _ZN20KCollapsibleGroupBox13keyPressEventEP9QKeyEvent@Base 5.16.0
 _ZN20KCollapsibleGroupBox14mouseMoveEventEP11QMouseEvent@Base 5.16.0
 _ZN20KCollapsibleGroupBox15expandedChangedEv@Base 5.16.0
 _ZN20KCollapsibleGroupBox15mousePressEventEP11QMouseEvent@Base 5.16.0
 _ZN20KCollapsibleGroupBox16staticMetaObjectE@Base 5.16.0
 _ZN20KCollapsibleGroupBox5eventEP6QEvent@Base 5.16.0
 _ZN20KCollapsibleGroupBox6expandEv@Base 5.16.0
 _ZN20KCollapsibleGroupBox6toggleEv@Base 5.16.0
 _ZN20KCollapsibleGroupBox8collapseEv@Base 5.16.0
 _ZN20KCollapsibleGroupBox8setTitleERK7QString@Base 5.16.0
 _ZN20KCollapsibleGroupBoxC1EP7QWidget@Base 5.16.0
 _ZN20KCollapsibleGroupBoxC2EP7QWidget@Base 5.16.0
 _ZN20KCollapsibleGroupBoxD0Ev@Base 5.16.0
 _ZN20KCollapsibleGroupBoxD1Ev@Base 5.16.0
 _ZN20KCollapsibleGroupBoxD2Ev@Base 5.16.0
 _ZN20KToolBarSpacerAction11qt_metacallEN11QMetaObject4CallEiPPv@Base 4.96.0
 _ZN20KToolBarSpacerAction11qt_metacastEPKc@Base 4.96.0
 _ZN20KToolBarSpacerAction12createWidgetEP7QWidget@Base 4.96.0
 _ZN20KToolBarSpacerAction16staticMetaObjectE@Base 4.96.0
 _ZN20KToolBarSpacerActionC1EP7QObject@Base 4.96.0
 _ZN20KToolBarSpacerActionC2EP7QObject@Base 4.96.0
 _ZN20KToolBarSpacerActionD0Ev@Base 4.96.0
 _ZN20KToolBarSpacerActionD1Ev@Base 4.96.0
 _ZN20KToolBarSpacerActionD2Ev@Base 4.96.0
 _ZN20KViewStateSerializer11qt_metacallEN11QMetaObject4CallEiPPv@Base 4.96.0
 _ZN20KViewStateSerializer11qt_metacastEPKc@Base 4.96.0
 _ZN20KViewStateSerializer12restoreStateEv@Base 4.96.0
 _ZN20KViewStateSerializer15restoreExpandedERK11QStringList@Base 4.96.0
 _ZN20KViewStateSerializer16restoreSelectionERK11QStringList@Base 4.96.0
 _ZN20KViewStateSerializer16staticMetaObjectE@Base 4.96.0
 _ZN20KViewStateSerializer17setSelectionModelEP19QItemSelectionModel@Base 4.96.0
 _ZN20KViewStateSerializer18restoreCurrentItemERK7QString@Base 4.96.0
 _ZN20KViewStateSerializer18restoreScrollStateEii@Base 4.96.0
 _ZN20KViewStateSerializer7setViewEP17QAbstractItemView@Base 4.96.0
 _ZN20KViewStateSerializerC1EP7QObject@Base 4.96.0
 _ZN20KViewStateSerializerC2EP7QObject@Base 4.96.0
 _ZN20KViewStateSerializerD0Ev@Base 4.96.0
 _ZN20KViewStateSerializerD1Ev@Base 4.96.0
 _ZN20KViewStateSerializerD2Ev@Base 4.96.0
 _ZN21KPixmapSequenceWidget11qt_metacallEN11QMetaObject4CallEiPPv@Base 4.96.0
 _ZN21KPixmapSequenceWidget11qt_metacastEPKc@Base 4.96.0
 _ZN21KPixmapSequenceWidget11setIntervalEi@Base 4.96.0
 _ZN21KPixmapSequenceWidget11setSequenceERK15KPixmapSequence@Base 4.96.0
 _ZN21KPixmapSequenceWidget16staticMetaObjectE@Base 4.96.0
 _ZN21KPixmapSequenceWidgetC1EP7QWidget@Base 4.96.0
 _ZN21KPixmapSequenceWidgetC1ERK15KPixmapSequenceP7QWidget@Base 4.96.0
 _ZN21KPixmapSequenceWidgetC2EP7QWidget@Base 4.96.0
 _ZN21KPixmapSequenceWidgetC2ERK15KPixmapSequenceP7QWidget@Base 4.96.0
 _ZN21KPixmapSequenceWidgetD0Ev@Base 4.96.0
 _ZN21KPixmapSequenceWidgetD1Ev@Base 4.96.0
 _ZN21KPixmapSequenceWidgetD2Ev@Base 4.96.0
 _ZN22KMimeTypeChooserDialog7Private4initEv@Base 4.96.0
 _ZN22KMimeTypeChooserDialog7chooserEv@Base 4.96.0
 _ZN22KMimeTypeChooserDialogC1ERK7QStringS2_RK11QStringListS2_P7QWidget@Base 4.96.0
 _ZN22KMimeTypeChooserDialogC1ERK7QStringS2_RK11QStringListS2_S5_iP7QWidget@Base 4.96.0
 _ZN22KMimeTypeChooserDialogC2ERK7QStringS2_RK11QStringListS2_P7QWidget@Base 4.96.0
 _ZN22KMimeTypeChooserDialogC2ERK7QStringS2_RK11QStringListS2_S5_iP7QWidget@Base 4.96.0
 _ZN22KMimeTypeChooserDialogD0Ev@Base 4.96.0
 _ZN22KMimeTypeChooserDialogD1Ev@Base 4.96.0
 _ZN22KMimeTypeChooserDialogD2Ev@Base 4.96.0
 _ZN23KToggleFullScreenAction11eventFilterEP7QObjectP6QEvent@Base 4.96.0
 _ZN23KToggleFullScreenAction11qt_metacallEN11QMetaObject4CallEiPPv@Base 4.96.0
 _ZN23KToggleFullScreenAction11qt_metacastEPKc@Base 4.96.0
 _ZN23KToggleFullScreenAction11slotToggledEb@Base 4.96.0
 _ZN23KToggleFullScreenAction13setFullScreenEP7QWidgetb@Base 4.96.0
 _ZN23KToggleFullScreenAction16staticMetaObjectE@Base 4.96.0
 _ZN23KToggleFullScreenAction9setWindowEP7QWidget@Base 4.96.0
 _ZN23KToggleFullScreenActionC1EP7QObject@Base 4.96.0
 _ZN23KToggleFullScreenActionC1EP7QWidgetP7QObject@Base 4.96.0
 _ZN23KToggleFullScreenActionC2EP7QObject@Base 4.96.0
 _ZN23KToggleFullScreenActionC2EP7QWidgetP7QObject@Base 4.96.0
 _ZN23KToggleFullScreenActionD0Ev@Base 4.96.0
 _ZN23KToggleFullScreenActionD1Ev@Base 4.96.0
 _ZN23KToggleFullScreenActionD2Ev@Base 4.96.0
 _ZN24KDragWidgetDecoratorBase10dragObjectEv@Base 4.96.0
 _ZN24KDragWidgetDecoratorBase11eventFilterEP7QObjectP6QEvent@Base 4.96.0
 _ZN24KDragWidgetDecoratorBase11qt_metacallEN11QMetaObject4CallEiPPv@Base 4.96.0
 _ZN24KDragWidgetDecoratorBase11qt_metacastEPKc@Base 4.96.0
 _ZN24KDragWidgetDecoratorBase14setDragEnabledEb@Base 4.96.0
 _ZN24KDragWidgetDecoratorBase16staticMetaObjectE@Base 4.96.0
 _ZN24KDragWidgetDecoratorBase9startDragEv@Base 4.96.0
 _ZN24KDragWidgetDecoratorBaseC1EP7QWidget@Base 4.96.0
 _ZN24KDragWidgetDecoratorBaseC2EP7QWidget@Base 4.96.0
 _ZN24KDragWidgetDecoratorBaseD0Ev@Base 4.96.0
 _ZN24KDragWidgetDecoratorBaseD1Ev@Base 4.96.0
 _ZN24KDragWidgetDecoratorBaseD2Ev@Base 4.96.0
 _ZN24KSplitterCollapserButton10enterEventEP6QEvent@Base 5.4.0+git20141119.0013+15.04
 _ZN24KSplitterCollapserButton10leaveEventEP6QEvent@Base 5.4.0+git20141119.0013+15.04
 _ZN24KSplitterCollapserButton10paintEventEP11QPaintEvent@Base 5.4.0+git20141119.0013+15.04
 _ZN24KSplitterCollapserButton11eventFilterEP7QObjectP6QEvent@Base 5.4.0+git20141119.0013+15.04
 _ZN24KSplitterCollapserButton11qt_metacallEN11QMetaObject4CallEiPPv@Base 5.4.0+git20141119.0013+15.04
 _ZN24KSplitterCollapserButton11qt_metacastEPKc@Base 5.4.0+git20141119.0013+15.04
 _ZN24KSplitterCollapserButton11slotClickedEv@Base 5.4.0+git20141119.0013+15.04
 _ZN24KSplitterCollapserButton12setCollapsedEb@Base 5.4.0+git20141119.0013+15.04
 _ZN24KSplitterCollapserButton16staticMetaObjectE@Base 5.4.0+git20141119.0013+15.04
 _ZN24KSplitterCollapserButton7Private11updateArrowEv@Base 5.4.0+git20141119.0013+15.04
 _ZN24KSplitterCollapserButton7Private13startTimeLineEv@Base 5.4.0+git20141119.0013+15.04
 _ZN24KSplitterCollapserButton7Private13updateOpacityEv@Base 5.4.0+git20141119.0013+15.04
 _ZN24KSplitterCollapserButton7Private14updatePositionEv@Base 5.4.0+git20141119.0013+15.04
 _ZN24KSplitterCollapserButton7Private17widgetEventFilterEP6QEvent@Base 5.4.0+git20141119.0013+15.04
 _ZN24KSplitterCollapserButton7PrivateC1EPS_@Base 5.4.0+git20141119.0013+15.04
 _ZN24KSplitterCollapserButton7PrivateC2EPS_@Base 5.4.0+git20141119.0013+15.04
 _ZN24KSplitterCollapserButton7restoreEv@Base 5.4.0+git20141119.0013+15.04
 _ZN24KSplitterCollapserButton8collapseEv@Base 5.4.0+git20141119.0013+15.04
 _ZN24KSplitterCollapserButton9showEventEP10QShowEvent@Base 5.4.0+git20141119.0013+15.04
 _ZN24KSplitterCollapserButtonC1EP7QWidgetP9QSplitter@Base 5.4.0+git20141119.0013+15.04
 _ZN24KSplitterCollapserButtonC2EP7QWidgetP9QSplitter@Base 5.4.0+git20141119.0013+15.04
 _ZN24KSplitterCollapserButtonD0Ev@Base 5.4.0+git20141119.0013+15.04
 _ZN24KSplitterCollapserButtonD1Ev@Base 5.4.0+git20141119.0013+15.04
 _ZN24KSplitterCollapserButtonD2Ev@Base 5.4.0+git20141119.0013+15.04
 _ZN24KViewStateMaintainerBase11qt_metacallEN11QMetaObject4CallEiPPv@Base 4.96.0
 _ZN24KViewStateMaintainerBase11qt_metacastEPKc@Base 4.96.0
 _ZN24KViewStateMaintainerBase16staticMetaObjectE@Base 4.96.0
 _ZN24KViewStateMaintainerBase17setSelectionModelEP19QItemSelectionModel@Base 4.96.0
 _ZN24KViewStateMaintainerBase7setViewEP17QAbstractItemView@Base 4.96.0
 _ZN24KViewStateMaintainerBaseC1EP7QObject@Base 4.96.0
 _ZN24KViewStateMaintainerBaseC2EP7QObject@Base 4.96.0
 _ZN24KViewStateMaintainerBaseD0Ev@Base 4.96.0
 _ZN24KViewStateMaintainerBaseD1Ev@Base 4.96.0
 _ZN24KViewStateMaintainerBaseD2Ev@Base 4.96.0
 _ZN26LineEditUrlDropEventFilter11eventFilterEP7QObjectP6QEvent@Base 4.96.0
 _ZN26LineEditUrlDropEventFilter11qt_metacallEN11QMetaObject4CallEiPPv@Base 4.96.0
 _ZN26LineEditUrlDropEventFilter11qt_metacastEPKc@Base 4.96.0
 _ZN26LineEditUrlDropEventFilter16staticMetaObjectE@Base 4.96.0
 _ZN26LineEditUrlDropEventFilterC1EP7QObject@Base 4.96.0
 _ZN26LineEditUrlDropEventFilterC2EP7QObject@Base 4.96.0
 _ZN26LineEditUrlDropEventFilterD0Ev@Base 4.96.0
 _ZN26LineEditUrlDropEventFilterD1Ev@Base 4.96.0
 _ZN26LineEditUrlDropEventFilterD2Ev@Base 4.96.0
 _ZN27KPixmapRegionSelectorDialog11qt_metacallEN11QMetaObject4CallEiPPv@Base 4.96.0
 _ZN27KPixmapRegionSelectorDialog11qt_metacastEPKc@Base 4.96.0
 _ZN27KPixmapRegionSelectorDialog16getSelectedImageERK7QPixmapP7QWidget@Base 4.96.0
 _ZN27KPixmapRegionSelectorDialog16getSelectedImageERK7QPixmapiiP7QWidget@Base 4.96.0
 _ZN27KPixmapRegionSelectorDialog16staticMetaObjectE@Base 4.96.0
 _ZN27KPixmapRegionSelectorDialog17getSelectedRegionERK7QPixmapP7QWidget@Base 4.96.0
 _ZN27KPixmapRegionSelectorDialog17getSelectedRegionERK7QPixmapiiP7QWidget@Base 4.96.0
 _ZN27KPixmapRegionSelectorDialog41adjustRegionSelectorWidgetSizeToFitScreenEv@Base 4.96.0
 _ZN27KPixmapRegionSelectorDialogC1EP7QWidget@Base 4.96.0
 _ZN27KPixmapRegionSelectorDialogC2EP7QWidget@Base 4.96.0
 _ZN27KPixmapRegionSelectorDialogD0Ev@Base 4.96.0
 _ZN27KPixmapRegionSelectorDialogD1Ev@Base 4.96.0
 _ZN27KPixmapRegionSelectorDialogD2Ev@Base 4.96.0
 _ZN27KPixmapRegionSelectorWidget11eventFilterEP7QObjectP6QEvent@Base 4.96.0
 _ZN27KPixmapRegionSelectorWidget11qt_metacallEN11QMetaObject4CallEiPPv@Base 4.96.0
 _ZN27KPixmapRegionSelectorWidget11qt_metacastEPKc@Base 4.96.0
 _ZN27KPixmapRegionSelectorWidget13pixmapRotatedEv@Base 4.96.0
 _ZN27KPixmapRegionSelectorWidget14resetSelectionEv@Base 4.96.0
 _ZN27KPixmapRegionSelectorWidget15createPopupMenuEv@Base 4.96.0
 _ZN27KPixmapRegionSelectorWidget15rotateClockwiseEv@Base 4.96.0
 _ZN27KPixmapRegionSelectorWidget16staticMetaObjectE@Base 4.96.0
 _ZN27KPixmapRegionSelectorWidget17setSelectedRegionERK5QRect@Base 4.96.0
 _ZN27KPixmapRegionSelectorWidget20setMaximumWidgetSizeEii@Base 4.96.0
 _ZN27KPixmapRegionSelectorWidget22rotateCounterclockwiseEv@Base 4.96.0
 _ZN27KPixmapRegionSelectorWidget23setSelectionAspectRatioEii@Base 4.96.0
 _ZN27KPixmapRegionSelectorWidget27setFreeSelectionAspectRatioEv@Base 4.96.0
 _ZN27KPixmapRegionSelectorWidget6rotateENS_15RotateDirectionE@Base 4.96.0
 _ZN27KPixmapRegionSelectorWidget7Private12updatePixmapEv@Base 4.96.0
 _ZN27KPixmapRegionSelectorWidget7Private22calcSelectionRectangleERK6QPointS3_@Base 4.96.0
 _ZN27KPixmapRegionSelectorWidget9setPixmapERK7QPixmap@Base 4.96.0
 _ZN27KPixmapRegionSelectorWidgetC1EP7QWidget@Base 4.96.0
 _ZN27KPixmapRegionSelectorWidgetC2EP7QWidget@Base 4.96.0
 _ZN27KPixmapRegionSelectorWidgetD0Ev@Base 4.96.0
 _ZN27KPixmapRegionSelectorWidgetD1Ev@Base 4.96.0
 _ZN27KPixmapRegionSelectorWidgetD2Ev@Base 4.96.0
 _ZN29KPixmapSequenceOverlayPainter11eventFilterEP7QObjectP6QEvent@Base 4.96.0
 _ZN29KPixmapSequenceOverlayPainter11qt_metacallEN11QMetaObject4CallEiPPv@Base 4.96.0
 _ZN29KPixmapSequenceOverlayPainter11qt_metacastEPKc@Base 4.96.0
 _ZN29KPixmapSequenceOverlayPainter11setIntervalEi@Base 4.96.0
 _ZN29KPixmapSequenceOverlayPainter11setSequenceERK15KPixmapSequence@Base 4.96.0
 _ZN29KPixmapSequenceOverlayPainter12setAlignmentE6QFlagsIN2Qt13AlignmentFlagEE@Base 4.96.0
 _ZN29KPixmapSequenceOverlayPainter16staticMetaObjectE@Base 4.96.0
 _ZN29KPixmapSequenceOverlayPainter4stopEv@Base 4.96.0
 _ZN29KPixmapSequenceOverlayPainter5startEv@Base 4.96.0
 _ZN29KPixmapSequenceOverlayPainter7Private10_k_timeoutEv@Base 4.96.0
 _ZN29KPixmapSequenceOverlayPainter7Private10paintFrameEv@Base 4.96.0
 _ZN29KPixmapSequenceOverlayPainter7Private10pixmapRectEv@Base 4.96.0
 _ZN29KPixmapSequenceOverlayPainter7Private4initEPS_@Base 4.96.0
 _ZN29KPixmapSequenceOverlayPainter7Private8sequenceEv@Base 4.96.0
 _ZN29KPixmapSequenceOverlayPainter7setRectERK5QRect@Base 4.96.0
 _ZN29KPixmapSequenceOverlayPainter9setOffsetERK6QPoint@Base 4.96.0
 _ZN29KPixmapSequenceOverlayPainter9setWidgetEP7QWidget@Base 4.96.0
 _ZN29KPixmapSequenceOverlayPainterC1EP7QObject@Base 4.96.0
 _ZN29KPixmapSequenceOverlayPainterC1ERK15KPixmapSequenceP7QObject@Base 4.96.0
 _ZN29KPixmapSequenceOverlayPainterC2EP7QObject@Base 4.96.0
 _ZN29KPixmapSequenceOverlayPainterC2ERK15KPixmapSequenceP7QObject@Base 4.96.0
 _ZN29KPixmapSequenceOverlayPainterD0Ev@Base 4.96.0
 _ZN29KPixmapSequenceOverlayPainterD1Ev@Base 4.96.0
 _ZN29KPixmapSequenceOverlayPainterD2Ev@Base 4.96.0
 _ZN4KLed10paintEventEP11QPaintEvent@Base 4.96.0
 _ZN4KLed11qt_metacallEN11QMetaObject4CallEiPPv@Base 4.96.0
 _ZN4KLed11qt_metacastEPKc@Base 4.96.0
 _ZN4KLed11resizeEventEP12QResizeEvent@Base 4.96.0
 _ZN4KLed13setDarkFactorEi@Base 4.96.0
 _ZN4KLed16staticMetaObjectE@Base 4.96.0
 _ZN4KLed18updateCachedPixmapEv@Base 4.96.0
 _ZN4KLed20updateAccessibleNameEv@Base 5.6.0+git20150112.0023+15.04
 _ZN4KLed2onEv@Base 4.96.0
 _ZN4KLed3offEv@Base 4.96.0
 _ZN4KLed6toggleEv@Base 4.96.0
 _ZN4KLed7setLookENS_4LookE@Base 4.96.0
 _ZN4KLed8setColorERK6QColor@Base 4.96.0
 _ZN4KLed8setShapeENS_5ShapeE@Base 4.96.0
 _ZN4KLed8setStateENS_5StateE@Base 4.96.0
 _ZN4KLedC1EP7QWidget@Base 4.96.0
 _ZN4KLedC1ERK6QColorNS_5StateENS_4LookENS_5ShapeEP7QWidget@Base 4.96.0
 _ZN4KLedC1ERK6QColorP7QWidget@Base 4.96.0
 _ZN4KLedC2EP7QWidget@Base 4.96.0
 _ZN4KLedC2ERK6QColorNS_5StateENS_4LookENS_5ShapeEP7QWidget@Base 4.96.0
 _ZN4KLedC2ERK6QColorP7QWidget@Base 4.96.0
 _ZN4KLedD0Ev@Base 4.96.0
 _ZN4KLedD1Ev@Base 4.96.0
 _ZN4KLedD2Ev@Base 4.96.0
 _ZN6KRuler10initWidgetEN2Qt11OrientationE@Base 4.96.0
 _ZN6KRuler10paintEventEP11QPaintEvent@Base 4.96.0
 _ZN6KRuler11qt_metacallEN11QMetaObject4CallEiPPv@Base 4.96.0
 _ZN6KRuler11qt_metacastEPKc@Base 4.96.0
 _ZN6KRuler11setEndLabelERK7QString@Base 4.96.0
 _ZN6KRuler11setMaxValueEi@Base 4.96.0
 _ZN6KRuler11setMinValueEi@Base 4.96.0
 _ZN6KRuler12slotNewValueEi@Base 4.96.0
 _ZN6KRuler13setFrameStyleEi@Base 4.96.0
 _ZN6KRuler13slotEndOffsetEi@Base 4.96.0
 _ZN6KRuler13slotNewOffsetEi@Base 4.96.0
 _ZN6KRuler14setLengthFixedEb@Base 4.96.0
 _ZN6KRuler14setShowPointerEb@Base 4.96.0
 _ZN6KRuler15setPixelPerMarkEd@Base 4.96.0
 _ZN6KRuler15setShowBigMarksEb@Base 4.96.0
 _ZN6KRuler15setShowEndLabelEb@Base 4.96.0
 _ZN6KRuler15setShowEndMarksEb@Base 4.96.0
 _ZN6KRuler16setShowTinyMarksEb@Base 4.96.0
 _ZN6KRuler16staticMetaObjectE@Base 4.96.0
 _ZN6KRuler18setBigMarkDistanceEi@Base 4.96.0
 _ZN6KRuler18setShowLittleMarksEb@Base 4.96.0
 _ZN6KRuler18setShowMediumMarksEb@Base 4.96.0
 _ZN6KRuler19setRulerMetricStyleENS_11MetricStyleE@Base 4.96.0
 _ZN6KRuler19setTinyMarkDistanceEi@Base 4.96.0
 _ZN6KRuler21setLittleMarkDistanceEi@Base 4.96.0
 _ZN6KRuler21setMediumMarkDistanceEi@Base 4.96.0
 _ZN6KRuler7slideUpEi@Base 4.96.0
 _ZN6KRuler9setLengthEi@Base 4.96.0
 _ZN6KRuler9setOffsetEi@Base 4.96.0
 _ZN6KRuler9slideDownEi@Base 4.96.0
 _ZN6KRulerC1EN2Qt11OrientationEP7QWidget6QFlagsINS0_10WindowTypeEE@Base 4.96.0
 _ZN6KRulerC1EN2Qt11OrientationEiP7QWidget6QFlagsINS0_10WindowTypeEE@Base 4.96.0
 _ZN6KRulerC1EP7QWidget@Base 4.96.0
 _ZN6KRulerC2EN2Qt11OrientationEP7QWidget6QFlagsINS0_10WindowTypeEE@Base 4.96.0
 _ZN6KRulerC2EN2Qt11OrientationEiP7QWidget6QFlagsINS0_10WindowTypeEE@Base 4.96.0
 _ZN6KRulerC2EP7QWidget@Base 4.96.0
 _ZN6KRulerD0Ev@Base 4.96.0
 _ZN6KRulerD1Ev@Base 4.96.0
 _ZN6KRulerD2Ev@Base 4.96.0
 _ZN7KCursor15hideCursorDelayEv@Base 4.96.0
 _ZN7KCursor17setAutoHideCursorEP7QWidgetbb@Base 4.96.0
 _ZN7KCursor18setHideCursorDelayEi@Base 4.96.0
 _ZN7KCursor19autoHideEventFilterEP7QObjectP6QEvent@Base 4.96.0
 _ZN8KGuiItem10setEnabledEb@Base 4.96.0
 _ZN8KGuiItem10setToolTipERK7QString@Base 4.96.0
 _ZN8KGuiItem11setIconNameERK7QString@Base 4.96.0
 _ZN8KGuiItem12setWhatsThisERK7QString@Base 4.96.0
 _ZN8KGuiItem6assignEP11QPushButtonRKS_@Base 4.96.0
 _ZN8KGuiItem7setIconERK5QIcon@Base 4.96.0
 _ZN8KGuiItem7setTextERK7QString@Base 4.96.0
 _ZN8KGuiItemC1ERK7QStringRK5QIconS2_S2_@Base 4.96.0
 _ZN8KGuiItemC1ERK7QStringS2_S2_S2_@Base 4.96.0
 _ZN8KGuiItemC1ERKS_@Base 4.96.0
 _ZN8KGuiItemC1Ev@Base 4.96.0
 _ZN8KGuiItemC2ERK7QStringRK5QIconS2_S2_@Base 4.96.0
 _ZN8KGuiItemC2ERK7QStringS2_S2_S2_@Base 4.96.0
 _ZN8KGuiItemC2ERKS_@Base 4.96.0
 _ZN8KGuiItemC2Ev@Base 4.96.0
 _ZN8KGuiItemD1Ev@Base 4.96.0
 _ZN8KGuiItemD2Ev@Base 4.96.0
 _ZN8KGuiItemaSERKS_@Base 4.96.0
 _ZN9KPageView10createViewEv@Base 4.96.0
 _ZN9KPageView11qt_metacallEN11QMetaObject4CallEiPPv@Base 4.96.0
 _ZN9KPageView11qt_metacastEPKc@Base 4.96.0
 _ZN9KPageView11setFaceTypeENS_8FaceTypeE@Base 4.96.0
 _ZN9KPageView14setCurrentPageERK11QModelIndex@Base 4.96.0
 _ZN9KPageView15setItemDelegateEP21QAbstractItemDelegate@Base 4.96.0
 _ZN9KPageView16setDefaultWidgetEP7QWidget@Base 4.96.0
 _ZN9KPageView16staticMetaObjectE@Base 4.96.0
 _ZN9KPageView18currentPageChangedERK11QModelIndexS2_@Base 4.96.0
 _ZN9KPageView8setModelEP18QAbstractItemModel@Base 4.96.0
 _ZN9KPageViewC1EP7QWidget@Base 4.96.0
 _ZN9KPageViewC1ER16KPageViewPrivateP7QWidget@Base 4.96.0
 _ZN9KPageViewC2EP7QWidget@Base 4.96.0
 _ZN9KPageViewC2ER16KPageViewPrivateP7QWidget@Base 4.96.0
 _ZN9KPageViewD0Ev@Base 4.96.0
 _ZN9KPageViewD1Ev@Base 4.96.0
 _ZN9KPageViewD2Ev@Base 4.96.0
 _ZN9KSelector10paintEventEP11QPaintEvent@Base 4.96.0
 _ZN9KSelector10wheelEventEP11QWheelEvent@Base 4.96.0
 _ZN9KSelector11qt_metacallEN11QMetaObject4CallEiPPv@Base 4.96.0
 _ZN9KSelector11qt_metacastEPKc@Base 4.96.0
 _ZN9KSelector12calcArrowPosEi@Base 4.96.0
 _ZN9KSelector12drawContentsEP8QPainter@Base 4.96.0
 _ZN9KSelector14mouseMoveEventEP11QMouseEvent@Base 4.96.0
 _ZN9KSelector15mousePressEventEP11QMouseEvent@Base 4.96.0
 _ZN9KSelector16staticMetaObjectE@Base 4.96.0
 _ZN9KSelector17mouseReleaseEventEP11QMouseEvent@Base 4.96.0
 _ZN9KSelector17setArrowDirectionEN2Qt9ArrowTypeE@Base 4.96.0
 _ZN9KSelector9drawArrowEP8QPainterRK6QPoint@Base 4.96.0
 _ZN9KSelector9moveArrowERK6QPoint@Base 4.96.0
 _ZN9KSelector9setIndentEb@Base 4.96.0
 _ZN9KSelectorC1EN2Qt11OrientationEP7QWidget@Base 4.96.0
 _ZN9KSelectorC1EP7QWidget@Base 4.96.0
 _ZN9KSelectorC2EN2Qt11OrientationEP7QWidget@Base 4.96.0
 _ZN9KSelectorC2EP7QWidget@Base 4.96.0
 _ZN9KSelectorD0Ev@Base 4.96.0
 _ZN9KSelectorD1Ev@Base 4.96.0
 _ZN9KSelectorD2Ev@Base 4.96.0
 _ZN9KUrlLabel10enterEventEP6QEvent@Base 4.96.0
 _ZN9KUrlLabel10enteredUrlERK7QString@Base 4.96.0
 _ZN9KUrlLabel10enteredUrlEv@Base 4.96.0
 _ZN9KUrlLabel10leaveEventEP6QEvent@Base 4.96.0
 _ZN9KUrlLabel10setTipTextERK7QString@Base 4.96.0
 _ZN9KUrlLabel10setUseTipsEb@Base 4.96.0
 _ZN9KUrlLabel11qt_metacallEN11QMetaObject4CallEiPPv@Base 4.96.0
 _ZN9KUrlLabel11qt_metacastEPKc@Base 4.96.0
 _ZN9KUrlLabel12setUnderlineEb@Base 4.96.0
 _ZN9KUrlLabel12setUseCursorEbP7QCursor@Base 4.96.0
 _ZN9KUrlLabel14leftClickedUrlERK7QString@Base 4.96.0
 _ZN9KUrlLabel14leftClickedUrlEv@Base 4.96.0
 _ZN9KUrlLabel14setGlowEnabledEb@Base 4.96.0
 _ZN9KUrlLabel15rightClickedUrlERK7QString@Base 4.96.0
 _ZN9KUrlLabel15rightClickedUrlEv@Base 4.96.0
 _ZN9KUrlLabel15setFloatEnabledEb@Base 4.96.0
 _ZN9KUrlLabel16middleClickedUrlERK7QString@Base 4.96.0
 _ZN9KUrlLabel16middleClickedUrlEv@Base 4.96.0
 _ZN9KUrlLabel16setSelectedColorERK6QColor@Base 4.96.0
 _ZN9KUrlLabel16setSelectedColorERK7QString@Base 4.96.0
 _ZN9KUrlLabel16staticMetaObjectE@Base 4.96.0
 _ZN9KUrlLabel17mouseReleaseEventEP11QMouseEvent@Base 4.96.0
 _ZN9KUrlLabel18setAlternatePixmapERK7QPixmap@Base 4.96.0
 _ZN9KUrlLabel19setHighlightedColorERK6QColor@Base 4.96.0
 _ZN9KUrlLabel19setHighlightedColorERK7QString@Base 4.96.0
 _ZN9KUrlLabel5eventEP6QEvent@Base 4.96.0
 _ZN9KUrlLabel6setUrlERK7QString@Base 4.96.0
 _ZN9KUrlLabel7leftUrlERK7QString@Base 4.96.0
 _ZN9KUrlLabel7leftUrlEv@Base 4.96.0
 _ZN9KUrlLabel7setFontERK5QFont@Base 4.96.0
 _ZN9KUrlLabelC1EP7QWidget@Base 4.96.0
 _ZN9KUrlLabelC1ERK7QStringS2_P7QWidget@Base 4.96.0
 _ZN9KUrlLabelC2EP7QWidget@Base 4.96.0
 _ZN9KUrlLabelC2ERK7QStringS2_P7QWidget@Base 4.96.0
 _ZN9KUrlLabelD0Ev@Base 4.96.0
 _ZN9KUrlLabelD1Ev@Base 4.96.0
 _ZN9KUrlLabelD2Ev@Base 4.96.0
 _ZNK10KPageModel10metaObjectEv@Base 4.96.0
 _ZNK10KSeparator10metaObjectEv@Base 4.96.0
 _ZNK10KSeparator11orientationEv@Base 4.96.0
 _ZNK11KActionMenu10metaObjectEv@Base 4.96.0
 _ZNK11KActionMenu10stickyMenuEv@Base 4.96.0
 _ZNK11KActionMenu7delayedEv@Base 4.96.0
 _ZNK11KCharSelect10metaObjectEv@Base 4.96.0
 _ZNK11KCharSelect11currentCharEv@Base 4.96.0
 _ZNK11KCharSelect11currentFontEv@Base 4.96.0
 _ZNK11KCharSelect14displayedCharsEv@Base 4.96.0
 _ZNK11KCharSelect8sizeHintEv@Base 4.96.0
 _ZNK11KColorCombo10metaObjectEv@Base 4.96.0
 _ZNK11KColorCombo13isCustomColorEv@Base 4.96.0
 _ZNK11KColorCombo5colorEv@Base 4.96.0
 _ZNK11KColorCombo6colorsEv@Base 4.96.0
 _ZNK11KDatePicker10metaObjectEv@Base 4.96.0
 _ZNK11KDatePicker14hasCloseButtonEv@Base 4.96.0
 _ZNK11KDatePicker4dateEv@Base 4.96.0
 _ZNK11KDatePicker8fontSizeEv@Base 4.96.0
 _ZNK11KDatePicker8sizeHintEv@Base 4.96.0
 _ZNK11KDatePicker9dateTableEv@Base 4.96.0
 _ZNK11KDualAction10activeIconEv@Base 4.96.0
 _ZNK11KDualAction10activeTextEv@Base 4.96.0
 _ZNK11KDualAction10autoToggleEv@Base 4.96.0
 _ZNK11KDualAction10metaObjectEv@Base 4.96.0
 _ZNK11KDualAction12inactiveIconEv@Base 4.96.0
 _ZNK11KDualAction12inactiveTextEv@Base 4.96.0
 _ZNK11KDualAction13activeGuiItemEv@Base 4.96.0
 _ZNK11KDualAction13activeToolTipEv@Base 4.96.0
 _ZNK11KDualAction15inactiveGuiItemEv@Base 4.96.0
 _ZNK11KDualAction15inactiveToolTipEv@Base 4.96.0
 _ZNK11KDualAction8isActiveEv@Base 4.96.0
 _ZNK11KFontAction10metaObjectEv@Base 4.96.0
 _ZNK11KFontAction4fontEv@Base 4.96.0
 _ZNK11KPageDialog10metaObjectEv@Base 4.96.0
 _ZNK11KPageDialog10pageWidgetEv@Base 4.96.0
 _ZNK11KPageDialog11currentPageEv@Base 4.96.0
 _ZNK11KPageDialog6buttonEN16QDialogButtonBox14StandardButtonE@Base 4.96.0
 _ZNK11KPageDialog9buttonBoxEv@Base 4.96.0
 _ZNK11KPageWidget10metaObjectEv@Base 4.96.0
 _ZNK11KPageWidget11currentPageEv@Base 4.96.0
 _ZNK11KPopupFrame10metaObjectEv@Base 4.96.0
 _ZNK11KXYSelector10metaObjectEv@Base 4.96.0
 _ZNK11KXYSelector12contentsRectEv@Base 4.96.0
 _ZNK11KXYSelector15minimumSizeHintEv@Base 4.96.0
 _ZNK11KXYSelector18valuesFromPositionEiiRiS0_@Base 4.96.0
 _ZNK11KXYSelector6xValueEv@Base 4.96.0
 _ZNK11KXYSelector6yValueEv@Base 4.96.0
 _ZNK12KCapacityBar10continuousEv@Base 4.96.0
 _ZNK12KCapacityBar10metaObjectEv@Base 4.96.0
 _ZNK12KCapacityBar12drawTextModeEv@Base 4.96.0
 _ZNK12KCapacityBar14fillFullBlocksEv@Base 4.96.0
 _ZNK12KCapacityBar15drawCapacityBarEP8QPainterRK5QRect@Base 4.96.0
 _ZNK12KCapacityBar15minimumSizeHintEv@Base 4.96.0
 _ZNK12KCapacityBar23horizontalTextAlignmentEv@Base 4.96.0
 _ZNK12KCapacityBar4textEv@Base 4.96.0
 _ZNK12KCapacityBar5valueEv@Base 4.96.0
 _ZNK12KCapacityBar9barHeightEv@Base 4.96.0
 _ZNK12KColorButton10metaObjectEv@Base 4.96.0
 _ZNK12KColorButton12defaultColorEv@Base 4.96.0
 _ZNK12KColorButton15minimumSizeHintEv@Base 4.96.0
 _ZNK12KColorButton19KColorButtonPrivate15initStyleOptionEP18QStyleOptionButton@Base 4.96.0
 _ZNK12KColorButton21isAlphaChannelEnabledEv@Base 4.96.0
 _ZNK12KColorButton5colorEv@Base 4.96.0
 _ZNK12KColorButton8sizeHintEv@Base 4.96.0
 _ZNK12KFontChooser10metaObjectEv@Base 4.96.0
 _ZNK12KFontChooser10sampleTextEv@Base 4.96.0
 _ZNK12KFontChooser13fontDiffFlagsEv@Base 4.96.0
 _ZNK12KFontChooser14sizeIsRelativeEv@Base 4.96.0
 _ZNK12KFontChooser15backgroundColorEv@Base 4.96.0
 _ZNK12KFontChooser4fontEv@Base 4.96.0
 _ZNK12KFontChooser5colorEv@Base 4.96.0
 _ZNK12KFontChooser8sizeHintEv@Base 4.96.0
 _ZNK12KMultiTabBar10metaObjectEv@Base 4.96.0
 _ZNK12KMultiTabBar11isTabRaisedEi@Base 4.96.0
 _ZNK12KMultiTabBar3tabEi@Base 4.96.0
 _ZNK12KMultiTabBar6buttonEi@Base 4.96.0
 _ZNK12KMultiTabBar8positionEv@Base 4.96.0
 _ZNK12KMultiTabBar8tabStyleEv@Base 4.96.0
 _ZNK12KTitleWidget10metaObjectEv@Base 4.96.0
 _ZNK12KTitleWidget15autoHideTimeoutEv@Base 4.96.0
 _ZNK12KTitleWidget4textEv@Base 4.96.0
 _ZNK12KTitleWidget6pixmapEv@Base 4.96.0
 _ZNK12KTitleWidget7commentEv@Base 4.96.0
 _ZNK13KDateComboBox10metaObjectEv@Base 4.96.0
 _ZNK13KDateComboBox11maximumDateEv@Base 4.96.0
 _ZNK13KDateComboBox11minimumDateEv@Base 4.96.0
 _ZNK13KDateComboBox13displayFormatEv@Base 4.96.0
 _ZNK13KDateComboBox4dateEv@Base 4.96.0
 _ZNK13KDateComboBox6isNullEv@Base 4.96.0
 _ZNK13KDateComboBox7dateMapEv@Base 4.96.0
 _ZNK13KDateComboBox7isValidEv@Base 4.96.0
 _ZNK13KDateComboBox7optionsEv@Base 4.96.0
 _ZNK13KDateTimeEdit10isNullDateEv@Base 4.96.0
 _ZNK13KDateTimeEdit10isNullTimeEv@Base 4.96.0
 _ZNK13KDateTimeEdit10metaObjectEv@Base 4.96.0
 _ZNK13KDateTimeEdit11isValidDateEv@Base 4.96.0
 _ZNK13KDateTimeEdit11isValidTimeEv@Base 4.96.0
 _ZNK13KDateTimeEdit15maximumDateTimeEv@Base 4.96.0
 _ZNK13KDateTimeEdit15minimumDateTimeEv@Base 4.96.0
 _ZNK13KDateTimeEdit16timeListIntervalEv@Base 4.96.0
 _ZNK13KDateTimeEdit17dateDisplayFormatEv@Base 4.96.0
 _ZNK13KDateTimeEdit17timeDisplayFormatEv@Base 4.96.0
 _ZNK13KDateTimeEdit19calendarLocalesListEv@Base 4.96.0
 _ZNK13KDateTimeEdit4dateEv@Base 4.96.0
 _ZNK13KDateTimeEdit4timeEv@Base 4.96.0
 _ZNK13KDateTimeEdit6isNullEv@Base 4.96.0
 _ZNK13KDateTimeEdit7dateMapEv@Base 4.96.0
 _ZNK13KDateTimeEdit7isValidEv@Base 4.96.0
 _ZNK13KDateTimeEdit7optionsEv@Base 4.96.0
 _ZNK13KDateTimeEdit8dateTimeEv@Base 4.96.0
 _ZNK13KDateTimeEdit8timeListEv@Base 4.96.0
 _ZNK13KDateTimeEdit8timeZoneEv@Base 4.96.0
 _ZNK13KDateTimeEdit9timeZonesEv@Base 4.96.0
 _ZNK13KRatingWidget10metaObjectEv@Base 4.96.0
 _ZNK13KRatingWidget15layoutDirectionEv@Base 4.96.0
 _ZNK13KRatingWidget16halfStepsEnabledEv@Base 4.96.0
 _ZNK13KRatingWidget4iconEv@Base 4.96.0
 _ZNK13KRatingWidget6ratingEv@Base 4.96.0
 _ZNK13KRatingWidget7spacingEv@Base 4.96.0
 _ZNK13KRatingWidget8sizeHintEv@Base 4.96.0
 _ZNK13KRatingWidget9alignmentEv@Base 4.96.0
 _ZNK13KRatingWidget9maxRatingEv@Base 4.96.0
 _ZNK13KSelectAction10comboWidthEv@Base 4.96.0
 _ZNK13KSelectAction10isEditableEv@Base 4.96.0
 _ZNK13KSelectAction10metaObjectEv@Base 4.96.0
 _ZNK13KSelectAction11currentItemEv@Base 4.96.0
 _ZNK13KSelectAction11currentTextEv@Base 4.96.0
 _ZNK13KSelectAction11toolBarModeEv@Base 4.96.0
 _ZNK13KSelectAction13currentActionEv@Base 4.96.0
 _ZNK13KSelectAction17menuAccelsEnabledEv@Base 4.96.0
 _ZNK13KSelectAction19toolButtonPopupModeEv@Base 4.96.0
 _ZNK13KSelectAction21selectableActionGroupEv@Base 4.96.0
 _ZNK13KSelectAction5itemsEv@Base 4.96.0
 _ZNK13KSelectAction6actionERK7QStringN2Qt15CaseSensitivityE@Base 4.96.0
 _ZNK13KSelectAction6actionEi@Base 4.96.0
 _ZNK13KSelectAction7actionsEv@Base 4.96.0
 _ZNK13KTimeComboBox10metaObjectEv@Base 4.96.0
 _ZNK13KTimeComboBox11maximumTimeEv@Base 4.96.0
 _ZNK13KTimeComboBox11minimumTimeEv@Base 4.96.0
 _ZNK13KTimeComboBox13displayFormatEv@Base 4.96.0
 _ZNK13KTimeComboBox16timeListIntervalEv@Base 4.96.0
 _ZNK13KTimeComboBox4timeEv@Base 4.96.0
 _ZNK13KTimeComboBox6isNullEv@Base 4.96.0
 _ZNK13KTimeComboBox7isValidEv@Base 4.96.0
 _ZNK13KTimeComboBox7optionsEv@Base 4.96.0
 _ZNK13KTimeComboBox8timeListEv@Base 4.96.0
 _ZNK13KToggleAction10metaObjectEv@Base 4.96.0
 _ZNK14KColumnResizer10metaObjectEv@Base 5.2.0
 _ZNK14KFontRequester10metaObjectEv@Base 4.96.0
 _ZNK14KFontRequester10sampleTextEv@Base 4.96.0
 _ZNK14KFontRequester11isFixedOnlyEv@Base 4.96.0
 _ZNK14KFontRequester4fontEv@Base 4.96.0
 _ZNK14KFontRequester5labelEv@Base 4.96.0
 _ZNK14KFontRequester5titleEv@Base 4.96.0
 _ZNK14KFontRequester6buttonEv@Base 4.96.0
 _ZNK14KMessageWidget10metaObjectEv@Base 4.96.0
 _ZNK14KMessageWidget11messageTypeEv@Base 4.96.0
 _ZNK14KMessageWidget14heightForWidthEi@Base 4.96.0
 _ZNK14KMessageWidget15minimumSizeHintEv@Base 4.96.0
 _ZNK14KMessageWidget20isCloseButtonVisibleEv@Base 4.96.0
 _ZNK14KMessageWidget22isHideAnimationRunningEv@Base 4.96.0
 _ZNK14KMessageWidget22isShowAnimationRunningEv@Base 4.96.0
 _ZNK14KMessageWidget4iconEv@Base 4.96.0
 _ZNK14KMessageWidget4textEv@Base 4.96.0
 _ZNK14KMessageWidget8sizeHintEv@Base 4.96.0
 _ZNK14KMessageWidget8wordWrapEv@Base 4.96.0
 _ZNK14KRatingPainter12customPixmapEv@Base 4.96.0
 _ZNK14KRatingPainter15layoutDirectionEv@Base 4.96.0
 _ZNK14KRatingPainter16halfStepsEnabledEv@Base 4.96.0
 _ZNK14KRatingPainter18ratingFromPositionERK5QRectRK6QPoint@Base 4.96.0
 _ZNK14KRatingPainter4iconEv@Base 4.96.0
 _ZNK14KRatingPainter5paintEP8QPainterRK5QRectii@Base 4.96.0
 _ZNK14KRatingPainter7spacingEv@Base 4.96.0
 _ZNK14KRatingPainter9alignmentEv@Base 4.96.0
 _ZNK14KRatingPainter9isEnabledEv@Base 4.96.0
 _ZNK14KRatingPainter9maxRatingEv@Base 4.96.0
 _ZNK15KActionSelector10metaObjectEv@Base 4.96.0
 _ZNK15KActionSelector13selectedLabelEv@Base 4.96.0
 _ZNK15KActionSelector14availableLabelEv@Base 4.96.0
 _ZNK15KActionSelector15keyboardEnabledEv@Base 4.96.0
 _ZNK15KActionSelector17moveOnDoubleClickEv@Base 4.96.0
 _ZNK15KActionSelector17showUpDownButtonsEv@Base 4.96.0
 _ZNK15KActionSelector18selectedListWidgetEv@Base 4.96.0
 _ZNK15KActionSelector19availableListWidgetEv@Base 4.96.0
 _ZNK15KActionSelector23selectedInsertionPolicyEv@Base 4.96.0
 _ZNK15KActionSelector24availableInsertionPolicyEv@Base 4.96.0
 _ZNK15KAnimatedButton10metaObjectEv@Base 4.96.0
 _ZNK15KAnimatedButton13animationPathEv@Base 4.96.0
 _ZNK15KEditListWidget10downButtonEv@Base 4.96.0
 _ZNK15KEditListWidget10metaObjectEv@Base 4.96.0
 _ZNK15KEditListWidget11currentItemEv@Base 4.96.0
 _ZNK15KEditListWidget11currentTextEv@Base 4.96.0
 _ZNK15KEditListWidget12CustomEditor20representationWidgetEv@Base 4.96.0
 _ZNK15KEditListWidget12CustomEditor8lineEditEv@Base 4.96.0
 _ZNK15KEditListWidget12removeButtonEv@Base 4.96.0
 _ZNK15KEditListWidget4textEi@Base 4.96.0
 _ZNK15KEditListWidget5countEv@Base 4.96.0
 _ZNK15KEditListWidget5itemsEv@Base 4.96.0
 _ZNK15KEditListWidget7buttonsEv@Base 4.96.0
 _ZNK15KEditListWidget8lineEditEv@Base 4.96.0
 _ZNK15KEditListWidget8listViewEv@Base 4.96.0
 _ZNK15KEditListWidget8upButtonEv@Base 4.96.0
 _ZNK15KEditListWidget9addButtonEv@Base 4.96.0
 _ZNK15KFontSizeAction10metaObjectEv@Base 4.96.0
 _ZNK15KFontSizeAction8fontSizeEv@Base 4.96.0
 _ZNK15KMultiTabBarTab10iconPixmapEv@Base 4.96.0
 _ZNK15KMultiTabBarTab10isVerticalEv@Base 4.96.0
 _ZNK15KMultiTabBarTab10metaObjectEv@Base 4.96.0
 _ZNK15KMultiTabBarTab14computeMarginsEPiS0_@Base 4.96.0
 _ZNK15KMultiTabBarTab14shouldDrawTextEv@Base 4.96.0
 _ZNK15KMultiTabBarTab15computeSizeHintEb@Base 4.96.0
 _ZNK15KMultiTabBarTab15initStyleOptionEP22QStyleOptionToolButton@Base 4.96.0
 _ZNK15KMultiTabBarTab15minimumSizeHintEv@Base 4.96.0
 _ZNK15KMultiTabBarTab8sizeHintEv@Base 4.96.0
 _ZNK15KPageWidgetItem10metaObjectEv@Base 4.96.0
 _ZNK15KPageWidgetItem11isCheckableEv@Base 4.96.0
 _ZNK15KPageWidgetItem4iconEv@Base 4.96.0
 _ZNK15KPageWidgetItem4nameEv@Base 4.96.0
 _ZNK15KPageWidgetItem6headerEv@Base 4.96.0
 _ZNK15KPageWidgetItem6widgetEv@Base 4.96.0
 _ZNK15KPageWidgetItem9isCheckedEv@Base 4.96.0
 _ZNK15KPageWidgetItem9isEnabledEv@Base 4.96.0
 _ZNK15KPasswordDialog10metaObjectEv@Base 4.96.0
 _ZNK15KPasswordDialog12keepPasswordEv@Base 4.96.0
 _ZNK15KPasswordDialog13anonymousModeEv@Base 4.96.0
 _ZNK15KPasswordDialog6domainEv@Base 4.96.0
 _ZNK15KPasswordDialog6pixmapEv@Base 4.96.0
 _ZNK15KPasswordDialog6promptEv@Base 4.96.0
 _ZNK15KPasswordDialog8passwordEv@Base 4.96.0
 _ZNK15KPasswordDialog8usernameEv@Base 4.96.0
 _ZNK15KPasswordDialog9buttonBoxEv@Base 4.98.0
 _ZNK15KPixmapSequence10frameCountEv@Base 4.96.0
 _ZNK15KPixmapSequence7frameAtEi@Base 4.96.0
 _ZNK15KPixmapSequence7isEmptyEv@Base 4.96.0
 _ZNK15KPixmapSequence7isValidEv@Base 4.96.0
 _ZNK15KPixmapSequence9frameSizeEv@Base 4.96.0
 _ZNK16KAssistantDialog10backButtonEv@Base 4.98.0
 _ZNK16KAssistantDialog10metaObjectEv@Base 4.96.0
 _ZNK16KAssistantDialog10nextButtonEv@Base 4.98.0
 _ZNK16KAssistantDialog12finishButtonEv@Base 4.98.0
 _ZNK16KAssistantDialog13isAppropriateEP15KPageWidgetItem@Base 4.96.0
 _ZNK16KAssistantDialog7isValidEP15KPageWidgetItem@Base 4.96.0
 _ZNK16KMimeTypeChooser10metaObjectEv@Base 4.96.0
 _ZNK16KMimeTypeChooser8patternsEv@Base 4.96.0
 _ZNK16KMimeTypeChooser9mimeTypesEv@Base 4.96.0
 _ZNK16KPageWidgetModel10metaObjectEv@Base 4.96.0
 _ZNK16KPageWidgetModel11columnCountERK11QModelIndex@Base 4.96.0
 _ZNK16KPageWidgetModel4dataERK11QModelIndexi@Base 4.96.0
 _ZNK16KPageWidgetModel4itemERK11QModelIndex@Base 4.96.0
 _ZNK16KPageWidgetModel5flagsERK11QModelIndex@Base 4.96.0
 _ZNK16KPageWidgetModel5indexEPK15KPageWidgetItem@Base 4.96.0
 _ZNK16KPageWidgetModel5indexEiiRK11QModelIndex@Base 4.96.0
 _ZNK16KPageWidgetModel6parentERK11QModelIndex@Base 4.96.0
 _ZNK16KPageWidgetModel8rowCountERK11QModelIndex@Base 4.96.0
 _ZNK17KGradientSelector10firstColorEv@Base 4.96.0
 _ZNK17KGradientSelector10metaObjectEv@Base 4.96.0
 _ZNK17KGradientSelector10secondTextEv@Base 4.96.0
 _ZNK17KGradientSelector11minimumSizeEv@Base 4.96.0
 _ZNK17KGradientSelector11secondColorEv@Base 4.96.0
 _ZNK17KGradientSelector5stopsEv@Base 4.96.0
 _ZNK17KGradientSelector9firstTextEv@Base 4.96.0
 _ZNK18KMultiTabBarButton10metaObjectEv@Base 4.96.0
 _ZNK18KMultiTabBarButton2idEv@Base 4.96.0
 _ZNK18KNewPasswordDialog10metaObjectEv@Base 4.96.0
 _ZNK18KNewPasswordDialog19allowEmptyPasswordsEv@Base 4.96.0
 _ZNK18KNewPasswordDialog21maximumPasswordLengthEv@Base 4.96.0
 _ZNK18KNewPasswordDialog21minimumPasswordLengthEv@Base 4.96.0
 _ZNK18KNewPasswordDialog22backgroundWarningColorEv@Base 5.16.0
 _ZNK18KNewPasswordDialog24reasonablePasswordLengthEv@Base 4.96.0
 _ZNK18KNewPasswordDialog28passwordStrengthWarningLevelEv@Base 4.96.0
 _ZNK18KNewPasswordDialog6pixmapEv@Base 4.96.0
 _ZNK18KNewPasswordDialog6promptEv@Base 4.96.0
 _ZNK18KNewPasswordDialog8passwordEv@Base 4.96.0
 _ZNK18KNewPasswordWidget10metaObjectEv@Base 5.16.0
 _ZNK18KNewPasswordWidget14passwordStatusEv@Base 5.16.0
 _ZNK18KNewPasswordWidget19allowEmptyPasswordsEv@Base 5.16.0
 _ZNK18KNewPasswordWidget21maximumPasswordLengthEv@Base 5.16.0
 _ZNK18KNewPasswordWidget21minimumPasswordLengthEv@Base 5.16.0
 _ZNK18KNewPasswordWidget22backgroundWarningColorEv@Base 5.16.0
 _ZNK18KNewPasswordWidget24reasonablePasswordLengthEv@Base 5.16.0
 _ZNK18KNewPasswordWidget28passwordStrengthWarningLevelEv@Base 5.16.0
 _ZNK18KNewPasswordWidget30isPasswordStrengthMeterVisibleEv@Base 5.16.0
 _ZNK18KNewPasswordWidget8passwordEv@Base 5.16.0
 _ZNK18KSqueezedTextLabel10metaObjectEv@Base 4.96.0
 _ZNK18KSqueezedTextLabel13textElideModeEv@Base 4.96.0
 _ZNK18KSqueezedTextLabel15minimumSizeHintEv@Base 4.96.0
 _ZNK18KSqueezedTextLabel8fullTextEv@Base 4.96.0
 _ZNK18KSqueezedTextLabel8sizeHintEv@Base 4.96.0
 _ZNK19KToolBarLabelAction10metaObjectEv@Base 4.96.0
 _ZNK19KToolBarLabelAction5buddyEv@Base 4.96.0
 _ZNK19KToolBarPopupAction10metaObjectEv@Base 4.96.0
 _ZNK19KToolBarPopupAction10stickyMenuEv@Base 4.96.0
 _ZNK19KToolBarPopupAction7delayedEv@Base 4.96.0
 _ZNK19KToolBarPopupAction9popupMenuEv@Base 4.96.0
 _ZNK20KCollapsibleGroupBox10isExpandedEv@Base 5.16.0
 _ZNK20KCollapsibleGroupBox10metaObjectEv@Base 5.16.0
 _ZNK20KCollapsibleGroupBox15minimumSizeHintEv@Base 5.16.0
 _ZNK20KCollapsibleGroupBox5titleEv@Base 5.16.0
 _ZNK20KCollapsibleGroupBox8sizeHintEv@Base 5.16.0
 _ZNK20KToolBarSpacerAction10metaObjectEv@Base 4.96.0
 _ZNK20KViewStateSerializer10metaObjectEv@Base 4.96.0
 _ZNK20KViewStateSerializer11scrollStateEv@Base 4.96.0
 _ZNK20KViewStateSerializer13expansionKeysEv@Base 4.96.0
 _ZNK20KViewStateSerializer13selectionKeysEv@Base 4.96.0
 _ZNK20KViewStateSerializer14selectionModelEv@Base 4.96.0
 _ZNK20KViewStateSerializer15currentIndexKeyEv@Base 4.96.0
 _ZNK20KViewStateSerializer4viewEv@Base 4.96.0
 _ZNK21KPixmapSequenceWidget10metaObjectEv@Base 4.96.0
 _ZNK21KPixmapSequenceWidget8intervalEv@Base 4.96.0
 _ZNK21KPixmapSequenceWidget8sequenceEv@Base 4.96.0
 _ZNK21KPixmapSequenceWidget8sizeHintEv@Base 4.96.0
 _ZNK23KToggleFullScreenAction10metaObjectEv@Base 4.96.0
 _ZNK24KDragWidgetDecoratorBase10metaObjectEv@Base 4.96.0
 _ZNK24KDragWidgetDecoratorBase13isDragEnabledEv@Base 4.96.0
 _ZNK24KDragWidgetDecoratorBase15decoratedWidgetEv@Base 4.96.0
 _ZNK24KSplitterCollapserButton10metaObjectEv@Base 5.4.0+git20141119.0013+15.04
 _ZNK24KSplitterCollapserButton17isWidgetCollapsedEv@Base 5.4.0+git20141119.0013+15.04
 _ZNK24KSplitterCollapserButton7Private10isVerticalEv@Base 5.4.0+git20141119.0013+15.04
 _ZNK24KSplitterCollapserButton7Private17isWidgetCollapsedEv@Base 5.4.0+git20141119.0013+15.04
 _ZNK24KSplitterCollapserButton8sizeHintEv@Base 5.4.0+git20141119.0013+15.04
 _ZNK24KViewStateMaintainerBase10metaObjectEv@Base 4.96.0
 _ZNK24KViewStateMaintainerBase14selectionModelEv@Base 4.96.0
 _ZNK24KViewStateMaintainerBase4viewEv@Base 4.96.0
 _ZNK26LineEditUrlDropEventFilter10metaObjectEv@Base 4.96.0
 _ZNK27KPixmapRegionSelectorDialog10metaObjectEv@Base 4.96.0
 _ZNK27KPixmapRegionSelectorDialog26pixmapRegionSelectorWidgetEv@Base 4.96.0
 _ZNK27KPixmapRegionSelectorWidget10metaObjectEv@Base 4.96.0
 _ZNK27KPixmapRegionSelectorWidget13selectedImageEv@Base 4.96.0
 _ZNK27KPixmapRegionSelectorWidget14selectedRegionEv@Base 4.96.0
 _ZNK27KPixmapRegionSelectorWidget22unzoomedSelectedRegionEv@Base 4.96.0
 _ZNK27KPixmapRegionSelectorWidget6pixmapEv@Base 4.96.0
 _ZNK29KPixmapSequenceOverlayPainter10metaObjectEv@Base 4.96.0
 _ZNK29KPixmapSequenceOverlayPainter4rectEv@Base 4.96.0
 _ZNK29KPixmapSequenceOverlayPainter6offsetEv@Base 4.96.0
 _ZNK29KPixmapSequenceOverlayPainter8intervalEv@Base 4.96.0
 _ZNK29KPixmapSequenceOverlayPainter8sequenceEv@Base 4.96.0
 _ZNK29KPixmapSequenceOverlayPainter9alignmentEv@Base 4.96.0
 _ZNK4KLed10darkFactorEv@Base 4.96.0
 _ZNK4KLed10metaObjectEv@Base 4.96.0
 _ZNK4KLed15minimumSizeHintEv@Base 4.96.0
 _ZNK4KLed4lookEv@Base 4.96.0
 _ZNK4KLed5colorEv@Base 4.96.0
 _ZNK4KLed5shapeEv@Base 4.96.0
 _ZNK4KLed5stateEv@Base 4.96.0
 _ZNK4KLed8sizeHintEv@Base 4.96.0
 _ZNK6KRuler10metaObjectEv@Base 4.96.0
 _ZNK6KRuler11lengthFixedEv@Base 4.96.0
 _ZNK6KRuler11showPointerEv@Base 4.96.0
 _ZNK6KRuler12pixelPerMarkEv@Base 4.96.0
 _ZNK6KRuler12showBigMarksEv@Base 4.96.0
 _ZNK6KRuler12showEndLabelEv@Base 4.96.0
 _ZNK6KRuler12showEndMarksEv@Base 4.96.0
 _ZNK6KRuler13showTinyMarksEv@Base 4.96.0
 _ZNK6KRuler15bigMarkDistanceEv@Base 4.96.0
 _ZNK6KRuler15showLittleMarksEv@Base 4.96.0
 _ZNK6KRuler15showMediumMarksEv@Base 4.96.0
 _ZNK6KRuler16tinyMarkDistanceEv@Base 4.96.0
 _ZNK6KRuler18littleMarkDistanceEv@Base 4.96.0
 _ZNK6KRuler18mediumMarkDistanceEv@Base 4.96.0
 _ZNK6KRuler6lengthEv@Base 4.96.0
 _ZNK6KRuler6offsetEv@Base 4.96.0
 _ZNK6KRuler8endLabelEv@Base 4.96.0
 _ZNK6KRuler8maxValueEv@Base 4.96.0
 _ZNK6KRuler8minValueEv@Base 4.96.0
 _ZNK6KRuler9endOffsetEv@Base 4.96.0
 _ZNK8KGuiItem4iconEv@Base 4.96.0
 _ZNK8KGuiItem4textEv@Base 4.96.0
 _ZNK8KGuiItem7hasIconEv@Base 4.96.0
 _ZNK8KGuiItem7toolTipEv@Base 4.96.0
 _ZNK8KGuiItem8iconNameEv@Base 4.96.0
 _ZNK8KGuiItem9isEnabledEv@Base 4.96.0
 _ZNK8KGuiItem9plainTextEv@Base 4.96.0
 _ZNK8KGuiItem9whatsThisEv@Base 4.96.0
 _ZNK9KPageView10metaObjectEv@Base 4.96.0
 _ZNK9KPageView11currentPageEv@Base 4.96.0
 _ZNK9KPageView12itemDelegateEv@Base 4.96.0
 _ZNK9KPageView12viewPositionEv@Base 4.96.0
 _ZNK9KPageView14showPageHeaderEv@Base 4.96.0
 _ZNK9KPageView5modelEv@Base 4.96.0
 _ZNK9KPageView8faceTypeEv@Base 4.96.0
 _ZNK9KSelector10metaObjectEv@Base 4.96.0
 _ZNK9KSelector12contentsRectEv@Base 4.96.0
 _ZNK9KSelector14arrowDirectionEv@Base 4.96.0
 _ZNK9KSelector6indentEv@Base 4.96.0
 _ZNK9KUrlLabel10metaObjectEv@Base 4.96.0
 _ZNK9KUrlLabel13isGlowEnabledEv@Base 4.96.0
 _ZNK9KUrlLabel14isFloatEnabledEv@Base 4.96.0
 _ZNK9KUrlLabel15alternatePixmapEv@Base 4.96.0
 _ZNK9KUrlLabel3urlEv@Base 4.96.0
 _ZNK9KUrlLabel7tipTextEv@Base 4.96.0
 _ZNK9KUrlLabel7useTipsEv@Base 4.96.0
 _ZNK9KUrlLabel9useCursorEv@Base 4.96.0
 _ZTI10KPageModel@Base 4.96.0
 _ZTI10KSeparator@Base 4.96.0
 _ZTI11KActionMenu@Base 4.96.0
 _ZTI11KCharSelect@Base 4.96.0
 _ZTI11KColorCombo@Base 4.96.0
 _ZTI11KDatePicker@Base 4.96.0
 _ZTI11KDualAction@Base 4.96.0
 _ZTI11KFontAction@Base 4.96.0
 _ZTI11KPageDialog@Base 4.96.0
 _ZTI11KPageWidget@Base 4.96.0
 _ZTI11KPopupFrame@Base 4.96.0
 _ZTI11KXYSelector@Base 4.96.0
 _ZTI12KCapacityBar@Base 4.96.0
 _ZTI12KColorButton@Base 4.96.0
 _ZTI12KFontChooser@Base 4.96.0
 _ZTI12KMultiTabBar@Base 4.96.0
 _ZTI12KTitleWidget@Base 4.96.0
 _ZTI13KDateComboBox@Base 4.96.0
 _ZTI13KDateTimeEdit@Base 4.96.0
 _ZTI13KRatingWidget@Base 4.96.0
 _ZTI13KSelectAction@Base 4.96.0
 _ZTI13KTimeComboBox@Base 4.96.0
 _ZTI13KToggleAction@Base 4.96.0
 _ZTI14KColumnResizer@Base 5.2.0
 _ZTI14KFontRequester@Base 4.96.0
 _ZTI14KMessageWidget@Base 4.96.0
 _ZTI15KActionSelector@Base 4.96.0
 _ZTI15KAnimatedButton@Base 4.96.0
 _ZTI15KEditListWidget@Base 4.96.0
 _ZTI15KFontSizeAction@Base 4.96.0
 _ZTI15KMultiTabBarTab@Base 4.96.0
 _ZTI15KPageWidgetItem@Base 4.96.0
 _ZTI15KPasswordDialog@Base 4.96.0
 _ZTI16KAssistantDialog@Base 4.96.0
 _ZTI16KMimeTypeChooser@Base 4.96.0
 _ZTI16KPageWidgetModel@Base 4.96.0
 _ZTI17KGradientSelector@Base 4.96.0
 _ZTI18KMultiTabBarButton@Base 4.96.0
 _ZTI18KNewPasswordDialog@Base 4.96.0
 _ZTI18KNewPasswordWidget@Base 5.16.0
 _ZTI18KSqueezedTextLabel@Base 4.96.0
 _ZTI19KToolBarLabelAction@Base 4.96.0
 _ZTI19KToolBarPopupAction@Base 4.96.0
 _ZTI20KCollapsibleGroupBox@Base 5.16.0
 _ZTI20KToolBarSpacerAction@Base 4.96.0
 _ZTI20KViewStateSerializer@Base 4.96.0
 _ZTI21KPixmapSequenceWidget@Base 4.96.0
 _ZTI22KMimeTypeChooserDialog@Base 4.96.0
 _ZTI23KToggleFullScreenAction@Base 4.96.0
 _ZTI24KDragWidgetDecoratorBase@Base 4.96.0
 _ZTI24KSplitterCollapserButton@Base 5.4.0+git20141119.0013+15.04
 _ZTI24KViewStateMaintainerBase@Base 4.96.0
 _ZTI26LineEditUrlDropEventFilter@Base 4.96.0
 _ZTI27KPixmapRegionSelectorDialog@Base 4.96.0
 _ZTI27KPixmapRegionSelectorWidget@Base 4.96.0
 _ZTI29KPixmapSequenceOverlayPainter@Base 4.96.0
 _ZTI4KLed@Base 4.96.0
 _ZTI6KRuler@Base 4.96.0
 _ZTI9KPageView@Base 4.96.0
 _ZTI9KSelector@Base 4.96.0
 _ZTI9KUrlLabel@Base 4.96.0
 _ZTIN11KPopupFrame18KPopupFramePrivate19OutsideClickCatcherE@Base 4.96.0
 _ZTIN15KEditListWidget12CustomEditorE@Base 4.96.0
 _ZTS10KPageModel@Base 4.96.0
 _ZTS10KSeparator@Base 4.96.0
 _ZTS11KActionMenu@Base 4.96.0
 _ZTS11KCharSelect@Base 4.96.0
 _ZTS11KColorCombo@Base 4.96.0
 _ZTS11KDatePicker@Base 4.96.0
 _ZTS11KDualAction@Base 4.96.0
 _ZTS11KFontAction@Base 4.96.0
 _ZTS11KPageDialog@Base 4.96.0
 _ZTS11KPageWidget@Base 4.96.0
 _ZTS11KPopupFrame@Base 4.96.0
 _ZTS11KXYSelector@Base 4.96.0
 _ZTS12KCapacityBar@Base 4.96.0
 _ZTS12KColorButton@Base 4.96.0
 _ZTS12KFontChooser@Base 4.96.0
 _ZTS12KMultiTabBar@Base 4.96.0
 _ZTS12KTitleWidget@Base 4.96.0
 _ZTS13KDateComboBox@Base 4.96.0
 _ZTS13KDateTimeEdit@Base 4.96.0
 _ZTS13KRatingWidget@Base 4.96.0
 _ZTS13KSelectAction@Base 4.96.0
 _ZTS13KTimeComboBox@Base 4.96.0
 _ZTS13KToggleAction@Base 4.96.0
 _ZTS14KColumnResizer@Base 5.2.0
 _ZTS14KFontRequester@Base 4.96.0
 _ZTS14KMessageWidget@Base 4.96.0
 _ZTS15KActionSelector@Base 4.96.0
 _ZTS15KAnimatedButton@Base 4.96.0
 _ZTS15KEditListWidget@Base 4.96.0
 _ZTS15KFontSizeAction@Base 4.96.0
 _ZTS15KMultiTabBarTab@Base 4.96.0
 _ZTS15KPageWidgetItem@Base 4.96.0
 _ZTS15KPasswordDialog@Base 4.96.0
 _ZTS16KAssistantDialog@Base 4.96.0
 _ZTS16KMimeTypeChooser@Base 4.96.0
 _ZTS16KPageWidgetModel@Base 4.96.0
 _ZTS17KGradientSelector@Base 4.96.0
 _ZTS18KMultiTabBarButton@Base 4.96.0
 _ZTS18KNewPasswordDialog@Base 4.96.0
 _ZTS18KNewPasswordWidget@Base 5.16.0
 _ZTS18KSqueezedTextLabel@Base 4.96.0
 _ZTS19KToolBarLabelAction@Base 4.96.0
 _ZTS19KToolBarPopupAction@Base 4.96.0
 _ZTS20KCollapsibleGroupBox@Base 5.16.0
 _ZTS20KToolBarSpacerAction@Base 4.96.0
 _ZTS20KViewStateSerializer@Base 4.96.0
 _ZTS21KPixmapSequenceWidget@Base 4.96.0
 _ZTS22KMimeTypeChooserDialog@Base 4.96.0
 _ZTS23KToggleFullScreenAction@Base 4.96.0
 _ZTS24KDragWidgetDecoratorBase@Base 4.96.0
 _ZTS24KSplitterCollapserButton@Base 5.4.0+git20141119.0013+15.04
 _ZTS24KViewStateMaintainerBase@Base 4.96.0
 _ZTS26LineEditUrlDropEventFilter@Base 4.96.0
 _ZTS27KPixmapRegionSelectorDialog@Base 4.96.0
 _ZTS27KPixmapRegionSelectorWidget@Base 4.96.0
 _ZTS29KPixmapSequenceOverlayPainter@Base 4.96.0
 _ZTS4KLed@Base 4.96.0
 _ZTS6KRuler@Base 4.96.0
 _ZTS9KPageView@Base 4.96.0
 _ZTS9KSelector@Base 4.96.0
 _ZTS9KUrlLabel@Base 4.96.0
 _ZTSN11KPopupFrame18KPopupFramePrivate19OutsideClickCatcherE@Base 4.96.0
 _ZTSN15KEditListWidget12CustomEditorE@Base 4.96.0
 _ZTV10KPageModel@Base 4.96.0
 _ZTV10KSeparator@Base 4.96.0
 _ZTV11KActionMenu@Base 4.96.0
 _ZTV11KCharSelect@Base 4.96.0
 _ZTV11KColorCombo@Base 4.96.0
 _ZTV11KDatePicker@Base 4.96.0
 _ZTV11KDualAction@Base 4.96.0
 _ZTV11KFontAction@Base 4.96.0
 _ZTV11KPageDialog@Base 4.96.0
 _ZTV11KPageWidget@Base 4.96.0
 _ZTV11KPopupFrame@Base 4.96.0
 _ZTV11KXYSelector@Base 4.96.0
 _ZTV12KCapacityBar@Base 4.96.0
 _ZTV12KColorButton@Base 4.96.0
 _ZTV12KFontChooser@Base 4.96.0
 _ZTV12KMultiTabBar@Base 4.96.0
 _ZTV12KTitleWidget@Base 4.96.0
 _ZTV13KDateComboBox@Base 4.96.0
 _ZTV13KDateTimeEdit@Base 4.96.0
 _ZTV13KRatingWidget@Base 4.96.0
 _ZTV13KSelectAction@Base 4.96.0
 _ZTV13KTimeComboBox@Base 4.96.0
 _ZTV13KToggleAction@Base 4.96.0
 _ZTV14KColumnResizer@Base 5.2.0
 _ZTV14KFontRequester@Base 4.96.0
 _ZTV14KMessageWidget@Base 4.96.0
 _ZTV15KActionSelector@Base 4.96.0
 _ZTV15KAnimatedButton@Base 4.96.0
 _ZTV15KEditListWidget@Base 4.96.0
 _ZTV15KFontSizeAction@Base 4.96.0
 _ZTV15KMultiTabBarTab@Base 4.96.0
 _ZTV15KPageWidgetItem@Base 4.96.0
 _ZTV15KPasswordDialog@Base 4.96.0
 _ZTV16KAssistantDialog@Base 4.96.0
 _ZTV16KMimeTypeChooser@Base 4.96.0
 _ZTV16KPageWidgetModel@Base 4.96.0
 _ZTV17KGradientSelector@Base 4.96.0
 _ZTV18KMultiTabBarButton@Base 4.96.0
 _ZTV18KNewPasswordDialog@Base 4.96.0
 _ZTV18KNewPasswordWidget@Base 5.16.0
 _ZTV18KSqueezedTextLabel@Base 4.96.0
 _ZTV19KToolBarLabelAction@Base 4.96.0
 _ZTV19KToolBarPopupAction@Base 4.96.0
 _ZTV20KCollapsibleGroupBox@Base 5.16.0
 _ZTV20KToolBarSpacerAction@Base 4.96.0
 _ZTV20KViewStateSerializer@Base 4.96.0
 _ZTV21KPixmapSequenceWidget@Base 4.96.0
 _ZTV22KMimeTypeChooserDialog@Base 4.96.0
 _ZTV23KToggleFullScreenAction@Base 4.96.0
 _ZTV24KDragWidgetDecoratorBase@Base 4.96.0
 _ZTV24KSplitterCollapserButton@Base 5.4.0+git20141119.0013+15.04
 _ZTV24KViewStateMaintainerBase@Base 4.96.0
 _ZTV26LineEditUrlDropEventFilter@Base 4.96.0
 _ZTV27KPixmapRegionSelectorDialog@Base 4.96.0
 _ZTV27KPixmapRegionSelectorWidget@Base 4.96.0
 _ZTV29KPixmapSequenceOverlayPainter@Base 4.96.0
 _ZTV4KLed@Base 4.96.0
 _ZTV6KRuler@Base 4.96.0
 _ZTV9KPageView@Base 4.96.0
 _ZTV9KSelector@Base 4.96.0
 _ZTV9KUrlLabel@Base 4.96.0
 _ZTVN11KPopupFrame18KPopupFramePrivate19OutsideClickCatcherE@Base 4.96.0
 _ZTVN15KEditListWidget12CustomEditorE@Base 4.96.0
 _ZThn16_N11KCharSelectD0Ev@Base 4.96.0
 _ZThn16_N11KCharSelectD1Ev@Base 4.96.0
 _ZThn16_N11KColorComboD0Ev@Base 4.96.0
 _ZThn16_N11KColorComboD1Ev@Base 4.96.0
 _ZThn16_N11KDatePickerD0Ev@Base 4.96.0
 _ZThn16_N11KDatePickerD1Ev@Base 4.96.0
 _ZThn16_N11KPageDialogD0Ev@Base 4.96.0
 _ZThn16_N11KPageDialogD1Ev@Base 4.96.0
 _ZThn16_N11KPageWidgetD0Ev@Base 4.96.0
 _ZThn16_N11KPageWidgetD1Ev@Base 4.96.0
 _ZThn16_N11KPopupFrameD0Ev@Base 4.96.0
 _ZThn16_N11KPopupFrameD1Ev@Base 4.96.0
 _ZThn16_N11KXYSelectorD0Ev@Base 4.96.0
 _ZThn16_N11KXYSelectorD1Ev@Base 4.96.0
 _ZThn16_N12KCapacityBarD0Ev@Base 4.96.0
 _ZThn16_N12KCapacityBarD1Ev@Base 4.96.0
 _ZThn16_N12KColorButtonD0Ev@Base 4.96.0
 _ZThn16_N12KColorButtonD1Ev@Base 4.96.0
 _ZThn16_N12KFontChooserD0Ev@Base 4.96.0
 _ZThn16_N12KFontChooserD1Ev@Base 4.96.0
 _ZThn16_N12KMultiTabBarD0Ev@Base 4.96.0
 _ZThn16_N12KMultiTabBarD1Ev@Base 4.96.0
 _ZThn16_N12KTitleWidgetD0Ev@Base 4.96.0
 _ZThn16_N12KTitleWidgetD1Ev@Base 4.96.0
 _ZThn16_N13KDateComboBoxD0Ev@Base 4.96.0
 _ZThn16_N13KDateComboBoxD1Ev@Base 4.96.0
 _ZThn16_N13KDateTimeEditD0Ev@Base 4.96.0
 _ZThn16_N13KDateTimeEditD1Ev@Base 4.96.0
 _ZThn16_N13KRatingWidgetD0Ev@Base 4.96.0
 _ZThn16_N13KRatingWidgetD1Ev@Base 4.96.0
 _ZThn16_N13KTimeComboBoxD0Ev@Base 4.96.0
 _ZThn16_N13KTimeComboBoxD1Ev@Base 4.96.0
 _ZThn16_N14KFontRequesterD0Ev@Base 4.96.0
 _ZThn16_N14KFontRequesterD1Ev@Base 4.96.0
 _ZThn16_N14KMessageWidgetD0Ev@Base 4.96.0
 _ZThn16_N14KMessageWidgetD1Ev@Base 4.96.0
 _ZThn16_N15KActionSelectorD0Ev@Base 4.96.0
 _ZThn16_N15KActionSelectorD1Ev@Base 4.96.0
 _ZThn16_N15KAnimatedButtonD0Ev@Base 4.96.0
 _ZThn16_N15KAnimatedButtonD1Ev@Base 4.96.0
 _ZThn16_N15KEditListWidgetD0Ev@Base 4.96.0
 _ZThn16_N15KEditListWidgetD1Ev@Base 4.96.0
 _ZThn16_N15KMultiTabBarTabD0Ev@Base 4.96.0
 _ZThn16_N15KMultiTabBarTabD1Ev@Base 4.96.0
 _ZThn16_N15KPasswordDialogD0Ev@Base 4.96.0
 _ZThn16_N15KPasswordDialogD1Ev@Base 4.96.0
 _ZThn16_N16KAssistantDialogD0Ev@Base 4.96.0
 _ZThn16_N16KAssistantDialogD1Ev@Base 4.96.0
 _ZThn16_N16KMimeTypeChooserD0Ev@Base 4.96.0
 _ZThn16_N16KMimeTypeChooserD1Ev@Base 4.96.0
 _ZThn16_N17KGradientSelectorD0Ev@Base 4.96.0
 _ZThn16_N17KGradientSelectorD1Ev@Base 4.96.0
 _ZThn16_N18KMultiTabBarButtonD0Ev@Base 4.96.0
 _ZThn16_N18KMultiTabBarButtonD1Ev@Base 4.96.0
 _ZThn16_N18KNewPasswordDialogD0Ev@Base 4.96.0
 _ZThn16_N18KNewPasswordDialogD1Ev@Base 4.96.0
 _ZThn16_N18KNewPasswordWidgetD0Ev@Base 5.16.0
 _ZThn16_N18KNewPasswordWidgetD1Ev@Base 5.16.0
 _ZThn16_N18KSqueezedTextLabelD0Ev@Base 4.96.0
 _ZThn16_N18KSqueezedTextLabelD1Ev@Base 4.96.0
 _ZThn16_N20KCollapsibleGroupBoxD0Ev@Base 5.16.0
 _ZThn16_N20KCollapsibleGroupBoxD1Ev@Base 5.16.0
 _ZThn16_N21KPixmapSequenceWidgetD0Ev@Base 4.96.0
 _ZThn16_N21KPixmapSequenceWidgetD1Ev@Base 4.96.0
 _ZThn16_N22KMimeTypeChooserDialogD0Ev@Base 4.96.0
 _ZThn16_N22KMimeTypeChooserDialogD1Ev@Base 4.96.0
 _ZThn16_N24KSplitterCollapserButtonD0Ev@Base 5.4.0+git20141119.0013+15.04
 _ZThn16_N24KSplitterCollapserButtonD1Ev@Base 5.4.0+git20141119.0013+15.04
 _ZThn16_N27KPixmapRegionSelectorDialogD0Ev@Base 4.96.0
 _ZThn16_N27KPixmapRegionSelectorDialogD1Ev@Base 4.96.0
 _ZThn16_N27KPixmapRegionSelectorWidgetD0Ev@Base 4.96.0
 _ZThn16_N27KPixmapRegionSelectorWidgetD1Ev@Base 4.96.0
 _ZThn16_N4KLedD0Ev@Base 4.96.0
 _ZThn16_N4KLedD1Ev@Base 4.96.0
 _ZThn16_N6KRulerD0Ev@Base 4.96.0
 _ZThn16_N6KRulerD1Ev@Base 4.96.0
 _ZThn16_N9KPageViewD0Ev@Base 4.96.0
 _ZThn16_N9KPageViewD1Ev@Base 4.96.0
 _ZThn16_N9KSelectorD0Ev@Base 4.96.0
 _ZThn16_N9KSelectorD1Ev@Base 4.96.0
 _ZThn16_N9KUrlLabelD0Ev@Base 4.96.0
 _ZThn16_N9KUrlLabelD1Ev@Base 4.96.0
 _ZZZN23KToggleFullScreenAction7Private18updateTextsAndIconEvENKUlvE0_clEvE15qstring_literal@Base 4.96.0
 _ZZZN23KToggleFullScreenAction7Private18updateTextsAndIconEvENKUlvE_clEvE15qstring_literal@Base 4.96.0
 _ZZZNK12KTitleWidget7Private14textStyleSheetEvENKUlvE_clEvE15qstring_literal@Base 4.96.0
 _ZZZNK12KTitleWidget7Private17commentStyleSheetEvENKUlvE_clEvE15qstring_literal@Base 4.96.0
