libKF5AkonadiWidgets.so.5 libkf5akonadiwidgets5 #MINVER#
 _ZN7Akonadi10ControlGui11qt_metacallEN11QMetaObject4CallEiPPv@Base 15.07.90
 _ZN7Akonadi10ControlGui11qt_metacastEPKc@Base 15.07.90
 _ZN7Akonadi10ControlGui16staticMetaObjectE@Base 15.07.90
 _ZN7Akonadi10ControlGui18widgetNeedsAkonadiEP7QWidget@Base 15.07.90
 _ZN7Akonadi10ControlGui4stopEP7QWidget@Base 15.07.90
 _ZN7Akonadi10ControlGui4stopEv@Base 15.07.90
 _ZN7Akonadi10ControlGui5startEP7QWidget@Base 15.07.90
 _ZN7Akonadi10ControlGui5startEv@Base 15.07.90
 _ZN7Akonadi10ControlGui7restartEP7QWidget@Base 15.07.90
 _ZN7Akonadi10ControlGui7restartEv@Base 15.07.90
 _ZN7Akonadi10ControlGuiC1Ev@Base 15.07.90
 _ZN7Akonadi10ControlGuiC2Ev@Base 15.07.90
 _ZN7Akonadi10ControlGuiD0Ev@Base 15.07.90
 _ZN7Akonadi10ControlGuiD1Ev@Base 15.07.90
 _ZN7Akonadi10ControlGuiD2Ev@Base 15.07.90
 _ZN7Akonadi13TagEditWidget11eventFilterEP7QObjectP6QEvent@Base 15.07.90
 _ZN7Akonadi13TagEditWidget11qt_metacallEN11QMetaObject4CallEiPPv@Base 15.07.90
 _ZN7Akonadi13TagEditWidget11qt_metacastEPKc@Base 15.07.90
 _ZN7Akonadi13TagEditWidget12setSelectionERK7QVectorINS_3TagEE@Base 4:15.12.0
 _ZN7Akonadi13TagEditWidget16staticMetaObjectE@Base 15.07.90
 _ZN7Akonadi13TagEditWidgetC1EPNS_8TagModelEP7QWidgetb@Base 15.07.90
 _ZN7Akonadi13TagEditWidgetC2EPNS_8TagModelEP7QWidgetb@Base 15.07.90
 _ZN7Akonadi13TagEditWidgetD0Ev@Base 15.07.90
 _ZN7Akonadi13TagEditWidgetD1Ev@Base 15.07.90
 _ZN7Akonadi13TagEditWidgetD2Ev@Base 15.07.90
 _ZN7Akonadi14CollectionView11qt_metacallEN11QMetaObject4CallEiPPv@Base 15.07.90
 _ZN7Akonadi14CollectionView11qt_metacastEPKc@Base 15.07.90
 _ZN7Akonadi14CollectionView13dragMoveEventEP14QDragMoveEvent@Base 15.07.90
 _ZN7Akonadi14CollectionView14currentChangedERKNS_10CollectionE@Base 15.07.90
 _ZN7Akonadi14CollectionView14dragLeaveEventEP15QDragLeaveEvent@Base 15.07.90
 _ZN7Akonadi14CollectionView15setXmlGuiClientEP13KXMLGUIClient@Base 15.07.90
 _ZN7Akonadi14CollectionView16contextMenuEventEP17QContextMenuEvent@Base 15.07.90
 _ZN7Akonadi14CollectionView16staticMetaObjectE@Base 15.07.90
 _ZN7Akonadi14CollectionView7clickedERKNS_10CollectionE@Base 15.07.90
 _ZN7Akonadi14CollectionView8setModelEP18QAbstractItemModel@Base 15.07.90
 _ZN7Akonadi14CollectionView9dropEventEP10QDropEvent@Base 15.07.90
 _ZN7Akonadi14CollectionViewC1EP13KXMLGUIClientP7QWidget@Base 15.07.90
 _ZN7Akonadi14CollectionViewC1EP7QWidget@Base 15.07.90
 _ZN7Akonadi14CollectionViewC2EP13KXMLGUIClientP7QWidget@Base 15.07.90
 _ZN7Akonadi14CollectionViewC2EP7QWidget@Base 15.07.90
 _ZN7Akonadi14CollectionViewD0Ev@Base 15.07.90
 _ZN7Akonadi14CollectionViewD1Ev@Base 15.07.90
 _ZN7Akonadi14CollectionViewD2Ev@Base 15.07.90
 _ZN7Akonadi14EntityListView11qt_metacallEN11QMetaObject4CallEiPPv@Base 15.07.90
 _ZN7Akonadi14EntityListView11qt_metacastEPKc@Base 15.07.90
 _ZN7Akonadi14EntityListView13doubleClickedERKNS_10CollectionE@Base 15.07.90
 _ZN7Akonadi14EntityListView13doubleClickedERKNS_4ItemE@Base 15.07.90
 _ZN7Akonadi14EntityListView13dragMoveEventEP14QDragMoveEvent@Base 15.07.90
 _ZN7Akonadi14EntityListView14currentChangedERKNS_10CollectionE@Base 15.07.90
 _ZN7Akonadi14EntityListView14currentChangedERKNS_4ItemE@Base 15.07.90
 _ZN7Akonadi14EntityListView15setXmlGuiClientEP13KXMLGUIClient@Base 15.07.90
 _ZN7Akonadi14EntityListView16contextMenuEventEP17QContextMenuEvent@Base 15.07.90
 _ZN7Akonadi14EntityListView16staticMetaObjectE@Base 15.07.90
 _ZN7Akonadi14EntityListView24setDropActionMenuEnabledEb@Base 15.07.90
 _ZN7Akonadi14EntityListView7clickedERKNS_10CollectionE@Base 15.07.90
 _ZN7Akonadi14EntityListView7clickedERKNS_4ItemE@Base 15.07.90
 _ZN7Akonadi14EntityListView8setModelEP18QAbstractItemModel@Base 15.07.90
 _ZN7Akonadi14EntityListView9dropEventEP10QDropEvent@Base 15.07.90
 _ZN7Akonadi14EntityListView9startDragE6QFlagsIN2Qt10DropActionEE@Base 15.07.90
 _ZN7Akonadi14EntityListViewC1EP13KXMLGUIClientP7QWidget@Base 15.07.90
 _ZN7Akonadi14EntityListViewC1EP7QWidget@Base 15.07.90
 _ZN7Akonadi14EntityListViewC2EP13KXMLGUIClientP7QWidget@Base 15.07.90
 _ZN7Akonadi14EntityListViewC2EP7QWidget@Base 15.07.90
 _ZN7Akonadi14EntityListViewD0Ev@Base 15.07.90
 _ZN7Akonadi14EntityListViewD1Ev@Base 15.07.90
 _ZN7Akonadi14EntityListViewD2Ev@Base 15.07.90
 _ZN7Akonadi14EntityTreeView10timerEventEP11QTimerEvent@Base 15.07.90
 _ZN7Akonadi14EntityTreeView11qt_metacallEN11QMetaObject4CallEiPPv@Base 15.07.90
 _ZN7Akonadi14EntityTreeView11qt_metacastEPKc@Base 15.07.90
 _ZN7Akonadi14EntityTreeView13doubleClickedERKNS_10CollectionE@Base 15.07.90
 _ZN7Akonadi14EntityTreeView13doubleClickedERKNS_4ItemE@Base 15.07.90
 _ZN7Akonadi14EntityTreeView13dragMoveEventEP14QDragMoveEvent@Base 15.07.90
 _ZN7Akonadi14EntityTreeView14currentChangedERKNS_10CollectionE@Base 15.07.90
 _ZN7Akonadi14EntityTreeView14currentChangedERKNS_4ItemE@Base 15.07.90
 _ZN7Akonadi14EntityTreeView15setXmlGuiClientEP13KXMLGUIClient@Base 15.07.90
 _ZN7Akonadi14EntityTreeView16contextMenuEventEP17QContextMenuEvent@Base 15.07.90
 _ZN7Akonadi14EntityTreeView16staticMetaObjectE@Base 15.07.90
 _ZN7Akonadi14EntityTreeView19setDefaultPopupMenuERK7QString@Base 15.07.90
 _ZN7Akonadi14EntityTreeView22setManualSortingActiveEb@Base 15.07.90
 _ZN7Akonadi14EntityTreeView24setDropActionMenuEnabledEb@Base 15.07.90
 _ZN7Akonadi14EntityTreeView7clickedERKNS_10CollectionE@Base 15.07.90
 _ZN7Akonadi14EntityTreeView7clickedERKNS_4ItemE@Base 15.07.90
 _ZN7Akonadi14EntityTreeView8setModelEP18QAbstractItemModel@Base 15.07.90
 _ZN7Akonadi14EntityTreeView9dropEventEP10QDropEvent@Base 15.07.90
 _ZN7Akonadi14EntityTreeView9startDragE6QFlagsIN2Qt10DropActionEE@Base 15.07.90
 _ZN7Akonadi14EntityTreeViewC1EP13KXMLGUIClientP7QWidget@Base 15.07.90
 _ZN7Akonadi14EntityTreeViewC1EP7QWidget@Base 15.07.90
 _ZN7Akonadi14EntityTreeViewC2EP13KXMLGUIClientP7QWidget@Base 15.07.90
 _ZN7Akonadi14EntityTreeViewC2EP7QWidget@Base 15.07.90
 _ZN7Akonadi14EntityTreeViewD0Ev@Base 15.07.90
 _ZN7Akonadi14EntityTreeViewD1Ev@Base 15.07.90
 _ZN7Akonadi14EntityTreeViewD2Ev@Base 15.07.90
 _ZN7Akonadi14SelfTestDialog10copyReportEv@Base 15.07.90
 _ZN7Akonadi14SelfTestDialog10saveReportEv@Base 15.07.90
 _ZN7Akonadi14SelfTestDialog11qt_metacallEN11QMetaObject4CallEiPPv@Base 15.07.90
 _ZN7Akonadi14SelfTestDialog11qt_metacastEPKc@Base 15.07.90
 _ZN7Akonadi14SelfTestDialog12createReportEv@Base 15.07.90
 _ZN7Akonadi14SelfTestDialog12testRootUserEv@Base 15.07.90
 _ZN7Akonadi14SelfTestDialog13linkActivatedERK7QString@Base 15.07.90
 _ZN7Akonadi14SelfTestDialog13testResourcesEv@Base 15.07.90
 _ZN7Akonadi14SelfTestDialog13testSQLDriverEv@Base 15.07.90
 _ZN7Akonadi14SelfTestDialog13testServerLogEv@Base 15.07.90
 _ZN7Akonadi14SelfTestDialog14testAkonadiCtlEv@Base 15.07.90
 _ZN7Akonadi14SelfTestDialog14testControlLogEv@Base 15.07.90
 _ZN7Akonadi14SelfTestDialog14testPSQLServerEv@Base 15.07.90
 _ZN7Akonadi14SelfTestDialog15testMySQLServerEv@Base 15.07.90
 _ZN7Akonadi14SelfTestDialog16hideIntroductionEv@Base 15.07.90
 _ZN7Akonadi14SelfTestDialog16selectionChangedERK11QModelIndex@Base 15.07.90
 _ZN7Akonadi14SelfTestDialog16staticMetaObjectE@Base 15.07.90
 _ZN7Akonadi14SelfTestDialog16testServerStatusEv@Base 15.07.90
 _ZN7Akonadi14SelfTestDialog18testMySQLServerLogEv@Base 15.07.90
 _ZN7Akonadi14SelfTestDialog19testProtocolVersionEv@Base 15.07.90
 _ZN7Akonadi14SelfTestDialog21testMySQLServerConfigEv@Base 15.07.90
 _ZN7Akonadi14SelfTestDialog6reportENS0_10ResultTypeERK16KLocalizedStringS4_@Base 15.07.90
 _ZN7Akonadi14SelfTestDialog8runTestsEv@Base 15.07.90
 _ZN7Akonadi14SelfTestDialogC1EP7QWidget@Base 15.07.90
 _ZN7Akonadi14SelfTestDialogC2EP7QWidget@Base 15.07.90
 _ZN7Akonadi15AgentTypeDialog11qt_metacallEN11QMetaObject4CallEiPPv@Base 15.07.90
 _ZN7Akonadi15AgentTypeDialog11qt_metacastEPKc@Base 15.07.90
 _ZN7Akonadi15AgentTypeDialog16staticMetaObjectE@Base 15.07.90
 _ZN7Akonadi15AgentTypeDialog4doneEi@Base 15.07.90
 _ZN7Akonadi15AgentTypeDialogC1EP7QWidget@Base 15.07.90
 _ZN7Akonadi15AgentTypeDialogC2EP7QWidget@Base 15.07.90
 _ZN7Akonadi15AgentTypeDialogD0Ev@Base 15.07.90
 _ZN7Akonadi15AgentTypeDialogD1Ev@Base 15.07.90
 _ZN7Akonadi15AgentTypeDialogD2Ev@Base 15.07.90
 _ZN7Akonadi15AgentTypeWidget11qt_metacallEN11QMetaObject4CallEiPPv@Base 15.07.90
 _ZN7Akonadi15AgentTypeWidget11qt_metacastEPKc@Base 15.07.90
 _ZN7Akonadi15AgentTypeWidget14currentChangedERKNS_9AgentTypeES3_@Base 15.07.90
 _ZN7Akonadi15AgentTypeWidget16staticMetaObjectE@Base 15.07.90
 _ZN7Akonadi15AgentTypeWidget9activatedEv@Base 15.07.90
 _ZN7Akonadi15AgentTypeWidgetC1EP7QWidget@Base 15.07.90
 _ZN7Akonadi15AgentTypeWidgetC2EP7QWidget@Base 15.07.90
 _ZN7Akonadi15AgentTypeWidgetD0Ev@Base 15.07.90
 _ZN7Akonadi15AgentTypeWidgetD1Ev@Base 15.07.90
 _ZN7Akonadi15AgentTypeWidgetD2Ev@Base 15.07.90
 _ZN7Akonadi15CachePolicyPage11qt_metacallEN11QMetaObject4CallEiPPv@Base 15.07.90
 _ZN7Akonadi15CachePolicyPage11qt_metacastEPKc@Base 15.07.90
 _ZN7Akonadi15CachePolicyPage16staticMetaObjectE@Base 15.07.90
 _ZN7Akonadi15CachePolicyPage4loadERKNS_10CollectionE@Base 15.07.90
 _ZN7Akonadi15CachePolicyPage4saveERNS_10CollectionE@Base 15.07.90
 _ZN7Akonadi15CachePolicyPageC1EP7QWidgetNS0_7GuiModeE@Base 15.07.90
 _ZN7Akonadi15CachePolicyPageC2EP7QWidgetNS0_7GuiModeE@Base 15.07.90
 _ZN7Akonadi15CachePolicyPageD0Ev@Base 15.07.90
 _ZN7Akonadi15CachePolicyPageD1Ev@Base 15.07.90
 _ZN7Akonadi15CachePolicyPageD2Ev@Base 15.07.90
 _ZN7Akonadi15TagSelectWidget11qt_metacallEN11QMetaObject4CallEiPPv@Base 15.07.90
 _ZN7Akonadi15TagSelectWidget11qt_metacastEPKc@Base 15.07.90
 _ZN7Akonadi15TagSelectWidget12setSelectionERK7QVectorINS_3TagEE@Base 4:15.12.0
 _ZN7Akonadi15TagSelectWidget16staticMetaObjectE@Base 15.07.90
 _ZN7Akonadi15TagSelectWidget26setSelectionFromStringListERK11QStringList@Base 15.07.90
 _ZN7Akonadi15TagSelectWidgetC1EP7QWidget@Base 15.07.90
 _ZN7Akonadi15TagSelectWidgetC2EP7QWidget@Base 15.07.90
 _ZN7Akonadi15TagSelectWidgetD0Ev@Base 15.07.90
 _ZN7Akonadi15TagSelectWidgetD1Ev@Base 15.07.90
 _ZN7Akonadi15TagSelectWidgetD2Ev@Base 15.07.90
 _ZN7Akonadi16CollectionDialog11qt_metacallEN11QMetaObject4CallEiPPv@Base 15.07.90
 _ZN7Akonadi16CollectionDialog11qt_metacastEPKc@Base 15.07.90
 _ZN7Akonadi16CollectionDialog14setDescriptionERK7QString@Base 15.07.90
 _ZN7Akonadi16CollectionDialog16setSelectionModeEN17QAbstractItemView13SelectionModeE@Base 15.07.90
 _ZN7Akonadi16CollectionDialog16staticMetaObjectE@Base 15.07.90
 _ZN7Akonadi16CollectionDialog17setMimeTypeFilterERK11QStringList@Base 15.07.90
 _ZN7Akonadi16CollectionDialog19setContentMimeTypesERK11QStringList@Base 15.07.90
 _ZN7Akonadi16CollectionDialog20setDefaultCollectionERKNS_10CollectionE@Base 15.07.90
 _ZN7Akonadi16CollectionDialog21setAccessRightsFilterE6QFlagsINS_10Collection5RightEE@Base 15.07.90
 _ZN7Akonadi16CollectionDialog21setUseFolderByDefaultEb@Base 15.07.90
 _ZN7Akonadi16CollectionDialog29changeCollectionDialogOptionsE6QFlagsINS0_22CollectionDialogOptionEE@Base 15.07.90
 _ZN7Akonadi16CollectionDialogC1E6QFlagsINS0_22CollectionDialogOptionEEP18QAbstractItemModelP7QWidget@Base 15.07.90
 _ZN7Akonadi16CollectionDialogC1EP18QAbstractItemModelP7QWidget@Base 15.07.90
 _ZN7Akonadi16CollectionDialogC1EP7QWidget@Base 15.07.90
 _ZN7Akonadi16CollectionDialogC2E6QFlagsINS0_22CollectionDialogOptionEEP18QAbstractItemModelP7QWidget@Base 15.07.90
 _ZN7Akonadi16CollectionDialogC2EP18QAbstractItemModelP7QWidget@Base 15.07.90
 _ZN7Akonadi16CollectionDialogC2EP7QWidget@Base 15.07.90
 _ZN7Akonadi16CollectionDialogD0Ev@Base 15.07.90
 _ZN7Akonadi16CollectionDialogD1Ev@Base 15.07.90
 _ZN7Akonadi16CollectionDialogD2Ev@Base 15.07.90
 _ZN7Akonadi17ETMViewStateSaver11qt_metacallEN11QMetaObject4CallEiPPv@Base 15.07.90
 _ZN7Akonadi17ETMViewStateSaver11qt_metacastEPKc@Base 15.07.90
 _ZN7Akonadi17ETMViewStateSaver11selectItemsERK5QListIxE@Base 15.07.90
 _ZN7Akonadi17ETMViewStateSaver11selectItemsERK7QVectorINS_4ItemEE@Base 15.07.90
 _ZN7Akonadi17ETMViewStateSaver16staticMetaObjectE@Base 15.07.90
 _ZN7Akonadi17ETMViewStateSaver17selectCollectionsERK5QListIxE@Base 15.07.90
 _ZN7Akonadi17ETMViewStateSaver17selectCollectionsERK7QVectorINS_10CollectionEE@Base 15.07.90
 _ZN7Akonadi17ETMViewStateSaverC1EP7QObject@Base 15.07.90
 _ZN7Akonadi17ETMViewStateSaverC2EP7QObject@Base 15.07.90
 _ZN7Akonadi18AgentActionManager11qt_metacallEN11QMetaObject4CallEiPPv@Base 15.07.90
 _ZN7Akonadi18AgentActionManager11qt_metacastEPKc@Base 15.07.90
 _ZN7Akonadi18AgentActionManager12createActionENS0_4TypeE@Base 15.07.90
 _ZN7Akonadi18AgentActionManager14setContextTextENS0_4TypeENS0_11TextContextERK16KLocalizedString@Base 15.07.90
 _ZN7Akonadi18AgentActionManager14setContextTextENS0_4TypeENS0_11TextContextERK7QString@Base 15.07.90
 _ZN7Akonadi18AgentActionManager15interceptActionENS0_4TypeEb@Base 15.07.90
 _ZN7Akonadi18AgentActionManager16createAllActionsEv@Base 15.07.90
 _ZN7Akonadi18AgentActionManager16staticMetaObjectE@Base 15.07.90
 _ZN7Akonadi18AgentActionManager17setMimeTypeFilterERK11QStringList@Base 15.07.90
 _ZN7Akonadi18AgentActionManager17setSelectionModelEP19QItemSelectionModel@Base 15.07.90
 _ZN7Akonadi18AgentActionManager18actionStateUpdatedEv@Base 15.07.90
 _ZN7Akonadi18AgentActionManager19setCapabilityFilterERK11QStringList@Base 15.07.90
 _ZN7Akonadi18AgentActionManagerC1EP17KActionCollectionP7QWidget@Base 15.07.90
 _ZN7Akonadi18AgentActionManagerC2EP17KActionCollectionP7QWidget@Base 15.07.90
 _ZN7Akonadi18AgentActionManagerD0Ev@Base 15.07.90
 _ZN7Akonadi18AgentActionManagerD1Ev@Base 15.07.90
 _ZN7Akonadi18AgentActionManagerD2Ev@Base 15.07.90
 _ZN7Akonadi18CollectionComboBox11qt_metacallEN11QMetaObject4CallEiPPv@Base 15.07.90
 _ZN7Akonadi18CollectionComboBox11qt_metacastEPKc@Base 15.07.90
 _ZN7Akonadi18CollectionComboBox14currentChangedERKNS_10CollectionE@Base 15.07.90
 _ZN7Akonadi18CollectionComboBox16staticMetaObjectE@Base 15.07.90
 _ZN7Akonadi18CollectionComboBox17setMimeTypeFilterERK11QStringList@Base 15.07.90
 _ZN7Akonadi18CollectionComboBox20setDefaultCollectionERKNS_10CollectionE@Base 15.07.90
 _ZN7Akonadi18CollectionComboBox21setAccessRightsFilterE6QFlagsINS_10Collection5RightEE@Base 15.07.90
 _ZN7Akonadi18CollectionComboBox28setExcludeVirtualCollectionsEb@Base 15.07.90
 _ZN7Akonadi18CollectionComboBoxC1EP18QAbstractItemModelP7QWidget@Base 15.07.90
 _ZN7Akonadi18CollectionComboBoxC1EP7QWidget@Base 15.07.90
 _ZN7Akonadi18CollectionComboBoxC2EP18QAbstractItemModelP7QWidget@Base 15.07.90
 _ZN7Akonadi18CollectionComboBoxC2EP7QWidget@Base 15.07.90
 _ZN7Akonadi18CollectionComboBoxD0Ev@Base 15.07.90
 _ZN7Akonadi18CollectionComboBoxD1Ev@Base 15.07.90
 _ZN7Akonadi18CollectionComboBoxD2Ev@Base 15.07.90
 _ZN7Akonadi18SubscriptionDialog11qt_metacallEN11QMetaObject4CallEiPPv@Base 15.07.90
 _ZN7Akonadi18SubscriptionDialog11qt_metacastEPKc@Base 15.07.90
 _ZN7Akonadi18SubscriptionDialog16staticMetaObjectE@Base 15.07.90
 _ZN7Akonadi18SubscriptionDialog20showHiddenCollectionEb@Base 15.07.90
 _ZN7Akonadi18SubscriptionDialog4initERK11QStringList@Base 15.07.90
 _ZN7Akonadi18SubscriptionDialogC1EP7QWidget@Base 15.07.90
 _ZN7Akonadi18SubscriptionDialogC1ERK11QStringListP7QWidget@Base 15.07.90
 _ZN7Akonadi18SubscriptionDialogC2EP7QWidget@Base 15.07.90
 _ZN7Akonadi18SubscriptionDialogC2ERK11QStringListP7QWidget@Base 15.07.90
 _ZN7Akonadi18SubscriptionDialogD0Ev@Base 15.07.90
 _ZN7Akonadi18SubscriptionDialogD1Ev@Base 15.07.90
 _ZN7Akonadi18SubscriptionDialogD2Ev@Base 15.07.90
 _ZN7Akonadi18TagSelectionDialog11qt_metacallEN11QMetaObject4CallEiPPv@Base 15.07.90
 _ZN7Akonadi18TagSelectionDialog11qt_metacastEPKc@Base 15.07.90
 _ZN7Akonadi18TagSelectionDialog12setSelectionERK7QVectorINS_3TagEE@Base 4:15.12.0
 _ZN7Akonadi18TagSelectionDialog16selectionChangedERK7QVectorINS_3TagEE@Base 4:15.12.0
 _ZN7Akonadi18TagSelectionDialog16staticMetaObjectE@Base 15.07.90
 _ZN7Akonadi18TagSelectionDialogC1EP7QWidget@Base 15.07.90
 _ZN7Akonadi18TagSelectionDialogC2EP7QWidget@Base 15.07.90
 _ZN7Akonadi18TagSelectionDialogD0Ev@Base 15.07.90
 _ZN7Akonadi18TagSelectionDialogD1Ev@Base 15.07.90
 _ZN7Akonadi18TagSelectionDialogD2Ev@Base 15.07.90
 _ZN7Akonadi19AgentInstanceWidget11qt_metacallEN11QMetaObject4CallEiPPv@Base 15.07.90
 _ZN7Akonadi19AgentInstanceWidget11qt_metacastEPKc@Base 15.07.90
 _ZN7Akonadi19AgentInstanceWidget13doubleClickedERKNS_13AgentInstanceE@Base 15.07.90
 _ZN7Akonadi19AgentInstanceWidget14currentChangedERKNS_13AgentInstanceES3_@Base 15.07.90
 _ZN7Akonadi19AgentInstanceWidget16staticMetaObjectE@Base 15.07.90
 _ZN7Akonadi19AgentInstanceWidget7clickedERKNS_13AgentInstanceE@Base 15.07.90
 _ZN7Akonadi19AgentInstanceWidgetC1EP7QWidget@Base 15.07.90
 _ZN7Akonadi19AgentInstanceWidgetC2EP7QWidget@Base 15.07.90
 _ZN7Akonadi19AgentInstanceWidgetD0Ev@Base 15.07.90
 _ZN7Akonadi19AgentInstanceWidgetD1Ev@Base 15.07.90
 _ZN7Akonadi19AgentInstanceWidgetD2Ev@Base 15.07.90
 _ZN7Akonadi19CollectionRequester11changeEventEP6QEvent@Base 15.07.90
 _ZN7Akonadi19CollectionRequester11qt_metacallEN11QMetaObject4CallEiPPv@Base 15.07.90
 _ZN7Akonadi19CollectionRequester11qt_metacastEPKc@Base 15.07.90
 _ZN7Akonadi19CollectionRequester13setCollectionERKNS_10CollectionE@Base 15.07.90
 _ZN7Akonadi19CollectionRequester16staticMetaObjectE@Base 15.07.90
 _ZN7Akonadi19CollectionRequester17collectionChangedERKNS_10CollectionE@Base 15.07.90
 _ZN7Akonadi19CollectionRequester17setMimeTypeFilterERK11QStringList@Base 15.07.90
 _ZN7Akonadi19CollectionRequester19setContentMimeTypesERK11QStringList@Base 15.07.90
 _ZN7Akonadi19CollectionRequester21setAccessRightsFilterE6QFlagsINS_10Collection5RightEE@Base 15.07.90
 _ZN7Akonadi19CollectionRequester29changeCollectionDialogOptionsE6QFlagsINS_16CollectionDialog22CollectionDialogOptionEE@Base 15.07.90
 _ZN7Akonadi19CollectionRequesterC1EP7QWidget@Base 15.07.90
 _ZN7Akonadi19CollectionRequesterC1ERKNS_10CollectionEP7QWidget@Base 15.07.90
 _ZN7Akonadi19CollectionRequesterC2EP7QWidget@Base 15.07.90
 _ZN7Akonadi19CollectionRequesterC2ERKNS_10CollectionEP7QWidget@Base 15.07.90
 _ZN7Akonadi19CollectionRequesterD0Ev@Base 15.07.90
 _ZN7Akonadi19CollectionRequesterD1Ev@Base 15.07.90
 _ZN7Akonadi19CollectionRequesterD2Ev@Base 15.07.90
 _ZN7Akonadi19ManageAccountWidget11eventFilterEP7QObjectP6QEvent@Base 4:15.12.0
 _ZN7Akonadi19ManageAccountWidget11qt_metacallEN11QMetaObject4CallEiPPv@Base 4:15.12.0
 _ZN7Akonadi19ManageAccountWidget11qt_metacastEPKc@Base 4:15.12.0
 _ZN7Akonadi19ManageAccountWidget14slotAddAccountEv@Base 4:15.12.0
 _ZN7Akonadi19ManageAccountWidget15setItemDelegateEP21QAbstractItemDelegate@Base 4:15.12.0
 _ZN7Akonadi19ManageAccountWidget16staticMetaObjectE@Base 4:15.12.0
 _ZN7Akonadi19ManageAccountWidget17setMimeTypeFilterERK11QStringList@Base 4:15.12.0
 _ZN7Akonadi19ManageAccountWidget19setCapabilityFilterERK11QStringList@Base 4:15.12.0
 _ZN7Akonadi19ManageAccountWidget19slotAccountSelectedERKNS_13AgentInstanceE@Base 4:15.12.0
 _ZN7Akonadi19ManageAccountWidget22setExcludeCapabilitiesERK11QStringList@Base 4:15.12.0
 _ZN7Akonadi19ManageAccountWidget25slotModifySelectedAccountEv@Base 4:15.12.0
 _ZN7Akonadi19ManageAccountWidget25slotRemoveSelectedAccountEv@Base 4:15.12.0
 _ZN7Akonadi19ManageAccountWidget26slotRestartSelectedAccountEv@Base 4:15.12.0
 _ZN7Akonadi19ManageAccountWidget30setSpecialCollectionIdentifierERK7QString@Base 4:15.12.0
 _ZN7Akonadi19ManageAccountWidgetC1EP7QWidget@Base 4:15.12.0
 _ZN7Akonadi19ManageAccountWidgetC2EP7QWidget@Base 4:15.12.0
 _ZN7Akonadi19ManageAccountWidgetD0Ev@Base 4:15.12.0
 _ZN7Akonadi19ManageAccountWidgetD1Ev@Base 4:15.12.0
 _ZN7Akonadi19ManageAccountWidgetD2Ev@Base 4:15.12.0
 _ZN7Akonadi19TagManagementDialog11qt_metacallEN11QMetaObject4CallEiPPv@Base 15.07.90
 _ZN7Akonadi19TagManagementDialog11qt_metacastEPKc@Base 15.07.90
 _ZN7Akonadi19TagManagementDialog16staticMetaObjectE@Base 15.07.90
 _ZN7Akonadi19TagManagementDialog7buttonsEv@Base 15.07.90
 _ZN7Akonadi19TagManagementDialogC1EP7QWidget@Base 15.07.90
 _ZN7Akonadi19TagManagementDialogC2EP7QWidget@Base 15.07.90
 _ZN7Akonadi19TagManagementDialogD0Ev@Base 15.07.90
 _ZN7Akonadi19TagManagementDialogD1Ev@Base 15.07.90
 _ZN7Akonadi19TagManagementDialogD2Ev@Base 15.07.90
 _ZN7Akonadi21StandardActionManager11qt_metacallEN11QMetaObject4CallEiPPv@Base 15.07.90
 _ZN7Akonadi21StandardActionManager11qt_metacastEPKc@Base 15.07.90
 _ZN7Akonadi21StandardActionManager12createActionENS0_4TypeE@Base 15.07.90
 _ZN7Akonadi21StandardActionManager13setActionTextENS0_4TypeERK16KLocalizedString@Base 15.07.90
 _ZN7Akonadi21StandardActionManager14setContextTextENS0_4TypeENS0_11TextContextERK16KLocalizedString@Base 15.07.90
 _ZN7Akonadi21StandardActionManager14setContextTextENS0_4TypeENS0_11TextContextERK7QString@Base 15.07.90
 _ZN7Akonadi21StandardActionManager15interceptActionENS0_4TypeEb@Base 15.07.90
 _ZN7Akonadi21StandardActionManager16createAllActionsEv@Base 15.07.90
 _ZN7Akonadi21StandardActionManager16staticMetaObjectE@Base 15.07.90
 _ZN7Akonadi21StandardActionManager17setMimeTypeFilterERK11QStringList@Base 15.07.90
 _ZN7Akonadi21StandardActionManager18actionStateUpdatedEv@Base 15.07.90
 _ZN7Akonadi21StandardActionManager19setCapabilityFilterERK11QStringList@Base 15.07.90
 _ZN7Akonadi21StandardActionManager21setItemSelectionModelEP19QItemSelectionModel@Base 15.07.90
 _ZN7Akonadi21StandardActionManager22createActionFolderMenuEP5QMenuNS0_4TypeE@Base 15.07.90
 _ZN7Akonadi21StandardActionManager25setFavoriteSelectionModelEP19QItemSelectionModel@Base 15.07.90
 _ZN7Akonadi21StandardActionManager27setCollectionSelectionModelEP19QItemSelectionModel@Base 15.07.90
 _ZN7Akonadi21StandardActionManager27setFavoriteCollectionsModelEPNS_24FavoriteCollectionsModelE@Base 15.07.90
 _ZN7Akonadi21StandardActionManager32setCollectionPropertiesPageNamesERK11QStringList@Base 15.07.90
 _ZN7Akonadi21StandardActionManagerC1EP17KActionCollectionP7QWidget@Base 15.07.90
 _ZN7Akonadi21StandardActionManagerC2EP17KActionCollectionP7QWidget@Base 15.07.90
 _ZN7Akonadi21StandardActionManagerD0Ev@Base 15.07.90
 _ZN7Akonadi21StandardActionManagerD1Ev@Base 15.07.90
 _ZN7Akonadi21StandardActionManagerD2Ev@Base 15.07.90
 _ZN7Akonadi24CollectionPropertiesPage11qt_metacallEN11QMetaObject4CallEiPPv@Base 15.07.90
 _ZN7Akonadi24CollectionPropertiesPage11qt_metacastEPKc@Base 15.07.90
 _ZN7Akonadi24CollectionPropertiesPage12setPageTitleERK7QString@Base 15.07.90
 _ZN7Akonadi24CollectionPropertiesPage16staticMetaObjectE@Base 15.07.90
 _ZN7Akonadi24CollectionPropertiesPageC1EP7QWidget@Base 15.07.90
 _ZN7Akonadi24CollectionPropertiesPageC2EP7QWidget@Base 15.07.90
 _ZN7Akonadi24CollectionPropertiesPageD0Ev@Base 15.07.90
 _ZN7Akonadi24CollectionPropertiesPageD1Ev@Base 15.07.90
 _ZN7Akonadi24CollectionPropertiesPageD2Ev@Base 15.07.90
 _ZN7Akonadi26CollectionPropertiesDialog11qt_metacallEN11QMetaObject4CallEiPPv@Base 15.07.90
 _ZN7Akonadi26CollectionPropertiesDialog11qt_metacastEPKc@Base 15.07.90
 _ZN7Akonadi26CollectionPropertiesDialog12registerPageEPNS_31CollectionPropertiesPageFactoryE@Base 15.07.90
 _ZN7Akonadi26CollectionPropertiesDialog14setCurrentPageERK7QString@Base 15.07.90
 _ZN7Akonadi26CollectionPropertiesDialog14useDefaultPageEb@Base 15.07.90
 _ZN7Akonadi26CollectionPropertiesDialog16staticMetaObjectE@Base 15.07.90
 _ZN7Akonadi26CollectionPropertiesDialog21defaultPageObjectNameENS0_11DefaultPageE@Base 15.07.90
 _ZN7Akonadi26CollectionPropertiesDialogC1ERKNS_10CollectionEP7QWidget@Base 15.07.90
 _ZN7Akonadi26CollectionPropertiesDialogC1ERKNS_10CollectionERK11QStringListP7QWidget@Base 15.07.90
 _ZN7Akonadi26CollectionPropertiesDialogC2ERKNS_10CollectionEP7QWidget@Base 15.07.90
 _ZN7Akonadi26CollectionPropertiesDialogC2ERKNS_10CollectionERK11QStringListP7QWidget@Base 15.07.90
 _ZN7Akonadi26CollectionPropertiesDialogD0Ev@Base 15.07.90
 _ZN7Akonadi26CollectionPropertiesDialogD1Ev@Base 15.07.90
 _ZN7Akonadi26CollectionPropertiesDialogD2Ev@Base 15.07.90
 _ZN7Akonadi28CollectionStatisticsDelegate11qt_metacallEN11QMetaObject4CallEiPPv@Base 15.07.90
 _ZN7Akonadi28CollectionStatisticsDelegate11qt_metacastEPKc@Base 15.07.90
 _ZN7Akonadi28CollectionStatisticsDelegate13updatePaletteEv@Base 15.07.90
 _ZN7Akonadi28CollectionStatisticsDelegate16staticMetaObjectE@Base 15.07.90
 _ZN7Akonadi28CollectionStatisticsDelegate19setUnreadCountShownEb@Base 15.07.90
 _ZN7Akonadi28CollectionStatisticsDelegate27setProgressAnimationEnabledEb@Base 15.07.90
 _ZN7Akonadi28CollectionStatisticsDelegateC1EP17QAbstractItemView@Base 15.07.90
 _ZN7Akonadi28CollectionStatisticsDelegateC1EP9QTreeView@Base 15.07.90
 _ZN7Akonadi28CollectionStatisticsDelegateC2EP17QAbstractItemView@Base 15.07.90
 _ZN7Akonadi28CollectionStatisticsDelegateC2EP9QTreeView@Base 15.07.90
 _ZN7Akonadi28CollectionStatisticsDelegateD0Ev@Base 15.07.90
 _ZN7Akonadi28CollectionStatisticsDelegateD1Ev@Base 15.07.90
 _ZN7Akonadi28CollectionStatisticsDelegateD2Ev@Base 15.07.90
 _ZN7Akonadi31CollectionPropertiesPageFactoryD0Ev@Base 15.07.90
 _ZN7Akonadi31CollectionPropertiesPageFactoryD1Ev@Base 15.07.90
 _ZN7Akonadi31CollectionPropertiesPageFactoryD2Ev@Base 15.07.90
 _ZN7Akonadi8ItemView11qt_metacallEN11QMetaObject4CallEiPPv@Base 15.07.90
 _ZN7Akonadi8ItemView11qt_metacastEPKc@Base 15.07.90
 _ZN7Akonadi8ItemView13doubleClickedERKNS_4ItemE@Base 15.07.90
 _ZN7Akonadi8ItemView14currentChangedERKNS_4ItemE@Base 15.07.90
 _ZN7Akonadi8ItemView15setXmlGuiClientEP13KXMLGUIClient@Base 15.07.90
 _ZN7Akonadi8ItemView16contextMenuEventEP17QContextMenuEvent@Base 15.07.90
 _ZN7Akonadi8ItemView16staticMetaObjectE@Base 15.07.90
 _ZN7Akonadi8ItemView7clickedERKNS_4ItemE@Base 15.07.90
 _ZN7Akonadi8ItemView8setModelEP18QAbstractItemModel@Base 15.07.90
 _ZN7Akonadi8ItemView9activatedERKNS_4ItemE@Base 15.07.90
 _ZN7Akonadi8ItemViewC1EP13KXMLGUIClientP7QWidget@Base 15.07.90
 _ZN7Akonadi8ItemViewC1EP7QWidget@Base 15.07.90
 _ZN7Akonadi8ItemViewC2EP13KXMLGUIClientP7QWidget@Base 15.07.90
 _ZN7Akonadi8ItemViewC2EP7QWidget@Base 15.07.90
 _ZN7Akonadi8ItemViewD0Ev@Base 15.07.90
 _ZN7Akonadi8ItemViewD1Ev@Base 15.07.90
 _ZN7Akonadi8ItemViewD2Ev@Base 15.07.90
 _ZN7Akonadi9TagWidget10updateViewEv@Base 15.07.90
 _ZN7Akonadi9TagWidget11qt_metacallEN11QMetaObject4CallEiPPv@Base 15.07.90
 _ZN7Akonadi9TagWidget11qt_metacastEPKc@Base 15.07.90
 _ZN7Akonadi9TagWidget12setSelectionERK7QVectorINS_3TagEE@Base 4:15.12.0
 _ZN7Akonadi9TagWidget16selectionChangedERK7QVectorINS_3TagEE@Base 4:15.12.0
 _ZN7Akonadi9TagWidget16staticMetaObjectE@Base 15.07.90
 _ZN7Akonadi9TagWidget8editTagsEv@Base 15.07.90
 _ZN7Akonadi9TagWidgetC1EP7QWidget@Base 15.07.90
 _ZN7Akonadi9TagWidgetC2EP7QWidget@Base 15.07.90
 _ZN7Akonadi9TagWidgetD0Ev@Base 15.07.90
 _ZN7Akonadi9TagWidgetD1Ev@Base 15.07.90
 _ZN7Akonadi9TagWidgetD2Ev@Base 15.07.90
 _ZNK12KConfigGroup9readEntryI5QSizeEET_PKcRKS2_@Base 15.07.90
 _ZNK12KConfigGroup9readEntryIbEET_PKcRKS1_@Base 15.07.90
 _ZNK7Akonadi10ControlGui10metaObjectEv@Base 15.07.90
 _ZNK7Akonadi13TagEditWidget10metaObjectEv@Base 15.07.90
 _ZNK7Akonadi13TagEditWidget9selectionEv@Base 15.07.90
 _ZNK7Akonadi14CollectionView10metaObjectEv@Base 15.07.90
 _ZNK7Akonadi14EntityListView10metaObjectEv@Base 15.07.90
 _ZNK7Akonadi14EntityListView12xmlGuiClientEv@Base 15.07.90
 _ZNK7Akonadi14EntityListView23isDropActionMenuEnabledEv@Base 15.07.90
 _ZNK7Akonadi14EntityTreeView10metaObjectEv@Base 15.07.90
 _ZNK7Akonadi14EntityTreeView12xmlGuiClientEv@Base 15.07.90
 _ZNK7Akonadi14EntityTreeView21isManualSortingActiveEv@Base 15.07.90
 _ZNK7Akonadi14EntityTreeView23isDropActionMenuEnabledEv@Base 15.07.90
 _ZNK7Akonadi14SelfTestDialog10metaObjectEv@Base 15.07.90
 _ZNK7Akonadi14SelfTestDialog10runProcessERK7QStringRK11QStringListRS1_@Base 15.07.90
 _ZNK7Akonadi14SelfTestDialog13serverSettingERK7QStringPKcRK8QVariant@Base 15.07.90
 _ZNK7Akonadi14SelfTestDialog24useStandaloneMysqlServerEv@Base 15.07.90
 _ZNK7Akonadi15AgentTypeDialog10metaObjectEv@Base 15.07.90
 _ZNK7Akonadi15AgentTypeDialog21agentFilterProxyModelEv@Base 15.07.90
 _ZNK7Akonadi15AgentTypeDialog9agentTypeEv@Base 15.07.90
 _ZNK7Akonadi15AgentTypeWidget10metaObjectEv@Base 15.07.90
 _ZNK7Akonadi15AgentTypeWidget16currentAgentTypeEv@Base 15.07.90
 _ZNK7Akonadi15AgentTypeWidget21agentFilterProxyModelEv@Base 15.07.90
 _ZNK7Akonadi15CachePolicyPage10metaObjectEv@Base 15.07.90
 _ZNK7Akonadi15CachePolicyPage9canHandleERKNS_10CollectionE@Base 15.07.90
 _ZNK7Akonadi15TagSelectWidget10metaObjectEv@Base 15.07.90
 _ZNK7Akonadi15TagSelectWidget15tagToStringListEv@Base 15.07.90
 _ZNK7Akonadi15TagSelectWidget9selectionEv@Base 15.07.90
 _ZNK7Akonadi16CollectionDialog10metaObjectEv@Base 15.07.90
 _ZNK7Akonadi16CollectionDialog13selectionModeEv@Base 15.07.90
 _ZNK7Akonadi16CollectionDialog14mimeTypeFilterEv@Base 15.07.90
 _ZNK7Akonadi16CollectionDialog18accessRightsFilterEv@Base 15.07.90
 _ZNK7Akonadi16CollectionDialog18selectedCollectionEv@Base 15.07.90
 _ZNK7Akonadi16CollectionDialog18useFolderByDefaultEv@Base 15.07.90
 _ZNK7Akonadi16CollectionDialog19selectedCollectionsEv@Base 15.07.90
 _ZNK7Akonadi17ETMViewStateSaver10metaObjectEv@Base 15.07.90
 _ZNK7Akonadi17ETMViewStateSaver19indexToConfigStringERK11QModelIndex@Base 15.07.90
 _ZNK7Akonadi17ETMViewStateSaver21indexFromConfigStringEPK18QAbstractItemModelRK7QString@Base 15.07.90
 _ZNK7Akonadi18AgentActionManager10metaObjectEv@Base 15.07.90
 _ZNK7Akonadi18AgentActionManager22selectedAgentInstancesEv@Base 15.07.90
 _ZNK7Akonadi18AgentActionManager6actionENS0_4TypeE@Base 15.07.90
 _ZNK7Akonadi18CollectionComboBox10metaObjectEv@Base 15.07.90
 _ZNK7Akonadi18CollectionComboBox14mimeTypeFilterEv@Base 15.07.90
 _ZNK7Akonadi18CollectionComboBox17currentCollectionEv@Base 15.07.90
 _ZNK7Akonadi18CollectionComboBox18accessRightsFilterEv@Base 15.07.90
 _ZNK7Akonadi18CollectionComboBox25excludeVirtualCollectionsEv@Base 15.07.90
 _ZNK7Akonadi18SubscriptionDialog10metaObjectEv@Base 15.07.90
 _ZNK7Akonadi18TagSelectionDialog10metaObjectEv@Base 15.07.90
 _ZNK7Akonadi18TagSelectionDialog7buttonsEv@Base 15.07.90
 _ZNK7Akonadi18TagSelectionDialog9selectionEv@Base 15.07.90
 _ZNK7Akonadi19AgentInstanceWidget10metaObjectEv@Base 15.07.90
 _ZNK7Akonadi19AgentInstanceWidget20currentAgentInstanceEv@Base 15.07.90
 _ZNK7Akonadi19AgentInstanceWidget21agentFilterProxyModelEv@Base 15.07.90
 _ZNK7Akonadi19AgentInstanceWidget22selectedAgentInstancesEv@Base 15.07.90
 _ZNK7Akonadi19AgentInstanceWidget4viewEv@Base 15.07.90
 _ZNK7Akonadi19CollectionRequester10collectionEv@Base 15.07.90
 _ZNK7Akonadi19CollectionRequester10metaObjectEv@Base 15.07.90
 _ZNK7Akonadi19CollectionRequester14mimeTypeFilterEv@Base 15.07.90
 _ZNK7Akonadi19CollectionRequester18accessRightsFilterEv@Base 15.07.90
 _ZNK7Akonadi19ManageAccountWidget10metaObjectEv@Base 4:15.12.0
 _ZNK7Akonadi19ManageAccountWidget14mimeTypeFilterEv@Base 4:15.12.0
 _ZNK7Akonadi19ManageAccountWidget16capabilityFilterEv@Base 4:15.12.0
 _ZNK7Akonadi19ManageAccountWidget19excludeCapabilitiesEv@Base 4:15.12.0
 _ZNK7Akonadi19ManageAccountWidget4viewEv@Base 4:15.12.0
 _ZNK7Akonadi19TagManagementDialog10metaObjectEv@Base 15.07.90
 _ZNK7Akonadi21StandardActionManager10metaObjectEv@Base 15.07.90
 _ZNK7Akonadi21StandardActionManager13selectedItemsEv@Base 15.07.90
 _ZNK7Akonadi21StandardActionManager19selectedCollectionsEv@Base 15.07.90
 _ZNK7Akonadi21StandardActionManager6actionENS0_4TypeE@Base 15.07.90
 _ZNK7Akonadi24CollectionPropertiesPage10metaObjectEv@Base 15.07.90
 _ZNK7Akonadi24CollectionPropertiesPage9canHandleERKNS_10CollectionE@Base 15.07.90
 _ZNK7Akonadi24CollectionPropertiesPage9pageTitleEv@Base 15.07.90
 _ZNK7Akonadi26CollectionPropertiesDialog10metaObjectEv@Base 15.07.90
 _ZNK7Akonadi28CollectionStatisticsDelegate10metaObjectEv@Base 15.07.90
 _ZNK7Akonadi28CollectionStatisticsDelegate15initStyleOptionEP20QStyleOptionViewItemRK11QModelIndex@Base 15.07.90
 _ZNK7Akonadi28CollectionStatisticsDelegate16unreadCountShownEv@Base 15.07.90
 _ZNK7Akonadi28CollectionStatisticsDelegate24progressAnimationEnabledEv@Base 15.07.90
 _ZNK7Akonadi28CollectionStatisticsDelegate5paintEP8QPainterRK20QStyleOptionViewItemRK11QModelIndex@Base 15.07.90
 _ZNK7Akonadi8ItemView10metaObjectEv@Base 15.07.90
 _ZNK7Akonadi9TagWidget10metaObjectEv@Base 15.07.90
 _ZNK7Akonadi9TagWidget9selectionEv@Base 15.07.90
 _ZTIN7Akonadi10ControlGuiE@Base 15.07.90
 _ZTIN7Akonadi13TagEditWidgetE@Base 15.07.90
 _ZTIN7Akonadi14CollectionViewE@Base 15.07.90
 _ZTIN7Akonadi14EntityListViewE@Base 15.07.90
 _ZTIN7Akonadi14EntityTreeViewE@Base 15.07.90
 _ZTIN7Akonadi14SelfTestDialogE@Base 15.07.90
 _ZTIN7Akonadi15AgentTypeDialogE@Base 15.07.90
 _ZTIN7Akonadi15AgentTypeWidgetE@Base 15.07.90
 _ZTIN7Akonadi15CachePolicyPageE@Base 15.07.90
 _ZTIN7Akonadi15TagSelectWidgetE@Base 15.07.90
 _ZTIN7Akonadi16CollectionDialogE@Base 15.07.90
 _ZTIN7Akonadi17ETMViewStateSaverE@Base 15.07.90
 _ZTIN7Akonadi18AgentActionManagerE@Base 15.07.90
 _ZTIN7Akonadi18CollectionComboBoxE@Base 15.07.90
 _ZTIN7Akonadi18SubscriptionDialogE@Base 15.07.90
 _ZTIN7Akonadi18TagSelectionDialogE@Base 15.07.90
 _ZTIN7Akonadi19AgentInstanceWidgetE@Base 15.07.90
 _ZTIN7Akonadi19CollectionRequesterE@Base 15.07.90
 _ZTIN7Akonadi19ManageAccountWidgetE@Base 4:15.12.0
 _ZTIN7Akonadi19TagManagementDialogE@Base 15.07.90
 _ZTIN7Akonadi21StandardActionManagerE@Base 15.07.90
 _ZTIN7Akonadi24CollectionPropertiesPageE@Base 15.07.90
 _ZTIN7Akonadi26CollectionPropertiesDialogE@Base 15.07.90
 _ZTIN7Akonadi28CollectionStatisticsDelegateE@Base 15.07.90
 _ZTIN7Akonadi31CollectionPropertiesPageFactoryE@Base 15.07.90
 _ZTIN7Akonadi8ItemViewE@Base 15.07.90
 _ZTIN7Akonadi9TagWidgetE@Base 15.07.90
 _ZTSN7Akonadi10ControlGuiE@Base 15.07.90
 _ZTSN7Akonadi13TagEditWidgetE@Base 15.07.90
 _ZTSN7Akonadi14CollectionViewE@Base 15.07.90
 _ZTSN7Akonadi14EntityListViewE@Base 15.07.90
 _ZTSN7Akonadi14EntityTreeViewE@Base 15.07.90
 _ZTSN7Akonadi14SelfTestDialogE@Base 15.07.90
 _ZTSN7Akonadi15AgentTypeDialogE@Base 15.07.90
 _ZTSN7Akonadi15AgentTypeWidgetE@Base 15.07.90
 _ZTSN7Akonadi15CachePolicyPageE@Base 15.07.90
 _ZTSN7Akonadi15TagSelectWidgetE@Base 15.07.90
 _ZTSN7Akonadi16CollectionDialogE@Base 15.07.90
 _ZTSN7Akonadi17ETMViewStateSaverE@Base 15.07.90
 _ZTSN7Akonadi18AgentActionManagerE@Base 15.07.90
 _ZTSN7Akonadi18CollectionComboBoxE@Base 15.07.90
 _ZTSN7Akonadi18SubscriptionDialogE@Base 15.07.90
 _ZTSN7Akonadi18TagSelectionDialogE@Base 15.07.90
 _ZTSN7Akonadi19AgentInstanceWidgetE@Base 15.07.90
 _ZTSN7Akonadi19CollectionRequesterE@Base 15.07.90
 _ZTSN7Akonadi19ManageAccountWidgetE@Base 4:15.12.0
 _ZTSN7Akonadi19TagManagementDialogE@Base 15.07.90
 _ZTSN7Akonadi21StandardActionManagerE@Base 15.07.90
 _ZTSN7Akonadi24CollectionPropertiesPageE@Base 15.07.90
 _ZTSN7Akonadi26CollectionPropertiesDialogE@Base 15.07.90
 _ZTSN7Akonadi28CollectionStatisticsDelegateE@Base 15.07.90
 _ZTSN7Akonadi31CollectionPropertiesPageFactoryE@Base 15.07.90
 _ZTSN7Akonadi8ItemViewE@Base 15.07.90
 _ZTSN7Akonadi9TagWidgetE@Base 15.07.90
 _ZTVN7Akonadi10ControlGuiE@Base 15.07.90
 _ZTVN7Akonadi13TagEditWidgetE@Base 15.07.90
 _ZTVN7Akonadi14CollectionViewE@Base 15.07.90
 _ZTVN7Akonadi14EntityListViewE@Base 15.07.90
 _ZTVN7Akonadi14EntityTreeViewE@Base 15.07.90
 _ZTVN7Akonadi14SelfTestDialogE@Base 15.07.90
 _ZTVN7Akonadi15AgentTypeDialogE@Base 15.07.90
 _ZTVN7Akonadi15AgentTypeWidgetE@Base 15.07.90
 _ZTVN7Akonadi15CachePolicyPageE@Base 15.07.90
 _ZTVN7Akonadi15TagSelectWidgetE@Base 15.07.90
 _ZTVN7Akonadi16CollectionDialogE@Base 15.07.90
 _ZTVN7Akonadi17ETMViewStateSaverE@Base 15.07.90
 _ZTVN7Akonadi18AgentActionManagerE@Base 15.07.90
 _ZTVN7Akonadi18CollectionComboBoxE@Base 15.07.90
 _ZTVN7Akonadi18SubscriptionDialogE@Base 15.07.90
 _ZTVN7Akonadi18TagSelectionDialogE@Base 15.07.90
 _ZTVN7Akonadi19AgentInstanceWidgetE@Base 15.07.90
 _ZTVN7Akonadi19CollectionRequesterE@Base 15.07.90
 _ZTVN7Akonadi19ManageAccountWidgetE@Base 4:15.12.0
 _ZTVN7Akonadi19TagManagementDialogE@Base 15.07.90
 _ZTVN7Akonadi21StandardActionManagerE@Base 15.07.90
 _ZTVN7Akonadi24CollectionPropertiesPageE@Base 15.07.90
 _ZTVN7Akonadi26CollectionPropertiesDialogE@Base 15.07.90
 _ZTVN7Akonadi28CollectionStatisticsDelegateE@Base 15.07.90
 _ZTVN7Akonadi31CollectionPropertiesPageFactoryE@Base 15.07.90
 _ZTVN7Akonadi8ItemViewE@Base 15.07.90
 _ZTVN7Akonadi9TagWidgetE@Base 15.07.90
 _ZThn16_N7Akonadi13TagEditWidgetD0Ev@Base 15.07.90
 _ZThn16_N7Akonadi13TagEditWidgetD1Ev@Base 15.07.90
 _ZThn16_N7Akonadi14CollectionViewD0Ev@Base 15.07.90
 _ZThn16_N7Akonadi14CollectionViewD1Ev@Base 15.07.90
 _ZThn16_N7Akonadi14EntityListViewD0Ev@Base 15.07.90
 _ZThn16_N7Akonadi14EntityListViewD1Ev@Base 15.07.90
 _ZThn16_N7Akonadi14EntityTreeViewD0Ev@Base 15.07.90
 _ZThn16_N7Akonadi14EntityTreeViewD1Ev@Base 15.07.90
 _ZThn16_N7Akonadi15AgentTypeDialogD0Ev@Base 15.07.90
 _ZThn16_N7Akonadi15AgentTypeDialogD1Ev@Base 15.07.90
 _ZThn16_N7Akonadi15AgentTypeWidgetD0Ev@Base 15.07.90
 _ZThn16_N7Akonadi15AgentTypeWidgetD1Ev@Base 15.07.90
 _ZThn16_N7Akonadi15CachePolicyPageD0Ev@Base 15.07.90
 _ZThn16_N7Akonadi15CachePolicyPageD1Ev@Base 15.07.90
 _ZThn16_N7Akonadi15TagSelectWidgetD0Ev@Base 15.07.90
 _ZThn16_N7Akonadi15TagSelectWidgetD1Ev@Base 15.07.90
 _ZThn16_N7Akonadi16CollectionDialogD0Ev@Base 15.07.90
 _ZThn16_N7Akonadi16CollectionDialogD1Ev@Base 15.07.90
 _ZThn16_N7Akonadi18CollectionComboBoxD0Ev@Base 15.07.90
 _ZThn16_N7Akonadi18CollectionComboBoxD1Ev@Base 15.07.90
 _ZThn16_N7Akonadi18SubscriptionDialogD0Ev@Base 15.07.90
 _ZThn16_N7Akonadi18SubscriptionDialogD1Ev@Base 15.07.90
 _ZThn16_N7Akonadi18TagSelectionDialogD0Ev@Base 15.07.90
 _ZThn16_N7Akonadi18TagSelectionDialogD1Ev@Base 15.07.90
 _ZThn16_N7Akonadi19AgentInstanceWidgetD0Ev@Base 15.07.90
 _ZThn16_N7Akonadi19AgentInstanceWidgetD1Ev@Base 15.07.90
 _ZThn16_N7Akonadi19CollectionRequesterD0Ev@Base 15.07.90
 _ZThn16_N7Akonadi19CollectionRequesterD1Ev@Base 15.07.90
 _ZThn16_N7Akonadi19ManageAccountWidgetD0Ev@Base 4:15.12.0
 _ZThn16_N7Akonadi19ManageAccountWidgetD1Ev@Base 4:15.12.0
 _ZThn16_N7Akonadi19TagManagementDialogD0Ev@Base 15.07.90
 _ZThn16_N7Akonadi19TagManagementDialogD1Ev@Base 15.07.90
 _ZThn16_N7Akonadi24CollectionPropertiesPageD0Ev@Base 15.07.90
 _ZThn16_N7Akonadi24CollectionPropertiesPageD1Ev@Base 15.07.90
 _ZThn16_N7Akonadi26CollectionPropertiesDialogD0Ev@Base 15.07.90
 _ZThn16_N7Akonadi26CollectionPropertiesDialogD1Ev@Base 15.07.90
 _ZThn16_N7Akonadi8ItemViewD0Ev@Base 15.07.90
 _ZThn16_N7Akonadi8ItemViewD1Ev@Base 15.07.90
 _ZThn16_N7Akonadi9TagWidgetD0Ev@Base 15.07.90
 _ZThn16_N7Akonadi9TagWidgetD1Ev@Base 15.07.90
