libKF5NewStuff.so.5 libkf5newstuff5 #MINVER#
 _ZN10KMoreTools33registerServiceByDesktopEntryNameERK7QStringS2_NS_19ServiceLocatingModeE@Base 5.10.0
 _ZN10KMoreToolsC1ERK7QString@Base 5.10.0
 _ZN10KMoreToolsC2ERK7QString@Base 5.10.0
 _ZN10KMoreToolsD1Ev@Base 5.10.0
 _ZN10KMoreToolsD2Ev@Base 5.10.0
 _ZN17KMoreToolsPresets31registerServicesByGroupingNamesEP10KMoreToolsRK11QStringList@Base 5.10.0
 _ZN17KMoreToolsPresets33registerServiceByDesktopEntryNameEP10KMoreToolsRK7QString@Base 5.10.0
 _ZN17KMoreToolsService14setHomepageUrlERK4QUrl@Base 5.10.0
 _ZN17KMoreToolsService17setMaxUrlArgCountEi@Base 5.10.0
 _ZN17KMoreToolsService7setExecERK7QString@Base 5.10.0
 _ZN17KMoreToolsServiceC1ERK7QStringS2_b28QExplicitlySharedDataPointerI8KServiceES5_@Base 5.10.0
 _ZN17KMoreToolsServiceC2ERK7QStringS2_b28QExplicitlySharedDataPointerI8KServiceES5_@Base 5.10.0
 _ZN17KMoreToolsServiceD1Ev@Base 5.10.0
 _ZN17KMoreToolsServiceD2Ev@Base 5.10.0
 _ZN18KMoreToolsMenuItem18setInitialItemTextERK7QString@Base 5.10.0
 _ZN18KMoreToolsMenuItem5setIdERK7QString@Base 5.10.0
 _ZN18KMoreToolsMenuItemC1EP17KMoreToolsServiceN10KMoreTools11MenuSectionERK7QString@Base 5.10.0
 _ZN18KMoreToolsMenuItemC1EP7QActionRK7QStringN10KMoreTools11MenuSectionE@Base 5.10.0
 _ZN18KMoreToolsMenuItemC2EP17KMoreToolsServiceN10KMoreTools11MenuSectionERK7QString@Base 5.10.0
 _ZN18KMoreToolsMenuItemC2EP7QActionRK7QStringN10KMoreTools11MenuSectionE@Base 5.10.0
 _ZN18KMoreToolsMenuItemD1Ev@Base 5.10.0
 _ZN18KMoreToolsMenuItemD2Ev@Base 5.10.0
 _ZN21KMoreToolsMenuBuilder11addMenuItemEP17KMoreToolsServiceN10KMoreTools11MenuSectionE@Base 5.10.0
 _ZN21KMoreToolsMenuBuilder11addMenuItemEP7QActionRK7QStringN10KMoreTools11MenuSectionE@Base 5.10.0
 _ZN21KMoreToolsMenuBuilder16showConfigDialogERK7QString@Base 5.10.0
 _ZN21KMoreToolsMenuBuilder22buildByAppendingToMenuEP5QMenuN10KMoreTools32ConfigureDialogAccessibleSettingEPS1_@Base 5.10.0
 _ZN21KMoreToolsMenuBuilder26setInitialItemTextTemplateERK7QString@Base 5.10.0
 _ZN21KMoreToolsMenuBuilder5clearEv@Base 5.10.0
 _ZN21KMoreToolsMenuBuilderC1ERK7QStringS2_@Base 5.10.0
 _ZN21KMoreToolsMenuBuilderC1Ev@Base 5.10.0
 _ZN21KMoreToolsMenuBuilderC2ERK7QStringS2_@Base 5.10.0
 _ZN21KMoreToolsMenuBuilderC2Ev@Base 5.10.0
 _ZN21KMoreToolsMenuBuilderD1Ev@Base 5.10.0
 _ZN21KMoreToolsMenuBuilderD2Ev@Base 5.10.0
 _ZN21KMoreToolsMenuFactory25fillMenuFromGroupingNamesEP5QMenuRK11QStringListRK4QUrl@Base 5.11.0
 _ZN21KMoreToolsMenuFactory27createMenuFromGroupingNamesERK11QStringListRK4QUrl@Base 5.10.0
 _ZN21KMoreToolsMenuFactoryC1ERK7QString@Base 5.10.0
 _ZN21KMoreToolsMenuFactoryC2ERK7QString@Base 5.10.0
 _ZN21KMoreToolsMenuFactoryD1Ev@Base 5.10.0
 _ZN21KMoreToolsMenuFactoryD2Ev@Base 5.10.0
 _ZN4KNS312UploadDialog10setVersionERK7QString@Base 4.95.0
 _ZN4KNS312UploadDialog11qt_metacallEN11QMetaObject4CallEiPPv@Base 4.95.0
 _ZN4KNS312UploadDialog11qt_metacastEPKc@Base 4.95.0
 _ZN4KNS312UploadDialog12setChangelogERK7QString@Base 4.95.0
 _ZN4KNS312UploadDialog13setUploadFileERK4QUrl@Base 4.95.0
 _ZN4KNS312UploadDialog13setUploadNameERK7QString@Base 4.95.0
 _ZN4KNS312UploadDialog14selectCategoryERK7QString@Base 4.95.0
 _ZN4KNS312UploadDialog14setDescriptionERK7QString@Base 4.95.0
 _ZN4KNS312UploadDialog14setPriceReasonERK7QString@Base 4.95.0
 _ZN4KNS312UploadDialog15setPriceEnabledEb@Base 4.95.0
 _ZN4KNS312UploadDialog16staticMetaObjectE@Base 4.95.0
 _ZN4KNS312UploadDialog19setPreviewImageFileEjRK4QUrl@Base 4.95.0
 _ZN4KNS312UploadDialog4initERK7QString@Base 4.95.0
 _ZN4KNS312UploadDialog6acceptEv@Base 4.95.0
 _ZN4KNS312UploadDialog8setPriceEd@Base 4.95.0
 _ZN4KNS312UploadDialogC1EP7QWidget@Base 4.95.0
 _ZN4KNS312UploadDialogC1ERK7QStringP7QWidget@Base 4.95.0
 _ZN4KNS312UploadDialogC2EP7QWidget@Base 4.95.0
 _ZN4KNS312UploadDialogC2ERK7QStringP7QWidget@Base 4.95.0
 _ZN4KNS312UploadDialogD0Ev@Base 4.95.0
 _ZN4KNS312UploadDialogD1Ev@Base 4.95.0
 _ZN4KNS312UploadDialogD2Ev@Base 4.95.0
 _ZN4KNS314DownloadDialog11qt_metacallEN11QMetaObject4CallEiPPv@Base 4.95.0
 _ZN4KNS314DownloadDialog11qt_metacastEPKc@Base 4.95.0
 _ZN4KNS314DownloadDialog14changedEntriesEv@Base 4.95.0
 _ZN4KNS314DownloadDialog16installedEntriesEv@Base 4.95.0
 _ZN4KNS314DownloadDialog16staticMetaObjectE@Base 4.95.0
 _ZN4KNS314DownloadDialog4initERK7QString@Base 4.95.0
 _ZN4KNS314DownloadDialog8setTitleERK7QString@Base 5.0.0
 _ZN4KNS314DownloadDialogC1EP7QWidget@Base 4.95.0
 _ZN4KNS314DownloadDialogC1ERK7QStringP7QWidget@Base 4.95.0
 _ZN4KNS314DownloadDialogC2EP7QWidget@Base 4.95.0
 _ZN4KNS314DownloadDialogC2ERK7QStringP7QWidget@Base 4.95.0
 _ZN4KNS314DownloadDialogD0Ev@Base 4.95.0
 _ZN4KNS314DownloadDialogD1Ev@Base 4.95.0
 _ZN4KNS314DownloadDialogD2Ev@Base 4.95.0
 _ZN4KNS314DownloadWidget11qt_metacallEN11QMetaObject4CallEiPPv@Base 4.95.0
 _ZN4KNS314DownloadWidget11qt_metacastEPKc@Base 4.95.0
 _ZN4KNS314DownloadWidget14changedEntriesEv@Base 4.95.0
 _ZN4KNS314DownloadWidget16installedEntriesEv@Base 4.95.0
 _ZN4KNS314DownloadWidget16staticMetaObjectE@Base 4.95.0
 _ZN4KNS314DownloadWidget4initERK7QString@Base 4.95.0
 _ZN4KNS314DownloadWidget8setTitleERK7QString@Base 5.0.0
 _ZN4KNS314DownloadWidgetC1EP7QWidget@Base 4.95.0
 _ZN4KNS314DownloadWidgetC1ERK7QStringP7QWidget@Base 4.95.0
 _ZN4KNS314DownloadWidgetC2EP7QWidget@Base 4.95.0
 _ZN4KNS314DownloadWidgetC2ERK7QStringP7QWidget@Base 4.95.0
 _ZN4KNS314DownloadWidgetD0Ev@Base 4.95.0
 _ZN4KNS314DownloadWidgetD1Ev@Base 4.95.0
 _ZN4KNS314DownloadWidgetD2Ev@Base 4.95.0
 _ZN4KNS314standardActionERK7QStringPK7QObjectPKcP17KActionCollectionS7_@Base 4.95.0
 _ZN4KNS315DownloadManager11qt_metacallEN11QMetaObject4CallEiPPv@Base 4.95.0
 _ZN4KNS315DownloadManager11qt_metacastEPKc@Base 4.95.0
 _ZN4KNS315DownloadManager12installEntryERKNS_5EntryE@Base 4.95.0
 _ZN4KNS315DownloadManager12searchResultERK5QListINS_5EntryEE@Base 4.95.0
 _ZN4KNS315DownloadManager13setSearchTermERK7QString@Base 4.95.0
 _ZN4KNS315DownloadManager14setSearchOrderENS0_9SortOrderE@Base 4.95.0
 _ZN4KNS315DownloadManager14uninstallEntryERKNS_5EntryE@Base 4.95.0
 _ZN4KNS315DownloadManager15checkForUpdatesEv@Base 4.95.0
 _ZN4KNS315DownloadManager16staticMetaObjectE@Base 4.95.0
 _ZN4KNS315DownloadManager18entryStatusChangedERKNS_5EntryE@Base 4.95.0
 _ZN4KNS315DownloadManager6searchEii@Base 4.95.0
 _ZN4KNS315DownloadManagerC1EP7QObject@Base 4.95.0
 _ZN4KNS315DownloadManagerC1ERK7QStringP7QObject@Base 4.95.0
 _ZN4KNS315DownloadManagerC2EP7QObject@Base 4.95.0
 _ZN4KNS315DownloadManagerC2ERK7QStringP7QObject@Base 4.95.0
 _ZN4KNS315DownloadManagerD0Ev@Base 4.95.0
 _ZN4KNS315DownloadManagerD1Ev@Base 4.95.0
 _ZN4KNS315DownloadManagerD2Ev@Base 4.95.0
 _ZN4KNS320standardActionUploadERK7QStringPK7QObjectPKcP17KActionCollectionS7_@Base 4.95.0
 _ZN4KNS35EntryC1ERKS0_@Base 4.95.0
 _ZN4KNS35EntryC1Ev@Base 4.95.0
 _ZN4KNS35EntryC2ERKS0_@Base 4.95.0
 _ZN4KNS35EntryC2Ev@Base 4.95.0
 _ZN4KNS35EntryD1Ev@Base 4.95.0
 _ZN4KNS35EntryD2Ev@Base 4.95.0
 _ZN4KNS35EntryaSERKS0_@Base 4.95.0
 _ZN4KNS36Button10showDialogEv@Base 4.95.0
 _ZN4KNS36Button11qt_metacallEN11QMetaObject4CallEiPPv@Base 4.95.0
 _ZN4KNS36Button11qt_metacastEPKc@Base 4.95.0
 _ZN4KNS36Button13setButtonTextERK7QString@Base 4.95.0
 _ZN4KNS36Button13setConfigFileERK7QString@Base 4.95.0
 _ZN4KNS36Button14dialogFinishedERK5QListINS_5EntryEE@Base 4.95.0
 _ZN4KNS36Button16staticMetaObjectE@Base 4.95.0
 _ZN4KNS36Button17aboutToShowDialogEv@Base 4.95.0
 _ZN4KNS36Button4initEv@Base 4.95.0
 _ZN4KNS36ButtonC1EP7QWidget@Base 4.95.0
 _ZN4KNS36ButtonC1ERK7QStringS3_P7QWidget@Base 4.95.0
 _ZN4KNS36ButtonC2EP7QWidget@Base 4.95.0
 _ZN4KNS36ButtonC2ERK7QStringS3_P7QWidget@Base 4.95.0
 _ZN4KNS36ButtonD0Ev@Base 4.95.0
 _ZN4KNS36ButtonD1Ev@Base 4.95.0
 _ZN4KNS36ButtonD2Ev@Base 4.95.0
 _ZNK10KMoreTools11menuBuilderERK7QString@Base 5.10.0
 _ZNK12KConfigGroup9readEntryIbEET_PKcRKS1_@Base 4.100.0
 _ZNK17KMoreToolsService11homepageUrlEv@Base 5.10.0
 _ZNK17KMoreToolsService11isInstalledEv@Base 5.10.0
 _ZNK17KMoreToolsService12formatStringERK7QString@Base 5.10.0
 _ZNK17KMoreToolsService14maxUrlArgCountEv@Base 5.10.0
 _ZNK17KMoreToolsService15kmtProvidedIconEv@Base 5.10.0
 _ZNK17KMoreToolsService16desktopEntryNameEv@Base 5.10.0
 _ZNK17KMoreToolsService16installedServiceEv@Base 5.10.0
 _ZNK17KMoreToolsService18kmtProvidedServiceEv@Base 5.10.0
 _ZNK17KMoreToolsService4iconEv@Base 5.10.0
 _ZNK18KMoreToolsMenuItem15defaultLocationEv@Base 5.10.0
 _ZNK18KMoreToolsMenuItem15initialItemTextEv@Base 5.10.0
 _ZNK18KMoreToolsMenuItem17registeredServiceEv@Base 5.10.0
 _ZNK18KMoreToolsMenuItem2idEv@Base 5.10.0
 _ZNK18KMoreToolsMenuItem6actionEv@Base 5.10.0
 _ZNK21KMoreToolsMenuBuilder21menuStructureAsStringEb@Base 5.10.0
 _ZNK4KNS312UploadDialog10metaObjectEv@Base 4.95.0
 _ZNK4KNS314DownloadDialog10metaObjectEv@Base 4.95.0
 _ZNK4KNS314DownloadDialog5titleEv@Base 5.0.0
 _ZNK4KNS314DownloadWidget10metaObjectEv@Base 4.95.0
 _ZNK4KNS314DownloadWidget5titleEv@Base 5.0.0
 _ZNK4KNS315DownloadManager10metaObjectEv@Base 4.95.0
 _ZNK4KNS35Entry10providerIdEv@Base 4.95.0
 _ZNK4KNS35Entry14installedFilesEv@Base 4.95.0
 _ZNK4KNS35Entry16uninstalledFilesEv@Base 4.95.0
 _ZNK4KNS35Entry2idEv@Base 4.95.0
 _ZNK4KNS35Entry4nameEv@Base 4.95.0
 _ZNK4KNS35Entry6statusEv@Base 4.95.0
 _ZNK4KNS35Entry7licenseEv@Base 4.95.0
 _ZNK4KNS35Entry7summaryEv@Base 4.95.0
 _ZNK4KNS35Entry7versionEv@Base 4.95.0
 _ZNK4KNS35Entry8categoryEv@Base 4.95.0
 _ZNK4KNS36Button10metaObjectEv@Base 4.95.0
 _ZTIN4KNS312UploadDialogE@Base 4.95.0
 _ZTIN4KNS314DownloadDialogE@Base 4.95.0
 _ZTIN4KNS314DownloadWidgetE@Base 4.95.0
 _ZTIN4KNS315DownloadManagerE@Base 4.95.0
 _ZTIN4KNS36ButtonE@Base 4.95.0
 _ZTSN4KNS312UploadDialogE@Base 4.95.0
 _ZTSN4KNS314DownloadDialogE@Base 4.95.0
 _ZTSN4KNS314DownloadWidgetE@Base 4.95.0
 _ZTSN4KNS315DownloadManagerE@Base 4.95.0
 _ZTSN4KNS36ButtonE@Base 4.95.0
 _ZTVN4KNS312UploadDialogE@Base 4.95.0
 _ZTVN4KNS314DownloadDialogE@Base 4.95.0
 _ZTVN4KNS314DownloadWidgetE@Base 4.95.0
 _ZTVN4KNS315DownloadManagerE@Base 4.95.0
 _ZTVN4KNS36ButtonE@Base 4.95.0
 _ZThn16_N4KNS312UploadDialogD0Ev@Base 4.95.0
 _ZThn16_N4KNS312UploadDialogD1Ev@Base 4.95.0
 _ZThn16_N4KNS314DownloadDialogD0Ev@Base 4.95.0
 _ZThn16_N4KNS314DownloadDialogD1Ev@Base 4.95.0
 _ZThn16_N4KNS314DownloadWidgetD0Ev@Base 4.95.0
 _ZThn16_N4KNS314DownloadWidgetD1Ev@Base 4.95.0
 _ZThn16_N4KNS36ButtonD0Ev@Base 4.95.0
 _ZThn16_N4KNS36ButtonD1Ev@Base 4.95.0
