libKF5GAPITasks.so.5 libkf5gapitasks5 #MINVER#
 _ZN6KGAPI211TaskMoveJob11handleReplyEPK13QNetworkReplyRK10QByteArray@Base 4.80.0
 _ZN6KGAPI211TaskMoveJob11qt_metacallEN11QMetaObject4CallEiPPv@Base 4.80.0
 _ZN6KGAPI211TaskMoveJob11qt_metacastEPKc@Base 4.80.0
 _ZN6KGAPI211TaskMoveJob15dispatchRequestEP21QNetworkAccessManagerRK15QNetworkRequestRK10QByteArrayRK7QString@Base 4.80.0
 _ZN6KGAPI211TaskMoveJob16staticMetaObjectE@Base 4.80.0
 _ZN6KGAPI211TaskMoveJob5startEv@Base 4.80.0
 _ZN6KGAPI211TaskMoveJobC1ERK11QStringListRK7QStringS6_RK14QSharedPointerINS_7AccountEEP7QObject@Base 4.80.0
 _ZN6KGAPI211TaskMoveJobC1ERK14QSharedPointerINS_4TaskEERK7QStringS8_RKS1_INS_7AccountEEP7QObject@Base 4.80.0
 _ZN6KGAPI211TaskMoveJobC1ERK5QListI14QSharedPointerINS_4TaskEEERK7QStringSA_RKS2_INS_7AccountEEP7QObject@Base 4.80.0
 _ZN6KGAPI211TaskMoveJobC1ERK7QStringS3_S3_RK14QSharedPointerINS_7AccountEEP7QObject@Base 4.80.0
 _ZN6KGAPI211TaskMoveJobC2ERK11QStringListRK7QStringS6_RK14QSharedPointerINS_7AccountEEP7QObject@Base 4.80.0
 _ZN6KGAPI211TaskMoveJobC2ERK14QSharedPointerINS_4TaskEERK7QStringS8_RKS1_INS_7AccountEEP7QObject@Base 4.80.0
 _ZN6KGAPI211TaskMoveJobC2ERK5QListI14QSharedPointerINS_4TaskEEERK7QStringSA_RKS2_INS_7AccountEEP7QObject@Base 4.80.0
 _ZN6KGAPI211TaskMoveJobC2ERK7QStringS3_S3_RK14QSharedPointerINS_7AccountEEP7QObject@Base 4.80.0
 _ZN6KGAPI211TaskMoveJobD0Ev@Base 4.80.0
 _ZN6KGAPI211TaskMoveJobD1Ev@Base 4.80.0
 _ZN6KGAPI211TaskMoveJobD2Ev@Base 4.80.0
 _ZN6KGAPI212TaskFetchJob11qt_metacallEN11QMetaObject4CallEiPPv@Base 4.80.0
 _ZN6KGAPI212TaskFetchJob11qt_metacastEPKc@Base 4.80.0
 _ZN6KGAPI212TaskFetchJob15setCompletedMaxEy@Base 4.80.0
 _ZN6KGAPI212TaskFetchJob15setCompletedMinEy@Base 4.80.0
 _ZN6KGAPI212TaskFetchJob15setFetchDeletedEb@Base 4.80.0
 _ZN6KGAPI212TaskFetchJob16fetchOnlyUpdatedEv@Base 4.80.0
 _ZN6KGAPI212TaskFetchJob16staticMetaObjectE@Base 4.80.0
 _ZN6KGAPI212TaskFetchJob17setFetchCompletedEb@Base 4.80.0
 _ZN6KGAPI212TaskFetchJob19setFetchOnlyUpdatedEy@Base 4.80.0
 _ZN6KGAPI212TaskFetchJob20handleReplyWithItemsEPK13QNetworkReplyRK10QByteArray@Base 4.80.0
 _ZN6KGAPI212TaskFetchJob5startEv@Base 4.80.0
 _ZN6KGAPI212TaskFetchJob9setDueMaxEy@Base 4.80.0
 _ZN6KGAPI212TaskFetchJob9setDueMinEy@Base 4.80.0
 _ZN6KGAPI212TaskFetchJobC1ERK7QStringRK14QSharedPointerINS_7AccountEEP7QObject@Base 4.80.0
 _ZN6KGAPI212TaskFetchJobC1ERK7QStringS3_RK14QSharedPointerINS_7AccountEEP7QObject@Base 4.80.0
 _ZN6KGAPI212TaskFetchJobC2ERK7QStringRK14QSharedPointerINS_7AccountEEP7QObject@Base 4.80.0
 _ZN6KGAPI212TaskFetchJobC2ERK7QStringS3_RK14QSharedPointerINS_7AccountEEP7QObject@Base 4.80.0
 _ZN6KGAPI212TaskFetchJobD0Ev@Base 4.80.0
 _ZN6KGAPI212TaskFetchJobD1Ev@Base 4.80.0
 _ZN6KGAPI212TaskFetchJobD2Ev@Base 4.80.0
 _ZN6KGAPI212TasksService10JSONToTaskERK10QByteArray@Base 4.80.0
 _ZN6KGAPI212TasksService10taskToJSONERK14QSharedPointerINS_4TaskEE@Base 4.80.0
 _ZN6KGAPI212TasksService11moveTaskUrlERK7QStringS3_S3_@Base 4.80.0
 _ZN6KGAPI212TasksService12fetchTaskUrlERK7QStringS3_@Base 4.80.0
 _ZN6KGAPI212TasksService13createTaskUrlERK7QString@Base 4.80.0
 _ZN6KGAPI212TasksService13parseJSONFeedERK10QByteArrayRNS_8FeedDataE@Base 4.80.0
 _ZN6KGAPI212TasksService13removeTaskUrlERK7QStringS3_@Base 4.80.0
 _ZN6KGAPI212TasksService13updateTaskUrlERK7QStringS3_@Base 4.80.0
 _ZN6KGAPI212TasksService14JSONToTaskListERK10QByteArray@Base 4.80.0
 _ZN6KGAPI212TasksService14taskListToJSONERK14QSharedPointerINS_8TaskListEE@Base 4.80.0
 _ZN6KGAPI212TasksService16fetchAllTasksUrlERK7QString@Base 4.80.0
 _ZN6KGAPI212TasksService17createTaskListUrlEv@Base 4.80.0
 _ZN6KGAPI212TasksService17fetchTaskListsUrlEv@Base 4.80.0
 _ZN6KGAPI212TasksService17removeTaskListUrlERK7QString@Base 4.80.0
 _ZN6KGAPI212TasksService17updateTaskListUrlERK7QString@Base 4.80.0
 _ZN6KGAPI213TaskCreateJob11qt_metacallEN11QMetaObject4CallEiPPv@Base 4.80.0
 _ZN6KGAPI213TaskCreateJob11qt_metacastEPKc@Base 4.80.0
 _ZN6KGAPI213TaskCreateJob13setParentItemERK7QString@Base 4.80.0
 _ZN6KGAPI213TaskCreateJob16staticMetaObjectE@Base 4.80.0
 _ZN6KGAPI213TaskCreateJob20handleReplyWithItemsEPK13QNetworkReplyRK10QByteArray@Base 4.80.0
 _ZN6KGAPI213TaskCreateJob5startEv@Base 4.80.0
 _ZN6KGAPI213TaskCreateJobC1ERK14QSharedPointerINS_4TaskEERK7QStringRKS1_INS_7AccountEEP7QObject@Base 4.80.0
 _ZN6KGAPI213TaskCreateJobC1ERK5QListI14QSharedPointerINS_4TaskEEERK7QStringRKS2_INS_7AccountEEP7QObject@Base 4.80.0
 _ZN6KGAPI213TaskCreateJobC2ERK14QSharedPointerINS_4TaskEERK7QStringRKS1_INS_7AccountEEP7QObject@Base 4.80.0
 _ZN6KGAPI213TaskCreateJobC2ERK5QListI14QSharedPointerINS_4TaskEEERK7QStringRKS2_INS_7AccountEEP7QObject@Base 4.80.0
 _ZN6KGAPI213TaskCreateJobD0Ev@Base 4.80.0
 _ZN6KGAPI213TaskCreateJobD1Ev@Base 4.80.0
 _ZN6KGAPI213TaskCreateJobD2Ev@Base 4.80.0
 _ZN6KGAPI213TaskDeleteJob11handleReplyEPK13QNetworkReplyRK10QByteArray@Base 4.80.0
 _ZN6KGAPI213TaskDeleteJob11qt_metacallEN11QMetaObject4CallEiPPv@Base 4.80.0
 _ZN6KGAPI213TaskDeleteJob11qt_metacastEPKc@Base 4.80.0
 _ZN6KGAPI213TaskDeleteJob16staticMetaObjectE@Base 4.80.0
 _ZN6KGAPI213TaskDeleteJob5startEv@Base 4.80.0
 _ZN6KGAPI213TaskDeleteJobC1ERK11QStringListRK7QStringRK14QSharedPointerINS_7AccountEEP7QObject@Base 4.80.0
 _ZN6KGAPI213TaskDeleteJobC1ERK14QSharedPointerINS_4TaskEERK7QStringRKS1_INS_7AccountEEP7QObject@Base 4.80.0
 _ZN6KGAPI213TaskDeleteJobC1ERK5QListI14QSharedPointerINS_4TaskEEERK7QStringRKS2_INS_7AccountEEP7QObject@Base 4.80.0
 _ZN6KGAPI213TaskDeleteJobC1ERK7QStringS3_RK14QSharedPointerINS_7AccountEEP7QObject@Base 4.80.0
 _ZN6KGAPI213TaskDeleteJobC2ERK11QStringListRK7QStringRK14QSharedPointerINS_7AccountEEP7QObject@Base 4.80.0
 _ZN6KGAPI213TaskDeleteJobC2ERK14QSharedPointerINS_4TaskEERK7QStringRKS1_INS_7AccountEEP7QObject@Base 4.80.0
 _ZN6KGAPI213TaskDeleteJobC2ERK5QListI14QSharedPointerINS_4TaskEEERK7QStringRKS2_INS_7AccountEEP7QObject@Base 4.80.0
 _ZN6KGAPI213TaskDeleteJobC2ERK7QStringS3_RK14QSharedPointerINS_7AccountEEP7QObject@Base 4.80.0
 _ZN6KGAPI213TaskDeleteJobD0Ev@Base 4.80.0
 _ZN6KGAPI213TaskDeleteJobD1Ev@Base 4.80.0
 _ZN6KGAPI213TaskDeleteJobD2Ev@Base 4.80.0
 _ZN6KGAPI213TaskModifyJob11qt_metacallEN11QMetaObject4CallEiPPv@Base 4.80.0
 _ZN6KGAPI213TaskModifyJob11qt_metacastEPKc@Base 4.80.0
 _ZN6KGAPI213TaskModifyJob16staticMetaObjectE@Base 4.80.0
 _ZN6KGAPI213TaskModifyJob20handleReplyWithItemsEPK13QNetworkReplyRK10QByteArray@Base 4.80.0
 _ZN6KGAPI213TaskModifyJob5startEv@Base 4.80.0
 _ZN6KGAPI213TaskModifyJobC1ERK14QSharedPointerINS_4TaskEERK7QStringRKS1_INS_7AccountEEP7QObject@Base 4.80.0
 _ZN6KGAPI213TaskModifyJobC1ERK5QListI14QSharedPointerINS_4TaskEEERK7QStringRKS2_INS_7AccountEEP7QObject@Base 4.80.0
 _ZN6KGAPI213TaskModifyJobC2ERK14QSharedPointerINS_4TaskEERK7QStringRKS1_INS_7AccountEEP7QObject@Base 4.80.0
 _ZN6KGAPI213TaskModifyJobC2ERK5QListI14QSharedPointerINS_4TaskEEERK7QStringRKS2_INS_7AccountEEP7QObject@Base 4.80.0
 _ZN6KGAPI213TaskModifyJobD0Ev@Base 4.80.0
 _ZN6KGAPI213TaskModifyJobD1Ev@Base 4.80.0
 _ZN6KGAPI213TaskModifyJobD2Ev@Base 4.80.0
 _ZN6KGAPI216TaskListFetchJob11qt_metacallEN11QMetaObject4CallEiPPv@Base 4.80.0
 _ZN6KGAPI216TaskListFetchJob11qt_metacastEPKc@Base 4.80.0
 _ZN6KGAPI216TaskListFetchJob16staticMetaObjectE@Base 4.80.0
 _ZN6KGAPI216TaskListFetchJob20handleReplyWithItemsEPK13QNetworkReplyRK10QByteArray@Base 4.80.0
 _ZN6KGAPI216TaskListFetchJob5startEv@Base 4.80.0
 _ZN6KGAPI216TaskListFetchJobC1ERK14QSharedPointerINS_7AccountEEP7QObject@Base 4.80.0
 _ZN6KGAPI216TaskListFetchJobC2ERK14QSharedPointerINS_7AccountEEP7QObject@Base 4.80.0
 _ZN6KGAPI216TaskListFetchJobD0Ev@Base 4.80.0
 _ZN6KGAPI216TaskListFetchJobD1Ev@Base 4.80.0
 _ZN6KGAPI216TaskListFetchJobD2Ev@Base 4.80.0
 _ZN6KGAPI217TaskListCreateJob11qt_metacallEN11QMetaObject4CallEiPPv@Base 4.80.0
 _ZN6KGAPI217TaskListCreateJob11qt_metacastEPKc@Base 4.80.0
 _ZN6KGAPI217TaskListCreateJob16staticMetaObjectE@Base 4.80.0
 _ZN6KGAPI217TaskListCreateJob20handleReplyWithItemsEPK13QNetworkReplyRK10QByteArray@Base 4.80.0
 _ZN6KGAPI217TaskListCreateJob5startEv@Base 4.80.0
 _ZN6KGAPI217TaskListCreateJobC1ERK14QSharedPointerINS_8TaskListEERKS1_INS_7AccountEEP7QObject@Base 4.80.0
 _ZN6KGAPI217TaskListCreateJobC1ERK5QListI14QSharedPointerINS_8TaskListEEERKS2_INS_7AccountEEP7QObject@Base 4.80.0
 _ZN6KGAPI217TaskListCreateJobC2ERK14QSharedPointerINS_8TaskListEERKS1_INS_7AccountEEP7QObject@Base 4.80.0
 _ZN6KGAPI217TaskListCreateJobC2ERK5QListI14QSharedPointerINS_8TaskListEEERKS2_INS_7AccountEEP7QObject@Base 4.80.0
 _ZN6KGAPI217TaskListCreateJobD0Ev@Base 4.80.0
 _ZN6KGAPI217TaskListCreateJobD1Ev@Base 4.80.0
 _ZN6KGAPI217TaskListCreateJobD2Ev@Base 4.80.0
 _ZN6KGAPI217TaskListDeleteJob11handleReplyEPK13QNetworkReplyRK10QByteArray@Base 4.80.0
 _ZN6KGAPI217TaskListDeleteJob11qt_metacallEN11QMetaObject4CallEiPPv@Base 4.80.0
 _ZN6KGAPI217TaskListDeleteJob11qt_metacastEPKc@Base 4.80.0
 _ZN6KGAPI217TaskListDeleteJob16staticMetaObjectE@Base 4.80.0
 _ZN6KGAPI217TaskListDeleteJob5startEv@Base 4.80.0
 _ZN6KGAPI217TaskListDeleteJobC1ERK11QStringListRK14QSharedPointerINS_7AccountEEP7QObject@Base 4.80.0
 _ZN6KGAPI217TaskListDeleteJobC1ERK14QSharedPointerINS_8TaskListEERKS1_INS_7AccountEEP7QObject@Base 4.80.0
 _ZN6KGAPI217TaskListDeleteJobC1ERK5QListI14QSharedPointerINS_8TaskListEEERKS2_INS_7AccountEEP7QObject@Base 4.80.0
 _ZN6KGAPI217TaskListDeleteJobC1ERK7QStringRK14QSharedPointerINS_7AccountEEP7QObject@Base 4.80.0
 _ZN6KGAPI217TaskListDeleteJobC2ERK11QStringListRK14QSharedPointerINS_7AccountEEP7QObject@Base 4.80.0
 _ZN6KGAPI217TaskListDeleteJobC2ERK14QSharedPointerINS_8TaskListEERKS1_INS_7AccountEEP7QObject@Base 4.80.0
 _ZN6KGAPI217TaskListDeleteJobC2ERK5QListI14QSharedPointerINS_8TaskListEEERKS2_INS_7AccountEEP7QObject@Base 4.80.0
 _ZN6KGAPI217TaskListDeleteJobC2ERK7QStringRK14QSharedPointerINS_7AccountEEP7QObject@Base 4.80.0
 _ZN6KGAPI217TaskListDeleteJobD0Ev@Base 4.80.0
 _ZN6KGAPI217TaskListDeleteJobD1Ev@Base 4.80.0
 _ZN6KGAPI217TaskListDeleteJobD2Ev@Base 4.80.0
 _ZN6KGAPI217TaskListModifyJob11qt_metacallEN11QMetaObject4CallEiPPv@Base 4.80.0
 _ZN6KGAPI217TaskListModifyJob11qt_metacastEPKc@Base 4.80.0
 _ZN6KGAPI217TaskListModifyJob16staticMetaObjectE@Base 4.80.0
 _ZN6KGAPI217TaskListModifyJob20handleReplyWithItemsEPK13QNetworkReplyRK10QByteArray@Base 4.80.0
 _ZN6KGAPI217TaskListModifyJob5startEv@Base 4.80.0
 _ZN6KGAPI217TaskListModifyJobC1ERK14QSharedPointerINS_8TaskListEERKS1_INS_7AccountEEP7QObject@Base 4.80.0
 _ZN6KGAPI217TaskListModifyJobC1ERK5QListI14QSharedPointerINS_8TaskListEEERKS2_INS_7AccountEEP7QObject@Base 4.80.0
 _ZN6KGAPI217TaskListModifyJobC2ERK14QSharedPointerINS_8TaskListEERKS1_INS_7AccountEEP7QObject@Base 4.80.0
 _ZN6KGAPI217TaskListModifyJobC2ERK5QListI14QSharedPointerINS_8TaskListEEERKS2_INS_7AccountEEP7QObject@Base 4.80.0
 _ZN6KGAPI217TaskListModifyJobD0Ev@Base 4.80.0
 _ZN6KGAPI217TaskListModifyJobD1Ev@Base 4.80.0
 _ZN6KGAPI217TaskListModifyJobD2Ev@Base 4.80.0
 _ZN6KGAPI24Task10setDeletedEb@Base 4.80.0
 _ZN6KGAPI24TaskC1ERKN8KCalCore4TodoE@Base 4.80.0
 _ZN6KGAPI24TaskC1ERKS0_@Base 4.80.0
 _ZN6KGAPI24TaskC1Ev@Base 4.80.0
 _ZN6KGAPI24TaskC2ERKN8KCalCore4TodoE@Base 4.80.0
 _ZN6KGAPI24TaskC2ERKS0_@Base 4.80.0
 _ZN6KGAPI24TaskC2Ev@Base 4.80.0
 _ZN6KGAPI24TaskD0Ev@Base 4.80.0
 _ZN6KGAPI24TaskD1Ev@Base 4.80.0
 _ZN6KGAPI24TaskD2Ev@Base 4.80.0
 _ZN6KGAPI28TaskList6setUidERK7QString@Base 4.80.0
 _ZN6KGAPI28TaskList8setTitleERK7QString@Base 4.80.0
 _ZN6KGAPI28TaskListC1ERKS0_@Base 4.80.0
 _ZN6KGAPI28TaskListC1Ev@Base 4.80.0
 _ZN6KGAPI28TaskListC2ERKS0_@Base 4.80.0
 _ZN6KGAPI28TaskListC2Ev@Base 4.80.0
 _ZN6KGAPI28TaskListD0Ev@Base 4.80.0
 _ZN6KGAPI28TaskListD1Ev@Base 4.80.0
 _ZN6KGAPI28TaskListD2Ev@Base 4.80.0
 _ZNK6KGAPI211TaskMoveJob10metaObjectEv@Base 4.80.0
 _ZNK6KGAPI212TaskFetchJob10metaObjectEv@Base 4.80.0
 _ZNK6KGAPI212TaskFetchJob12completedMaxEv@Base 4.80.0
 _ZNK6KGAPI212TaskFetchJob12completedMinEv@Base 4.80.0
 _ZNK6KGAPI212TaskFetchJob12fetchDeletedEv@Base 4.80.0
 _ZNK6KGAPI212TaskFetchJob14fetchCompletedEv@Base 4.80.0
 _ZNK6KGAPI212TaskFetchJob6dueMaxEv@Base 4.80.0
 _ZNK6KGAPI212TaskFetchJob6dueMinEv@Base 4.80.0
 _ZNK6KGAPI213TaskCreateJob10metaObjectEv@Base 4.80.0
 _ZNK6KGAPI213TaskCreateJob10parentItemEv@Base 4.80.0
 _ZNK6KGAPI213TaskDeleteJob10metaObjectEv@Base 4.80.0
 _ZNK6KGAPI213TaskModifyJob10metaObjectEv@Base 4.80.0
 _ZNK6KGAPI216TaskListFetchJob10metaObjectEv@Base 4.80.0
 _ZNK6KGAPI217TaskListCreateJob10metaObjectEv@Base 4.80.0
 _ZNK6KGAPI217TaskListDeleteJob10metaObjectEv@Base 4.80.0
 _ZNK6KGAPI217TaskListModifyJob10metaObjectEv@Base 4.80.0
 _ZNK6KGAPI24Task7deletedEv@Base 4.80.0
 _ZNK6KGAPI28TaskList3uidEv@Base 4.80.0
 _ZNK6KGAPI28TaskList5titleEv@Base 4.80.0
 _ZTIN6KGAPI211TaskMoveJobE@Base 4.80.0
 _ZTIN6KGAPI212TaskFetchJobE@Base 4.80.0
 _ZTIN6KGAPI213TaskCreateJobE@Base 4.80.0
 _ZTIN6KGAPI213TaskDeleteJobE@Base 4.80.0
 _ZTIN6KGAPI213TaskModifyJobE@Base 4.80.0
 _ZTIN6KGAPI216TaskListFetchJobE@Base 4.80.0
 _ZTIN6KGAPI217TaskListCreateJobE@Base 4.80.0
 _ZTIN6KGAPI217TaskListDeleteJobE@Base 4.80.0
 _ZTIN6KGAPI217TaskListModifyJobE@Base 4.80.0
 _ZTIN6KGAPI24TaskE@Base 4.80.0
 _ZTIN6KGAPI28TaskListE@Base 4.80.0
 _ZTSN6KGAPI211TaskMoveJobE@Base 4.80.0
 _ZTSN6KGAPI212TaskFetchJobE@Base 4.80.0
 _ZTSN6KGAPI213TaskCreateJobE@Base 4.80.0
 _ZTSN6KGAPI213TaskDeleteJobE@Base 4.80.0
 _ZTSN6KGAPI213TaskModifyJobE@Base 4.80.0
 _ZTSN6KGAPI216TaskListFetchJobE@Base 4.80.0
 _ZTSN6KGAPI217TaskListCreateJobE@Base 4.80.0
 _ZTSN6KGAPI217TaskListDeleteJobE@Base 4.80.0
 _ZTSN6KGAPI217TaskListModifyJobE@Base 4.80.0
 _ZTSN6KGAPI24TaskE@Base 4.80.0
 _ZTSN6KGAPI28TaskListE@Base 4.80.0
 _ZTVN6KGAPI211TaskMoveJobE@Base 4.80.0
 _ZTVN6KGAPI212TaskFetchJobE@Base 4.80.0
 _ZTVN6KGAPI213TaskCreateJobE@Base 4.80.0
 _ZTVN6KGAPI213TaskDeleteJobE@Base 4.80.0
 _ZTVN6KGAPI213TaskModifyJobE@Base 4.80.0
 _ZTVN6KGAPI216TaskListFetchJobE@Base 4.80.0
 _ZTVN6KGAPI217TaskListCreateJobE@Base 4.80.0
 _ZTVN6KGAPI217TaskListDeleteJobE@Base 4.80.0
 _ZTVN6KGAPI217TaskListModifyJobE@Base 4.80.0
 _ZTVN6KGAPI24TaskE@Base 4.80.0
 _ZTVN6KGAPI28TaskListE@Base 4.80.0
 _ZThn16_N6KGAPI24TaskD0Ev@Base 4.80.0
 _ZThn16_N6KGAPI24TaskD1Ev@Base 4.80.0
 _ZThn48_N6KGAPI24TaskD0Ev@Base 4.80.0
 _ZThn48_N6KGAPI24TaskD1Ev@Base 4.80.0
