libKF5NetworkManagerQt.so.6 libkf5networkmanagerqt6 #MINVER#
 _ZN14NetworkManager10AdslDevice11qt_metacallEN11QMetaObject4CallEiPPv@Base 5.1.1+git20141203.0020+15.04
 _ZN14NetworkManager10AdslDevice11qt_metacastEPKc@Base 5.1.1+git20141203.0020+15.04
 _ZN14NetworkManager10AdslDevice14carrierChangedEb@Base 5.1.1+git20141203.0020+15.04
 _ZN14NetworkManager10AdslDevice16staticMetaObjectE@Base 5.1.1+git20141203.0020+15.04
 _ZN14NetworkManager10AdslDeviceC1ERK7QStringP7QObject@Base 5.1.1+git20141203.0020+15.04
 _ZN14NetworkManager10AdslDeviceC2ERK7QStringP7QObject@Base 5.1.1+git20141203.0020+15.04
 _ZN14NetworkManager10AdslDeviceD0Ev@Base 5.1.1+git20141203.0020+15.04
 _ZN14NetworkManager10AdslDeviceD1Ev@Base 5.1.1+git20141203.0020+15.04
 _ZN14NetworkManager10AdslDeviceD2Ev@Base 5.1.1+git20141203.0020+15.04
 _ZN14NetworkManager10BondDevice11qt_metacallEN11QMetaObject4CallEiPPv@Base 5.1.1+git20141203.0020+15.04
 _ZN14NetworkManager10BondDevice11qt_metacastEPKc@Base 5.1.1+git20141203.0020+15.04
 _ZN14NetworkManager10BondDevice13slavesChangedERK11QStringList@Base 5.1.1+git20141203.0020+15.04
 _ZN14NetworkManager10BondDevice14carrierChangedEb@Base 5.1.1+git20141203.0020+15.04
 _ZN14NetworkManager10BondDevice16hwAddressChangedERK7QString@Base 5.1.1+git20141203.0020+15.04
 _ZN14NetworkManager10BondDevice16staticMetaObjectE@Base 5.1.1+git20141203.0020+15.04
 _ZN14NetworkManager10BondDeviceC1ERK7QStringP7QObject@Base 5.1.1+git20141203.0020+15.04
 _ZN14NetworkManager10BondDeviceC2ERK7QStringP7QObject@Base 5.1.1+git20141203.0020+15.04
 _ZN14NetworkManager10BondDeviceD0Ev@Base 5.1.1+git20141203.0020+15.04
 _ZN14NetworkManager10BondDeviceD1Ev@Base 5.1.1+git20141203.0020+15.04
 _ZN14NetworkManager10BondDeviceD2Ev@Base 5.1.1+git20141203.0020+15.04
 _ZN14NetworkManager10Connection11qt_metacallEN11QMetaObject4CallEiPPv@Base 5.1.1+git20141203.0020+15.04
 _ZN14NetworkManager10Connection11qt_metacastEPKc@Base 5.1.1+git20141203.0020+15.04
 _ZN14NetworkManager10Connection12clearSecretsEv@Base 5.10.0
 _ZN14NetworkManager10Connection13updateUnsavedERK4QMapI7QStringS1_IS2_8QVariantEE@Base 5.6.0
 _ZN14NetworkManager10Connection14unsavedChangedEb@Base 5.6.0
 _ZN14NetworkManager10Connection16staticMetaObjectE@Base 5.1.1+git20141203.0020+15.04
 _ZN14NetworkManager10Connection4saveEv@Base 5.6.0
 _ZN14NetworkManager10Connection6removeEv@Base 5.1.1+git20141203.0020+15.04
 _ZN14NetworkManager10Connection6updateERK4QMapI7QStringS1_IS2_8QVariantEE@Base 5.1.1+git20141203.0020+15.04
 _ZN14NetworkManager10Connection7removedERK7QString@Base 5.1.1+git20141203.0020+15.04
 _ZN14NetworkManager10Connection7secretsERK7QString@Base 5.1.1+git20141203.0020+15.04
 _ZN14NetworkManager10Connection7updatedEv@Base 5.1.1+git20141203.0020+15.04
 _ZN14NetworkManager10Connection8settingsEv@Base 5.1.1+git20141203.0020+15.04
 _ZN14NetworkManager10ConnectionC1ERK7QStringP7QObject@Base 5.1.1+git20141203.0020+15.04
 _ZN14NetworkManager10ConnectionC2ERK7QStringP7QObject@Base 5.1.1+git20141203.0020+15.04
 _ZN14NetworkManager10ConnectionD0Ev@Base 5.1.1+git20141203.0020+15.04
 _ZN14NetworkManager10ConnectionD1Ev@Base 5.1.1+git20141203.0020+15.04
 _ZN14NetworkManager10ConnectionD2Ev@Base 5.1.1+git20141203.0020+15.04
 _ZN14NetworkManager10GsmSetting11setHomeOnlyEb@Base 5.1.1+git20141203.0020+15.04
 _ZN14NetworkManager10GsmSetting11setPasswordERK7QString@Base 5.1.1+git20141203.0020+15.04
 _ZN14NetworkManager10GsmSetting11setPinFlagsE6QFlagsINS_7Setting14SecretFlagTypeEE@Base 5.1.1+git20141203.0020+15.04
 _ZN14NetworkManager10GsmSetting11setUsernameERK7QString@Base 5.1.1+git20141203.0020+15.04
 _ZN14NetworkManager10GsmSetting12setNetworkIdERK7QString@Base 5.1.1+git20141203.0020+15.04
 _ZN14NetworkManager10GsmSetting14secretsFromMapERK4QMapI7QString8QVariantE@Base 5.1.1+git20141203.0020+15.04
 _ZN14NetworkManager10GsmSetting14setAllowedBandEj@Base 5.1.1+git20141203.0020+15.04
 _ZN14NetworkManager10GsmSetting14setNetworkTypeENS0_11NetworkTypeE@Base 5.1.1+git20141203.0020+15.04
 _ZN14NetworkManager10GsmSetting16setPasswordFlagsE6QFlagsINS_7Setting14SecretFlagTypeEE@Base 5.1.1+git20141203.0020+15.04
 _ZN14NetworkManager10GsmSetting6setApnERK7QString@Base 5.1.1+git20141203.0020+15.04
 _ZN14NetworkManager10GsmSetting6setPinERK7QString@Base 5.1.1+git20141203.0020+15.04
 _ZN14NetworkManager10GsmSetting7fromMapERK4QMapI7QString8QVariantE@Base 5.1.1+git20141203.0020+15.04
 _ZN14NetworkManager10GsmSetting9setNumberERK7QString@Base 5.1.1+git20141203.0020+15.04
 _ZN14NetworkManager10GsmSettingC1ERK14QSharedPointerIS0_E@Base 5.1.1+git20141203.0020+15.04
 _ZN14NetworkManager10GsmSettingC1Ev@Base 5.1.1+git20141203.0020+15.04
 _ZN14NetworkManager10GsmSettingC2ERK14QSharedPointerIS0_E@Base 5.1.1+git20141203.0020+15.04
 _ZN14NetworkManager10GsmSettingC2Ev@Base 5.1.1+git20141203.0020+15.04
 _ZN14NetworkManager10GsmSettingD0Ev@Base 5.1.1+git20141203.0020+15.04
 _ZN14NetworkManager10GsmSettingD1Ev@Base 5.1.1+git20141203.0020+15.04
 _ZN14NetworkManager10GsmSettingD2Ev@Base 5.1.1+git20141203.0020+15.04
 _ZN14NetworkManager10PppSetting10setCRtsCtsEb@Base 5.1.1+git20141203.0020+15.04
 _ZN14NetworkManager10PppSetting11setNoVjCompEb@Base 5.1.1+git20141203.0020+15.04
 _ZN14NetworkManager10PppSetting12setNoBsdCompEb@Base 5.1.1+git20141203.0020+15.04
 _ZN14NetworkManager10PppSetting12setNoDeflateEb@Base 5.1.1+git20141203.0020+15.04
 _ZN14NetworkManager10PppSetting12setRefuseEapEb@Base 5.1.1+git20141203.0020+15.04
 _ZN14NetworkManager10PppSetting12setRefusePapEb@Base 5.1.1+git20141203.0020+15.04
 _ZN14NetworkManager10PppSetting13setRefuseChapEb@Base 5.1.1+git20141203.0020+15.04
 _ZN14NetworkManager10PppSetting14setRequireMppeEb@Base 5.1.1+git20141203.0020+15.04
 _ZN14NetworkManager10PppSetting15setMppeStatefulEb@Base 5.1.1+git20141203.0020+15.04
 _ZN14NetworkManager10PppSetting15setRefuseMschapEb@Base 5.1.1+git20141203.0020+15.04
 _ZN14NetworkManager10PppSetting17setLcpEchoFailureEj@Base 5.1.1+git20141203.0020+15.04
 _ZN14NetworkManager10PppSetting17setRefuseMschapv2Eb@Base 5.1.1+git20141203.0020+15.04
 _ZN14NetworkManager10PppSetting17setRequireMppe128Eb@Base 5.1.1+git20141203.0020+15.04
 _ZN14NetworkManager10PppSetting18setLcpEchoIntervalEj@Base 5.1.1+git20141203.0020+15.04
 _ZN14NetworkManager10PppSetting6setMruEj@Base 5.1.1+git20141203.0020+15.04
 _ZN14NetworkManager10PppSetting6setMtuEj@Base 5.1.1+git20141203.0020+15.04
 _ZN14NetworkManager10PppSetting7fromMapERK4QMapI7QString8QVariantE@Base 5.1.1+git20141203.0020+15.04
 _ZN14NetworkManager10PppSetting7setBaudEj@Base 5.1.1+git20141203.0020+15.04
 _ZN14NetworkManager10PppSetting9setNoAuthEb@Base 5.1.1+git20141203.0020+15.04
 _ZN14NetworkManager10PppSettingC1ERK14QSharedPointerIS0_E@Base 5.1.1+git20141203.0020+15.04
 _ZN14NetworkManager10PppSettingC1Ev@Base 5.1.1+git20141203.0020+15.04
 _ZN14NetworkManager10PppSettingC2ERK14QSharedPointerIS0_E@Base 5.1.1+git20141203.0020+15.04
 _ZN14NetworkManager10PppSettingC2Ev@Base 5.1.1+git20141203.0020+15.04
 _ZN14NetworkManager10PppSettingD0Ev@Base 5.1.1+git20141203.0020+15.04
 _ZN14NetworkManager10PppSettingD1Ev@Base 5.1.1+git20141203.0020+15.04
 _ZN14NetworkManager10PppSettingD2Ev@Base 5.1.1+git20141203.0020+15.04
 _ZN14NetworkManager10TeamDevice11qt_metacallEN11QMetaObject4CallEiPPv@Base 5.6.0
 _ZN14NetworkManager10TeamDevice11qt_metacastEPKc@Base 5.6.0
 _ZN14NetworkManager10TeamDevice13slavesChangedERK11QStringList@Base 5.6.0
 _ZN14NetworkManager10TeamDevice14carrierChangedEb@Base 5.6.0
 _ZN14NetworkManager10TeamDevice16hwAddressChangedERK7QString@Base 5.6.0
 _ZN14NetworkManager10TeamDevice16staticMetaObjectE@Base 5.6.0
 _ZN14NetworkManager10TeamDeviceC1ERK7QStringP7QObject@Base 5.6.0
 _ZN14NetworkManager10TeamDeviceC2ERK7QStringP7QObject@Base 5.6.0
 _ZN14NetworkManager10TeamDeviceD0Ev@Base 5.6.0
 _ZN14NetworkManager10TeamDeviceD1Ev@Base 5.6.0
 _ZN14NetworkManager10TeamDeviceD2Ev@Base 5.6.0
 _ZN14NetworkManager10VethDevice11peerChangedERK7QString@Base 5.6.0
 _ZN14NetworkManager10VethDevice11qt_metacallEN11QMetaObject4CallEiPPv@Base 5.6.0
 _ZN14NetworkManager10VethDevice11qt_metacastEPKc@Base 5.6.0
 _ZN14NetworkManager10VethDevice16staticMetaObjectE@Base 5.6.0
 _ZN14NetworkManager10VethDeviceC1ERK7QStringP7QObject@Base 5.6.0
 _ZN14NetworkManager10VethDeviceC2ERK7QStringP7QObject@Base 5.6.0
 _ZN14NetworkManager10VethDeviceD0Ev@Base 5.6.0
 _ZN14NetworkManager10VethDeviceD1Ev@Base 5.6.0
 _ZN14NetworkManager10VethDeviceD2Ev@Base 5.6.0
 _ZN14NetworkManager10VlanDevice11qt_metacallEN11QMetaObject4CallEiPPv@Base 5.1.1+git20141203.0020+15.04
 _ZN14NetworkManager10VlanDevice11qt_metacastEPKc@Base 5.1.1+git20141203.0020+15.04
 _ZN14NetworkManager10VlanDevice13parentChangedERK7QString@Base 5.10.0
 _ZN14NetworkManager10VlanDevice13vlanIdChangedEj@Base 5.1.1+git20141203.0020+15.04
 _ZN14NetworkManager10VlanDevice14carrierChangedEb@Base 5.1.1+git20141203.0020+15.04
 _ZN14NetworkManager10VlanDevice16hwAddressChangedERK7QString@Base 5.1.1+git20141203.0020+15.04
 _ZN14NetworkManager10VlanDevice16staticMetaObjectE@Base 5.1.1+git20141203.0020+15.04
 _ZN14NetworkManager10VlanDeviceC1ERK7QStringP7QObject@Base 5.1.1+git20141203.0020+15.04
 _ZN14NetworkManager10VlanDeviceC2ERK7QStringP7QObject@Base 5.1.1+git20141203.0020+15.04
 _ZN14NetworkManager10VlanDeviceD0Ev@Base 5.1.1+git20141203.0020+15.04
 _ZN14NetworkManager10VlanDeviceD1Ev@Base 5.1.1+git20141203.0020+15.04
 _ZN14NetworkManager10VlanDeviceD2Ev@Base 5.1.1+git20141203.0020+15.04
 _ZN14NetworkManager10VpnSetting10setSecretsERK4QMapI7QStringS2_E@Base 5.1.1+git20141203.0020+15.04
 _ZN14NetworkManager10VpnSetting11setUsernameERK7QString@Base 5.1.1+git20141203.0020+15.04
 _ZN14NetworkManager10VpnSetting14secretsFromMapERK4QMapI7QString8QVariantE@Base 5.1.1+git20141203.0020+15.04
 _ZN14NetworkManager10VpnSetting14setServiceTypeERK7QString@Base 5.1.1+git20141203.0020+15.04
 _ZN14NetworkManager10VpnSetting20secretsFromStringMapERK4QMapI7QStringS2_E@Base 5.1.1+git20141203.0020+15.04
 _ZN14NetworkManager10VpnSetting7fromMapERK4QMapI7QString8QVariantE@Base 5.1.1+git20141203.0020+15.04
 _ZN14NetworkManager10VpnSetting7setDataERK4QMapI7QStringS2_E@Base 5.1.1+git20141203.0020+15.04
 _ZN14NetworkManager10VpnSettingC1ERK14QSharedPointerIS0_E@Base 5.1.1+git20141203.0020+15.04
 _ZN14NetworkManager10VpnSettingC1Ev@Base 5.1.1+git20141203.0020+15.04
 _ZN14NetworkManager10VpnSettingC2ERK14QSharedPointerIS0_E@Base 5.1.1+git20141203.0020+15.04
 _ZN14NetworkManager10VpnSettingC2Ev@Base 5.1.1+git20141203.0020+15.04
 _ZN14NetworkManager10VpnSettingD0Ev@Base 5.1.1+git20141203.0020+15.04
 _ZN14NetworkManager10VpnSettingD1Ev@Base 5.1.1+git20141203.0020+15.04
 _ZN14NetworkManager10VpnSettingD2Ev@Base 5.1.1+git20141203.0020+15.04
 _ZN14NetworkManager10getLoggingEv@Base 5.1.1+git20141203.0020+15.04
 _ZN14NetworkManager10setLoggingENS_8LogLevelE6QFlagsINS_9LogDomainEE@Base 5.1.1+git20141203.0020+15.04
 _ZN14NetworkManager11AccessPoint11qt_metacallEN11QMetaObject4CallEiPPv@Base 5.1.1+git20141203.0020+15.04
 _ZN14NetworkManager11AccessPoint11qt_metacastEPKc@Base 5.1.1+git20141203.0020+15.04
 _ZN14NetworkManager11AccessPoint11ssidChangedERK7QString@Base 5.1.1+git20141203.0020+15.04
 _ZN14NetworkManager11AccessPoint14bitRateChangedEi@Base 5.1.1+git20141203.0020+15.04
 _ZN14NetworkManager11AccessPoint15lastSeenChangedEi@Base 5.18.0-0ubuntu1.4~
 _ZN14NetworkManager11AccessPoint15rsnFlagsChangedE6QFlagsINS0_7WpaFlagEE@Base 5.1.1+git20141203.0020+15.04
 _ZN14NetworkManager11AccessPoint15wpaFlagsChangedE6QFlagsINS0_7WpaFlagEE@Base 5.1.1+git20141203.0020+15.04
 _ZN14NetworkManager11AccessPoint16frequencyChangedEj@Base 5.1.1+git20141203.0020+15.04
 _ZN14NetworkManager11AccessPoint16staticMetaObjectE@Base 5.1.1+git20141203.0020+15.04
 _ZN14NetworkManager11AccessPoint19capabilitiesChangedE6QFlagsINS0_10CapabilityEE@Base 5.1.1+git20141203.0020+15.04
 _ZN14NetworkManager11AccessPoint20convertOperationModeEj@Base 5.1.1+git20141203.0020+15.04
 _ZN14NetworkManager11AccessPoint21signalStrengthChangedEi@Base 5.1.1+git20141203.0020+15.04
 _ZN14NetworkManager11AccessPointC1ERK7QStringP7QObject@Base 5.1.1+git20141203.0020+15.04
 _ZN14NetworkManager11AccessPointC2ERK7QStringP7QObject@Base 5.1.1+git20141203.0020+15.04
 _ZN14NetworkManager11AccessPointD0Ev@Base 5.1.1+git20141203.0020+15.04
 _ZN14NetworkManager11AccessPointD1Ev@Base 5.1.1+git20141203.0020+15.04
 _ZN14NetworkManager11AccessPointD2Ev@Base 5.1.1+git20141203.0020+15.04
 _ZN14NetworkManager11AdslSetting11setPasswordERK7QString@Base 5.1.1+git20141203.0020+15.04
 _ZN14NetworkManager11AdslSetting11setProtocolENS0_8ProtocolE@Base 5.1.1+git20141203.0020+15.04
 _ZN14NetworkManager11AdslSetting11setUsernameERK7QString@Base 5.1.1+git20141203.0020+15.04
 _ZN14NetworkManager11AdslSetting16setEncapsulationENS0_13EncapsulationE@Base 5.1.1+git20141203.0020+15.04
 _ZN14NetworkManager11AdslSetting16setPasswordFlagsE6QFlagsINS_7Setting14SecretFlagTypeEE@Base 5.1.1+git20141203.0020+15.04
 _ZN14NetworkManager11AdslSetting6setVciEj@Base 5.1.1+git20141203.0020+15.04
 _ZN14NetworkManager11AdslSetting6setVpiEj@Base 5.1.1+git20141203.0020+15.04
 _ZN14NetworkManager11AdslSetting7fromMapERK4QMapI7QString8QVariantE@Base 5.1.1+git20141203.0020+15.04
 _ZN14NetworkManager11AdslSettingC1ERK14QSharedPointerIS0_E@Base 5.1.1+git20141203.0020+15.04
 _ZN14NetworkManager11AdslSettingC1Ev@Base 5.1.1+git20141203.0020+15.04
 _ZN14NetworkManager11AdslSettingC2ERK14QSharedPointerIS0_E@Base 5.1.1+git20141203.0020+15.04
 _ZN14NetworkManager11AdslSettingC2Ev@Base 5.1.1+git20141203.0020+15.04
 _ZN14NetworkManager11AdslSettingD0Ev@Base 5.1.1+git20141203.0020+15.04
 _ZN14NetworkManager11AdslSettingD1Ev@Base 5.1.1+git20141203.0020+15.04
 _ZN14NetworkManager11AdslSettingD2Ev@Base 5.1.1+git20141203.0020+15.04
 _ZN14NetworkManager11BondSetting10setOptionsERK4QMapI7QStringS2_E@Base 5.1.1+git20141203.0020+15.04
 _ZN14NetworkManager11BondSetting16setInterfaceNameERK7QString@Base 5.1.1+git20141203.0020+15.04
 _ZN14NetworkManager11BondSetting7fromMapERK4QMapI7QString8QVariantE@Base 5.1.1+git20141203.0020+15.04
 _ZN14NetworkManager11BondSetting9addOptionERK7QStringS3_@Base 5.1.1+git20141203.0020+15.04
 _ZN14NetworkManager11BondSettingC1ERK14QSharedPointerIS0_E@Base 5.1.1+git20141203.0020+15.04
 _ZN14NetworkManager11BondSettingC1Ev@Base 5.1.1+git20141203.0020+15.04
 _ZN14NetworkManager11BondSettingC2ERK14QSharedPointerIS0_E@Base 5.1.1+git20141203.0020+15.04
 _ZN14NetworkManager11BondSettingC2Ev@Base 5.1.1+git20141203.0020+15.04
 _ZN14NetworkManager11BondSettingD0Ev@Base 5.1.1+git20141203.0020+15.04
 _ZN14NetworkManager11BondSettingD1Ev@Base 5.1.1+git20141203.0020+15.04
 _ZN14NetworkManager11BondSettingD2Ev@Base 5.1.1+git20141203.0020+15.04
 _ZN14NetworkManager11CdmaSetting11setPasswordERK7QString@Base 5.1.1+git20141203.0020+15.04
 _ZN14NetworkManager11CdmaSetting11setUsernameERK7QString@Base 5.1.1+git20141203.0020+15.04
 _ZN14NetworkManager11CdmaSetting14secretsFromMapERK4QMapI7QString8QVariantE@Base 5.1.1+git20141203.0020+15.04
 _ZN14NetworkManager11CdmaSetting16setPasswordFlagsE6QFlagsINS_7Setting14SecretFlagTypeEE@Base 5.1.1+git20141203.0020+15.04
 _ZN14NetworkManager11CdmaSetting7fromMapERK4QMapI7QString8QVariantE@Base 5.1.1+git20141203.0020+15.04
 _ZN14NetworkManager11CdmaSetting9setNumberERK7QString@Base 5.1.1+git20141203.0020+15.04
 _ZN14NetworkManager11CdmaSettingC1ERK14QSharedPointerIS0_E@Base 5.1.1+git20141203.0020+15.04
 _ZN14NetworkManager11CdmaSettingC1Ev@Base 5.1.1+git20141203.0020+15.04
 _ZN14NetworkManager11CdmaSettingC2ERK14QSharedPointerIS0_E@Base 5.1.1+git20141203.0020+15.04
 _ZN14NetworkManager11CdmaSettingC2Ev@Base 5.1.1+git20141203.0020+15.04
 _ZN14NetworkManager11CdmaSettingD0Ev@Base 5.1.1+git20141203.0020+15.04
 _ZN14NetworkManager11CdmaSettingD1Ev@Base 5.1.1+git20141203.0020+15.04
 _ZN14NetworkManager11CdmaSettingD2Ev@Base 5.1.1+git20141203.0020+15.04
 _ZN14NetworkManager11Dhcp4Config11qt_metacallEN11QMetaObject4CallEiPPv@Base 5.1.1+git20141203.0020+15.04
 _ZN14NetworkManager11Dhcp4Config11qt_metacastEPKc@Base 5.1.1+git20141203.0020+15.04
 _ZN14NetworkManager11Dhcp4Config14optionsChangedERK4QMapI7QString8QVariantE@Base 5.1.1+git20141203.0020+15.04
 _ZN14NetworkManager11Dhcp4Config16staticMetaObjectE@Base 5.1.1+git20141203.0020+15.04
 _ZN14NetworkManager11Dhcp4ConfigC1ERK7QStringP7QObject@Base 5.1.1+git20141203.0020+15.04
 _ZN14NetworkManager11Dhcp4ConfigC2ERK7QStringP7QObject@Base 5.1.1+git20141203.0020+15.04
 _ZN14NetworkManager11Dhcp4ConfigD0Ev@Base 5.1.1+git20141203.0020+15.04
 _ZN14NetworkManager11Dhcp4ConfigD1Ev@Base 5.1.1+git20141203.0020+15.04
 _ZN14NetworkManager11Dhcp4ConfigD2Ev@Base 5.1.1+git20141203.0020+15.04
 _ZN14NetworkManager11Dhcp6Config11qt_metacallEN11QMetaObject4CallEiPPv@Base 5.1.1+git20141203.0020+15.04
 _ZN14NetworkManager11Dhcp6Config11qt_metacastEPKc@Base 5.1.1+git20141203.0020+15.04
 _ZN14NetworkManager11Dhcp6Config14optionsChangedERK4QMapI7QString8QVariantE@Base 5.1.1+git20141203.0020+15.04
 _ZN14NetworkManager11Dhcp6Config16staticMetaObjectE@Base 5.1.1+git20141203.0020+15.04
 _ZN14NetworkManager11Dhcp6ConfigC1ERK7QStringP7QObject@Base 5.1.1+git20141203.0020+15.04
 _ZN14NetworkManager11Dhcp6ConfigC2ERK7QStringP7QObject@Base 5.1.1+git20141203.0020+15.04
 _ZN14NetworkManager11Dhcp6ConfigD0Ev@Base 5.1.1+git20141203.0020+15.04
 _ZN14NetworkManager11Dhcp6ConfigD1Ev@Base 5.1.1+git20141203.0020+15.04
 _ZN14NetworkManager11Dhcp6ConfigD2Ev@Base 5.1.1+git20141203.0020+15.04
 _ZN14NetworkManager11Ipv4Setting10setMayFailEb@Base 5.1.1+git20141203.0020+15.04
 _ZN14NetworkManager11Ipv4Setting12setAddressesERK5QListINS_9IpAddressEE@Base 5.1.1+git20141203.0020+15.04
 _ZN14NetworkManager11Ipv4Setting12setDnsSearchERK11QStringList@Base 5.1.1+git20141203.0020+15.04
 _ZN14NetworkManager11Ipv4Setting15setDhcpClientIdERK7QString@Base 5.1.1+git20141203.0020+15.04
 _ZN14NetworkManager11Ipv4Setting15setDhcpHostnameERK7QString@Base 5.1.1+git20141203.0020+15.04
 _ZN14NetworkManager11Ipv4Setting15setNeverDefaultEb@Base 5.1.1+git20141203.0020+15.04
 _ZN14NetworkManager11Ipv4Setting16setIgnoreAutoDnsEb@Base 5.1.1+git20141203.0020+15.04
 _ZN14NetworkManager11Ipv4Setting19setDhcpSendHostnameEb@Base 5.1.1+git20141203.0020+15.04
 _ZN14NetworkManager11Ipv4Setting19setIgnoreAutoRoutesEb@Base 5.1.1+git20141203.0020+15.04
 _ZN14NetworkManager11Ipv4Setting6setDnsERK5QListI12QHostAddressE@Base 5.1.1+git20141203.0020+15.04
 _ZN14NetworkManager11Ipv4Setting7fromMapERK4QMapI7QString8QVariantE@Base 5.1.1+git20141203.0020+15.04
 _ZN14NetworkManager11Ipv4Setting9setMethodENS0_12ConfigMethodE@Base 5.1.1+git20141203.0020+15.04
 _ZN14NetworkManager11Ipv4Setting9setRoutesERK5QListINS_7IpRouteEE@Base 5.1.1+git20141203.0020+15.04
 _ZN14NetworkManager11Ipv4SettingC1ERK14QSharedPointerIS0_E@Base 5.1.1+git20141203.0020+15.04
 _ZN14NetworkManager11Ipv4SettingC1Ev@Base 5.1.1+git20141203.0020+15.04
 _ZN14NetworkManager11Ipv4SettingC2ERK14QSharedPointerIS0_E@Base 5.1.1+git20141203.0020+15.04
 _ZN14NetworkManager11Ipv4SettingC2Ev@Base 5.1.1+git20141203.0020+15.04
 _ZN14NetworkManager11Ipv4SettingD0Ev@Base 5.1.1+git20141203.0020+15.04
 _ZN14NetworkManager11Ipv4SettingD1Ev@Base 5.1.1+git20141203.0020+15.04
 _ZN14NetworkManager11Ipv4SettingD2Ev@Base 5.1.1+git20141203.0020+15.04
 _ZN14NetworkManager11Ipv6Setting10setMayFailEb@Base 5.1.1+git20141203.0020+15.04
 _ZN14NetworkManager11Ipv6Setting10setPrivacyENS0_11IPv6PrivacyE@Base 5.1.1+git20141203.0020+15.04
 _ZN14NetworkManager11Ipv6Setting12setAddressesE5QListINS_9IpAddressEE@Base 5.1.1+git20141203.0020+15.04
 _ZN14NetworkManager11Ipv6Setting12setDnsSearchERK11QStringList@Base 5.1.1+git20141203.0020+15.04
 _ZN14NetworkManager11Ipv6Setting15setNeverDefaultEb@Base 5.1.1+git20141203.0020+15.04
 _ZN14NetworkManager11Ipv6Setting16setIgnoreAutoDnsEb@Base 5.1.1+git20141203.0020+15.04
 _ZN14NetworkManager11Ipv6Setting19setIgnoreAutoRoutesEb@Base 5.1.1+git20141203.0020+15.04
 _ZN14NetworkManager11Ipv6Setting6setDnsERK5QListI12QHostAddressE@Base 5.1.1+git20141203.0020+15.04
 _ZN14NetworkManager11Ipv6Setting7fromMapERK4QMapI7QString8QVariantE@Base 5.1.1+git20141203.0020+15.04
 _ZN14NetworkManager11Ipv6Setting9setMethodENS0_12ConfigMethodE@Base 5.1.1+git20141203.0020+15.04
 _ZN14NetworkManager11Ipv6Setting9setRoutesE5QListINS_7IpRouteEE@Base 5.1.1+git20141203.0020+15.04
 _ZN14NetworkManager11Ipv6SettingC1ERK14QSharedPointerIS0_E@Base 5.1.1+git20141203.0020+15.04
 _ZN14NetworkManager11Ipv6SettingC1Ev@Base 5.1.1+git20141203.0020+15.04
 _ZN14NetworkManager11Ipv6SettingC2ERK14QSharedPointerIS0_E@Base 5.1.1+git20141203.0020+15.04
 _ZN14NetworkManager11Ipv6SettingC2Ev@Base 5.1.1+git20141203.0020+15.04
 _ZN14NetworkManager11Ipv6SettingD0Ev@Base 5.1.1+git20141203.0020+15.04
 _ZN14NetworkManager11Ipv6SettingD1Ev@Base 5.1.1+git20141203.0020+15.04
 _ZN14NetworkManager11Ipv6SettingD2Ev@Base 5.1.1+git20141203.0020+15.04
 _ZN14NetworkManager11ModemDevice11qt_metacallEN11QMetaObject4CallEiPPv@Base 5.1.1+git20141203.0020+15.04
 _ZN14NetworkManager11ModemDevice11qt_metacastEPKc@Base 5.1.1+git20141203.0020+15.04
 _ZN14NetworkManager11ModemDevice16staticMetaObjectE@Base 5.1.1+git20141203.0020+15.04
 _ZN14NetworkManager11ModemDevice26currentCapabilitiesChangedE6QFlagsINS0_10CapabilityEE@Base 5.1.1+git20141203.0020+15.04
 _ZN14NetworkManager11ModemDeviceC1ERK7QStringP7QObject@Base 5.1.1+git20141203.0020+15.04
 _ZN14NetworkManager11ModemDeviceC1ERNS_18ModemDevicePrivateEP7QObject@Base 5.1.1+git20141203.0020+15.04
 _ZN14NetworkManager11ModemDeviceC2ERK7QStringP7QObject@Base 5.1.1+git20141203.0020+15.04
 _ZN14NetworkManager11ModemDeviceC2ERNS_18ModemDevicePrivateEP7QObject@Base 5.1.1+git20141203.0020+15.04
 _ZN14NetworkManager11ModemDeviceD0Ev@Base 5.1.1+git20141203.0020+15.04
 _ZN14NetworkManager11ModemDeviceD1Ev@Base 5.1.1+git20141203.0020+15.04
 _ZN14NetworkManager11ModemDeviceD2Ev@Base 5.1.1+git20141203.0020+15.04
 _ZN14NetworkManager11SecretAgent11qt_metacallEN11QMetaObject4CallEiPPv@Base 5.1.1+git20141203.0020+15.04
 _ZN14NetworkManager11SecretAgent11qt_metacastEPKc@Base 5.1.1+git20141203.0020+15.04
 _ZN14NetworkManager11SecretAgent16staticMetaObjectE@Base 5.1.1+git20141203.0020+15.04
 _ZN14NetworkManager11SecretAgentC1ERK7QStringP7QObject@Base 5.1.1+git20141203.0020+15.04
 _ZN14NetworkManager11SecretAgentC2ERK7QStringP7QObject@Base 5.1.1+git20141203.0020+15.04
 _ZN14NetworkManager11SecretAgentD0Ev@Base 5.1.1+git20141203.0020+15.04
 _ZN14NetworkManager11SecretAgentD1Ev@Base 5.1.1+git20141203.0020+15.04
 _ZN14NetworkManager11SecretAgentD2Ev@Base 5.1.1+git20141203.0020+15.04
 _ZN14NetworkManager11TeamSetting16setInterfaceNameERK7QString@Base 5.6.0
 _ZN14NetworkManager11TeamSetting7fromMapERK4QMapI7QString8QVariantE@Base 5.6.0
 _ZN14NetworkManager11TeamSetting9setConfigERK7QString@Base 5.6.0
 _ZN14NetworkManager11TeamSettingC1ERK14QSharedPointerIS0_E@Base 5.6.0
 _ZN14NetworkManager11TeamSettingC1Ev@Base 5.6.0
 _ZN14NetworkManager11TeamSettingC2ERK14QSharedPointerIS0_E@Base 5.6.0
 _ZN14NetworkManager11TeamSettingC2Ev@Base 5.6.0
 _ZN14NetworkManager11TeamSettingD0Ev@Base 5.6.0
 _ZN14NetworkManager11TeamSettingD1Ev@Base 5.6.0
 _ZN14NetworkManager11TeamSettingD2Ev@Base 5.6.0
 _ZN14NetworkManager11VlanSetting16setInterfaceNameERK7QString@Base 5.1.1+git20141203.0020+15.04
 _ZN14NetworkManager11VlanSetting20setEgressPriorityMapERK11QStringList@Base 5.1.1+git20141203.0020+15.04
 _ZN14NetworkManager11VlanSetting21setIngressPriorityMapERK11QStringList@Base 5.1.1+git20141203.0020+15.04
 _ZN14NetworkManager11VlanSetting5setIdEj@Base 5.1.1+git20141203.0020+15.04
 _ZN14NetworkManager11VlanSetting7fromMapERK4QMapI7QString8QVariantE@Base 5.1.1+git20141203.0020+15.04
 _ZN14NetworkManager11VlanSetting8setFlagsE6QFlagsINS0_4FlagEE@Base 5.1.1+git20141203.0020+15.04
 _ZN14NetworkManager11VlanSetting9setParentERK7QString@Base 5.1.1+git20141203.0020+15.04
 _ZN14NetworkManager11VlanSettingC1ERK14QSharedPointerIS0_E@Base 5.1.1+git20141203.0020+15.04
 _ZN14NetworkManager11VlanSettingC1Ev@Base 5.1.1+git20141203.0020+15.04
 _ZN14NetworkManager11VlanSettingC2ERK14QSharedPointerIS0_E@Base 5.1.1+git20141203.0020+15.04
 _ZN14NetworkManager11VlanSettingC2Ev@Base 5.1.1+git20141203.0020+15.04
 _ZN14NetworkManager11VlanSettingD0Ev@Base 5.1.1+git20141203.0020+15.04
 _ZN14NetworkManager11VlanSettingD1Ev@Base 5.1.1+git20141203.0020+15.04
 _ZN14NetworkManager11VlanSettingD2Ev@Base 5.1.1+git20141203.0020+15.04
 _ZN14NetworkManager11WimaxDevice11bsidChangedERK7QString@Base 5.1.1+git20141203.0020+15.04
 _ZN14NetworkManager11WimaxDevice11cinrChangedEi@Base 5.1.1+git20141203.0020+15.04
 _ZN14NetworkManager11WimaxDevice11nspAppearedERK7QString@Base 5.1.1+git20141203.0020+15.04
 _ZN14NetworkManager11WimaxDevice11qt_metacallEN11QMetaObject4CallEiPPv@Base 5.1.1+git20141203.0020+15.04
 _ZN14NetworkManager11WimaxDevice11qt_metacastEPKc@Base 5.1.1+git20141203.0020+15.04
 _ZN14NetworkManager11WimaxDevice11rssiChangedEi@Base 5.1.1+git20141203.0020+15.04
 _ZN14NetworkManager11WimaxDevice14bitRateChangedEi@Base 5.1.1+git20141203.0020+15.04
 _ZN14NetworkManager11WimaxDevice14nspDisappearedERK7QString@Base 5.1.1+git20141203.0020+15.04
 _ZN14NetworkManager11WimaxDevice14txPowerChangedEi@Base 5.1.1+git20141203.0020+15.04
 _ZN14NetworkManager11WimaxDevice16activeNspChangedERK7QString@Base 5.1.1+git20141203.0020+15.04
 _ZN14NetworkManager11WimaxDevice16staticMetaObjectE@Base 5.1.1+git20141203.0020+15.04
 _ZN14NetworkManager11WimaxDevice22centerFrequencyChangedEj@Base 5.1.1+git20141203.0020+15.04
 _ZN14NetworkManager11WimaxDevice22hardwareAddressChangedERK7QString@Base 5.1.1+git20141203.0020+15.04
 _ZN14NetworkManager11WimaxDeviceC1ERK7QStringP7QObject@Base 5.1.1+git20141203.0020+15.04
 _ZN14NetworkManager11WimaxDeviceC2ERK7QStringP7QObject@Base 5.1.1+git20141203.0020+15.04
 _ZN14NetworkManager11WimaxDeviceD0Ev@Base 5.1.1+git20141203.0020+15.04
 _ZN14NetworkManager11WimaxDeviceD1Ev@Base 5.1.1+git20141203.0020+15.04
 _ZN14NetworkManager11WimaxDeviceD2Ev@Base 5.1.1+git20141203.0020+15.04
 _ZN14NetworkManager11WiredDevice11qt_metacallEN11QMetaObject4CallEiPPv@Base 5.1.1+git20141203.0020+15.04
 _ZN14NetworkManager11WiredDevice11qt_metacastEPKc@Base 5.1.1+git20141203.0020+15.04
 _ZN14NetworkManager11WiredDevice14bitRateChangedEi@Base 5.1.1+git20141203.0020+15.04
 _ZN14NetworkManager11WiredDevice14carrierChangedEb@Base 5.1.1+git20141203.0020+15.04
 _ZN14NetworkManager11WiredDevice16staticMetaObjectE@Base 5.1.1+git20141203.0020+15.04
 _ZN14NetworkManager11WiredDevice22hardwareAddressChangedERK7QString@Base 5.1.1+git20141203.0020+15.04
 _ZN14NetworkManager11WiredDevice31permanentHardwareAddressChangedERK7QString@Base 5.1.1+git20141203.0020+15.04
 _ZN14NetworkManager11WiredDeviceC1ERK7QStringP7QObject@Base 5.1.1+git20141203.0020+15.04
 _ZN14NetworkManager11WiredDeviceC2ERK7QStringP7QObject@Base 5.1.1+git20141203.0020+15.04
 _ZN14NetworkManager11WiredDeviceD0Ev@Base 5.1.1+git20141203.0020+15.04
 _ZN14NetworkManager11WiredDeviceD1Ev@Base 5.1.1+git20141203.0020+15.04
 _ZN14NetworkManager11WiredDeviceD2Ev@Base 5.1.1+git20141203.0020+15.04
 _ZN14NetworkManager11findChannelEi@Base 5.1.1+git20141212
 _ZN14NetworkManager11permissionsEv@Base 5.1.1+git20141203.0020+15.04
 _ZN14NetworkManager12BridgeDevice11qt_metacallEN11QMetaObject4CallEiPPv@Base 5.1.1+git20141203.0020+15.04
 _ZN14NetworkManager12BridgeDevice11qt_metacastEPKc@Base 5.1.1+git20141203.0020+15.04
 _ZN14NetworkManager12BridgeDevice13slavesChangedERK11QStringList@Base 5.1.1+git20141203.0020+15.04
 _ZN14NetworkManager12BridgeDevice14carrierChangedEb@Base 5.1.1+git20141203.0020+15.04
 _ZN14NetworkManager12BridgeDevice16hwAddressChangedERK7QString@Base 5.1.1+git20141203.0020+15.04
 _ZN14NetworkManager12BridgeDevice16staticMetaObjectE@Base 5.1.1+git20141203.0020+15.04
 _ZN14NetworkManager12BridgeDeviceC1ERK7QStringP7QObject@Base 5.1.1+git20141203.0020+15.04
 _ZN14NetworkManager12BridgeDeviceC2ERK7QStringP7QObject@Base 5.1.1+git20141203.0020+15.04
 _ZN14NetworkManager12BridgeDeviceD0Ev@Base 5.1.1+git20141203.0020+15.04
 _ZN14NetworkManager12BridgeDeviceD1Ev@Base 5.1.1+git20141203.0020+15.04
 _ZN14NetworkManager12BridgeDeviceD2Ev@Base 5.1.1+git20141203.0020+15.04
 _ZN14NetworkManager12PppoeSetting10setServiceERK7QString@Base 5.1.1+git20141203.0020+15.04
 _ZN14NetworkManager12PppoeSetting11setPasswordERK7QString@Base 5.1.1+git20141203.0020+15.04
 _ZN14NetworkManager12PppoeSetting11setUsernameERK7QString@Base 5.1.1+git20141203.0020+15.04
 _ZN14NetworkManager12PppoeSetting14secretsFromMapERK4QMapI7QString8QVariantE@Base 5.1.1+git20141203.0020+15.04
 _ZN14NetworkManager12PppoeSetting16setPasswordFlagsE6QFlagsINS_7Setting14SecretFlagTypeEE@Base 5.1.1+git20141203.0020+15.04
 _ZN14NetworkManager12PppoeSetting7fromMapERK4QMapI7QString8QVariantE@Base 5.1.1+git20141203.0020+15.04
 _ZN14NetworkManager12PppoeSettingC1ERK14QSharedPointerIS0_E@Base 5.1.1+git20141203.0020+15.04
 _ZN14NetworkManager12PppoeSettingC1Ev@Base 5.1.1+git20141203.0020+15.04
 _ZN14NetworkManager12PppoeSettingC2ERK14QSharedPointerIS0_E@Base 5.1.1+git20141203.0020+15.04
 _ZN14NetworkManager12PppoeSettingC2Ev@Base 5.1.1+git20141203.0020+15.04
 _ZN14NetworkManager12PppoeSettingD0Ev@Base 5.1.1+git20141203.0020+15.04
 _ZN14NetworkManager12PppoeSettingD1Ev@Base 5.1.1+git20141203.0020+15.04
 _ZN14NetworkManager12PppoeSettingD2Ev@Base 5.1.1+git20141203.0020+15.04
 _ZN14NetworkManager12WimaxSetting13setMacAddressERK10QByteArray@Base 5.1.1+git20141203.0020+15.04
 _ZN14NetworkManager12WimaxSetting14setNetworkNameERK7QString@Base 5.1.1+git20141203.0020+15.04
 _ZN14NetworkManager12WimaxSetting7fromMapERK4QMapI7QString8QVariantE@Base 5.1.1+git20141203.0020+15.04
 _ZN14NetworkManager12WimaxSettingC1ERK14QSharedPointerIS0_E@Base 5.1.1+git20141203.0020+15.04
 _ZN14NetworkManager12WimaxSettingC1Ev@Base 5.1.1+git20141203.0020+15.04
 _ZN14NetworkManager12WimaxSettingC2ERK14QSharedPointerIS0_E@Base 5.1.1+git20141203.0020+15.04
 _ZN14NetworkManager12WimaxSettingC2Ev@Base 5.1.1+git20141203.0020+15.04
 _ZN14NetworkManager12WimaxSettingD0Ev@Base 5.1.1+git20141203.0020+15.04
 _ZN14NetworkManager12WimaxSettingD1Ev@Base 5.1.1+git20141203.0020+15.04
 _ZN14NetworkManager12WimaxSettingD2Ev@Base 5.1.1+git20141203.0020+15.04
 _ZN14NetworkManager12WiredSetting13setDuplexTypeENS0_10DuplexTypeE@Base 5.1.1+git20141203.0020+15.04
 _ZN14NetworkManager12WiredSetting13setMacAddressERK10QByteArray@Base 5.1.1+git20141203.0020+15.04
 _ZN14NetworkManager12WiredSetting14setS390NetTypeENS0_11S390NettypeE@Base 5.1.1+git20141203.0020+15.04
 _ZN14NetworkManager12WiredSetting14setS390OptionsERK4QMapI7QStringS2_E@Base 5.1.1+git20141203.0020+15.04
 _ZN14NetworkManager12WiredSetting16setAutoNegotiateEb@Base 5.1.1+git20141203.0020+15.04
 _ZN14NetworkManager12WiredSetting18setS390SubchannelsERK11QStringList@Base 5.1.1+git20141203.0020+15.04
 _ZN14NetworkManager12WiredSetting19setClonedMacAddressERK10QByteArray@Base 5.1.1+git20141203.0020+15.04
 _ZN14NetworkManager12WiredSetting22setMacAddressBlacklistERK11QStringList@Base 5.1.1+git20141203.0020+15.04
 _ZN14NetworkManager12WiredSetting6setMtuEj@Base 5.1.1+git20141203.0020+15.04
 _ZN14NetworkManager12WiredSetting7fromMapERK4QMapI7QString8QVariantE@Base 5.1.1+git20141203.0020+15.04
 _ZN14NetworkManager12WiredSetting7setPortENS0_8PortTypeE@Base 5.1.1+git20141203.0020+15.04
 _ZN14NetworkManager12WiredSetting8setSpeedEj@Base 5.1.1+git20141203.0020+15.04
 _ZN14NetworkManager12WiredSettingC1ERK14QSharedPointerIS0_E@Base 5.1.1+git20141203.0020+15.04
 _ZN14NetworkManager12WiredSettingC1Ev@Base 5.1.1+git20141203.0020+15.04
 _ZN14NetworkManager12WiredSettingC2ERK14QSharedPointerIS0_E@Base 5.1.1+git20141203.0020+15.04
 _ZN14NetworkManager12WiredSettingC2Ev@Base 5.1.1+git20141203.0020+15.04
 _ZN14NetworkManager12WiredSettingD0Ev@Base 5.1.1+git20141203.0020+15.04
 _ZN14NetworkManager12WiredSettingD1Ev@Base 5.1.1+git20141203.0020+15.04
 _ZN14NetworkManager12WiredSettingD2Ev@Base 5.1.1+git20141203.0020+15.04
 _ZN14NetworkManager12connectivityEv@Base 5.1.1+git20141203.0020+15.04
 _ZN14NetworkManager12isStartingUpEv@Base 5.6.0
 _ZN14NetworkManager12saveHostnameERK7QString@Base 5.1.1+git20141203.0020+15.04
 _ZN14NetworkManager13BridgeSetting11setPriorityEj@Base 5.1.1+git20141203.0020+15.04
 _ZN14NetworkManager13BridgeSetting12setAgingTimeEj@Base 5.1.1+git20141203.0020+15.04
 _ZN14NetworkManager13BridgeSetting12setHelloTimeEj@Base 5.1.1+git20141203.0020+15.04
 _ZN14NetworkManager13BridgeSetting15setForwardDelayEj@Base 5.1.1+git20141203.0020+15.04
 _ZN14NetworkManager13BridgeSetting16setInterfaceNameERK7QString@Base 5.1.1+git20141203.0020+15.04
 _ZN14NetworkManager13BridgeSetting6setStpEb@Base 5.1.1+git20141203.0020+15.04
 _ZN14NetworkManager13BridgeSetting7fromMapERK4QMapI7QString8QVariantE@Base 5.1.1+git20141203.0020+15.04
 _ZN14NetworkManager13BridgeSetting9setMaxAgeEj@Base 5.1.1+git20141203.0020+15.04
 _ZN14NetworkManager13BridgeSettingC1ERK14QSharedPointerIS0_E@Base 5.1.1+git20141203.0020+15.04
 _ZN14NetworkManager13BridgeSettingC1Ev@Base 5.1.1+git20141203.0020+15.04
 _ZN14NetworkManager13BridgeSettingC2ERK14QSharedPointerIS0_E@Base 5.1.1+git20141203.0020+15.04
 _ZN14NetworkManager13BridgeSettingC2Ev@Base 5.1.1+git20141203.0020+15.04
 _ZN14NetworkManager13BridgeSettingD0Ev@Base 5.1.1+git20141203.0020+15.04
 _ZN14NetworkManager13BridgeSettingD1Ev@Base 5.1.1+git20141203.0020+15.04
 _ZN14NetworkManager13BridgeSettingD2Ev@Base 5.1.1+git20141203.0020+15.04
 _ZN14NetworkManager13GenericDevice11qt_metacallEN11QMetaObject4CallEiPPv@Base 5.6.0
 _ZN14NetworkManager13GenericDevice11qt_metacastEPKc@Base 5.6.0
 _ZN14NetworkManager13GenericDevice16staticMetaObjectE@Base 5.6.0
 _ZN14NetworkManager13GenericDevice22hardwareAddressChangedERK7QString@Base 5.6.0
 _ZN14NetworkManager13GenericDevice31permanentHardwareAddressChangedERK7QString@Base 5.6.0
 _ZN14NetworkManager13GenericDeviceC1ERK7QStringP7QObject@Base 5.6.0
 _ZN14NetworkManager13GenericDeviceC2ERK7QStringP7QObject@Base 5.6.0
 _ZN14NetworkManager13GenericDeviceD0Ev@Base 5.6.0
 _ZN14NetworkManager13GenericDeviceD1Ev@Base 5.6.0
 _ZN14NetworkManager13GenericDeviceD2Ev@Base 5.6.0
 _ZN14NetworkManager13MacVlanDevice11modeChangedERK7QString@Base 5.6.0
 _ZN14NetworkManager13MacVlanDevice11qt_metacallEN11QMetaObject4CallEiPPv@Base 5.6.0
 _ZN14NetworkManager13MacVlanDevice11qt_metacastEPKc@Base 5.6.0
 _ZN14NetworkManager13MacVlanDevice13parentChangedERK7QString@Base 5.6.0
 _ZN14NetworkManager13MacVlanDevice16noPromiscChangedEb@Base 5.6.0
 _ZN14NetworkManager13MacVlanDevice16staticMetaObjectE@Base 5.6.0
 _ZN14NetworkManager13MacVlanDeviceC1ERK7QStringP7QObject@Base 5.6.0
 _ZN14NetworkManager13MacVlanDeviceC2ERK7QStringP7QObject@Base 5.6.0
 _ZN14NetworkManager13MacVlanDeviceD0Ev@Base 5.6.0
 _ZN14NetworkManager13MacVlanDeviceD1Ev@Base 5.6.0
 _ZN14NetworkManager13MacVlanDeviceD2Ev@Base 5.6.0
 _ZN14NetworkManager13SerialSetting11setStopbitsEj@Base 5.1.1+git20141203.0020+15.04
 _ZN14NetworkManager13SerialSetting12setSendDelayEy@Base 5.1.1+git20141203.0020+15.04
 _ZN14NetworkManager13SerialSetting7fromMapERK4QMapI7QString8QVariantE@Base 5.1.1+git20141203.0020+15.04
 _ZN14NetworkManager13SerialSetting7setBaudEj@Base 5.1.1+git20141203.0020+15.04
 _ZN14NetworkManager13SerialSetting7setBitsEj@Base 5.1.1+git20141203.0020+15.04
 _ZN14NetworkManager13SerialSetting9setParityENS0_6ParityE@Base 5.1.1+git20141203.0020+15.04
 _ZN14NetworkManager13SerialSettingC1ERK14QSharedPointerIS0_E@Base 5.1.1+git20141203.0020+15.04
 _ZN14NetworkManager13SerialSettingC1Ev@Base 5.1.1+git20141203.0020+15.04
 _ZN14NetworkManager13SerialSettingC2ERK14QSharedPointerIS0_E@Base 5.1.1+git20141203.0020+15.04
 _ZN14NetworkManager13SerialSettingC2Ev@Base 5.1.1+git20141203.0020+15.04
 _ZN14NetworkManager13SerialSettingD0Ev@Base 5.1.1+git20141203.0020+15.04
 _ZN14NetworkManager13SerialSettingD1Ev@Base 5.1.1+git20141203.0020+15.04
 _ZN14NetworkManager13SerialSettingD2Ev@Base 5.1.1+git20141203.0020+15.04
 _ZN14NetworkManager13VpnConnection11qt_metacallEN11QMetaObject4CallEiPPv@Base 5.1.1+git20141203.0020+15.04
 _ZN14NetworkManager13VpnConnection11qt_metacastEPKc@Base 5.1.1+git20141203.0020+15.04
 _ZN14NetworkManager13VpnConnection12stateChangedENS0_5StateENS0_17StateChangeReasonE@Base 5.1.1+git20141203.0020+15.04
 _ZN14NetworkManager13VpnConnection13bannerChangedERK7QString@Base 5.1.1+git20141203.0020+15.04
 _ZN14NetworkManager13VpnConnection16staticMetaObjectE@Base 5.1.1+git20141203.0020+15.04
 _ZN14NetworkManager13VpnConnectionC1ERK7QStringP7QObject@Base 5.1.1+git20141203.0020+15.04
 _ZN14NetworkManager13VpnConnectionC2ERK7QStringP7QObject@Base 5.1.1+git20141203.0020+15.04
 _ZN14NetworkManager13VpnConnectionD0Ev@Base 5.1.1+git20141203.0020+15.04
 _ZN14NetworkManager13VpnConnectionD1Ev@Base 5.1.1+git20141203.0020+15.04
 _ZN14NetworkManager13VpnConnectionD2Ev@Base 5.1.1+git20141203.0020+15.04
 _ZN14NetworkManager13VpnConnectioncvPS0_Ev@Base 5.1.1+git20141203.0020+15.04
 _ZN14NetworkManager13addConnectionERK4QMapI7QStringS0_IS1_8QVariantEE@Base 5.1.1+git20141203.0020+15.04
 _ZN14NetworkManager13isWwanEnabledEv@Base 5.1.1+git20141203.0020+15.04
 _ZN14NetworkManager13wepKeyIsValidERK7QStringNS_23WirelessSecuritySetting10WepKeyTypeE@Base 5.1.1+git20141212
 _ZN14NetworkManager13wpaPskIsValidERK7QString@Base 5.1.1+git20141212
 _ZN14NetworkManager14GenericSetting7fromMapERK4QMapI7QString8QVariantE@Base 5.6.0+git20150202.1426+15.04
 _ZN14NetworkManager14GenericSettingC1ERK14QSharedPointerIS0_E@Base 5.6.0+git20150202.1426+15.04
 _ZN14NetworkManager14GenericSettingC1Ev@Base 5.6.0+git20150202.1426+15.04
 _ZN14NetworkManager14GenericSettingC2ERK14QSharedPointerIS0_E@Base 5.6.0+git20150202.1426+15.04
 _ZN14NetworkManager14GenericSettingC2Ev@Base 5.6.0+git20150202.1426+15.04
 _ZN14NetworkManager14GenericSettingD0Ev@Base 5.6.0+git20150202.1426+15.04
 _ZN14NetworkManager14GenericSettingD1Ev@Base 5.6.0+git20150202.1426+15.04
 _ZN14NetworkManager14GenericSettingD2Ev@Base 5.6.0+git20150202.1426+15.04
 _ZN14NetworkManager14OlpcMeshDevice11qt_metacallEN11QMetaObject4CallEiPPv@Base 5.1.1+git20141203.0020+15.04
 _ZN14NetworkManager14OlpcMeshDevice11qt_metacastEPKc@Base 5.1.1+git20141203.0020+15.04
 _ZN14NetworkManager14OlpcMeshDevice16companionChangedERK14QSharedPointerINS_6DeviceEE@Base 5.1.1+git20141203.0020+15.04
 _ZN14NetworkManager14OlpcMeshDevice16staticMetaObjectE@Base 5.1.1+git20141203.0020+15.04
 _ZN14NetworkManager14OlpcMeshDevice20activeChannelChangedEj@Base 5.1.1+git20141203.0020+15.04
 _ZN14NetworkManager14OlpcMeshDevice22hardwareAddressChangedERK7QString@Base 5.1.1+git20141203.0020+15.04
 _ZN14NetworkManager14OlpcMeshDeviceC1ERK7QStringP7QObject@Base 5.1.1+git20141203.0020+15.04
 _ZN14NetworkManager14OlpcMeshDeviceC2ERK7QStringP7QObject@Base 5.1.1+git20141203.0020+15.04
 _ZN14NetworkManager14OlpcMeshDeviceD0Ev@Base 5.1.1+git20141203.0020+15.04
 _ZN14NetworkManager14OlpcMeshDeviceD1Ev@Base 5.1.1+git20141203.0020+15.04
 _ZN14NetworkManager14OlpcMeshDeviceD2Ev@Base 5.1.1+git20141203.0020+15.04
 _ZN14NetworkManager14WirelessDevice11modeChangedENS0_13OperationModeE@Base 5.1.1+git20141203.0020+15.04
 _ZN14NetworkManager14WirelessDevice11qt_metacallEN11QMetaObject4CallEiPPv@Base 5.1.1+git20141203.0020+15.04
 _ZN14NetworkManager14WirelessDevice11qt_metacastEPKc@Base 5.1.1+git20141203.0020+15.04
 _ZN14NetworkManager14WirelessDevice11requestScanERK4QMapI7QString8QVariantE@Base 5.1.1+git20141203.0020+15.04
 _ZN14NetworkManager14WirelessDevice14bitRateChangedEi@Base 5.1.1+git20141203.0020+15.04
 _ZN14NetworkManager14WirelessDevice15findAccessPointERK7QString@Base 5.1.1+git20141203.0020+15.04
 _ZN14NetworkManager14WirelessDevice15networkAppearedERK7QString@Base 5.1.1+git20141203.0020+15.04
 _ZN14NetworkManager14WirelessDevice16staticMetaObjectE@Base 5.1.1+git20141203.0020+15.04
 _ZN14NetworkManager14WirelessDevice18networkDisappearedERK7QString@Base 5.1.1+git20141203.0020+15.04
 _ZN14NetworkManager14WirelessDevice19accessPointAppearedERK7QString@Base 5.1.1+git20141203.0020+15.04
 _ZN14NetworkManager14WirelessDevice19convertCapabilitiesEj@Base 5.1.1+git20141203.0020+15.04
 _ZN14NetworkManager14WirelessDevice20convertOperationModeEj@Base 5.1.1+git20141203.0020+15.04
 _ZN14NetworkManager14WirelessDevice22accessPointDisappearedERK7QString@Base 5.1.1+git20141203.0020+15.04
 _ZN14NetworkManager14WirelessDevice22hardwareAddressChangedERK7QString@Base 5.1.1+git20141203.0020+15.04
 _ZN14NetworkManager14WirelessDevice24activeAccessPointChangedERK7QString@Base 5.1.1+git20141203.0020+15.04
 _ZN14NetworkManager14WirelessDevice25wirelessPropertiesChangedEj@Base 5.1.1+git20141203.0020+15.04
 _ZN14NetworkManager14WirelessDevice27wirelessCapabilitiesChangedE6QFlagsINS0_10CapabilityEE@Base 5.1.1+git20141203.0020+15.04
 _ZN14NetworkManager14WirelessDevice31permanentHardwareAddressChangedERK7QString@Base 5.1.1+git20141203.0020+15.04
 _ZN14NetworkManager14WirelessDeviceC1ERK7QStringP7QObject@Base 5.1.1+git20141203.0020+15.04
 _ZN14NetworkManager14WirelessDeviceC2ERK7QStringP7QObject@Base 5.1.1+git20141203.0020+15.04
 _ZN14NetworkManager14WirelessDeviceD0Ev@Base 5.1.1+git20141203.0020+15.04
 _ZN14NetworkManager14WirelessDeviceD1Ev@Base 5.1.1+git20141203.0020+15.04
 _ZN14NetworkManager14WirelessDeviceD2Ev@Base 5.1.1+git20141203.0020+15.04
 _ZN14NetworkManager14compareVersionERK7QString@Base 5.1.1+git20141203.0020+15.04
 _ZN14NetworkManager14compareVersionEiii@Base 5.1.1+git20141203.0020+15.04
 _ZN14NetworkManager14findConnectionERK7QString@Base 5.1.1+git20141203.0020+15.04
 _ZN14NetworkManager14isWimaxEnabledEv@Base 5.1.1+git20141203.0020+15.04
 _ZN14NetworkManager14setWwanEnabledEb@Base 5.1.1+git20141203.0020+15.04
 _ZN14NetworkManager15BluetoothDevice11nameChangedERK7QString@Base 5.1.1+git20141203.0020+15.04
 _ZN14NetworkManager15BluetoothDevice11qt_metacallEN11QMetaObject4CallEiPPv@Base 5.1.1+git20141203.0020+15.04
 _ZN14NetworkManager15BluetoothDevice11qt_metacastEPKc@Base 5.1.1+git20141203.0020+15.04
 _ZN14NetworkManager15BluetoothDevice16staticMetaObjectE@Base 5.1.1+git20141203.0020+15.04
 _ZN14NetworkManager15BluetoothDeviceC1ERK7QStringP7QObject@Base 5.1.1+git20141203.0020+15.04
 _ZN14NetworkManager15BluetoothDeviceC2ERK7QStringP7QObject@Base 5.1.1+git20141203.0020+15.04
 _ZN14NetworkManager15BluetoothDeviceD0Ev@Base 5.1.1+git20141203.0020+15.04
 _ZN14NetworkManager15BluetoothDeviceD1Ev@Base 5.1.1+git20141203.0020+15.04
 _ZN14NetworkManager15BluetoothDeviceD2Ev@Base 5.1.1+git20141203.0020+15.04
 _ZN14NetworkManager15OlpcMeshSetting10setChannelEj@Base 5.1.1+git20141203.0020+15.04
 _ZN14NetworkManager15OlpcMeshSetting21setDhcpAnycastAddressERK10QByteArray@Base 5.1.1+git20141203.0020+15.04
 _ZN14NetworkManager15OlpcMeshSetting7fromMapERK4QMapI7QString8QVariantE@Base 5.1.1+git20141203.0020+15.04
 _ZN14NetworkManager15OlpcMeshSetting7setSsidERK10QByteArray@Base 5.1.1+git20141203.0020+15.04
 _ZN14NetworkManager15OlpcMeshSettingC1ERK14QSharedPointerIS0_E@Base 5.1.1+git20141203.0020+15.04
 _ZN14NetworkManager15OlpcMeshSettingC1Ev@Base 5.1.1+git20141203.0020+15.04
 _ZN14NetworkManager15OlpcMeshSettingC2ERK14QSharedPointerIS0_E@Base 5.1.1+git20141203.0020+15.04
 _ZN14NetworkManager15OlpcMeshSettingC2Ev@Base 5.1.1+git20141203.0020+15.04
 _ZN14NetworkManager15OlpcMeshSettingD0Ev@Base 5.1.1+git20141203.0020+15.04
 _ZN14NetworkManager15OlpcMeshSettingD1Ev@Base 5.1.1+git20141203.0020+15.04
 _ZN14NetworkManager15OlpcMeshSettingD2Ev@Base 5.1.1+git20141203.0020+15.04
 _ZN14NetworkManager15WirelessNetwork11disappearedERK7QString@Base 5.1.1+git20141203.0020+15.04
 _ZN14NetworkManager15WirelessNetwork11qt_metacallEN11QMetaObject4CallEiPPv@Base 5.1.1+git20141203.0020+15.04
 _ZN14NetworkManager15WirelessNetwork11qt_metacastEPKc@Base 5.1.1+git20141203.0020+15.04
 _ZN14NetworkManager15WirelessNetwork16staticMetaObjectE@Base 5.1.1+git20141203.0020+15.04
 _ZN14NetworkManager15WirelessNetwork21signalStrengthChangedEi@Base 5.1.1+git20141203.0020+15.04
 _ZN14NetworkManager15WirelessNetwork27referenceAccessPointChangedERK7QString@Base 5.1.1+git20141203.0020+15.04
 _ZN14NetworkManager15WirelessNetworkC1ERK14QSharedPointerINS_11AccessPointEEPNS_14WirelessDeviceE@Base 5.1.1+git20141203.0020+15.04
 _ZN14NetworkManager15WirelessNetworkC2ERK14QSharedPointerINS_11AccessPointEEPNS_14WirelessDeviceE@Base 5.1.1+git20141203.0020+15.04
 _ZN14NetworkManager15WirelessNetworkD0Ev@Base 5.1.1+git20141203.0020+15.04
 _ZN14NetworkManager15WirelessNetworkD1Ev@Base 5.1.1+git20141203.0020+15.04
 _ZN14NetworkManager15WirelessNetworkD2Ev@Base 5.1.1+git20141203.0020+15.04
 _ZN14NetworkManager15WirelessSetting10setChannelEj@Base 5.1.1+git20141203.0020+15.04
 _ZN14NetworkManager15WirelessSetting10setTxPowerEj@Base 5.1.1+git20141203.0020+15.04
 _ZN14NetworkManager15WirelessSetting11setSecurityERK7QString@Base 5.1.1+git20141203.0020+15.04
 _ZN14NetworkManager15WirelessSetting13setMacAddressERK10QByteArray@Base 5.1.1+git20141203.0020+15.04
 _ZN14NetworkManager15WirelessSetting13setSeenBssidsERK11QStringList@Base 5.1.1+git20141203.0020+15.04
 _ZN14NetworkManager15WirelessSetting19setClonedMacAddressERK10QByteArray@Base 5.1.1+git20141203.0020+15.04
 _ZN14NetworkManager15WirelessSetting22setMacAddressBlacklistERK11QStringList@Base 5.1.1+git20141203.0020+15.04
 _ZN14NetworkManager15WirelessSetting6setMtuEj@Base 5.1.1+git20141203.0020+15.04
 _ZN14NetworkManager15WirelessSetting7fromMapERK4QMapI7QString8QVariantE@Base 5.1.1+git20141203.0020+15.04
 _ZN14NetworkManager15WirelessSetting7setBandENS0_13FrequencyBandE@Base 5.1.1+git20141203.0020+15.04
 _ZN14NetworkManager15WirelessSetting7setModeENS0_11NetworkModeE@Base 5.1.1+git20141203.0020+15.04
 _ZN14NetworkManager15WirelessSetting7setRateEj@Base 5.1.1+git20141203.0020+15.04
 _ZN14NetworkManager15WirelessSetting7setSsidERK10QByteArray@Base 5.1.1+git20141203.0020+15.04
 _ZN14NetworkManager15WirelessSetting8setBssidERK10QByteArray@Base 5.1.1+git20141203.0020+15.04
 _ZN14NetworkManager15WirelessSetting9setHiddenEb@Base 5.1.1+git20141203.0020+15.04
 _ZN14NetworkManager15WirelessSettingC1ERK14QSharedPointerIS0_E@Base 5.1.1+git20141203.0020+15.04
 _ZN14NetworkManager15WirelessSettingC1Ev@Base 5.1.1+git20141203.0020+15.04
 _ZN14NetworkManager15WirelessSettingC2ERK14QSharedPointerIS0_E@Base 5.1.1+git20141203.0020+15.04
 _ZN14NetworkManager15WirelessSettingC2Ev@Base 5.1.1+git20141203.0020+15.04
 _ZN14NetworkManager15WirelessSettingD0Ev@Base 5.1.1+git20141203.0020+15.04
 _ZN14NetworkManager15WirelessSettingD1Ev@Base 5.1.1+git20141203.0020+15.04
 _ZN14NetworkManager15WirelessSettingD2Ev@Base 5.1.1+git20141203.0020+15.04
 _ZN14NetworkManager15listConnectionsEv@Base 5.1.1+git20141203.0020+15.04
 _ZN14NetworkManager15loadConnectionsERK11QStringList@Base 5.6.0
 _ZN14NetworkManager15securityIsValidENS_20WirelessSecurityTypeE6QFlagsINS_14WirelessDevice10CapabilityEEbbS1_INS_11AccessPoint10CapabilityEES1_INS5_7WpaFlagEES9_@Base 5.1.1+git20141212
 _ZN14NetworkManager15setWimaxEnabledEb@Base 5.1.1+git20141203.0020+15.04
 _ZN14NetworkManager16ActiveConnection10vpnChangedEb@Base 5.1.1+git20141203.0020+15.04
 _ZN14NetworkManager16ActiveConnection11qt_metacallEN11QMetaObject4CallEiPPv@Base 5.1.1+git20141203.0020+15.04
 _ZN14NetworkManager16ActiveConnection11qt_metacastEPKc@Base 5.1.1+git20141203.0020+15.04
 _ZN14NetworkManager16ActiveConnection11typeChangedENS_18ConnectionSettings14ConnectionTypeE@Base 5.1.1+git20141203.0020+15.04
 _ZN14NetworkManager16ActiveConnection11uuidChangedERK7QString@Base 5.1.1+git20141203.0020+15.04
 _ZN14NetworkManager16ActiveConnection12stateChangedENS0_5StateE@Base 5.1.1+git20141203.0020+15.04
 _ZN14NetworkManager16ActiveConnection13masterChangedERK7QString@Base 5.1.1+git20141203.0020+15.04
 _ZN14NetworkManager16ActiveConnection14devicesChangedEv@Base 5.1.1+git20141203.0020+15.04
 _ZN14NetworkManager16ActiveConnection15default4ChangedEb@Base 5.1.1+git20141203.0020+15.04
 _ZN14NetworkManager16ActiveConnection15default6ChangedEb@Base 5.1.1+git20141203.0020+15.04
 _ZN14NetworkManager16ActiveConnection16staticMetaObjectE@Base 5.1.1+git20141203.0020+15.04
 _ZN14NetworkManager16ActiveConnection17connectionChangedERK14QSharedPointerINS_10ConnectionEE@Base 5.1.1+git20141203.0020+15.04
 _ZN14NetworkManager16ActiveConnection17ipV4ConfigChangedEv@Base 5.6.0
 _ZN14NetworkManager16ActiveConnection17ipV6ConfigChangedEv@Base 5.6.0
 _ZN14NetworkManager16ActiveConnection18dhcp4ConfigChangedEv@Base 5.6.0
 _ZN14NetworkManager16ActiveConnection18dhcp6ConfigChangedEv@Base 5.6.0
 _ZN14NetworkManager16ActiveConnection21specificObjectChangedERK7QString@Base 5.1.1+git20141203.0020+15.04
 _ZN14NetworkManager16ActiveConnection9idChangedERK7QString@Base 5.1.1+git20141203.0020+15.04
 _ZN14NetworkManager16ActiveConnectionC1ERK7QStringP7QObject@Base 5.1.1+git20141203.0020+15.04
 _ZN14NetworkManager16ActiveConnectionC1ERNS_23ActiveConnectionPrivateEP7QObject@Base 5.1.1+git20141203.0020+15.04
 _ZN14NetworkManager16ActiveConnectionC2ERK7QStringP7QObject@Base 5.1.1+git20141203.0020+15.04
 _ZN14NetworkManager16ActiveConnectionC2ERNS_23ActiveConnectionPrivateEP7QObject@Base 5.1.1+git20141203.0020+15.04
 _ZN14NetworkManager16ActiveConnectionD0Ev@Base 5.1.1+git20141203.0020+15.04
 _ZN14NetworkManager16ActiveConnectionD1Ev@Base 5.1.1+git20141203.0020+15.04
 _ZN14NetworkManager16ActiveConnectionD2Ev@Base 5.1.1+git20141203.0020+15.04
 _ZN14NetworkManager16BluetoothSetting14setProfileTypeENS0_11ProfileTypeE@Base 5.1.1+git20141203.0020+15.04
 _ZN14NetworkManager16BluetoothSetting19setBluetoothAddressERK10QByteArray@Base 5.1.1+git20141203.0020+15.04
 _ZN14NetworkManager16BluetoothSetting7fromMapERK4QMapI7QString8QVariantE@Base 5.1.1+git20141203.0020+15.04
 _ZN14NetworkManager16BluetoothSettingC1ERK14QSharedPointerIS0_E@Base 5.1.1+git20141203.0020+15.04
 _ZN14NetworkManager16BluetoothSettingC1Ev@Base 5.1.1+git20141203.0020+15.04
 _ZN14NetworkManager16BluetoothSettingC2ERK14QSharedPointerIS0_E@Base 5.1.1+git20141203.0020+15.04
 _ZN14NetworkManager16BluetoothSettingC2Ev@Base 5.1.1+git20141203.0020+15.04
 _ZN14NetworkManager16BluetoothSettingD0Ev@Base 5.1.1+git20141203.0020+15.04
 _ZN14NetworkManager16BluetoothSettingD1Ev@Base 5.1.1+git20141203.0020+15.04
 _ZN14NetworkManager16BluetoothSettingD2Ev@Base 5.1.1+git20141203.0020+15.04
 _ZN14NetworkManager16InfinibandDevice11qt_metacallEN11QMetaObject4CallEiPPv@Base 5.1.1+git20141203.0020+15.04
 _ZN14NetworkManager16InfinibandDevice11qt_metacastEPKc@Base 5.1.1+git20141203.0020+15.04
 _ZN14NetworkManager16InfinibandDevice14carrierChangedEb@Base 5.1.1+git20141203.0020+15.04
 _ZN14NetworkManager16InfinibandDevice16hwAddressChangedERK7QString@Base 5.1.1+git20141203.0020+15.04
 _ZN14NetworkManager16InfinibandDevice16staticMetaObjectE@Base 5.1.1+git20141203.0020+15.04
 _ZN14NetworkManager16InfinibandDeviceC1ERK7QStringP7QObject@Base 5.1.1+git20141203.0020+15.04
 _ZN14NetworkManager16InfinibandDeviceC2ERK7QStringP7QObject@Base 5.1.1+git20141203.0020+15.04
 _ZN14NetworkManager16InfinibandDeviceD0Ev@Base 5.1.1+git20141203.0020+15.04
 _ZN14NetworkManager16InfinibandDeviceD1Ev@Base 5.1.1+git20141203.0020+15.04
 _ZN14NetworkManager16InfinibandDeviceD2Ev@Base 5.1.1+git20141203.0020+15.04
 _ZN14NetworkManager16SettingsNotifier11qt_metacallEN11QMetaObject4CallEiPPv@Base 5.1.1+git20141203.0020+15.04
 _ZN14NetworkManager16SettingsNotifier11qt_metacastEPKc@Base 5.1.1+git20141203.0020+15.04
 _ZN14NetworkManager16SettingsNotifier15connectionAddedERK7QString@Base 5.1.1+git20141203.0020+15.04
 _ZN14NetworkManager16SettingsNotifier15hostnameChangedERK7QString@Base 5.1.1+git20141203.0020+15.04
 _ZN14NetworkManager16SettingsNotifier16canModifyChangedEb@Base 5.1.1+git20141203.0020+15.04
 _ZN14NetworkManager16SettingsNotifier16staticMetaObjectE@Base 5.1.1+git20141203.0020+15.04
 _ZN14NetworkManager16SettingsNotifier17connectionRemovedERK7QString@Base 5.1.1+git20141203.0020+15.04
 _ZN14NetworkManager16settingsNotifierEv@Base 5.1.1+git20141203.0020+15.04
 _ZN14NetworkManager17BridgePortSetting11setPathCostEj@Base 5.1.1+git20141203.0020+15.04
 _ZN14NetworkManager17BridgePortSetting11setPriorityEj@Base 5.1.1+git20141203.0020+15.04
 _ZN14NetworkManager17BridgePortSetting14setHairpinModeEb@Base 5.1.1+git20141203.0020+15.04
 _ZN14NetworkManager17BridgePortSetting7fromMapERK4QMapI7QString8QVariantE@Base 5.1.1+git20141203.0020+15.04
 _ZN14NetworkManager17BridgePortSettingC1ERK14QSharedPointerIS0_E@Base 5.1.1+git20141203.0020+15.04
 _ZN14NetworkManager17BridgePortSettingC1Ev@Base 5.1.1+git20141203.0020+15.04
 _ZN14NetworkManager17BridgePortSettingC2ERK14QSharedPointerIS0_E@Base 5.1.1+git20141203.0020+15.04
 _ZN14NetworkManager17BridgePortSettingC2Ev@Base 5.1.1+git20141203.0020+15.04
 _ZN14NetworkManager17BridgePortSettingD0Ev@Base 5.1.1+git20141203.0020+15.04
 _ZN14NetworkManager17BridgePortSettingD1Ev@Base 5.1.1+git20141203.0020+15.04
 _ZN14NetworkManager17BridgePortSettingD2Ev@Base 5.1.1+git20141203.0020+15.04
 _ZN14NetworkManager17DeviceStateReasonC1ENS_6Device5StateENS1_17StateChangeReasonE@Base 5.1.1+git20141203.0020+15.04
 _ZN14NetworkManager17DeviceStateReasonC1ERKS0_@Base 5.1.1+git20141203.0020+15.04
 _ZN14NetworkManager17DeviceStateReasonC2ENS_6Device5StateENS1_17StateChangeReasonE@Base 5.1.1+git20141203.0020+15.04
 _ZN14NetworkManager17DeviceStateReasonC2ERKS0_@Base 5.1.1+git20141203.0020+15.04
 _ZN14NetworkManager17DeviceStateReasonD1Ev@Base 5.1.1+git20141203.0020+15.04
 _ZN14NetworkManager17DeviceStateReasonD2Ev@Base 5.1.1+git20141203.0020+15.04
 _ZN14NetworkManager17DeviceStateReasonaSERKS0_@Base 5.1.1+git20141203.0020+15.04
 _ZN14NetworkManager17InfinibandSetting13setMacAddressERK10QByteArray@Base 5.1.1+git20141203.0020+15.04
 _ZN14NetworkManager17InfinibandSetting16setTransportModeENS0_13TransportModeE@Base 5.1.1+git20141203.0020+15.04
 _ZN14NetworkManager17InfinibandSetting6setMtuEj@Base 5.1.1+git20141203.0020+15.04
 _ZN14NetworkManager17InfinibandSetting7fromMapERK4QMapI7QString8QVariantE@Base 5.1.1+git20141203.0020+15.04
 _ZN14NetworkManager17InfinibandSetting7setPKeyEi@Base 5.6.0
 _ZN14NetworkManager17InfinibandSetting9setParentERK7QString@Base 5.6.0
 _ZN14NetworkManager17InfinibandSettingC1ERK14QSharedPointerIS0_E@Base 5.1.1+git20141203.0020+15.04
 _ZN14NetworkManager17InfinibandSettingC1Ev@Base 5.1.1+git20141203.0020+15.04
 _ZN14NetworkManager17InfinibandSettingC2ERK14QSharedPointerIS0_E@Base 5.1.1+git20141203.0020+15.04
 _ZN14NetworkManager17InfinibandSettingC2Ev@Base 5.1.1+git20141203.0020+15.04
 _ZN14NetworkManager17InfinibandSettingD0Ev@Base 5.1.1+git20141203.0020+15.04
 _ZN14NetworkManager17InfinibandSettingD1Ev@Base 5.1.1+git20141203.0020+15.04
 _ZN14NetworkManager17InfinibandSettingD2Ev@Base 5.1.1+git20141203.0020+15.04
 _ZN14NetworkManager17activeConnectionsEv@Base 5.1.1+git20141203.0020+15.04
 _ZN14NetworkManager17checkConnectivityEv@Base 5.1.1+git20141203.0020+15.04
 _ZN14NetworkManager17findFrequencyBandEi@Base 5.1.1+git20141212
 _ZN14NetworkManager17isWirelessEnabledEv@Base 5.1.1+git20141203.0020+15.04
 _ZN14NetworkManager17macAddressIsValidERK10QByteArray@Base 5.1.1+git20141212
 _ZN14NetworkManager17macAddressIsValidERK7QString@Base 5.1.1+git20141212
 _ZN14NetworkManager17networkInterfacesEv@Base 5.1.1+git20141203.0020+15.04
 _ZN14NetworkManager17primaryConnectionEv@Base 5.1.1+git20141203.0020+15.04
 _ZN14NetworkManager17reloadConnectionsEv@Base 5.6.0
 _ZN14NetworkManager18ConnectionSettings11setReadOnlyEb@Base 5.1.1+git20141203.0020+15.04
 _ZN14NetworkManager18ConnectionSettings12setSlaveTypeERK7QString@Base 5.1.1+git20141203.0020+15.04
 _ZN14NetworkManager18ConnectionSettings12setTimestampERK9QDateTime@Base 5.1.1+git20141203.0020+15.04
 _ZN14NetworkManager18ConnectionSettings12typeAsStringENS0_14ConnectionTypeE@Base 5.1.1+git20141203.0020+15.04
 _ZN14NetworkManager18ConnectionSettings13createNewUuidEv@Base 5.1.1+git20141203.0020+15.04
 _ZN14NetworkManager18ConnectionSettings14setAutoconnectEb@Base 5.1.1+git20141203.0020+15.04
 _ZN14NetworkManager18ConnectionSettings14setPermissionsERK5QHashI7QStringS2_E@Base 5.1.1+git20141203.0020+15.04
 _ZN14NetworkManager18ConnectionSettings14setSecondariesERK11QStringList@Base 5.1.1+git20141203.0020+15.04
 _ZN14NetworkManager18ConnectionSettings14typeFromStringERK7QString@Base 5.1.1+git20141203.0020+15.04
 _ZN14NetworkManager18ConnectionSettings16addToPermissionsERK7QStringS3_@Base 5.1.1+git20141203.0020+15.04
 _ZN14NetworkManager18ConnectionSettings16setInterfaceNameERK7QString@Base 5.6.0
 _ZN14NetworkManager18ConnectionSettings17setConnectionTypeENS0_14ConnectionTypeE23NMBluetoothCapabilities@Base 5.1.1+git20141203.0020+15.04
 _ZN14NetworkManager18ConnectionSettings21setGatewayPingTimeoutEj@Base 5.6.0
 _ZN14NetworkManager18ConnectionSettings22setAutoconnectPriorityEi@Base 5.10.0
 _ZN14NetworkManager18ConnectionSettings5setIdERK7QString@Base 5.1.1+git20141203.0020+15.04
 _ZN14NetworkManager18ConnectionSettings7fromMapERK4QMapI7QStringS1_IS2_8QVariantEE@Base 5.1.1+git20141203.0020+15.04
 _ZN14NetworkManager18ConnectionSettings7setUuidERK7QString@Base 5.1.1+git20141203.0020+15.04
 _ZN14NetworkManager18ConnectionSettings7setZoneERK7QString@Base 5.1.1+git20141203.0020+15.04
 _ZN14NetworkManager18ConnectionSettings9setMasterERK7QString@Base 5.1.1+git20141203.0020+15.04
 _ZN14NetworkManager18ConnectionSettingsC1ENS0_14ConnectionTypeE23NMBluetoothCapabilities@Base 5.1.1+git20141203.0020+15.04
 _ZN14NetworkManager18ConnectionSettingsC1ERK14QSharedPointerIS0_E@Base 5.1.1+git20141203.0020+15.04
 _ZN14NetworkManager18ConnectionSettingsC1ERK4QMapI7QStringS1_IS2_8QVariantEE@Base 5.1.1+git20141203.0020+15.04
 _ZN14NetworkManager18ConnectionSettingsC1Ev@Base 5.1.1+git20141203.0020+15.04
 _ZN14NetworkManager18ConnectionSettingsC2ENS0_14ConnectionTypeE23NMBluetoothCapabilities@Base 5.1.1+git20141203.0020+15.04
 _ZN14NetworkManager18ConnectionSettingsC2ERK14QSharedPointerIS0_E@Base 5.1.1+git20141203.0020+15.04
 _ZN14NetworkManager18ConnectionSettingsC2ERK4QMapI7QStringS1_IS2_8QVariantEE@Base 5.1.1+git20141203.0020+15.04
 _ZN14NetworkManager18ConnectionSettingsC2Ev@Base 5.1.1+git20141203.0020+15.04
 _ZN14NetworkManager18ConnectionSettingsD0Ev@Base 5.1.1+git20141203.0020+15.04
 _ZN14NetworkManager18ConnectionSettingsD1Ev@Base 5.1.1+git20141203.0020+15.04
 _ZN14NetworkManager18ConnectionSettingsD2Ev@Base 5.1.1+git20141203.0020+15.04
 _ZN14NetworkManager18activateConnectionERK7QStringS2_S2_@Base 5.1.1+git20141203.0020+15.04
 _ZN14NetworkManager18findDeviceByIpFaceERK7QString@Base 5.1.1+git20141203.0020+15.04
 _ZN14NetworkManager18macAddressAsStringERK10QByteArray@Base 5.1.1+git20141212
 _ZN14NetworkManager18setWirelessEnabledEb@Base 5.1.1+git20141203.0020+15.04
 _ZN14NetworkManager19isNetworkingEnabledEv@Base 5.1.1+git20141203.0020+15.04
 _ZN14NetworkManager20Security8021xSetting10setPacFileERK7QString@Base 5.1.1+git20141203.0020+15.04
 _ZN14NetworkManager20Security8021xSetting11setIdentityERK7QString@Base 5.1.1+git20141203.0020+15.04
 _ZN14NetworkManager20Security8021xSetting11setPasswordERK7QString@Base 5.1.1+git20141203.0020+15.04
 _ZN14NetworkManager20Security8021xSetting11setPinFlagsE6QFlagsINS_7Setting14SecretFlagTypeEE@Base 5.1.1+git20141203.0020+15.04
 _ZN14NetworkManager20Security8021xSetting13setEapMethodsERK5QListINS0_9EapMethodEE@Base 5.1.1+git20141203.0020+15.04
 _ZN14NetworkManager20Security8021xSetting13setPrivateKeyERK10QByteArray@Base 5.1.1+git20141203.0020+15.04
 _ZN14NetworkManager20Security8021xSetting14secretsFromMapERK4QMapI7QString8QVariantE@Base 5.1.1+git20141203.0020+15.04
 _ZN14NetworkManager20Security8021xSetting14setPasswordRawERK10QByteArray@Base 5.1.1+git20141203.0020+15.04
 _ZN14NetworkManager20Security8021xSetting15setPhase2CaPathERK7QString@Base 5.1.1+git20141203.0020+15.04
 _ZN14NetworkManager20Security8021xSetting15setSubjectMatchERK7QString@Base 5.1.1+git20141203.0020+15.04
 _ZN14NetworkManager20Security8021xSetting16setCaCertificateERK10QByteArray@Base 5.1.1+git20141203.0020+15.04
 _ZN14NetworkManager20Security8021xSetting16setPasswordFlagsE6QFlagsINS_7Setting14SecretFlagTypeEE@Base 5.1.1+git20141203.0020+15.04
 _ZN14NetworkManager20Security8021xSetting18setPhase1PeapLabelENS0_9PeapLabelE@Base 5.1.1+git20141203.0020+15.04
 _ZN14NetworkManager20Security8021xSetting19setPasswordRawFlagsE6QFlagsINS_7Setting14SecretFlagTypeEE@Base 5.1.1+git20141203.0020+15.04
 _ZN14NetworkManager20Security8021xSetting19setPhase2AuthMethodENS0_10AuthMethodE@Base 5.1.1+git20141203.0020+15.04
 _ZN14NetworkManager20Security8021xSetting19setPhase2PrivateKeyERK10QByteArray@Base 5.1.1+git20141203.0020+15.04
 _ZN14NetworkManager20Security8021xSetting20setAltSubjectMatchesERK11QStringList@Base 5.1.1+git20141203.0020+15.04
 _ZN14NetworkManager20Security8021xSetting20setAnonymousIdentityERK7QString@Base 5.1.1+git20141203.0020+15.04
 _ZN14NetworkManager20Security8021xSetting20setClientCertificateERK10QByteArray@Base 5.1.1+git20141203.0020+15.04
 _ZN14NetworkManager20Security8021xSetting20setPhase1PeapVersionENS0_11PeapVersionE@Base 5.1.1+git20141203.0020+15.04
 _ZN14NetworkManager20Security8021xSetting21setPhase2SubjectMatchERK7QString@Base 5.1.1+git20141203.0020+15.04
 _ZN14NetworkManager20Security8021xSetting21setPrivateKeyPasswordERK7QString@Base 5.1.1+git20141203.0020+15.04
 _ZN14NetworkManager20Security8021xSetting22setPhase2AuthEapMethodENS0_13AuthEapMethodE@Base 5.1.1+git20141203.0020+15.04
 _ZN14NetworkManager20Security8021xSetting22setPhase2CaCertificateERK10QByteArray@Base 5.1.1+git20141203.0020+15.04
 _ZN14NetworkManager20Security8021xSetting23setSystemCaCertificatesEb@Base 5.1.1+git20141203.0020+15.04
 _ZN14NetworkManager20Security8021xSetting25setPhase1FastProvisioningENS0_16FastProvisioningE@Base 5.1.1+git20141203.0020+15.04
 _ZN14NetworkManager20Security8021xSetting26setPhase2AltSubjectMatchesERK11QStringList@Base 5.1.1+git20141203.0020+15.04
 _ZN14NetworkManager20Security8021xSetting26setPhase2ClientCertificateERK10QByteArray@Base 5.1.1+git20141203.0020+15.04
 _ZN14NetworkManager20Security8021xSetting26setPrivateKeyPasswordFlagsE6QFlagsINS_7Setting14SecretFlagTypeEE@Base 5.1.1+git20141203.0020+15.04
 _ZN14NetworkManager20Security8021xSetting27setPhase2PrivateKeyPasswordERK7QString@Base 5.1.1+git20141203.0020+15.04
 _ZN14NetworkManager20Security8021xSetting32setPhase2PrivateKeyPasswordFlagsE6QFlagsINS_7Setting14SecretFlagTypeEE@Base 5.1.1+git20141203.0020+15.04
 _ZN14NetworkManager20Security8021xSetting6setPinERK7QString@Base 5.1.1+git20141203.0020+15.04
 _ZN14NetworkManager20Security8021xSetting7fromMapERK4QMapI7QString8QVariantE@Base 5.1.1+git20141203.0020+15.04
 _ZN14NetworkManager20Security8021xSetting9setCaPathERK7QString@Base 5.1.1+git20141203.0020+15.04
 _ZN14NetworkManager20Security8021xSettingC1ERK14QSharedPointerIS0_E@Base 5.1.1+git20141203.0020+15.04
 _ZN14NetworkManager20Security8021xSettingC1Ev@Base 5.1.1+git20141203.0020+15.04
 _ZN14NetworkManager20Security8021xSettingC2ERK14QSharedPointerIS0_E@Base 5.1.1+git20141203.0020+15.04
 _ZN14NetworkManager20Security8021xSettingC2Ev@Base 5.1.1+git20141203.0020+15.04
 _ZN14NetworkManager20Security8021xSettingD0Ev@Base 5.1.1+git20141203.0020+15.04
 _ZN14NetworkManager20Security8021xSettingD1Ev@Base 5.1.1+git20141203.0020+15.04
 _ZN14NetworkManager20Security8021xSettingD2Ev@Base 5.1.1+git20141203.0020+15.04
 _ZN14NetworkManager20activatingConnectionEv@Base 5.1.1+git20141203.0020+15.04
 _ZN14NetworkManager20addConnectionUnsavedERK4QMapI7QStringS0_IS1_8QVariantEE@Base 5.6.0
 _ZN14NetworkManager20deactivateConnectionERK7QString@Base 5.1.1+git20141203.0020+15.04
 _ZN14NetworkManager20findActiveConnectionERK7QString@Base 5.1.1+git20141203.0020+15.04
 _ZN14NetworkManager20findConnectionByUuidERK7QString@Base 5.1.1+git20141203.0020+15.04
 _ZN14NetworkManager20findNetworkInterfaceERK7QString@Base 5.1.1+git20141203.0020+15.04
 _ZN14NetworkManager20macAddressFromStringERK7QString@Base 5.1.1+git20141212
 _ZN14NetworkManager20setNetworkingEnabledEb@Base 5.1.1+git20141203.0020+15.04
 _ZN14NetworkManager21isWwanHardwareEnabledEv@Base 5.1.1+git20141203.0020+15.04
 _ZN14NetworkManager21primaryConnectionTypeEv@Base 5.10.0
 _ZN14NetworkManager22activeConnectionsPathsEv@Base 5.1.1+git20141203.0020+15.04
 _ZN14NetworkManager22isWimaxHardwareEnabledEv@Base 5.1.1+git20141203.0020+15.04
 _ZN14NetworkManager23WirelessSecuritySetting10setAuthAlgENS0_7AuthAlgE@Base 5.1.1+git20141203.0020+15.04
 _ZN14NetworkManager23WirelessSecuritySetting10setKeyMgmtENS0_7KeyMgmtE@Base 5.1.1+git20141203.0020+15.04
 _ZN14NetworkManager23WirelessSecuritySetting10setWepKey0E7QString@Base 5.1.1+git20141203.0020+15.04
 _ZN14NetworkManager23WirelessSecuritySetting10setWepKey1E7QString@Base 5.1.1+git20141203.0020+15.04
 _ZN14NetworkManager23WirelessSecuritySetting10setWepKey2E7QString@Base 5.1.1+git20141203.0020+15.04
 _ZN14NetworkManager23WirelessSecuritySetting10setWepKey3E7QString@Base 5.1.1+git20141203.0020+15.04
 _ZN14NetworkManager23WirelessSecuritySetting11setPairwiseERK5QListINS0_25WpaEncryptionCapabilitiesEE@Base 5.1.1+git20141203.0020+15.04
 _ZN14NetworkManager23WirelessSecuritySetting11setPskFlagsE6QFlagsINS_7Setting14SecretFlagTypeEE@Base 5.1.1+git20141203.0020+15.04
 _ZN14NetworkManager23WirelessSecuritySetting13setWepKeyTypeENS0_10WepKeyTypeE@Base 5.1.1+git20141203.0020+15.04
 _ZN14NetworkManager23WirelessSecuritySetting14secretsFromMapERK4QMapI7QString8QVariantE@Base 5.1.1+git20141203.0020+15.04
 _ZN14NetworkManager23WirelessSecuritySetting14setWepKeyFlagsE6QFlagsINS_7Setting14SecretFlagTypeEE@Base 5.1.1+git20141203.0020+15.04
 _ZN14NetworkManager23WirelessSecuritySetting15setLeapPasswordERK7QString@Base 5.1.1+git20141203.0020+15.04
 _ZN14NetworkManager23WirelessSecuritySetting15setLeapUsernameERK7QString@Base 5.1.1+git20141203.0020+15.04
 _ZN14NetworkManager23WirelessSecuritySetting16setWepTxKeyindexEj@Base 5.1.1+git20141203.0020+15.04
 _ZN14NetworkManager23WirelessSecuritySetting20setLeapPasswordFlagsE6QFlagsINS_7Setting14SecretFlagTypeEE@Base 5.1.1+git20141203.0020+15.04
 _ZN14NetworkManager23WirelessSecuritySetting6setPskERK7QString@Base 5.1.1+git20141203.0020+15.04
 _ZN14NetworkManager23WirelessSecuritySetting7fromMapERK4QMapI7QString8QVariantE@Base 5.1.1+git20141203.0020+15.04
 _ZN14NetworkManager23WirelessSecuritySetting8setGroupERK5QListINS0_25WpaEncryptionCapabilitiesEE@Base 5.1.1+git20141203.0020+15.04
 _ZN14NetworkManager23WirelessSecuritySetting8setProtoERK5QListINS0_18WpaProtocolVersionEE@Base 5.1.1+git20141203.0020+15.04
 _ZN14NetworkManager23WirelessSecuritySettingC1ERK14QSharedPointerIS0_E@Base 5.1.1+git20141203.0020+15.04
 _ZN14NetworkManager23WirelessSecuritySettingC1Ev@Base 5.1.1+git20141203.0020+15.04
 _ZN14NetworkManager23WirelessSecuritySettingC2ERK14QSharedPointerIS0_E@Base 5.1.1+git20141203.0020+15.04
 _ZN14NetworkManager23WirelessSecuritySettingC2Ev@Base 5.1.1+git20141203.0020+15.04
 _ZN14NetworkManager23WirelessSecuritySettingD0Ev@Base 5.1.1+git20141203.0020+15.04
 _ZN14NetworkManager23WirelessSecuritySettingD1Ev@Base 5.1.1+git20141203.0020+15.04
 _ZN14NetworkManager23WirelessSecuritySettingD2Ev@Base 5.1.1+git20141203.0020+15.04
 _ZN14NetworkManager23deviceSupportsApCiphersE6QFlagsINS_14WirelessDevice10CapabilityEES0_INS_11AccessPoint7WpaFlagEENS_20WirelessSecurityTypeE@Base 5.1.1+git20141212
 _ZN14NetworkManager23supportedInterfaceTypesEv@Base 5.1.1+git20141203.0020+15.04
 _ZN14NetworkManager24addAndActivateConnectionERK4QMapI7QStringS0_IS1_8QVariantEERKS1_S8_@Base 5.1.1+git20141203.0020+15.04
 _ZN14NetworkManager24findBestWirelessSecurityE6QFlagsINS_14WirelessDevice10CapabilityEEbbS0_INS_11AccessPoint10CapabilityEES0_INS4_7WpaFlagEES8_@Base 5.1.1+git20141212
 _ZN14NetworkManager24ipv6AddressAsHostAddressERK10QByteArray@Base 5.1.1+git20141212
 _ZN14NetworkManager25isWirelessHardwareEnabledEv@Base 5.1.1+git20141203.0020+15.04
 _ZN14NetworkManager26ipv6AddressFromHostAddressERK12QHostAddress@Base 5.1.1+git20141212
 _ZN14NetworkManager33securityTypeFromConnectionSettingERK14QSharedPointerINS_18ConnectionSettingsEE@Base 5.1.1+git20141212
 _ZN14NetworkManager5sleepEb@Base 5.1.1+git20141203.0020+15.04
 _ZN14NetworkManager6Device10mtuChangedEv@Base 5.6.0
 _ZN14NetworkManager6Device10udiChangedEv@Base 5.1.1+git20141203.0020+15.04
 _ZN14NetworkManager6Device11qt_metacallEN11QMetaObject4CallEiPPv@Base 5.1.1+git20141203.0020+15.04
 _ZN14NetworkManager6Device11qt_metacastEPKc@Base 5.1.1+git20141203.0020+15.04
 _ZN14NetworkManager6Device12stateChangedENS0_5StateES1_NS0_17StateChangeReasonE@Base 5.1.1+git20141203.0020+15.04
 _ZN14NetworkManager6Device13driverChangedEv@Base 5.1.1+git20141203.0020+15.04
 _ZN14NetworkManager6Device14managedChangedEv@Base 5.1.1+git20141203.0020+15.04
 _ZN14NetworkManager6Device14meteredChangedENS0_13MeteredStatusE@Base 5.18.0-0ubuntu1.4~
 _ZN14NetworkManager6Device14setAutoconnectEb@Base 5.1.1+git20141203.0020+15.04
 _ZN14NetworkManager6Device15deleteInterfaceEv@Base 5.10.0
 _ZN14NetworkManager6Device16staticMetaObjectE@Base 5.1.1+git20141203.0020+15.04
 _ZN14NetworkManager6Device17ipV4ConfigChangedEv@Base 5.1.1+git20141203.0020+15.04
 _ZN14NetworkManager6Device17ipV6ConfigChangedEv@Base 5.1.1+git20141203.0020+15.04
 _ZN14NetworkManager6Device18autoconnectChangedEv@Base 5.1.1+git20141203.0020+15.04
 _ZN14NetworkManager6Device18dhcp4ConfigChangedEv@Base 5.1.1+git20141203.0020+15.04
 _ZN14NetworkManager6Device18dhcp6ConfigChangedEv@Base 5.1.1+git20141203.0020+15.04
 _ZN14NetworkManager6Device18ipInterfaceChangedEv@Base 5.1.1+git20141203.0020+15.04
 _ZN14NetworkManager6Device18ipV4AddressChangedEv@Base 5.1.1+git20141203.0020+15.04
 _ZN14NetworkManager6Device18stateReasonChangedEv@Base 5.1.1+git20141203.0020+15.04
 _ZN14NetworkManager6Device19capabilitiesChangedEv@Base 5.1.1+git20141203.0020+15.04
 _ZN14NetworkManager6Device19disconnectInterfaceEv@Base 5.1.1+git20141203.0020+15.04
 _ZN14NetworkManager6Device20availableConnectionsEv@Base 5.1.1+git20141203.0020+15.04
 _ZN14NetworkManager6Device20driverVersionChangedEv@Base 5.1.1+git20141203.0020+15.04
 _ZN14NetworkManager6Device20interfaceNameChangedEv@Base 5.1.1+git20141203.0020+15.04
 _ZN14NetworkManager6Device21physicalPortIdChangedEv@Base 5.6.0
 _ZN14NetworkManager6Device22connectionStateChangedEv@Base 5.1.1+git20141203.0020+15.04
 _ZN14NetworkManager6Device22firmwareMissingChangedEv@Base 5.1.1+git20141203.0020+15.04
 _ZN14NetworkManager6Device22firmwareVersionChangedEv@Base 5.1.1+git20141203.0020+15.04
 _ZN14NetworkManager6Device22nmPluginMissingChangedEb@Base 5.18.0-0ubuntu1.4~
 _ZN14NetworkManager6Device23activeConnectionChangedEv@Base 5.1.1+git20141203.0020+15.04
 _ZN14NetworkManager6Device26availableConnectionChangedEv@Base 5.1.1+git20141203.0020+15.04
 _ZN14NetworkManager6Device27availableConnectionAppearedERK7QString@Base 5.1.1+git20141203.0020+15.04
 _ZN14NetworkManager6Device30availableConnectionDisappearedERK7QString@Base 5.1.1+git20141203.0020+15.04
 _ZN14NetworkManager6DeviceC1ERK7QStringP7QObject@Base 5.1.1+git20141203.0020+15.04
 _ZN14NetworkManager6DeviceC1ERNS_13DevicePrivateEP7QObject@Base 5.1.1+git20141203.0020+15.04
 _ZN14NetworkManager6DeviceC2ERK7QStringP7QObject@Base 5.1.1+git20141203.0020+15.04
 _ZN14NetworkManager6DeviceC2ERNS_13DevicePrivateEP7QObject@Base 5.1.1+git20141203.0020+15.04
 _ZN14NetworkManager6DeviceD0Ev@Base 5.1.1+git20141203.0020+15.04
 _ZN14NetworkManager6DeviceD1Ev@Base 5.1.1+git20141203.0020+15.04
 _ZN14NetworkManager6DeviceD2Ev@Base 5.1.1+git20141203.0020+15.04
 _ZN14NetworkManager6statusEv@Base 5.1.1+git20141203.0020+15.04
 _ZN14NetworkManager7IpRoute9setMetricEj@Base 5.1.1+git20141203.0020+15.04
 _ZN14NetworkManager7IpRouteC1ERKS0_@Base 5.1.1+git20141203.0020+15.04
 _ZN14NetworkManager7IpRouteC1Ev@Base 5.1.1+git20141203.0020+15.04
 _ZN14NetworkManager7IpRouteC2ERKS0_@Base 5.1.1+git20141203.0020+15.04
 _ZN14NetworkManager7IpRouteC2Ev@Base 5.1.1+git20141203.0020+15.04
 _ZN14NetworkManager7IpRouteD1Ev@Base 5.1.1+git20141203.0020+15.04
 _ZN14NetworkManager7IpRouteD2Ev@Base 5.1.1+git20141203.0020+15.04
 _ZN14NetworkManager7IpRouteaSERKS0_@Base 5.1.1+git20141203.0020+15.04
 _ZN14NetworkManager7Setting12typeAsStringENS0_11SettingTypeE@Base 5.1.1+git20141203.0020+15.04
 _ZN14NetworkManager7Setting14secretsFromMapERK4QMapI7QString8QVariantE@Base 5.1.1+git20141203.0020+15.04
 _ZN14NetworkManager7Setting14setInitializedEb@Base 5.1.1+git20141203.0020+15.04
 _ZN14NetworkManager7Setting14typeFromStringERK7QString@Base 5.1.1+git20141203.0020+15.04
 _ZN14NetworkManager7Setting20secretsFromStringMapERK4QMapI7QStringS2_E@Base 5.1.1+git20141203.0020+15.04
 _ZN14NetworkManager7Setting7fromMapERK4QMapI7QString8QVariantE@Base 5.1.1+git20141203.0020+15.04
 _ZN14NetworkManager7Setting7setTypeENS0_11SettingTypeE@Base 5.1.1+git20141203.0020+15.04
 _ZN14NetworkManager7SettingC1ENS0_11SettingTypeE@Base 5.1.1+git20141203.0020+15.04
 _ZN14NetworkManager7SettingC1ERK14QSharedPointerIS0_E@Base 5.1.1+git20141203.0020+15.04
 _ZN14NetworkManager7SettingC2ENS0_11SettingTypeE@Base 5.1.1+git20141203.0020+15.04
 _ZN14NetworkManager7SettingC2ERK14QSharedPointerIS0_E@Base 5.1.1+git20141203.0020+15.04
 _ZN14NetworkManager7SettingD0Ev@Base 5.1.1+git20141203.0020+15.04
 _ZN14NetworkManager7SettingD1Ev@Base 5.1.1+git20141203.0020+15.04
 _ZN14NetworkManager7SettingD2Ev@Base 5.1.1+git20141203.0020+15.04
 _ZN14NetworkManager7meteredEv@Base 5.18.0-0ubuntu1.4~
 _ZN14NetworkManager7versionEv@Base 5.1.1+git20141203.0020+15.04
 _ZN14NetworkManager8IpConfig11setIPv4PathERK7QString@Base 5.1.1+git20141203.0020+15.04
 _ZN14NetworkManager8IpConfig11setIPv6PathERK7QString@Base 5.1.1+git20141203.0020+15.04
 _ZN14NetworkManager8IpConfigC1ERK5QListINS_9IpAddressEERKS1_I12QHostAddressERK11QStringListRKS1_INS_7IpRouteEE@Base 5.1.1+git20141203.0020+15.04
 _ZN14NetworkManager8IpConfigC1ERKS0_@Base 5.1.1+git20141203.0020+15.04
 _ZN14NetworkManager8IpConfigC1Ev@Base 5.1.1+git20141203.0020+15.04
 _ZN14NetworkManager8IpConfigC2ERK5QListINS_9IpAddressEERKS1_I12QHostAddressERK11QStringListRKS1_INS_7IpRouteEE@Base 5.1.1+git20141203.0020+15.04
 _ZN14NetworkManager8IpConfigC2ERKS0_@Base 5.1.1+git20141203.0020+15.04
 _ZN14NetworkManager8IpConfigC2Ev@Base 5.1.1+git20141203.0020+15.04
 _ZN14NetworkManager8IpConfigD1Ev@Base 5.1.1+git20141203.0020+15.04
 _ZN14NetworkManager8IpConfigD2Ev@Base 5.1.1+git20141203.0020+15.04
 _ZN14NetworkManager8IpConfigaSERKS0_@Base 5.1.1+git20141203.0020+15.04
 _ZN14NetworkManager8Notifier11deviceAddedERK7QString@Base 5.1.1+git20141203.0020+15.04
 _ZN14NetworkManager8Notifier11qt_metacallEN11QMetaObject4CallEiPPv@Base 5.1.1+git20141203.0020+15.04
 _ZN14NetworkManager8Notifier11qt_metacastEPKc@Base 5.1.1+git20141203.0020+15.04
 _ZN14NetworkManager8Notifier13deviceRemovedERK7QString@Base 5.1.1+git20141203.0020+15.04
 _ZN14NetworkManager8Notifier13statusChangedENS_6StatusE@Base 5.1.1+git20141203.0020+15.04
 _ZN14NetworkManager8Notifier14meteredChangedENS_6Device13MeteredStatusE@Base 5.18.0-0ubuntu1.4~
 _ZN14NetworkManager8Notifier15serviceAppearedEv@Base 5.1.1+git20141203.0020+15.04
 _ZN14NetworkManager8Notifier16staticMetaObjectE@Base 5.1.1+git20141203.0020+15.04
 _ZN14NetworkManager8Notifier18serviceDisappearedEv@Base 5.1.1+git20141203.0020+15.04
 _ZN14NetworkManager8Notifier18wwanEnabledChangedEb@Base 5.1.1+git20141203.0020+15.04
 _ZN14NetworkManager8Notifier19connectivityChangedENS_12ConnectivityE@Base 5.1.1+git20141203.0020+15.04
 _ZN14NetworkManager8Notifier19isStartingUpChangedEv@Base 5.6.0
 _ZN14NetworkManager8Notifier19wimaxEnabledChangedEb@Base 5.1.1+git20141203.0020+15.04
 _ZN14NetworkManager8Notifier21activeConnectionAddedERK7QString@Base 5.1.1+git20141203.0020+15.04
 _ZN14NetworkManager8Notifier22wirelessEnabledChangedEb@Base 5.1.1+git20141203.0020+15.04
 _ZN14NetworkManager8Notifier23activeConnectionRemovedERK7QString@Base 5.1.1+git20141203.0020+15.04
 _ZN14NetworkManager8Notifier24activeConnectionsChangedEv@Base 5.1.1+git20141203.0020+15.04
 _ZN14NetworkManager8Notifier24networkingEnabledChangedEb@Base 5.1.1+git20141203.0020+15.04
 _ZN14NetworkManager8Notifier24primaryConnectionChangedERK7QString@Base 5.1.1+git20141203.0020+15.04
 _ZN14NetworkManager8Notifier26wwanHardwareEnabledChangedEb@Base 5.1.1+git20141203.0020+15.04
 _ZN14NetworkManager8Notifier27activatingConnectionChangedERK7QString@Base 5.1.1+git20141203.0020+15.04
 _ZN14NetworkManager8Notifier27wimaxHardwareEnabledChangedEb@Base 5.1.1+git20141203.0020+15.04
 _ZN14NetworkManager8Notifier28primaryConnectionTypeChangedENS_18ConnectionSettings14ConnectionTypeE@Base 5.10.0
 _ZN14NetworkManager8Notifier30wirelessHardwareEnabledChangedEb@Base 5.1.1+git20141203.0020+15.04
 _ZN14NetworkManager8WimaxNsp11nameChangedERK7QString@Base 5.1.1+git20141203.0020+15.04
 _ZN14NetworkManager8WimaxNsp11qt_metacallEN11QMetaObject4CallEiPPv@Base 5.1.1+git20141203.0020+15.04
 _ZN14NetworkManager8WimaxNsp11qt_metacastEPKc@Base 5.1.1+git20141203.0020+15.04
 _ZN14NetworkManager8WimaxNsp16staticMetaObjectE@Base 5.1.1+git20141203.0020+15.04
 _ZN14NetworkManager8WimaxNsp18networkTypeChangedENS0_11NetworkTypeE@Base 5.1.1+git20141203.0020+15.04
 _ZN14NetworkManager8WimaxNsp20signalQualityChangedEj@Base 5.1.1+git20141203.0020+15.04
 _ZN14NetworkManager8WimaxNspC1ERK7QStringP7QObject@Base 5.1.1+git20141203.0020+15.04
 _ZN14NetworkManager8WimaxNspC2ERK7QStringP7QObject@Base 5.1.1+git20141203.0020+15.04
 _ZN14NetworkManager8WimaxNspD0Ev@Base 5.1.1+git20141203.0020+15.04
 _ZN14NetworkManager8WimaxNspD1Ev@Base 5.1.1+git20141203.0020+15.04
 _ZN14NetworkManager8WimaxNspD2Ev@Base 5.1.1+git20141203.0020+15.04
 _ZN14NetworkManager8hostnameEv@Base 5.1.1+git20141203.0020+15.04
 _ZN14NetworkManager8notifierEv@Base 5.1.1+git20141203.0020+15.04
 _ZN14NetworkManager9GreDevice10tosChangedEh@Base 5.6.0
 _ZN14NetworkManager9GreDevice10ttlChangedEh@Base 5.6.0
 _ZN14NetworkManager9GreDevice11qt_metacallEN11QMetaObject4CallEiPPv@Base 5.6.0
 _ZN14NetworkManager9GreDevice11qt_metacastEPKc@Base 5.6.0
 _ZN14NetworkManager9GreDevice13parentChangedERK7QString@Base 5.6.0
 _ZN14NetworkManager9GreDevice15inputKeyChangedEj@Base 5.6.0
 _ZN14NetworkManager9GreDevice15localEndChangedERK7QString@Base 5.6.0
 _ZN14NetworkManager9GreDevice16outputKeyChangedEj@Base 5.6.0
 _ZN14NetworkManager9GreDevice16remoteEndChangedERK7QString@Base 5.6.0
 _ZN14NetworkManager9GreDevice16staticMetaObjectE@Base 5.6.0
 _ZN14NetworkManager9GreDevice17inputFlagsChangedEt@Base 5.6.0
 _ZN14NetworkManager9GreDevice18outputFlagsChangedEt@Base 5.6.0
 _ZN14NetworkManager9GreDevice23pathMtuDiscoveryChangedEb@Base 5.6.0
 _ZN14NetworkManager9GreDeviceC1ERK7QStringP7QObject@Base 5.6.0
 _ZN14NetworkManager9GreDeviceC2ERK7QStringP7QObject@Base 5.6.0
 _ZN14NetworkManager9GreDeviceD0Ev@Base 5.6.0
 _ZN14NetworkManager9GreDeviceD1Ev@Base 5.6.0
 _ZN14NetworkManager9GreDeviceD2Ev@Base 5.6.0
 _ZN14NetworkManager9IpAddress10setGatewayERK12QHostAddress@Base 5.1.1+git20141203.0020+15.04
 _ZN14NetworkManager9IpAddressC1ERKS0_@Base 5.1.1+git20141203.0020+15.04
 _ZN14NetworkManager9IpAddressC1Ev@Base 5.1.1+git20141203.0020+15.04
 _ZN14NetworkManager9IpAddressC2ERKS0_@Base 5.1.1+git20141203.0020+15.04
 _ZN14NetworkManager9IpAddressC2Ev@Base 5.1.1+git20141203.0020+15.04
 _ZN14NetworkManager9IpAddressD1Ev@Base 5.1.1+git20141203.0020+15.04
 _ZN14NetworkManager9IpAddressD2Ev@Base 5.1.1+git20141203.0020+15.04
 _ZN14NetworkManager9IpAddressaSERKS0_@Base 5.1.1+git20141203.0020+15.04
 _ZN14NetworkManager9TunDevice11modeChangedERK7QString@Base 5.6.0
 _ZN14NetworkManager9TunDevice11noPiChangedEb@Base 5.6.0
 _ZN14NetworkManager9TunDevice11qt_metacallEN11QMetaObject4CallEiPPv@Base 5.6.0
 _ZN14NetworkManager9TunDevice11qt_metacastEPKc@Base 5.6.0
 _ZN14NetworkManager9TunDevice12groupChangedEx@Base 5.6.0
 _ZN14NetworkManager9TunDevice12ownerChangedEx@Base 5.6.0
 _ZN14NetworkManager9TunDevice14vnetHdrChangedEb@Base 5.6.0
 _ZN14NetworkManager9TunDevice16staticMetaObjectE@Base 5.6.0
 _ZN14NetworkManager9TunDevice17multiQueueChangedEb@Base 5.6.0
 _ZN14NetworkManager9TunDeviceC1ERK7QStringP7QObject@Base 5.6.0
 _ZN14NetworkManager9TunDeviceC2ERK7QStringP7QObject@Base 5.6.0
 _ZN14NetworkManager9TunDeviceD0Ev@Base 5.6.0
 _ZN14NetworkManager9TunDeviceD1Ev@Base 5.6.0
 _ZN14NetworkManager9TunDeviceD2Ev@Base 5.6.0
 _ZN14NetworkManager9VpnPlugin10disconnectEv@Base 5.1.1+git20141203.0020+15.04
 _ZN14NetworkManager9VpnPlugin10setFailureERK7QString@Base 5.1.1+git20141203.0020+15.04
 _ZN14NetworkManager9VpnPlugin11needSecretsERK4QMapI7QStringS1_IS2_8QVariantEE@Base 5.1.1+git20141203.0020+15.04
 _ZN14NetworkManager9VpnPlugin11qt_metacallEN11QMetaObject4CallEiPPv@Base 5.1.1+git20141203.0020+15.04
 _ZN14NetworkManager9VpnPlugin11qt_metacastEPKc@Base 5.1.1+git20141203.0020+15.04
 _ZN14NetworkManager9VpnPlugin12setIp4ConfigERK4QMapI7QString8QVariantE@Base 5.1.1+git20141203.0020+15.04
 _ZN14NetworkManager9VpnPlugin12setIp6ConfigERK4QMapI7QString8QVariantE@Base 5.1.1+git20141203.0020+15.04
 _ZN14NetworkManager9VpnPlugin12stateChangedENS_13VpnConnection5StateE@Base 5.1.1+git20141203.0020+15.04
 _ZN14NetworkManager9VpnPlugin13configChangedERK4QMapI7QString8QVariantE@Base 5.1.1+git20141203.0020+15.04
 _ZN14NetworkManager9VpnPlugin14failureChangedEj@Base 5.1.1+git20141203.0020+15.04
 _ZN14NetworkManager9VpnPlugin14onStateChangedEj@Base 5.1.1+git20141203.0020+15.04
 _ZN14NetworkManager9VpnPlugin16ip4ConfigChangedERK4QMapI7QString8QVariantE@Base 5.1.1+git20141203.0020+15.04
 _ZN14NetworkManager9VpnPlugin16ip6ConfigChangedERK4QMapI7QString8QVariantE@Base 5.1.1+git20141203.0020+15.04
 _ZN14NetworkManager9VpnPlugin16staticMetaObjectE@Base 5.1.1+git20141203.0020+15.04
 _ZN14NetworkManager9VpnPlugin18loginBannerChangedERK7QString@Base 5.1.1+git20141203.0020+15.04
 _ZN14NetworkManager9VpnPlugin7connectERK4QMapI7QStringS1_IS2_8QVariantEE@Base 5.1.1+git20141203.0020+15.04
 _ZN14NetworkManager9VpnPlugin9setConfigERK4QMapI7QString8QVariantE@Base 5.1.1+git20141203.0020+15.04
 _ZN14NetworkManager9VpnPluginC1ERK7QStringP7QObject@Base 5.1.1+git20141203.0020+15.04
 _ZN14NetworkManager9VpnPluginC2ERK7QStringP7QObject@Base 5.1.1+git20141203.0020+15.04
 _ZN14NetworkManager9VpnPluginD0Ev@Base 5.1.1+git20141203.0020+15.04
 _ZN14NetworkManager9VpnPluginD1Ev@Base 5.1.1+git20141203.0020+15.04
 _ZN14NetworkManager9VpnPluginD2Ev@Base 5.1.1+git20141203.0020+15.04
 _ZN14NetworkManager9canModifyEv@Base 5.1.1+git20141203.0020+15.04
 _ZN14NetworkManager9getAFreqsEv@Base 5.1.1+git20141212
 _ZN14NetworkManager9getBFreqsEv@Base 5.1.1+git20141212
 _ZN14NetworkManagerlsE6QDebugRKNS_10GsmSettingE@Base 5.1.1+git20141203.0020+15.04
 _ZN14NetworkManagerlsE6QDebugRKNS_10PppSettingE@Base 5.1.1+git20141203.0020+15.04
 _ZN14NetworkManagerlsE6QDebugRKNS_10VpnSettingE@Base 5.1.1+git20141203.0020+15.04
 _ZN14NetworkManagerlsE6QDebugRKNS_11AdslSettingE@Base 5.1.1+git20141203.0020+15.04
 _ZN14NetworkManagerlsE6QDebugRKNS_11BondSettingE@Base 5.1.1+git20141203.0020+15.04
 _ZN14NetworkManagerlsE6QDebugRKNS_11CdmaSettingE@Base 5.1.1+git20141203.0020+15.04
 _ZN14NetworkManagerlsE6QDebugRKNS_11Ipv4SettingE@Base 5.1.1+git20141203.0020+15.04
 _ZN14NetworkManagerlsE6QDebugRKNS_11Ipv6SettingE@Base 5.1.1+git20141203.0020+15.04
 _ZN14NetworkManagerlsE6QDebugRKNS_11TeamSettingE@Base 5.6.0
 _ZN14NetworkManagerlsE6QDebugRKNS_11VlanSettingE@Base 5.1.1+git20141203.0020+15.04
 _ZN14NetworkManagerlsE6QDebugRKNS_12PppoeSettingE@Base 5.1.1+git20141203.0020+15.04
 _ZN14NetworkManagerlsE6QDebugRKNS_12WimaxSettingE@Base 5.1.1+git20141203.0020+15.04
 _ZN14NetworkManagerlsE6QDebugRKNS_12WiredSettingE@Base 5.1.1+git20141203.0020+15.04
 _ZN14NetworkManagerlsE6QDebugRKNS_13BridgeSettingE@Base 5.1.1+git20141203.0020+15.04
 _ZN14NetworkManagerlsE6QDebugRKNS_13SerialSettingE@Base 5.1.1+git20141203.0020+15.04
 _ZN14NetworkManagerlsE6QDebugRKNS_14GenericSettingE@Base 5.6.0+git20150202.1426+15.04
 _ZN14NetworkManagerlsE6QDebugRKNS_15OlpcMeshSettingE@Base 5.1.1+git20141203.0020+15.04
 _ZN14NetworkManagerlsE6QDebugRKNS_15WirelessSettingE@Base 5.1.1+git20141203.0020+15.04
 _ZN14NetworkManagerlsE6QDebugRKNS_16BluetoothSettingE@Base 5.1.1+git20141203.0020+15.04
 _ZN14NetworkManagerlsE6QDebugRKNS_17BridgePortSettingE@Base 5.1.1+git20141203.0020+15.04
 _ZN14NetworkManagerlsE6QDebugRKNS_17InfinibandSettingE@Base 5.1.1+git20141203.0020+15.04
 _ZN14NetworkManagerlsE6QDebugRKNS_18ConnectionSettingsE@Base 5.1.1+git20141203.0020+15.04
 _ZN14NetworkManagerlsE6QDebugRKNS_20Security8021xSettingE@Base 5.1.1+git20141203.0020+15.04
 _ZN14NetworkManagerlsE6QDebugRKNS_23WirelessSecuritySettingE@Base 5.1.1+git20141203.0020+15.04
 _ZN14NetworkManagerlsE6QDebugRKNS_7SettingE@Base 5.1.1+git20141203.0020+15.04
 _ZNK14NetworkManager10AdslDevice10metaObjectEv@Base 5.1.1+git20141203.0020+15.04
 _ZNK14NetworkManager10AdslDevice4typeEv@Base 5.1.1+git20141203.0020+15.04
 _ZNK14NetworkManager10AdslDevice7carrierEv@Base 5.1.1+git20141203.0020+15.04
 _ZNK14NetworkManager10BondDevice10metaObjectEv@Base 5.1.1+git20141203.0020+15.04
 _ZNK14NetworkManager10BondDevice4typeEv@Base 5.1.1+git20141203.0020+15.04
 _ZNK14NetworkManager10BondDevice6slavesEv@Base 5.1.1+git20141203.0020+15.04
 _ZNK14NetworkManager10BondDevice7carrierEv@Base 5.1.1+git20141203.0020+15.04
 _ZNK14NetworkManager10BondDevice9hwAddressEv@Base 5.1.1+git20141203.0020+15.04
 _ZNK14NetworkManager10Connection10metaObjectEv@Base 5.1.1+git20141203.0020+15.04
 _ZNK14NetworkManager10Connection4nameEv@Base 5.1.1+git20141203.0020+15.04
 _ZNK14NetworkManager10Connection4pathEv@Base 5.1.1+git20141203.0020+15.04
 _ZNK14NetworkManager10Connection4uuidEv@Base 5.1.1+git20141203.0020+15.04
 _ZNK14NetworkManager10Connection7isValidEv@Base 5.1.1+git20141203.0020+15.04
 _ZNK14NetworkManager10Connection9isUnsavedEv@Base 5.6.0
 _ZNK14NetworkManager10GsmSetting11allowedBandEv@Base 5.1.1+git20141203.0020+15.04
 _ZNK14NetworkManager10GsmSetting11needSecretsEb@Base 5.1.1+git20141203.0020+15.04
 _ZNK14NetworkManager10GsmSetting11networkTypeEv@Base 5.1.1+git20141203.0020+15.04
 _ZNK14NetworkManager10GsmSetting12secretsToMapEv@Base 5.1.1+git20141203.0020+15.04
 _ZNK14NetworkManager10GsmSetting13passwordFlagsEv@Base 5.1.1+git20141203.0020+15.04
 _ZNK14NetworkManager10GsmSetting3apnEv@Base 5.1.1+git20141203.0020+15.04
 _ZNK14NetworkManager10GsmSetting3pinEv@Base 5.1.1+git20141203.0020+15.04
 _ZNK14NetworkManager10GsmSetting4nameEv@Base 5.1.1+git20141203.0020+15.04
 _ZNK14NetworkManager10GsmSetting5toMapEv@Base 5.1.1+git20141203.0020+15.04
 _ZNK14NetworkManager10GsmSetting6numberEv@Base 5.1.1+git20141203.0020+15.04
 _ZNK14NetworkManager10GsmSetting8homeOnlyEv@Base 5.1.1+git20141203.0020+15.04
 _ZNK14NetworkManager10GsmSetting8passwordEv@Base 5.1.1+git20141203.0020+15.04
 _ZNK14NetworkManager10GsmSetting8pinFlagsEv@Base 5.1.1+git20141203.0020+15.04
 _ZNK14NetworkManager10GsmSetting8usernameEv@Base 5.1.1+git20141203.0020+15.04
 _ZNK14NetworkManager10GsmSetting9networkIdEv@Base 5.1.1+git20141203.0020+15.04
 _ZNK14NetworkManager10PppSetting10refuseChapEv@Base 5.1.1+git20141203.0020+15.04
 _ZNK14NetworkManager10PppSetting11requireMppeEv@Base 5.1.1+git20141203.0020+15.04
 _ZNK14NetworkManager10PppSetting12mppeStatefulEv@Base 5.1.1+git20141203.0020+15.04
 _ZNK14NetworkManager10PppSetting12refuseMschapEv@Base 5.1.1+git20141203.0020+15.04
 _ZNK14NetworkManager10PppSetting14lcpEchoFailureEv@Base 5.1.1+git20141203.0020+15.04
 _ZNK14NetworkManager10PppSetting14refuseMschapv2Ev@Base 5.1.1+git20141203.0020+15.04
 _ZNK14NetworkManager10PppSetting14requireMppe128Ev@Base 5.1.1+git20141203.0020+15.04
 _ZNK14NetworkManager10PppSetting15lcpEchoIntervalEv@Base 5.1.1+git20141203.0020+15.04
 _ZNK14NetworkManager10PppSetting3mruEv@Base 5.1.1+git20141203.0020+15.04
 _ZNK14NetworkManager10PppSetting3mtuEv@Base 5.1.1+git20141203.0020+15.04
 _ZNK14NetworkManager10PppSetting4baudEv@Base 5.1.1+git20141203.0020+15.04
 _ZNK14NetworkManager10PppSetting4nameEv@Base 5.1.1+git20141203.0020+15.04
 _ZNK14NetworkManager10PppSetting5toMapEv@Base 5.1.1+git20141203.0020+15.04
 _ZNK14NetworkManager10PppSetting6noAuthEv@Base 5.1.1+git20141203.0020+15.04
 _ZNK14NetworkManager10PppSetting7cRtsCtsEv@Base 5.1.1+git20141203.0020+15.04
 _ZNK14NetworkManager10PppSetting8noVjCompEv@Base 5.1.1+git20141203.0020+15.04
 _ZNK14NetworkManager10PppSetting9noBsdCompEv@Base 5.1.1+git20141203.0020+15.04
 _ZNK14NetworkManager10PppSetting9noDeflateEv@Base 5.1.1+git20141203.0020+15.04
 _ZNK14NetworkManager10PppSetting9refuseEapEv@Base 5.1.1+git20141203.0020+15.04
 _ZNK14NetworkManager10PppSetting9refusePapEv@Base 5.1.1+git20141203.0020+15.04
 _ZNK14NetworkManager10TeamDevice10metaObjectEv@Base 5.6.0
 _ZNK14NetworkManager10TeamDevice4typeEv@Base 5.6.0
 _ZNK14NetworkManager10TeamDevice6slavesEv@Base 5.6.0
 _ZNK14NetworkManager10TeamDevice7carrierEv@Base 5.6.0
 _ZNK14NetworkManager10TeamDevice9hwAddressEv@Base 5.6.0
 _ZNK14NetworkManager10VethDevice10metaObjectEv@Base 5.6.0
 _ZNK14NetworkManager10VethDevice4peerEv@Base 5.6.0
 _ZNK14NetworkManager10VethDevice4typeEv@Base 5.6.0
 _ZNK14NetworkManager10VlanDevice10metaObjectEv@Base 5.1.1+git20141203.0020+15.04
 _ZNK14NetworkManager10VlanDevice4typeEv@Base 5.1.1+git20141203.0020+15.04
 _ZNK14NetworkManager10VlanDevice6parentEv@Base 5.10.0
 _ZNK14NetworkManager10VlanDevice6vlanIdEv@Base 5.1.1+git20141203.0020+15.04
 _ZNK14NetworkManager10VlanDevice7carrierEv@Base 5.1.1+git20141203.0020+15.04
 _ZNK14NetworkManager10VlanDevice9hwAddressEv@Base 5.1.1+git20141203.0020+15.04
 _ZNK14NetworkManager10VpnSetting11serviceTypeEv@Base 5.1.1+git20141203.0020+15.04
 _ZNK14NetworkManager10VpnSetting12secretsToMapEv@Base 5.1.1+git20141203.0020+15.04
 _ZNK14NetworkManager10VpnSetting18secretsToStringMapEv@Base 5.1.1+git20141203.0020+15.04
 _ZNK14NetworkManager10VpnSetting4dataEv@Base 5.1.1+git20141203.0020+15.04
 _ZNK14NetworkManager10VpnSetting4nameEv@Base 5.1.1+git20141203.0020+15.04
 _ZNK14NetworkManager10VpnSetting5toMapEv@Base 5.1.1+git20141203.0020+15.04
 _ZNK14NetworkManager10VpnSetting7secretsEv@Base 5.1.1+git20141203.0020+15.04
 _ZNK14NetworkManager10VpnSetting8usernameEv@Base 5.1.1+git20141203.0020+15.04
 _ZNK14NetworkManager11AccessPoint10maxBitRateEv@Base 5.1.1+git20141203.0020+15.04
 _ZNK14NetworkManager11AccessPoint10metaObjectEv@Base 5.1.1+git20141203.0020+15.04
 _ZNK14NetworkManager11AccessPoint12capabilitiesEv@Base 5.1.1+git20141203.0020+15.04
 _ZNK14NetworkManager11AccessPoint14signalStrengthEv@Base 5.1.1+git20141203.0020+15.04
 _ZNK14NetworkManager11AccessPoint15hardwareAddressEv@Base 5.1.1+git20141203.0020+15.04
 _ZNK14NetworkManager11AccessPoint3uniEv@Base 5.1.1+git20141203.0020+15.04
 _ZNK14NetworkManager11AccessPoint4modeEv@Base 5.1.1+git20141203.0020+15.04
 _ZNK14NetworkManager11AccessPoint4ssidEv@Base 5.1.1+git20141203.0020+15.04
 _ZNK14NetworkManager11AccessPoint7rawSsidEv@Base 5.1.1+git20141203.0020+15.04
 _ZNK14NetworkManager11AccessPoint8lastSeenEv@Base 5.18.0-0ubuntu1.4~
 _ZNK14NetworkManager11AccessPoint8rsnFlagsEv@Base 5.1.1+git20141203.0020+15.04
 _ZNK14NetworkManager11AccessPoint8wpaFlagsEv@Base 5.1.1+git20141203.0020+15.04
 _ZNK14NetworkManager11AccessPoint9frequencyEv@Base 5.1.1+git20141203.0020+15.04
 _ZNK14NetworkManager11AdslSetting11needSecretsEb@Base 5.1.1+git20141203.0020+15.04
 _ZNK14NetworkManager11AdslSetting13encapsulationEv@Base 5.1.1+git20141203.0020+15.04
 _ZNK14NetworkManager11AdslSetting13passwordFlagsEv@Base 5.1.1+git20141203.0020+15.04
 _ZNK14NetworkManager11AdslSetting3vciEv@Base 5.1.1+git20141203.0020+15.04
 _ZNK14NetworkManager11AdslSetting3vpiEv@Base 5.1.1+git20141203.0020+15.04
 _ZNK14NetworkManager11AdslSetting4nameEv@Base 5.1.1+git20141203.0020+15.04
 _ZNK14NetworkManager11AdslSetting5toMapEv@Base 5.1.1+git20141203.0020+15.04
 _ZNK14NetworkManager11AdslSetting8passwordEv@Base 5.1.1+git20141203.0020+15.04
 _ZNK14NetworkManager11AdslSetting8protocolEv@Base 5.1.1+git20141203.0020+15.04
 _ZNK14NetworkManager11AdslSetting8usernameEv@Base 5.1.1+git20141203.0020+15.04
 _ZNK14NetworkManager11BondSetting13interfaceNameEv@Base 5.1.1+git20141203.0020+15.04
 _ZNK14NetworkManager11BondSetting4nameEv@Base 5.1.1+git20141203.0020+15.04
 _ZNK14NetworkManager11BondSetting5toMapEv@Base 5.1.1+git20141203.0020+15.04
 _ZNK14NetworkManager11BondSetting7optionsEv@Base 5.1.1+git20141203.0020+15.04
 _ZNK14NetworkManager11CdmaSetting11needSecretsEb@Base 5.1.1+git20141203.0020+15.04
 _ZNK14NetworkManager11CdmaSetting12secretsToMapEv@Base 5.1.1+git20141203.0020+15.04
 _ZNK14NetworkManager11CdmaSetting13passwordFlagsEv@Base 5.1.1+git20141203.0020+15.04
 _ZNK14NetworkManager11CdmaSetting4nameEv@Base 5.1.1+git20141203.0020+15.04
 _ZNK14NetworkManager11CdmaSetting5toMapEv@Base 5.1.1+git20141203.0020+15.04
 _ZNK14NetworkManager11CdmaSetting6numberEv@Base 5.1.1+git20141203.0020+15.04
 _ZNK14NetworkManager11CdmaSetting8passwordEv@Base 5.1.1+git20141203.0020+15.04
 _ZNK14NetworkManager11CdmaSetting8usernameEv@Base 5.1.1+git20141203.0020+15.04
 _ZNK14NetworkManager11Dhcp4Config10metaObjectEv@Base 5.1.1+git20141203.0020+15.04
 _ZNK14NetworkManager11Dhcp4Config11optionValueERK7QString@Base 5.1.1+git20141203.0020+15.04
 _ZNK14NetworkManager11Dhcp4Config4pathEv@Base 5.1.1+git20141203.0020+15.04
 _ZNK14NetworkManager11Dhcp4Config7optionsEv@Base 5.1.1+git20141203.0020+15.04
 _ZNK14NetworkManager11Dhcp6Config10metaObjectEv@Base 5.1.1+git20141203.0020+15.04
 _ZNK14NetworkManager11Dhcp6Config11optionValueERK7QString@Base 5.1.1+git20141203.0020+15.04
 _ZNK14NetworkManager11Dhcp6Config4pathEv@Base 5.1.1+git20141203.0020+15.04
 _ZNK14NetworkManager11Dhcp6Config7optionsEv@Base 5.1.1+git20141203.0020+15.04
 _ZNK14NetworkManager11Ipv4Setting12dhcpClientIdEv@Base 5.1.1+git20141203.0020+15.04
 _ZNK14NetworkManager11Ipv4Setting12dhcpHostnameEv@Base 5.1.1+git20141203.0020+15.04
 _ZNK14NetworkManager11Ipv4Setting12neverDefaultEv@Base 5.1.1+git20141203.0020+15.04
 _ZNK14NetworkManager11Ipv4Setting13ignoreAutoDnsEv@Base 5.1.1+git20141203.0020+15.04
 _ZNK14NetworkManager11Ipv4Setting16dhcpSendHostnameEv@Base 5.1.1+git20141203.0020+15.04
 _ZNK14NetworkManager11Ipv4Setting16ignoreAutoRoutesEv@Base 5.1.1+git20141203.0020+15.04
 _ZNK14NetworkManager11Ipv4Setting3dnsEv@Base 5.1.1+git20141203.0020+15.04
 _ZNK14NetworkManager11Ipv4Setting4nameEv@Base 5.1.1+git20141203.0020+15.04
 _ZNK14NetworkManager11Ipv4Setting5toMapEv@Base 5.1.1+git20141203.0020+15.04
 _ZNK14NetworkManager11Ipv4Setting6methodEv@Base 5.1.1+git20141203.0020+15.04
 _ZNK14NetworkManager11Ipv4Setting6routesEv@Base 5.1.1+git20141203.0020+15.04
 _ZNK14NetworkManager11Ipv4Setting7mayFailEv@Base 5.1.1+git20141203.0020+15.04
 _ZNK14NetworkManager11Ipv4Setting9addressesEv@Base 5.1.1+git20141203.0020+15.04
 _ZNK14NetworkManager11Ipv4Setting9dnsSearchEv@Base 5.1.1+git20141203.0020+15.04
 _ZNK14NetworkManager11Ipv6Setting12neverDefaultEv@Base 5.1.1+git20141203.0020+15.04
 _ZNK14NetworkManager11Ipv6Setting13ignoreAutoDnsEv@Base 5.1.1+git20141203.0020+15.04
 _ZNK14NetworkManager11Ipv6Setting16ignoreAutoRoutesEv@Base 5.1.1+git20141203.0020+15.04
 _ZNK14NetworkManager11Ipv6Setting3dnsEv@Base 5.1.1+git20141203.0020+15.04
 _ZNK14NetworkManager11Ipv6Setting4nameEv@Base 5.1.1+git20141203.0020+15.04
 _ZNK14NetworkManager11Ipv6Setting5toMapEv@Base 5.1.1+git20141203.0020+15.04
 _ZNK14NetworkManager11Ipv6Setting6methodEv@Base 5.1.1+git20141203.0020+15.04
 _ZNK14NetworkManager11Ipv6Setting6routesEv@Base 5.1.1+git20141203.0020+15.04
 _ZNK14NetworkManager11Ipv6Setting7mayFailEv@Base 5.1.1+git20141203.0020+15.04
 _ZNK14NetworkManager11Ipv6Setting7privacyEv@Base 5.1.1+git20141203.0020+15.04
 _ZNK14NetworkManager11Ipv6Setting9addressesEv@Base 5.1.1+git20141203.0020+15.04
 _ZNK14NetworkManager11Ipv6Setting9dnsSearchEv@Base 5.1.1+git20141203.0020+15.04
 _ZNK14NetworkManager11ModemDevice10metaObjectEv@Base 5.1.1+git20141203.0020+15.04
 _ZNK14NetworkManager11ModemDevice17modemCapabilitiesEv@Base 5.1.1+git20141203.0020+15.04
 _ZNK14NetworkManager11ModemDevice19currentCapabilitiesEv@Base 5.1.1+git20141203.0020+15.04
 _ZNK14NetworkManager11ModemDevice4typeEv@Base 5.1.1+git20141203.0020+15.04
 _ZNK14NetworkManager11SecretAgent10metaObjectEv@Base 5.1.1+git20141203.0020+15.04
 _ZNK14NetworkManager11SecretAgent9sendErrorENS0_5ErrorERK7QStringRK12QDBusMessage@Base 5.1.1+git20141203.0020+15.04
 _ZNK14NetworkManager11TeamSetting13interfaceNameEv@Base 5.6.0
 _ZNK14NetworkManager11TeamSetting4nameEv@Base 5.6.0
 _ZNK14NetworkManager11TeamSetting5toMapEv@Base 5.6.0
 _ZNK14NetworkManager11TeamSetting6configEv@Base 5.6.0
 _ZNK14NetworkManager11VlanSetting13interfaceNameEv@Base 5.1.1+git20141203.0020+15.04
 _ZNK14NetworkManager11VlanSetting17egressPriorityMapEv@Base 5.1.1+git20141203.0020+15.04
 _ZNK14NetworkManager11VlanSetting18ingressPriorityMapEv@Base 5.1.1+git20141203.0020+15.04
 _ZNK14NetworkManager11VlanSetting2idEv@Base 5.1.1+git20141203.0020+15.04
 _ZNK14NetworkManager11VlanSetting4nameEv@Base 5.1.1+git20141203.0020+15.04
 _ZNK14NetworkManager11VlanSetting5flagsEv@Base 5.1.1+git20141203.0020+15.04
 _ZNK14NetworkManager11VlanSetting5toMapEv@Base 5.1.1+git20141203.0020+15.04
 _ZNK14NetworkManager11VlanSetting6parentEv@Base 5.1.1+git20141203.0020+15.04
 _ZNK14NetworkManager11WimaxDevice10metaObjectEv@Base 5.1.1+git20141203.0020+15.04
 _ZNK14NetworkManager11WimaxDevice15centerFrequencyEv@Base 5.1.1+git20141203.0020+15.04
 _ZNK14NetworkManager11WimaxDevice15hardwareAddressEv@Base 5.1.1+git20141203.0020+15.04
 _ZNK14NetworkManager11WimaxDevice4bsidEv@Base 5.1.1+git20141203.0020+15.04
 _ZNK14NetworkManager11WimaxDevice4cinrEv@Base 5.1.1+git20141203.0020+15.04
 _ZNK14NetworkManager11WimaxDevice4nspsEv@Base 5.1.1+git20141203.0020+15.04
 _ZNK14NetworkManager11WimaxDevice4rssiEv@Base 5.1.1+git20141203.0020+15.04
 _ZNK14NetworkManager11WimaxDevice4typeEv@Base 5.1.1+git20141203.0020+15.04
 _ZNK14NetworkManager11WimaxDevice7findNspERK7QString@Base 5.1.1+git20141203.0020+15.04
 _ZNK14NetworkManager11WimaxDevice7txPowerEv@Base 5.1.1+git20141203.0020+15.04
 _ZNK14NetworkManager11WimaxDevice9activeNspEv@Base 5.1.1+git20141203.0020+15.04
 _ZNK14NetworkManager11WiredDevice10metaObjectEv@Base 5.1.1+git20141203.0020+15.04
 _ZNK14NetworkManager11WiredDevice15hardwareAddressEv@Base 5.1.1+git20141203.0020+15.04
 _ZNK14NetworkManager11WiredDevice24permanentHardwareAddressEv@Base 5.1.1+git20141203.0020+15.04
 _ZNK14NetworkManager11WiredDevice4typeEv@Base 5.1.1+git20141203.0020+15.04
 _ZNK14NetworkManager11WiredDevice7bitRateEv@Base 5.1.1+git20141203.0020+15.04
 _ZNK14NetworkManager11WiredDevice7carrierEv@Base 5.1.1+git20141203.0020+15.04
 _ZNK14NetworkManager12BridgeDevice10metaObjectEv@Base 5.1.1+git20141203.0020+15.04
 _ZNK14NetworkManager12BridgeDevice4typeEv@Base 5.1.1+git20141203.0020+15.04
 _ZNK14NetworkManager12BridgeDevice6slavesEv@Base 5.1.1+git20141203.0020+15.04
 _ZNK14NetworkManager12BridgeDevice7carrierEv@Base 5.1.1+git20141203.0020+15.04
 _ZNK14NetworkManager12BridgeDevice9hwAddressEv@Base 5.1.1+git20141203.0020+15.04
 _ZNK14NetworkManager12PppoeSetting11needSecretsEb@Base 5.1.1+git20141203.0020+15.04
 _ZNK14NetworkManager12PppoeSetting12secretsToMapEv@Base 5.1.1+git20141203.0020+15.04
 _ZNK14NetworkManager12PppoeSetting13passwordFlagsEv@Base 5.1.1+git20141203.0020+15.04
 _ZNK14NetworkManager12PppoeSetting4nameEv@Base 5.1.1+git20141203.0020+15.04
 _ZNK14NetworkManager12PppoeSetting5toMapEv@Base 5.1.1+git20141203.0020+15.04
 _ZNK14NetworkManager12PppoeSetting7serviceEv@Base 5.1.1+git20141203.0020+15.04
 _ZNK14NetworkManager12PppoeSetting8passwordEv@Base 5.1.1+git20141203.0020+15.04
 _ZNK14NetworkManager12PppoeSetting8usernameEv@Base 5.1.1+git20141203.0020+15.04
 _ZNK14NetworkManager12WimaxSetting10macAddressEv@Base 5.1.1+git20141203.0020+15.04
 _ZNK14NetworkManager12WimaxSetting11networkNameEv@Base 5.1.1+git20141203.0020+15.04
 _ZNK14NetworkManager12WimaxSetting4nameEv@Base 5.1.1+git20141203.0020+15.04
 _ZNK14NetworkManager12WimaxSetting5toMapEv@Base 5.1.1+git20141203.0020+15.04
 _ZNK14NetworkManager12WiredSetting10duplexTypeEv@Base 5.1.1+git20141203.0020+15.04
 _ZNK14NetworkManager12WiredSetting10macAddressEv@Base 5.1.1+git20141203.0020+15.04
 _ZNK14NetworkManager12WiredSetting11s390NetTypeEv@Base 5.1.1+git20141203.0020+15.04
 _ZNK14NetworkManager12WiredSetting11s390OptionsEv@Base 5.1.1+git20141203.0020+15.04
 _ZNK14NetworkManager12WiredSetting13autoNegotiateEv@Base 5.1.1+git20141203.0020+15.04
 _ZNK14NetworkManager12WiredSetting15s390SubchannelsEv@Base 5.1.1+git20141203.0020+15.04
 _ZNK14NetworkManager12WiredSetting16clonedMacAddressEv@Base 5.1.1+git20141203.0020+15.04
 _ZNK14NetworkManager12WiredSetting19macAddressBlacklistEv@Base 5.1.1+git20141203.0020+15.04
 _ZNK14NetworkManager12WiredSetting3mtuEv@Base 5.1.1+git20141203.0020+15.04
 _ZNK14NetworkManager12WiredSetting4nameEv@Base 5.1.1+git20141203.0020+15.04
 _ZNK14NetworkManager12WiredSetting4portEv@Base 5.1.1+git20141203.0020+15.04
 _ZNK14NetworkManager12WiredSetting5speedEv@Base 5.1.1+git20141203.0020+15.04
 _ZNK14NetworkManager12WiredSetting5toMapEv@Base 5.1.1+git20141203.0020+15.04
 _ZNK14NetworkManager13BridgeSetting12forwardDelayEv@Base 5.1.1+git20141203.0020+15.04
 _ZNK14NetworkManager13BridgeSetting13interfaceNameEv@Base 5.1.1+git20141203.0020+15.04
 _ZNK14NetworkManager13BridgeSetting3stpEv@Base 5.1.1+git20141203.0020+15.04
 _ZNK14NetworkManager13BridgeSetting4nameEv@Base 5.1.1+git20141203.0020+15.04
 _ZNK14NetworkManager13BridgeSetting5toMapEv@Base 5.1.1+git20141203.0020+15.04
 _ZNK14NetworkManager13BridgeSetting6maxAgeEv@Base 5.1.1+git20141203.0020+15.04
 _ZNK14NetworkManager13BridgeSetting8priorityEv@Base 5.1.1+git20141203.0020+15.04
 _ZNK14NetworkManager13BridgeSetting9agingTimeEv@Base 5.1.1+git20141203.0020+15.04
 _ZNK14NetworkManager13BridgeSetting9helloTimeEv@Base 5.1.1+git20141203.0020+15.04
 _ZNK14NetworkManager13GenericDevice10metaObjectEv@Base 5.6.0
 _ZNK14NetworkManager13GenericDevice15hardwareAddressEv@Base 5.6.0
 _ZNK14NetworkManager13GenericDevice15typeDescriptionEv@Base 5.6.0
 _ZNK14NetworkManager13GenericDevice4typeEv@Base 5.6.0
 _ZNK14NetworkManager13MacVlanDevice10metaObjectEv@Base 5.6.0
 _ZNK14NetworkManager13MacVlanDevice4modeEv@Base 5.6.0
 _ZNK14NetworkManager13MacVlanDevice4typeEv@Base 5.6.0
 _ZNK14NetworkManager13MacVlanDevice6parentEv@Base 5.6.0
 _ZNK14NetworkManager13MacVlanDevice9noPromiscEv@Base 5.6.0
 _ZNK14NetworkManager13SerialSetting4baudEv@Base 5.1.1+git20141203.0020+15.04
 _ZNK14NetworkManager13SerialSetting4bitsEv@Base 5.1.1+git20141203.0020+15.04
 _ZNK14NetworkManager13SerialSetting4nameEv@Base 5.1.1+git20141203.0020+15.04
 _ZNK14NetworkManager13SerialSetting5toMapEv@Base 5.1.1+git20141203.0020+15.04
 _ZNK14NetworkManager13SerialSetting6parityEv@Base 5.1.1+git20141203.0020+15.04
 _ZNK14NetworkManager13SerialSetting8stopbitsEv@Base 5.1.1+git20141203.0020+15.04
 _ZNK14NetworkManager13SerialSetting9sendDelayEv@Base 5.1.1+git20141203.0020+15.04
 _ZNK14NetworkManager13VpnConnection10metaObjectEv@Base 5.1.1+git20141203.0020+15.04
 _ZNK14NetworkManager13VpnConnection5stateEv@Base 5.1.1+git20141203.0020+15.04
 _ZNK14NetworkManager13VpnConnection6bannerEv@Base 5.1.1+git20141203.0020+15.04
 _ZNK14NetworkManager14GenericSetting4nameEv@Base 5.6.0+git20150202.1426+15.04
 _ZNK14NetworkManager14GenericSetting5toMapEv@Base 5.6.0+git20150202.1426+15.04
 _ZNK14NetworkManager14OlpcMeshDevice10metaObjectEv@Base 5.1.1+git20141203.0020+15.04
 _ZNK14NetworkManager14OlpcMeshDevice13activeChannelEv@Base 5.1.1+git20141203.0020+15.04
 _ZNK14NetworkManager14OlpcMeshDevice15companionDeviceEv@Base 5.1.1+git20141203.0020+15.04
 _ZNK14NetworkManager14OlpcMeshDevice15hardwareAddressEv@Base 5.1.1+git20141203.0020+15.04
 _ZNK14NetworkManager14OlpcMeshDevice4typeEv@Base 5.1.1+git20141203.0020+15.04
 _ZNK14NetworkManager14WirelessDevice10metaObjectEv@Base 5.1.1+git20141203.0020+15.04
 _ZNK14NetworkManager14WirelessDevice11findNetworkERK7QString@Base 5.1.1+git20141203.0020+15.04
 _ZNK14NetworkManager14WirelessDevice12accessPointsEv@Base 5.1.1+git20141203.0020+15.04
 _ZNK14NetworkManager14WirelessDevice15hardwareAddressEv@Base 5.1.1+git20141203.0020+15.04
 _ZNK14NetworkManager14WirelessDevice17activeAccessPointEv@Base 5.1.1+git20141203.0020+15.04
 _ZNK14NetworkManager14WirelessDevice20wirelessCapabilitiesEv@Base 5.1.1+git20141203.0020+15.04
 _ZNK14NetworkManager14WirelessDevice24permanentHardwareAddressEv@Base 5.1.1+git20141203.0020+15.04
 _ZNK14NetworkManager14WirelessDevice4modeEv@Base 5.1.1+git20141203.0020+15.04
 _ZNK14NetworkManager14WirelessDevice4typeEv@Base 5.1.1+git20141203.0020+15.04
 _ZNK14NetworkManager14WirelessDevice7bitRateEv@Base 5.1.1+git20141203.0020+15.04
 _ZNK14NetworkManager14WirelessDevice8networksEv@Base 5.1.1+git20141203.0020+15.04
 _ZNK14NetworkManager15BluetoothDevice10metaObjectEv@Base 5.1.1+git20141203.0020+15.04
 _ZNK14NetworkManager15BluetoothDevice15hardwareAddressEv@Base 5.1.1+git20141203.0020+15.04
 _ZNK14NetworkManager15BluetoothDevice21bluetoothCapabilitiesEv@Base 5.1.1+git20141203.0020+15.04
 _ZNK14NetworkManager15BluetoothDevice4nameEv@Base 5.1.1+git20141203.0020+15.04
 _ZNK14NetworkManager15BluetoothDevice4typeEv@Base 5.1.1+git20141203.0020+15.04
 _ZNK14NetworkManager15OlpcMeshSetting18dhcpAnycastAddressEv@Base 5.1.1+git20141203.0020+15.04
 _ZNK14NetworkManager15OlpcMeshSetting4nameEv@Base 5.1.1+git20141203.0020+15.04
 _ZNK14NetworkManager15OlpcMeshSetting4ssidEv@Base 5.1.1+git20141203.0020+15.04
 _ZNK14NetworkManager15OlpcMeshSetting5toMapEv@Base 5.1.1+git20141203.0020+15.04
 _ZNK14NetworkManager15OlpcMeshSetting7channelEv@Base 5.1.1+git20141203.0020+15.04
 _ZNK14NetworkManager15WirelessNetwork10metaObjectEv@Base 5.1.1+git20141203.0020+15.04
 _ZNK14NetworkManager15WirelessNetwork12accessPointsEv@Base 5.1.1+git20141203.0020+15.04
 _ZNK14NetworkManager15WirelessNetwork14signalStrengthEv@Base 5.1.1+git20141203.0020+15.04
 _ZNK14NetworkManager15WirelessNetwork20referenceAccessPointEv@Base 5.1.1+git20141203.0020+15.04
 _ZNK14NetworkManager15WirelessNetwork4ssidEv@Base 5.1.1+git20141203.0020+15.04
 _ZNK14NetworkManager15WirelessNetwork6deviceEv@Base 5.1.1+git20141203.0020+15.04
 _ZNK14NetworkManager15WirelessSetting10macAddressEv@Base 5.1.1+git20141203.0020+15.04
 _ZNK14NetworkManager15WirelessSetting10seenBssidsEv@Base 5.1.1+git20141203.0020+15.04
 _ZNK14NetworkManager15WirelessSetting16clonedMacAddressEv@Base 5.1.1+git20141203.0020+15.04
 _ZNK14NetworkManager15WirelessSetting19macAddressBlacklistEv@Base 5.1.1+git20141203.0020+15.04
 _ZNK14NetworkManager15WirelessSetting3mtuEv@Base 5.1.1+git20141203.0020+15.04
 _ZNK14NetworkManager15WirelessSetting4bandEv@Base 5.1.1+git20141203.0020+15.04
 _ZNK14NetworkManager15WirelessSetting4modeEv@Base 5.1.1+git20141203.0020+15.04
 _ZNK14NetworkManager15WirelessSetting4nameEv@Base 5.1.1+git20141203.0020+15.04
 _ZNK14NetworkManager15WirelessSetting4rateEv@Base 5.1.1+git20141203.0020+15.04
 _ZNK14NetworkManager15WirelessSetting4ssidEv@Base 5.1.1+git20141203.0020+15.04
 _ZNK14NetworkManager15WirelessSetting5bssidEv@Base 5.1.1+git20141203.0020+15.04
 _ZNK14NetworkManager15WirelessSetting5toMapEv@Base 5.1.1+git20141203.0020+15.04
 _ZNK14NetworkManager15WirelessSetting6hiddenEv@Base 5.1.1+git20141203.0020+15.04
 _ZNK14NetworkManager15WirelessSetting7channelEv@Base 5.1.1+git20141203.0020+15.04
 _ZNK14NetworkManager15WirelessSetting7txPowerEv@Base 5.1.1+git20141203.0020+15.04
 _ZNK14NetworkManager15WirelessSetting8securityEv@Base 5.1.1+git20141203.0020+15.04
 _ZNK14NetworkManager16ActiveConnection10connectionEv@Base 5.1.1+git20141203.0020+15.04
 _ZNK14NetworkManager16ActiveConnection10ipV4ConfigEv@Base 5.6.0
 _ZNK14NetworkManager16ActiveConnection10ipV6ConfigEv@Base 5.6.0
 _ZNK14NetworkManager16ActiveConnection10metaObjectEv@Base 5.1.1+git20141203.0020+15.04
 _ZNK14NetworkManager16ActiveConnection11dhcp4ConfigEv@Base 5.6.0
 _ZNK14NetworkManager16ActiveConnection11dhcp6ConfigEv@Base 5.6.0
 _ZNK14NetworkManager16ActiveConnection14specificObjectEv@Base 5.1.1+git20141203.0020+15.04
 _ZNK14NetworkManager16ActiveConnection2idEv@Base 5.1.1+git20141203.0020+15.04
 _ZNK14NetworkManager16ActiveConnection3vpnEv@Base 5.1.1+git20141203.0020+15.04
 _ZNK14NetworkManager16ActiveConnection4pathEv@Base 5.1.1+git20141203.0020+15.04
 _ZNK14NetworkManager16ActiveConnection4typeEv@Base 5.1.1+git20141203.0020+15.04
 _ZNK14NetworkManager16ActiveConnection4uuidEv@Base 5.1.1+git20141203.0020+15.04
 _ZNK14NetworkManager16ActiveConnection5stateEv@Base 5.1.1+git20141203.0020+15.04
 _ZNK14NetworkManager16ActiveConnection6masterEv@Base 5.1.1+git20141203.0020+15.04
 _ZNK14NetworkManager16ActiveConnection7devicesEv@Base 5.1.1+git20141203.0020+15.04
 _ZNK14NetworkManager16ActiveConnection7isValidEv@Base 5.1.1+git20141203.0020+15.04
 _ZNK14NetworkManager16ActiveConnection8default4Ev@Base 5.1.1+git20141203.0020+15.04
 _ZNK14NetworkManager16ActiveConnection8default6Ev@Base 5.1.1+git20141203.0020+15.04
 _ZNK14NetworkManager16BluetoothSetting11profileTypeEv@Base 5.1.1+git20141203.0020+15.04
 _ZNK14NetworkManager16BluetoothSetting16bluetoothAddressEv@Base 5.1.1+git20141203.0020+15.04
 _ZNK14NetworkManager16BluetoothSetting4nameEv@Base 5.1.1+git20141203.0020+15.04
 _ZNK14NetworkManager16BluetoothSetting5toMapEv@Base 5.1.1+git20141203.0020+15.04
 _ZNK14NetworkManager16InfinibandDevice10metaObjectEv@Base 5.1.1+git20141203.0020+15.04
 _ZNK14NetworkManager16InfinibandDevice4typeEv@Base 5.1.1+git20141203.0020+15.04
 _ZNK14NetworkManager16InfinibandDevice7carrierEv@Base 5.1.1+git20141203.0020+15.04
 _ZNK14NetworkManager16InfinibandDevice9hwAddressEv@Base 5.1.1+git20141203.0020+15.04
 _ZNK14NetworkManager16SettingsNotifier10metaObjectEv@Base 5.1.1+git20141203.0020+15.04
 _ZNK14NetworkManager17BridgePortSetting11hairpinModeEv@Base 5.1.1+git20141203.0020+15.04
 _ZNK14NetworkManager17BridgePortSetting4nameEv@Base 5.1.1+git20141203.0020+15.04
 _ZNK14NetworkManager17BridgePortSetting5toMapEv@Base 5.1.1+git20141203.0020+15.04
 _ZNK14NetworkManager17BridgePortSetting8pathCostEv@Base 5.1.1+git20141203.0020+15.04
 _ZNK14NetworkManager17BridgePortSetting8priorityEv@Base 5.1.1+git20141203.0020+15.04
 _ZNK14NetworkManager17DeviceStateReason5stateEv@Base 5.1.1+git20141203.0020+15.04
 _ZNK14NetworkManager17DeviceStateReason6reasonEv@Base 5.1.1+git20141203.0020+15.04
 _ZNK14NetworkManager17InfinibandSetting10macAddressEv@Base 5.1.1+git20141203.0020+15.04
 _ZNK14NetworkManager17InfinibandSetting13transportModeEv@Base 5.1.1+git20141203.0020+15.04
 _ZNK14NetworkManager17InfinibandSetting3mtuEv@Base 5.1.1+git20141203.0020+15.04
 _ZNK14NetworkManager17InfinibandSetting4nameEv@Base 5.1.1+git20141203.0020+15.04
 _ZNK14NetworkManager17InfinibandSetting4pKeyEv@Base 5.6.0
 _ZNK14NetworkManager17InfinibandSetting5toMapEv@Base 5.1.1+git20141203.0020+15.04
 _ZNK14NetworkManager17InfinibandSetting6parentEv@Base 5.6.0
 _ZNK14NetworkManager18ConnectionSettings11autoconnectEv@Base 5.1.1+git20141203.0020+15.04
 _ZNK14NetworkManager18ConnectionSettings11permissionsEv@Base 5.1.1+git20141203.0020+15.04
 _ZNK14NetworkManager18ConnectionSettings11secondariesEv@Base 5.1.1+git20141203.0020+15.04
 _ZNK14NetworkManager18ConnectionSettings13interfaceNameEv@Base 5.6.0
 _ZNK14NetworkManager18ConnectionSettings14connectionTypeEv@Base 5.1.1+git20141203.0020+15.04
 _ZNK14NetworkManager18ConnectionSettings18gatewayPingTimeoutEv@Base 5.6.0
 _ZNK14NetworkManager18ConnectionSettings19autoconnectPriorityEv@Base 5.10.0
 _ZNK14NetworkManager18ConnectionSettings2idEv@Base 5.1.1+git20141203.0020+15.04
 _ZNK14NetworkManager18ConnectionSettings4nameEv@Base 5.1.1+git20141203.0020+15.04
 _ZNK14NetworkManager18ConnectionSettings4uuidEv@Base 5.1.1+git20141203.0020+15.04
 _ZNK14NetworkManager18ConnectionSettings4zoneEv@Base 5.1.1+git20141203.0020+15.04
 _ZNK14NetworkManager18ConnectionSettings5toMapEv@Base 5.1.1+git20141203.0020+15.04
 _ZNK14NetworkManager18ConnectionSettings6masterEv@Base 5.1.1+git20141203.0020+15.04
 _ZNK14NetworkManager18ConnectionSettings7isSlaveEv@Base 5.1.1+git20141203.0020+15.04
 _ZNK14NetworkManager18ConnectionSettings7settingENS_7Setting11SettingTypeE@Base 5.1.1+git20141203.0020+15.04
 _ZNK14NetworkManager18ConnectionSettings7settingERK7QString@Base 5.1.1+git20141203.0020+15.04
 _ZNK14NetworkManager18ConnectionSettings8readOnlyEv@Base 5.1.1+git20141203.0020+15.04
 _ZNK14NetworkManager18ConnectionSettings8settingsEv@Base 5.1.1+git20141203.0020+15.04
 _ZNK14NetworkManager18ConnectionSettings9slaveTypeEv@Base 5.1.1+git20141203.0020+15.04
 _ZNK14NetworkManager18ConnectionSettings9timestampEv@Base 5.1.1+git20141203.0020+15.04
 _ZNK14NetworkManager20Security8021xSetting10eapMethodsEv@Base 5.1.1+git20141203.0020+15.04
 _ZNK14NetworkManager20Security8021xSetting10privateKeyEv@Base 5.1.1+git20141203.0020+15.04
 _ZNK14NetworkManager20Security8021xSetting11needSecretsEb@Base 5.1.1+git20141203.0020+15.04
 _ZNK14NetworkManager20Security8021xSetting11passwordRawEv@Base 5.1.1+git20141203.0020+15.04
 _ZNK14NetworkManager20Security8021xSetting12phase2CaPathEv@Base 5.1.1+git20141203.0020+15.04
 _ZNK14NetworkManager20Security8021xSetting12secretsToMapEv@Base 5.1.1+git20141203.0020+15.04
 _ZNK14NetworkManager20Security8021xSetting12subjectMatchEv@Base 5.1.1+git20141203.0020+15.04
 _ZNK14NetworkManager20Security8021xSetting13caCertificateEv@Base 5.1.1+git20141203.0020+15.04
 _ZNK14NetworkManager20Security8021xSetting13passwordFlagsEv@Base 5.1.1+git20141203.0020+15.04
 _ZNK14NetworkManager20Security8021xSetting15phase1PeapLabelEv@Base 5.1.1+git20141203.0020+15.04
 _ZNK14NetworkManager20Security8021xSetting16passwordRawFlagsEv@Base 5.1.1+git20141203.0020+15.04
 _ZNK14NetworkManager20Security8021xSetting16phase2AuthMethodEv@Base 5.1.1+git20141203.0020+15.04
 _ZNK14NetworkManager20Security8021xSetting16phase2PrivateKeyEv@Base 5.1.1+git20141203.0020+15.04
 _ZNK14NetworkManager20Security8021xSetting17altSubjectMatchesEv@Base 5.1.1+git20141203.0020+15.04
 _ZNK14NetworkManager20Security8021xSetting17anonymousIdentityEv@Base 5.1.1+git20141203.0020+15.04
 _ZNK14NetworkManager20Security8021xSetting17clientCertificateEv@Base 5.1.1+git20141203.0020+15.04
 _ZNK14NetworkManager20Security8021xSetting17phase1PeapVersionEv@Base 5.1.1+git20141203.0020+15.04
 _ZNK14NetworkManager20Security8021xSetting18phase2SubjectMatchEv@Base 5.1.1+git20141203.0020+15.04
 _ZNK14NetworkManager20Security8021xSetting18privateKeyPasswordEv@Base 5.1.1+git20141203.0020+15.04
 _ZNK14NetworkManager20Security8021xSetting19phase2AuthEapMethodEv@Base 5.1.1+git20141203.0020+15.04
 _ZNK14NetworkManager20Security8021xSetting19phase2CaCertificateEv@Base 5.1.1+git20141203.0020+15.04
 _ZNK14NetworkManager20Security8021xSetting20systemCaCertificatesEv@Base 5.1.1+git20141203.0020+15.04
 _ZNK14NetworkManager20Security8021xSetting22phase1FastProvisioningEv@Base 5.1.1+git20141203.0020+15.04
 _ZNK14NetworkManager20Security8021xSetting23phase2AltSubjectMatchesEv@Base 5.1.1+git20141203.0020+15.04
 _ZNK14NetworkManager20Security8021xSetting23phase2ClientCertificateEv@Base 5.1.1+git20141203.0020+15.04
 _ZNK14NetworkManager20Security8021xSetting23privateKeyPasswordFlagsEv@Base 5.1.1+git20141203.0020+15.04
 _ZNK14NetworkManager20Security8021xSetting24phase2PrivateKeyPasswordEv@Base 5.1.1+git20141203.0020+15.04
 _ZNK14NetworkManager20Security8021xSetting29phase2PrivateKeyPasswordFlagsEv@Base 5.1.1+git20141203.0020+15.04
 _ZNK14NetworkManager20Security8021xSetting3pinEv@Base 5.1.1+git20141203.0020+15.04
 _ZNK14NetworkManager20Security8021xSetting4nameEv@Base 5.1.1+git20141203.0020+15.04
 _ZNK14NetworkManager20Security8021xSetting5toMapEv@Base 5.1.1+git20141203.0020+15.04
 _ZNK14NetworkManager20Security8021xSetting6caPathEv@Base 5.1.1+git20141203.0020+15.04
 _ZNK14NetworkManager20Security8021xSetting7pacFileEv@Base 5.1.1+git20141203.0020+15.04
 _ZNK14NetworkManager20Security8021xSetting8identityEv@Base 5.1.1+git20141203.0020+15.04
 _ZNK14NetworkManager20Security8021xSetting8passwordEv@Base 5.1.1+git20141203.0020+15.04
 _ZNK14NetworkManager20Security8021xSetting8pinFlagsEv@Base 5.1.1+git20141203.0020+15.04
 _ZNK14NetworkManager23WirelessSecuritySetting10wepKeyTypeEv@Base 5.1.1+git20141203.0020+15.04
 _ZNK14NetworkManager23WirelessSecuritySetting11needSecretsEb@Base 5.1.1+git20141203.0020+15.04
 _ZNK14NetworkManager23WirelessSecuritySetting11wepKeyFlagsEv@Base 5.1.1+git20141203.0020+15.04
 _ZNK14NetworkManager23WirelessSecuritySetting12leapPasswordEv@Base 5.1.1+git20141203.0020+15.04
 _ZNK14NetworkManager23WirelessSecuritySetting12leapUsernameEv@Base 5.1.1+git20141203.0020+15.04
 _ZNK14NetworkManager23WirelessSecuritySetting12secretsToMapEv@Base 5.1.1+git20141203.0020+15.04
 _ZNK14NetworkManager23WirelessSecuritySetting13wepTxKeyindexEv@Base 5.1.1+git20141203.0020+15.04
 _ZNK14NetworkManager23WirelessSecuritySetting17leapPasswordFlagsEv@Base 5.1.1+git20141203.0020+15.04
 _ZNK14NetworkManager23WirelessSecuritySetting3pskEv@Base 5.1.1+git20141203.0020+15.04
 _ZNK14NetworkManager23WirelessSecuritySetting4nameEv@Base 5.1.1+git20141203.0020+15.04
 _ZNK14NetworkManager23WirelessSecuritySetting5groupEv@Base 5.1.1+git20141203.0020+15.04
 _ZNK14NetworkManager23WirelessSecuritySetting5protoEv@Base 5.1.1+git20141203.0020+15.04
 _ZNK14NetworkManager23WirelessSecuritySetting5toMapEv@Base 5.1.1+git20141203.0020+15.04
 _ZNK14NetworkManager23WirelessSecuritySetting7authAlgEv@Base 5.1.1+git20141203.0020+15.04
 _ZNK14NetworkManager23WirelessSecuritySetting7keyMgmtEv@Base 5.1.1+git20141203.0020+15.04
 _ZNK14NetworkManager23WirelessSecuritySetting7wepKey0Ev@Base 5.1.1+git20141203.0020+15.04
 _ZNK14NetworkManager23WirelessSecuritySetting7wepKey1Ev@Base 5.1.1+git20141203.0020+15.04
 _ZNK14NetworkManager23WirelessSecuritySetting7wepKey2Ev@Base 5.1.1+git20141203.0020+15.04
 _ZNK14NetworkManager23WirelessSecuritySetting7wepKey3Ev@Base 5.1.1+git20141203.0020+15.04
 _ZNK14NetworkManager23WirelessSecuritySetting8pairwiseEv@Base 5.1.1+git20141203.0020+15.04
 _ZNK14NetworkManager23WirelessSecuritySetting8pskFlagsEv@Base 5.1.1+git20141203.0020+15.04
 _ZNK14NetworkManager6Device10ipV4ConfigEv@Base 5.1.1+git20141203.0020+15.04
 _ZNK14NetworkManager6Device10ipV6ConfigEv@Base 5.1.1+git20141203.0020+15.04
 _ZNK14NetworkManager6Device10metaObjectEv@Base 5.1.1+git20141203.0020+15.04
 _ZNK14NetworkManager6Device11autoconnectEv@Base 5.1.1+git20141203.0020+15.04
 _ZNK14NetworkManager6Device11designSpeedEv@Base 5.1.1+git20141203.0020+15.04
 _ZNK14NetworkManager6Device11dhcp4ConfigEv@Base 5.1.1+git20141203.0020+15.04
 _ZNK14NetworkManager6Device11dhcp6ConfigEv@Base 5.1.1+git20141203.0020+15.04
 _ZNK14NetworkManager6Device11ipV4AddressEv@Base 5.1.1+git20141203.0020+15.04
 _ZNK14NetworkManager6Device11stateReasonEv@Base 5.1.1+git20141203.0020+15.04
 _ZNK14NetworkManager6Device12capabilitiesEv@Base 5.1.1+git20141203.0020+15.04
 _ZNK14NetworkManager6Device13capabilitiesVEv@Base 5.1.1+git20141203.0020+15.04
 _ZNK14NetworkManager6Device13driverVersionEv@Base 5.1.1+git20141203.0020+15.04
 _ZNK14NetworkManager6Device13interfaceNameEv@Base 5.1.1+git20141203.0020+15.04
 _ZNK14NetworkManager6Device14physicalPortIdEv@Base 5.6.0
 _ZNK14NetworkManager6Device15firmwareMissingEv@Base 5.1.1+git20141203.0020+15.04
 _ZNK14NetworkManager6Device15firmwareVersionEv@Base 5.1.1+git20141203.0020+15.04
 _ZNK14NetworkManager6Device15ipInterfaceNameEv@Base 5.1.1+git20141203.0020+15.04
 _ZNK14NetworkManager6Device15nmPluginMissingEv@Base 5.18.0-0ubuntu1.4~
 _ZNK14NetworkManager6Device16activeConnectionEv@Base 5.1.1+git20141203.0020+15.04
 _ZNK14NetworkManager6Device3mtuEv@Base 5.6.0
 _ZNK14NetworkManager6Device3udiEv@Base 5.1.1+git20141203.0020+15.04
 _ZNK14NetworkManager6Device3uniEv@Base 5.1.1+git20141203.0020+15.04
 _ZNK14NetworkManager6Device4typeEv@Base 5.1.1+git20141203.0020+15.04
 _ZNK14NetworkManager6Device5stateEv@Base 5.1.1+git20141203.0020+15.04
 _ZNK14NetworkManager6Device6driverEv@Base 5.1.1+git20141203.0020+15.04
 _ZNK14NetworkManager6Device7isValidEv@Base 5.1.1+git20141203.0020+15.04
 _ZNK14NetworkManager6Device7managedEv@Base 5.1.1+git20141203.0020+15.04
 _ZNK14NetworkManager6Device7meteredEv@Base 5.18.0-0ubuntu1.4~
 _ZNK14NetworkManager6Device8isActiveEv@Base 5.1.1+git20141203.0020+15.04
 _ZNK14NetworkManager7IpRoute10setNextHopERK12QHostAddress@Base 5.1.1+git20141203.0020+15.04
 _ZNK14NetworkManager7IpRoute6metricEv@Base 5.1.1+git20141203.0020+15.04
 _ZNK14NetworkManager7IpRoute7isValidEv@Base 5.1.1+git20141203.0020+15.04
 _ZNK14NetworkManager7IpRoute7nextHopEv@Base 5.1.1+git20141203.0020+15.04
 _ZNK14NetworkManager7Setting11needSecretsEb@Base 5.1.1+git20141203.0020+15.04
 _ZNK14NetworkManager7Setting12secretsToMapEv@Base 5.1.1+git20141203.0020+15.04
 _ZNK14NetworkManager7Setting18secretsToStringMapEv@Base 5.1.1+git20141203.0020+15.04
 _ZNK14NetworkManager7Setting4nameEv@Base 5.1.1+git20141203.0020+15.04
 _ZNK14NetworkManager7Setting4typeEv@Base 5.1.1+git20141203.0020+15.04
 _ZNK14NetworkManager7Setting5toMapEv@Base 5.1.1+git20141203.0020+15.04
 _ZNK14NetworkManager7Setting6isNullEv@Base 5.1.1+git20141203.0020+15.04
 _ZNK14NetworkManager8IpConfig10dnsOptionsEv@Base 5.18.0-0ubuntu1.4~
 _ZNK14NetworkManager8IpConfig11nameserversEv@Base 5.1.1+git20141203.0020+15.04
 _ZNK14NetworkManager8IpConfig6routesEv@Base 5.1.1+git20141203.0020+15.04
 _ZNK14NetworkManager8IpConfig7domainsEv@Base 5.1.1+git20141203.0020+15.04
 _ZNK14NetworkManager8IpConfig7gatewayEv@Base 5.6.0
 _ZNK14NetworkManager8IpConfig7isValidEv@Base 5.1.1+git20141203.0020+15.04
 _ZNK14NetworkManager8IpConfig8searchesEv@Base 5.6.0
 _ZNK14NetworkManager8IpConfig9addressesEv@Base 5.1.1+git20141203.0020+15.04
 _ZNK14NetworkManager8Notifier10metaObjectEv@Base 5.1.1+git20141203.0020+15.04
 _ZNK14NetworkManager8WimaxNsp10metaObjectEv@Base 5.1.1+git20141203.0020+15.04
 _ZNK14NetworkManager8WimaxNsp11networkTypeEv@Base 5.1.1+git20141203.0020+15.04
 _ZNK14NetworkManager8WimaxNsp13signalQualityEv@Base 5.1.1+git20141203.0020+15.04
 _ZNK14NetworkManager8WimaxNsp3uniEv@Base 5.1.1+git20141203.0020+15.04
 _ZNK14NetworkManager8WimaxNsp4nameEv@Base 5.1.1+git20141203.0020+15.04
 _ZNK14NetworkManager9GreDevice10inputFlagsEv@Base 5.6.0
 _ZNK14NetworkManager9GreDevice10metaObjectEv@Base 5.6.0
 _ZNK14NetworkManager9GreDevice11outputFlagsEv@Base 5.6.0
 _ZNK14NetworkManager9GreDevice16pathMtuDiscoveryEv@Base 5.6.0
 _ZNK14NetworkManager9GreDevice3tosEv@Base 5.6.0
 _ZNK14NetworkManager9GreDevice3ttlEv@Base 5.6.0
 _ZNK14NetworkManager9GreDevice4typeEv@Base 5.6.0
 _ZNK14NetworkManager9GreDevice6parentEv@Base 5.6.0
 _ZNK14NetworkManager9GreDevice8inputKeyEv@Base 5.6.0
 _ZNK14NetworkManager9GreDevice8localEndEv@Base 5.6.0
 _ZNK14NetworkManager9GreDevice9outputKeyEv@Base 5.6.0
 _ZNK14NetworkManager9GreDevice9remoteEndEv@Base 5.6.0
 _ZNK14NetworkManager9IpAddress7gatewayEv@Base 5.1.1+git20141203.0020+15.04
 _ZNK14NetworkManager9IpAddress7isValidEv@Base 5.1.1+git20141203.0020+15.04
 _ZNK14NetworkManager9TunDevice10metaObjectEv@Base 5.6.0
 _ZNK14NetworkManager9TunDevice10multiQueueEv@Base 5.6.0
 _ZNK14NetworkManager9TunDevice4modeEv@Base 5.6.0
 _ZNK14NetworkManager9TunDevice4noPiEv@Base 5.6.0
 _ZNK14NetworkManager9TunDevice4typeEv@Base 5.6.0
 _ZNK14NetworkManager9TunDevice5groupEv@Base 5.6.0
 _ZNK14NetworkManager9TunDevice5ownerEv@Base 5.6.0
 _ZNK14NetworkManager9TunDevice7vnetHdrEv@Base 5.6.0
 _ZNK14NetworkManager9VpnPlugin10metaObjectEv@Base 5.1.1+git20141203.0020+15.04
 _ZTI12QDBusContext@Base 5.1.1+git20141203.0020+15.04
 _ZTIN14NetworkManager10AdslDeviceE@Base 5.1.1+git20141203.0020+15.04
 _ZTIN14NetworkManager10BondDeviceE@Base 5.1.1+git20141203.0020+15.04
 _ZTIN14NetworkManager10ConnectionE@Base 5.1.1+git20141203.0020+15.04
 _ZTIN14NetworkManager10GsmSettingE@Base 5.1.1+git20141203.0020+15.04
 _ZTIN14NetworkManager10PppSettingE@Base 5.1.1+git20141203.0020+15.04
 _ZTIN14NetworkManager10TeamDeviceE@Base 5.6.0
 _ZTIN14NetworkManager10VethDeviceE@Base 5.6.0
 _ZTIN14NetworkManager10VlanDeviceE@Base 5.1.1+git20141203.0020+15.04
 _ZTIN14NetworkManager10VpnSettingE@Base 5.1.1+git20141203.0020+15.04
 _ZTIN14NetworkManager11AccessPointE@Base 5.1.1+git20141203.0020+15.04
 _ZTIN14NetworkManager11AdslSettingE@Base 5.1.1+git20141203.0020+15.04
 _ZTIN14NetworkManager11BondSettingE@Base 5.1.1+git20141203.0020+15.04
 _ZTIN14NetworkManager11CdmaSettingE@Base 5.1.1+git20141203.0020+15.04
 _ZTIN14NetworkManager11Dhcp4ConfigE@Base 5.1.1+git20141203.0020+15.04
 _ZTIN14NetworkManager11Dhcp6ConfigE@Base 5.1.1+git20141203.0020+15.04
 _ZTIN14NetworkManager11Ipv4SettingE@Base 5.1.1+git20141203.0020+15.04
 _ZTIN14NetworkManager11Ipv6SettingE@Base 5.1.1+git20141203.0020+15.04
 _ZTIN14NetworkManager11ModemDeviceE@Base 5.1.1+git20141203.0020+15.04
 _ZTIN14NetworkManager11SecretAgentE@Base 5.1.1+git20141203.0020+15.04
 _ZTIN14NetworkManager11TeamSettingE@Base 5.6.0
 _ZTIN14NetworkManager11VlanSettingE@Base 5.1.1+git20141203.0020+15.04
 _ZTIN14NetworkManager11WimaxDeviceE@Base 5.1.1+git20141203.0020+15.04
 _ZTIN14NetworkManager11WiredDeviceE@Base 5.1.1+git20141203.0020+15.04
 _ZTIN14NetworkManager12BridgeDeviceE@Base 5.1.1+git20141203.0020+15.04
 _ZTIN14NetworkManager12PppoeSettingE@Base 5.1.1+git20141203.0020+15.04
 _ZTIN14NetworkManager12WimaxSettingE@Base 5.1.1+git20141203.0020+15.04
 _ZTIN14NetworkManager12WiredSettingE@Base 5.1.1+git20141203.0020+15.04
 _ZTIN14NetworkManager13BridgeSettingE@Base 5.1.1+git20141203.0020+15.04
 _ZTIN14NetworkManager13GenericDeviceE@Base 5.6.0
 _ZTIN14NetworkManager13MacVlanDeviceE@Base 5.6.0
 _ZTIN14NetworkManager13SerialSettingE@Base 5.1.1+git20141203.0020+15.04
 _ZTIN14NetworkManager13VpnConnectionE@Base 5.1.1+git20141203.0020+15.04
 _ZTIN14NetworkManager14GenericSettingE@Base 5.6.0+git20150202.1426+15.04
 _ZTIN14NetworkManager14OlpcMeshDeviceE@Base 5.1.1+git20141203.0020+15.04
 _ZTIN14NetworkManager14WirelessDeviceE@Base 5.1.1+git20141203.0020+15.04
 _ZTIN14NetworkManager15BluetoothDeviceE@Base 5.1.1+git20141203.0020+15.04
 _ZTIN14NetworkManager15OlpcMeshSettingE@Base 5.1.1+git20141203.0020+15.04
 _ZTIN14NetworkManager15WirelessNetworkE@Base 5.1.1+git20141203.0020+15.04
 _ZTIN14NetworkManager15WirelessSettingE@Base 5.1.1+git20141203.0020+15.04
 _ZTIN14NetworkManager16ActiveConnectionE@Base 5.1.1+git20141203.0020+15.04
 _ZTIN14NetworkManager16BluetoothSettingE@Base 5.1.1+git20141203.0020+15.04
 _ZTIN14NetworkManager16InfinibandDeviceE@Base 5.1.1+git20141203.0020+15.04
 _ZTIN14NetworkManager16SettingsNotifierE@Base 5.1.1+git20141203.0020+15.04
 _ZTIN14NetworkManager17BridgePortSettingE@Base 5.1.1+git20141203.0020+15.04
 _ZTIN14NetworkManager17InfinibandSettingE@Base 5.1.1+git20141203.0020+15.04
 _ZTIN14NetworkManager18ConnectionSettingsE@Base 5.1.1+git20141203.0020+15.04
 _ZTIN14NetworkManager20Security8021xSettingE@Base 5.1.1+git20141203.0020+15.04
 _ZTIN14NetworkManager23WirelessSecuritySettingE@Base 5.1.1+git20141203.0020+15.04
 _ZTIN14NetworkManager6DeviceE@Base 5.1.1+git20141203.0020+15.04
 _ZTIN14NetworkManager7SettingE@Base 5.1.1+git20141203.0020+15.04
 _ZTIN14NetworkManager8NotifierE@Base 5.1.1+git20141203.0020+15.04
 _ZTIN14NetworkManager8WimaxNspE@Base 5.1.1+git20141203.0020+15.04
 _ZTIN14NetworkManager9GreDeviceE@Base 5.6.0
 _ZTIN14NetworkManager9TunDeviceE@Base 5.6.0
 _ZTIN14NetworkManager9VpnPluginE@Base 5.1.1+git20141203.0020+15.04
 _ZTS12QDBusContext@Base 5.1.1+git20141203.0020+15.04
 _ZTSN14NetworkManager10AdslDeviceE@Base 5.1.1+git20141203.0020+15.04
 _ZTSN14NetworkManager10BondDeviceE@Base 5.1.1+git20141203.0020+15.04
 _ZTSN14NetworkManager10ConnectionE@Base 5.1.1+git20141203.0020+15.04
 _ZTSN14NetworkManager10GsmSettingE@Base 5.1.1+git20141203.0020+15.04
 _ZTSN14NetworkManager10PppSettingE@Base 5.1.1+git20141203.0020+15.04
 _ZTSN14NetworkManager10TeamDeviceE@Base 5.6.0
 _ZTSN14NetworkManager10VethDeviceE@Base 5.6.0
 _ZTSN14NetworkManager10VlanDeviceE@Base 5.1.1+git20141203.0020+15.04
 _ZTSN14NetworkManager10VpnSettingE@Base 5.1.1+git20141203.0020+15.04
 _ZTSN14NetworkManager11AccessPointE@Base 5.1.1+git20141203.0020+15.04
 _ZTSN14NetworkManager11AdslSettingE@Base 5.1.1+git20141203.0020+15.04
 _ZTSN14NetworkManager11BondSettingE@Base 5.1.1+git20141203.0020+15.04
 _ZTSN14NetworkManager11CdmaSettingE@Base 5.1.1+git20141203.0020+15.04
 _ZTSN14NetworkManager11Dhcp4ConfigE@Base 5.1.1+git20141203.0020+15.04
 _ZTSN14NetworkManager11Dhcp6ConfigE@Base 5.1.1+git20141203.0020+15.04
 _ZTSN14NetworkManager11Ipv4SettingE@Base 5.1.1+git20141203.0020+15.04
 _ZTSN14NetworkManager11Ipv6SettingE@Base 5.1.1+git20141203.0020+15.04
 _ZTSN14NetworkManager11ModemDeviceE@Base 5.1.1+git20141203.0020+15.04
 _ZTSN14NetworkManager11SecretAgentE@Base 5.1.1+git20141203.0020+15.04
 _ZTSN14NetworkManager11TeamSettingE@Base 5.6.0
 _ZTSN14NetworkManager11VlanSettingE@Base 5.1.1+git20141203.0020+15.04
 _ZTSN14NetworkManager11WimaxDeviceE@Base 5.1.1+git20141203.0020+15.04
 _ZTSN14NetworkManager11WiredDeviceE@Base 5.1.1+git20141203.0020+15.04
 _ZTSN14NetworkManager12BridgeDeviceE@Base 5.1.1+git20141203.0020+15.04
 _ZTSN14NetworkManager12PppoeSettingE@Base 5.1.1+git20141203.0020+15.04
 _ZTSN14NetworkManager12WimaxSettingE@Base 5.1.1+git20141203.0020+15.04
 _ZTSN14NetworkManager12WiredSettingE@Base 5.1.1+git20141203.0020+15.04
 _ZTSN14NetworkManager13BridgeSettingE@Base 5.1.1+git20141203.0020+15.04
 _ZTSN14NetworkManager13GenericDeviceE@Base 5.6.0
 _ZTSN14NetworkManager13MacVlanDeviceE@Base 5.6.0
 _ZTSN14NetworkManager13SerialSettingE@Base 5.1.1+git20141203.0020+15.04
 _ZTSN14NetworkManager13VpnConnectionE@Base 5.1.1+git20141203.0020+15.04
 _ZTSN14NetworkManager14GenericSettingE@Base 5.6.0+git20150202.1426+15.04
 _ZTSN14NetworkManager14OlpcMeshDeviceE@Base 5.1.1+git20141203.0020+15.04
 _ZTSN14NetworkManager14WirelessDeviceE@Base 5.1.1+git20141203.0020+15.04
 _ZTSN14NetworkManager15BluetoothDeviceE@Base 5.1.1+git20141203.0020+15.04
 _ZTSN14NetworkManager15OlpcMeshSettingE@Base 5.1.1+git20141203.0020+15.04
 _ZTSN14NetworkManager15WirelessNetworkE@Base 5.1.1+git20141203.0020+15.04
 _ZTSN14NetworkManager15WirelessSettingE@Base 5.1.1+git20141203.0020+15.04
 _ZTSN14NetworkManager16ActiveConnectionE@Base 5.1.1+git20141203.0020+15.04
 _ZTSN14NetworkManager16BluetoothSettingE@Base 5.1.1+git20141203.0020+15.04
 _ZTSN14NetworkManager16InfinibandDeviceE@Base 5.1.1+git20141203.0020+15.04
 _ZTSN14NetworkManager16SettingsNotifierE@Base 5.1.1+git20141203.0020+15.04
 _ZTSN14NetworkManager17BridgePortSettingE@Base 5.1.1+git20141203.0020+15.04
 _ZTSN14NetworkManager17InfinibandSettingE@Base 5.1.1+git20141203.0020+15.04
 _ZTSN14NetworkManager18ConnectionSettingsE@Base 5.1.1+git20141203.0020+15.04
 _ZTSN14NetworkManager20Security8021xSettingE@Base 5.1.1+git20141203.0020+15.04
 _ZTSN14NetworkManager23WirelessSecuritySettingE@Base 5.1.1+git20141203.0020+15.04
 _ZTSN14NetworkManager6DeviceE@Base 5.1.1+git20141203.0020+15.04
 _ZTSN14NetworkManager7SettingE@Base 5.1.1+git20141203.0020+15.04
 _ZTSN14NetworkManager8NotifierE@Base 5.1.1+git20141203.0020+15.04
 _ZTSN14NetworkManager8WimaxNspE@Base 5.1.1+git20141203.0020+15.04
 _ZTSN14NetworkManager9GreDeviceE@Base 5.6.0
 _ZTSN14NetworkManager9TunDeviceE@Base 5.6.0
 _ZTSN14NetworkManager9VpnPluginE@Base 5.1.1+git20141203.0020+15.04
 _ZTVN14NetworkManager10AdslDeviceE@Base 5.1.1+git20141203.0020+15.04
 _ZTVN14NetworkManager10BondDeviceE@Base 5.1.1+git20141203.0020+15.04
 _ZTVN14NetworkManager10ConnectionE@Base 5.1.1+git20141203.0020+15.04
 _ZTVN14NetworkManager10GsmSettingE@Base 5.1.1+git20141203.0020+15.04
 _ZTVN14NetworkManager10PppSettingE@Base 5.1.1+git20141203.0020+15.04
 _ZTVN14NetworkManager10TeamDeviceE@Base 5.6.0
 _ZTVN14NetworkManager10VethDeviceE@Base 5.6.0
 _ZTVN14NetworkManager10VlanDeviceE@Base 5.1.1+git20141203.0020+15.04
 _ZTVN14NetworkManager10VpnSettingE@Base 5.1.1+git20141203.0020+15.04
 _ZTVN14NetworkManager11AccessPointE@Base 5.1.1+git20141203.0020+15.04
 _ZTVN14NetworkManager11AdslSettingE@Base 5.1.1+git20141203.0020+15.04
 _ZTVN14NetworkManager11BondSettingE@Base 5.1.1+git20141203.0020+15.04
 _ZTVN14NetworkManager11CdmaSettingE@Base 5.1.1+git20141203.0020+15.04
 _ZTVN14NetworkManager11Dhcp4ConfigE@Base 5.1.1+git20141203.0020+15.04
 _ZTVN14NetworkManager11Dhcp6ConfigE@Base 5.1.1+git20141203.0020+15.04
 _ZTVN14NetworkManager11Ipv4SettingE@Base 5.1.1+git20141203.0020+15.04
 _ZTVN14NetworkManager11Ipv6SettingE@Base 5.1.1+git20141203.0020+15.04
 _ZTVN14NetworkManager11ModemDeviceE@Base 5.1.1+git20141203.0020+15.04
 _ZTVN14NetworkManager11SecretAgentE@Base 5.1.1+git20141203.0020+15.04
 _ZTVN14NetworkManager11TeamSettingE@Base 5.6.0
 _ZTVN14NetworkManager11VlanSettingE@Base 5.1.1+git20141203.0020+15.04
 _ZTVN14NetworkManager11WimaxDeviceE@Base 5.1.1+git20141203.0020+15.04
 _ZTVN14NetworkManager11WiredDeviceE@Base 5.1.1+git20141203.0020+15.04
 _ZTVN14NetworkManager12BridgeDeviceE@Base 5.1.1+git20141203.0020+15.04
 _ZTVN14NetworkManager12PppoeSettingE@Base 5.1.1+git20141203.0020+15.04
 _ZTVN14NetworkManager12WimaxSettingE@Base 5.1.1+git20141203.0020+15.04
 _ZTVN14NetworkManager12WiredSettingE@Base 5.1.1+git20141203.0020+15.04
 _ZTVN14NetworkManager13BridgeSettingE@Base 5.1.1+git20141203.0020+15.04
 _ZTVN14NetworkManager13GenericDeviceE@Base 5.6.0
 _ZTVN14NetworkManager13MacVlanDeviceE@Base 5.6.0
 _ZTVN14NetworkManager13SerialSettingE@Base 5.1.1+git20141203.0020+15.04
 _ZTVN14NetworkManager13VpnConnectionE@Base 5.1.1+git20141203.0020+15.04
 _ZTVN14NetworkManager14GenericSettingE@Base 5.6.0+git20150202.1426+15.04
 _ZTVN14NetworkManager14OlpcMeshDeviceE@Base 5.1.1+git20141203.0020+15.04
 _ZTVN14NetworkManager14WirelessDeviceE@Base 5.1.1+git20141203.0020+15.04
 _ZTVN14NetworkManager15BluetoothDeviceE@Base 5.1.1+git20141203.0020+15.04
 _ZTVN14NetworkManager15OlpcMeshSettingE@Base 5.1.1+git20141203.0020+15.04
 _ZTVN14NetworkManager15WirelessNetworkE@Base 5.1.1+git20141203.0020+15.04
 _ZTVN14NetworkManager15WirelessSettingE@Base 5.1.1+git20141203.0020+15.04
 _ZTVN14NetworkManager16ActiveConnectionE@Base 5.1.1+git20141203.0020+15.04
 _ZTVN14NetworkManager16BluetoothSettingE@Base 5.1.1+git20141203.0020+15.04
 _ZTVN14NetworkManager16InfinibandDeviceE@Base 5.1.1+git20141203.0020+15.04
 _ZTVN14NetworkManager16SettingsNotifierE@Base 5.1.1+git20141203.0020+15.04
 _ZTVN14NetworkManager17BridgePortSettingE@Base 5.1.1+git20141203.0020+15.04
 _ZTVN14NetworkManager17InfinibandSettingE@Base 5.1.1+git20141203.0020+15.04
 _ZTVN14NetworkManager18ConnectionSettingsE@Base 5.1.1+git20141203.0020+15.04
 _ZTVN14NetworkManager20Security8021xSettingE@Base 5.1.1+git20141203.0020+15.04
 _ZTVN14NetworkManager23WirelessSecuritySettingE@Base 5.1.1+git20141203.0020+15.04
 _ZTVN14NetworkManager6DeviceE@Base 5.1.1+git20141203.0020+15.04
 _ZTVN14NetworkManager7SettingE@Base 5.1.1+git20141203.0020+15.04
 _ZTVN14NetworkManager8NotifierE@Base 5.1.1+git20141203.0020+15.04
 _ZTVN14NetworkManager8WimaxNspE@Base 5.1.1+git20141203.0020+15.04
 _ZTVN14NetworkManager9GreDeviceE@Base 5.6.0
 _ZTVN14NetworkManager9TunDeviceE@Base 5.6.0
 _ZTVN14NetworkManager9VpnPluginE@Base 5.1.1+git20141203.0020+15.04
 _ZlsR13QDBusArgumentRK13IpV6DBusRoute@Base 5.1.1+git20141203.0020+15.04
 _ZlsR13QDBusArgumentRK15IpV6DBusAddress@Base 5.1.1+git20141203.0020+15.04
 _ZlsR13QDBusArgumentRK21DeviceDBusStateReason@Base 5.1.1+git20141203.0020+15.04
 _ZlsR13QDBusArgumentRK4QMapI7QStringS2_E@Base 5.1.1+git20141203.0020+15.04
 _ZrsRK13QDBusArgumentR13IpV6DBusRoute@Base 5.1.1+git20141203.0020+15.04
 _ZrsRK13QDBusArgumentR15IpV6DBusAddress@Base 5.1.1+git20141203.0020+15.04
 _ZrsRK13QDBusArgumentR21DeviceDBusStateReason@Base 5.1.1+git20141203.0020+15.04
 _ZrsRK13QDBusArgumentR4QMapI7QStringS3_E@Base 5.1.1+git20141203.0020+15.04
