libKF5SonnetCore.so.5 libkf5sonnetcore5 #MINVER#
 _ZN6Sonnet10TextBreaks10wordBreaksERK7QString@Base 4.96.0
 _ZN6Sonnet10TextBreaks14sentenceBreaksERK7QString@Base 4.96.0
 _ZN6Sonnet10TextBreaks7setTextERK7QString@Base 4.96.0
 _ZN6Sonnet10TextBreaksC1ERK7QString@Base 4.96.0
 _ZN6Sonnet10TextBreaksC2ERK7QString@Base 4.96.0
 _ZN6Sonnet10TextBreaksD0Ev@Base 4.96.0
 _ZN6Sonnet10TextBreaksD1Ev@Base 4.96.0
 _ZN6Sonnet10TextBreaksD2Ev@Base 4.96.0
 _ZN6Sonnet13GuessLanguage9setLimitsEid@Base 4.96.0
 _ZN6Sonnet13GuessLanguageC1Ev@Base 4.96.0
 _ZN6Sonnet13GuessLanguageC2Ev@Base 4.96.0
 _ZN6Sonnet13GuessLanguageD1Ev@Base 4.96.0
 _ZN6Sonnet13GuessLanguageD2Ev@Base 4.96.0
 _ZN6Sonnet13SpellerPluginC1ERK7QString@Base 4.96.0
 _ZN6Sonnet13SpellerPluginC2ERK7QString@Base 4.96.0
 _ZN6Sonnet13SpellerPluginD0Ev@Base 4.96.0
 _ZN6Sonnet13SpellerPluginD1Ev@Base 4.96.0
 _ZN6Sonnet13SpellerPluginD2Ev@Base 4.96.0
 _ZN6Sonnet13WordTokenizer18setIgnoreUppercaseEb@Base 4.96.0
 _ZN6Sonnet13WordTokenizer4nextEv@Base 4.96.0
 _ZN6Sonnet13WordTokenizer7replaceEiiRK7QString@Base 4.96.0
 _ZN6Sonnet13WordTokenizer9setBufferERK7QString@Base 4.96.0
 _ZN6Sonnet13WordTokenizerC1ERK7QString@Base 4.96.0
 _ZN6Sonnet13WordTokenizerC2ERK7QString@Base 4.96.0
 _ZN6Sonnet13WordTokenizerD0Ev@Base 4.96.0
 _ZN6Sonnet13WordTokenizerD1Ev@Base 4.96.0
 _ZN6Sonnet13WordTokenizerD2Ev@Base 4.96.0
 _ZN6Sonnet14LanguageFilter4nextEv@Base 4.96.0
 _ZN6Sonnet14LanguageFilter7replaceEiiRK7QString@Base 4.96.0
 _ZN6Sonnet14LanguageFilter9setBufferERK7QString@Base 4.96.0
 _ZN6Sonnet14LanguageFilterC1EPNS_17AbstractTokenizerE@Base 4.96.0
 _ZN6Sonnet14LanguageFilterC1ERKS0_@Base 4.96.0
 _ZN6Sonnet14LanguageFilterC2EPNS_17AbstractTokenizerE@Base 4.96.0
 _ZN6Sonnet14LanguageFilterC2ERKS0_@Base 4.96.0
 _ZN6Sonnet14LanguageFilterD0Ev@Base 4.96.0
 _ZN6Sonnet14LanguageFilterD1Ev@Base 4.96.0
 _ZN6Sonnet14LanguageFilterD2Ev@Base 4.96.0
 _ZN6Sonnet17BackgroundChecker10setSpellerERKNS_7SpellerE@Base 4.96.0
 _ZN6Sonnet17BackgroundChecker11misspellingERK7QStringi@Base 4.96.0
 _ZN6Sonnet17BackgroundChecker11qt_metacallEN11QMetaObject4CallEiPPv@Base 4.96.0
 _ZN6Sonnet17BackgroundChecker11qt_metacastEPKc@Base 4.96.0
 _ZN6Sonnet17BackgroundChecker13fetchMoreTextEv@Base 4.96.0
 _ZN6Sonnet17BackgroundChecker14changeLanguageERK7QString@Base 4.96.0
 _ZN6Sonnet17BackgroundChecker14slotEngineDoneEv@Base 4.96.0
 _ZN6Sonnet17BackgroundChecker16continueCheckingEv@Base 4.96.0
 _ZN6Sonnet17BackgroundChecker16staticMetaObjectE@Base 4.96.0
 _ZN6Sonnet17BackgroundChecker17addWordToPersonalERK7QString@Base 4.96.0
 _ZN6Sonnet17BackgroundChecker19finishedCurrentFeedEv@Base 4.96.0
 _ZN6Sonnet17BackgroundChecker4doneEv@Base 4.96.0
 _ZN6Sonnet17BackgroundChecker4stopEv@Base 4.96.0
 _ZN6Sonnet17BackgroundChecker5startEv@Base 4.96.0
 _ZN6Sonnet17BackgroundChecker7replaceEiRK7QStringS3_@Base 4.96.0
 _ZN6Sonnet17BackgroundChecker7setTextERK7QString@Base 4.96.0
 _ZN6Sonnet17BackgroundChecker9checkWordERK7QString@Base 4.96.0
 _ZN6Sonnet17BackgroundCheckerC1EP7QObject@Base 4.96.0
 _ZN6Sonnet17BackgroundCheckerC1ERKNS_7SpellerEP7QObject@Base 4.96.0
 _ZN6Sonnet17BackgroundCheckerC2EP7QObject@Base 4.96.0
 _ZN6Sonnet17BackgroundCheckerC2ERKNS_7SpellerEP7QObject@Base 4.96.0
 _ZN6Sonnet17BackgroundCheckerD0Ev@Base 4.96.0
 _ZN6Sonnet17BackgroundCheckerD1Ev@Base 4.96.0
 _ZN6Sonnet17BackgroundCheckerD2Ev@Base 4.96.0
 _ZN6Sonnet17SentenceTokenizer4nextEv@Base 4.96.0
 _ZN6Sonnet17SentenceTokenizer7replaceEiiRK7QString@Base 4.96.0
 _ZN6Sonnet17SentenceTokenizer9setBufferERK7QString@Base 4.96.0
 _ZN6Sonnet17SentenceTokenizerC1ERK7QString@Base 4.96.0
 _ZN6Sonnet17SentenceTokenizerC2ERK7QString@Base 4.96.0
 _ZN6Sonnet17SentenceTokenizerD0Ev@Base 4.96.0
 _ZN6Sonnet17SentenceTokenizerD1Ev@Base 4.96.0
 _ZN6Sonnet17SentenceTokenizerD2Ev@Base 4.96.0
 _ZN6Sonnet6Client11qt_metacallEN11QMetaObject4CallEiPPv@Base 4.96.0
 _ZN6Sonnet6Client11qt_metacastEPKc@Base 4.96.0
 _ZN6Sonnet6Client16staticMetaObjectE@Base 4.96.0
 _ZN6Sonnet6ClientC1EP7QObject@Base 4.96.0
 _ZN6Sonnet6ClientC2EP7QObject@Base 4.96.0
 _ZN6Sonnet6Loader10loadPluginERK7QString@Base 4.96.0
 _ZN6Sonnet6Loader10openLoaderEv@Base 4.96.0
 _ZN6Sonnet6Loader11loadPluginsEv@Base 4.96.0
 _ZN6Sonnet6Loader11qt_metacallEN11QMetaObject4CallEiPPv@Base 4.96.0
 _ZN6Sonnet6Loader11qt_metacastEPKc@Base 4.96.0
 _ZN6Sonnet6Loader13cachedSpellerERK7QString@Base 5.11.0
 _ZN6Sonnet6Loader16staticMetaObjectE@Base 4.96.0
 _ZN6Sonnet6Loader17clearSpellerCacheEv@Base 5.11.0
 _ZN6Sonnet6Loader20configurationChangedEv@Base 4.96.0
 _ZN6Sonnet6Loader7changedEv@Base 4.96.0
 _ZN6Sonnet6LoaderC1Ev@Base 4.96.0
 _ZN6Sonnet6LoaderC2Ev@Base 4.96.0
 _ZN6Sonnet6LoaderD0Ev@Base 4.96.0
 _ZN6Sonnet6LoaderD1Ev@Base 4.96.0
 _ZN6Sonnet6LoaderD2Ev@Base 4.96.0
 _ZN6Sonnet7Speller11setLanguageERK7QString@Base 4.96.0
 _ZN6Sonnet7Speller12addToSessionERK7QString@Base 4.96.0
 _ZN6Sonnet7Speller12setAttributeENS0_9AttributeEb@Base 4.96.0
 _ZN6Sonnet7Speller13addToPersonalERK7QString@Base 4.96.0
 _ZN6Sonnet7Speller16setDefaultClientERK7QString@Base 4.96.0
 _ZN6Sonnet7Speller16storeReplacementERK7QStringS3_@Base 4.96.0
 _ZN6Sonnet7Speller18setDefaultLanguageERK7QString@Base 4.96.0
 _ZN6Sonnet7Speller4saveEv@Base 4.96.0
 _ZN6Sonnet7Speller7restoreEv@Base 4.96.0
 _ZN6Sonnet7SpellerC1ERK7QString@Base 4.96.0
 _ZN6Sonnet7SpellerC1ERKS0_@Base 4.96.0
 _ZN6Sonnet7SpellerC2ERK7QString@Base 4.96.0
 _ZN6Sonnet7SpellerC2ERKS0_@Base 4.96.0
 _ZN6Sonnet7SpellerD1Ev@Base 4.96.0
 _ZN6Sonnet7SpellerD2Ev@Base 4.96.0
 _ZN6Sonnet7SpelleraSERKS0_@Base 4.96.0
 _ZN6Sonnet8Settings11setModifiedEb@Base 4.96.0
 _ZN6Sonnet8Settings15addWordToIgnoreERK7QString@Base 4.96.0
 _ZN6Sonnet8Settings16setDefaultClientERK7QString@Base 4.96.0
 _ZN6Sonnet8Settings17setCheckUppercaseEb@Base 4.96.0
 _ZN6Sonnet8Settings18setDefaultLanguageERK7QString@Base 4.96.0
 _ZN6Sonnet8Settings18setQuietIgnoreListERK11QStringList@Base 4.96.0
 _ZN6Sonnet8Settings18setSkipRunTogetherEb@Base 4.96.0
 _ZN6Sonnet8Settings20setCurrentIgnoreListERK11QStringList@Base 4.96.0
 _ZN6Sonnet8Settings21setAutodetectLanguageEb@Base 4.96.0
 _ZN6Sonnet8Settings26setCheckerEnabledByDefaultEb@Base 4.96.0
 _ZN6Sonnet8Settings27setBackgroundCheckerEnabledEb@Base 4.96.0
 _ZN6Sonnet8Settings4saveEv@Base 4.96.0
 _ZN6Sonnet8Settings6ignoreERK7QString@Base 4.96.0
 _ZN6Sonnet8Settings7restoreEv@Base 4.96.0
 _ZN6Sonnet8SettingsC1EPNS_6LoaderE@Base 4.96.0
 _ZN6Sonnet8SettingsC2EPNS_6LoaderE@Base 4.96.0
 _ZN6Sonnet8SettingsD1Ev@Base 4.96.0
 _ZN6Sonnet8SettingsD2Ev@Base 4.96.0
 _ZNK6Sonnet10TextBreaks10wordBreaksEv@Base 4.96.0
 _ZNK6Sonnet10TextBreaks14sentenceBreaksEv@Base 4.96.0
 _ZNK6Sonnet10TextBreaks4textEv@Base 4.96.0
 _ZNK6Sonnet13GuessLanguage8identifyERK7QStringRK11QStringList@Base 4.96.0
 _ZNK6Sonnet13SpellerPlugin12isMisspelledERK7QString@Base 4.96.0
 _ZNK6Sonnet13SpellerPlugin15checkAndSuggestERK7QStringR11QStringList@Base 4.96.0
 _ZNK6Sonnet13SpellerPlugin8languageEv@Base 4.96.0
 _ZNK6Sonnet13WordTokenizer11isUppercaseERK10QStringRef@Base 4.96.0
 _ZNK6Sonnet13WordTokenizer16isSpellcheckableEv@Base 4.96.0
 _ZNK6Sonnet13WordTokenizer6bufferEv@Base 4.96.0
 _ZNK6Sonnet13WordTokenizer7hasNextEv@Base 4.96.0
 _ZNK6Sonnet14LanguageFilter16isSpellcheckableEv@Base 4.96.0
 _ZNK6Sonnet14LanguageFilter6bufferEv@Base 4.96.0
 _ZNK6Sonnet14LanguageFilter7hasNextEv@Base 4.96.0
 _ZNK6Sonnet14LanguageFilter8languageEv@Base 4.96.0
 _ZNK6Sonnet17BackgroundChecker10metaObjectEv@Base 4.96.0
 _ZNK6Sonnet17BackgroundChecker14currentContextEv@Base 4.96.0
 _ZNK6Sonnet17BackgroundChecker4textEv@Base 4.96.0
 _ZNK6Sonnet17BackgroundChecker7spellerEv@Base 4.96.0
 _ZNK6Sonnet17BackgroundChecker7suggestERK7QString@Base 4.96.0
 _ZNK6Sonnet17SentenceTokenizer6bufferEv@Base 4.96.0
 _ZNK6Sonnet17SentenceTokenizer7hasNextEv@Base 4.96.0
 _ZNK6Sonnet6Client10metaObjectEv@Base 4.96.0
 _ZNK6Sonnet6Loader10metaObjectEv@Base 4.96.0
 _ZNK6Sonnet6Loader13createSpellerERK7QStringS3_@Base 4.96.0
 _ZNK6Sonnet6Loader13languageNamesEv@Base 4.96.0
 _ZNK6Sonnet6Loader19languageNameForCodeERK7QString@Base 4.96.0
 _ZNK6Sonnet6Loader7clientsEv@Base 4.96.0
 _ZNK6Sonnet6Loader8settingsEv@Base 4.96.0
 _ZNK6Sonnet6Loader9languagesEv@Base 4.96.0
 _ZNK6Sonnet7Speller12isMisspelledERK7QString@Base 4.96.0
 _ZNK6Sonnet7Speller13defaultClientEv@Base 4.96.0
 _ZNK6Sonnet7Speller13testAttributeENS0_9AttributeE@Base 4.96.0
 _ZNK6Sonnet7Speller15checkAndSuggestERK7QStringR11QStringList@Base 4.96.0
 _ZNK6Sonnet7Speller15defaultLanguageEv@Base 4.96.0
 _ZNK6Sonnet7Speller17availableBackendsEv@Base 4.96.0
 _ZNK6Sonnet7Speller18availableLanguagesEv@Base 4.96.0
 _ZNK6Sonnet7Speller21availableDictionariesEv@Base 4.96.0
 _ZNK6Sonnet7Speller22availableLanguageNamesEv@Base 4.96.0
 _ZNK6Sonnet7Speller7isValidEv@Base 4.96.0
 _ZNK6Sonnet7Speller7suggestERK7QString@Base 4.96.0
 _ZNK6Sonnet7Speller8languageEv@Base 4.96.0
 _ZNK6Sonnet7Speller9isCorrectERK7QString@Base 4.96.0
 _ZNK6Sonnet8Settings13defaultClientEv@Base 4.96.0
 _ZNK6Sonnet8Settings14checkUppercaseEv@Base 4.96.0
 _ZNK6Sonnet8Settings15defaultLanguageEv@Base 4.96.0
 _ZNK6Sonnet8Settings15skipRunTogetherEv@Base 4.96.0
 _ZNK6Sonnet8Settings17currentIgnoreListEv@Base 4.96.0
 _ZNK6Sonnet8Settings18autodetectLanguageEv@Base 4.96.0
 _ZNK6Sonnet8Settings21disableWordErrorCountEv@Base 4.96.0
 _ZNK6Sonnet8Settings23checkerEnabledByDefaultEv@Base 4.96.0
 _ZNK6Sonnet8Settings24backgroundCheckerEnabledEv@Base 4.96.0
 _ZNK6Sonnet8Settings26disablePercentageWordErrorEv@Base 4.96.0
 _ZNK6Sonnet8Settings8modifiedEv@Base 4.96.0
 _ZTIN6Sonnet10TextBreaksE@Base 4.96.0
 _ZTIN6Sonnet13SpellerPluginE@Base 4.96.0
 _ZTIN6Sonnet13WordTokenizerE@Base 4.96.0
 _ZTIN6Sonnet14LanguageFilterE@Base 4.96.0
 _ZTIN6Sonnet17BackgroundCheckerE@Base 4.96.0
 _ZTIN6Sonnet17SentenceTokenizerE@Base 4.96.0
 _ZTIN6Sonnet6ClientE@Base 4.96.0
 _ZTIN6Sonnet6LoaderE@Base 4.96.0
 _ZTSN6Sonnet10TextBreaksE@Base 4.96.0
 _ZTSN6Sonnet13SpellerPluginE@Base 4.96.0
 _ZTSN6Sonnet13WordTokenizerE@Base 4.96.0
 _ZTSN6Sonnet14LanguageFilterE@Base 4.96.0
 _ZTSN6Sonnet17BackgroundCheckerE@Base 4.96.0
 _ZTSN6Sonnet17SentenceTokenizerE@Base 4.96.0
 _ZTSN6Sonnet6ClientE@Base 4.96.0
 _ZTSN6Sonnet6LoaderE@Base 4.96.0
 _ZTVN6Sonnet10TextBreaksE@Base 4.96.0
 _ZTVN6Sonnet13SpellerPluginE@Base 4.96.0
 _ZTVN6Sonnet13WordTokenizerE@Base 4.96.0
 _ZTVN6Sonnet14LanguageFilterE@Base 4.96.0
 _ZTVN6Sonnet17BackgroundCheckerE@Base 4.96.0
 _ZTVN6Sonnet17SentenceTokenizerE@Base 4.96.0
 _ZTVN6Sonnet6ClientE@Base 4.96.0
 _ZTVN6Sonnet6LoaderE@Base 4.96.0
