libKF5Holidays.so.5 libkf5holidays5 #MINVER#
 _ZN9KHolidays10LunarPhase11phaseAtDateERK5QDate@Base 15.07.90
 _ZN9KHolidays10LunarPhase15phaseNameAtDateERK5QDate@Base 15.07.90
 _ZN9KHolidays10LunarPhase9phaseNameENS0_5PhaseE@Base 15.07.90
 _ZN9KHolidays10SunRiseSet10utcSunriseERK5QDatedd@Base 15.07.90
 _ZN9KHolidays10SunRiseSet9utcSunsetERK5QDatedd@Base 15.07.90
 _ZN9KHolidays12AstroSeasons10seasonNameENS0_6SeasonE@Base 15.07.90
 _ZN9KHolidays12AstroSeasons12seasonAtDateERK5QDate@Base 15.07.90
 _ZN9KHolidays12AstroSeasons16seasonNameAtDateERK5QDate@Base 15.07.90
 _ZN9KHolidays13HolidayRegion11countryCodeERK7QString@Base 15.07.90
 _ZN9KHolidays13HolidayRegion11descriptionERK7QString@Base 15.07.90
 _ZN9KHolidays13HolidayRegion11regionCodesEv@Base 15.07.90
 _ZN9KHolidays13HolidayRegion12languageCodeERK7QString@Base 15.07.90
 _ZN9KHolidays13HolidayRegion17defaultRegionCodeERK7QStringS3_@Base 15.07.90
 _ZN9KHolidays13HolidayRegion4nameERK7QString@Base 15.07.90
 _ZN9KHolidays13HolidayRegion7isValidERK7QString@Base 15.07.90
 _ZN9KHolidays13HolidayRegionC1ERK7QString@Base 15.07.90
 _ZN9KHolidays13HolidayRegionC1ERK9QFileInfo@Base 15.07.90
 _ZN9KHolidays13HolidayRegionC2ERK7QString@Base 15.07.90
 _ZN9KHolidays13HolidayRegionC2ERK9QFileInfo@Base 15.07.90
 _ZN9KHolidays13HolidayRegionD1Ev@Base 15.07.90
 _ZN9KHolidays13HolidayRegionD2Ev@Base 15.07.90
 _ZN9KHolidays6Zodiac10signSymbolENS0_11ZodiacSignsE@Base 15.07.90
 _ZN9KHolidays6Zodiac8signNameENS0_11ZodiacSignsE@Base 15.07.90
 _ZN9KHolidays6ZodiacC1ENS0_10ZodiacTypeE@Base 15.07.90
 _ZN9KHolidays6ZodiacC1ERKS0_@Base 15.07.90
 _ZN9KHolidays6ZodiacC2ENS0_10ZodiacTypeE@Base 15.07.90
 _ZN9KHolidays6ZodiacC2ERKS0_@Base 15.07.90
 _ZN9KHolidays6ZodiacD1Ev@Base 15.07.90
 _ZN9KHolidays6ZodiacD2Ev@Base 15.07.90
 _ZN9KHolidays6ZodiacaSERKS0_@Base 15.07.90
 _ZN9KHolidays7HolidayC1ERKS0_@Base 15.07.90
 _ZN9KHolidays7HolidayC1Ev@Base 15.07.90
 _ZN9KHolidays7HolidayC2ERKS0_@Base 15.07.90
 _ZN9KHolidays7HolidayC2Ev@Base 15.07.90
 _ZN9KHolidays7HolidayD1Ev@Base 15.07.90
 _ZN9KHolidays7HolidayD2Ev@Base 15.07.90
 _ZN9KHolidays7HolidayaSERKS0_@Base 15.07.90
 _ZNK9KHolidays13HolidayRegion10regionCodeEv@Base 15.07.90
 _ZNK9KHolidays13HolidayRegion11countryCodeEv@Base 15.07.90
 _ZNK9KHolidays13HolidayRegion11descriptionEv@Base 15.07.90
 _ZNK9KHolidays13HolidayRegion12languageCodeEv@Base 15.07.90
 _ZNK9KHolidays13HolidayRegion4nameEv@Base 15.07.90
 _ZNK9KHolidays13HolidayRegion7isValidEv@Base 15.07.90
 _ZNK9KHolidays13HolidayRegion8holidaysERK5QDate@Base 15.12.0
 _ZNK9KHolidays13HolidayRegion8holidaysERK5QDateS3_@Base 15.12.0
 _ZNK9KHolidays13HolidayRegion8holidaysEi@Base 15.12.0
 _ZNK9KHolidays13HolidayRegion9isHolidayERK5QDate@Base 15.07.90
 _ZNK9KHolidays6Zodiac10signAtDateERK5QDate@Base 15.07.90
 _ZNK9KHolidays6Zodiac14signNameAtDateERK5QDate@Base 15.07.90
 _ZNK9KHolidays7Holiday11descriptionEv@Base 15.12.0
 _ZNK9KHolidays7Holiday15observedEndDateEv@Base 15.07.90
 _ZNK9KHolidays7Holiday17observedStartDateEv@Base 15.07.90
 _ZNK9KHolidays7Holiday4nameEv@Base 15.12.0
 _ZNK9KHolidays7Holiday7dayTypeEv@Base 15.07.90
 _ZNK9KHolidays7Holiday8durationEv@Base 15.07.90
 _ZNK9KHolidays7HolidaygtERKS0_@Base 15.07.90
 _ZNK9KHolidays7HolidayltERKS0_@Base 15.07.90
 _ZNSt11_Deque_baseIiSaIiEE17_M_initialize_mapEm@Base 15.07.90
 _ZNSt11_Deque_baseIiSaIiEED1Ev@Base 15.07.90
 _ZNSt11_Deque_baseIiSaIiEED2Ev@Base 15.07.90
 _ZNSt5dequeIiSaIiEE17_M_push_front_auxIIRKiEEEvDpOT_@Base 15.07.90
 _ZNSt5dequeIiSaIiEE17_M_push_front_auxIJRKiEEEvDpOT_@Base 15.07.90
