libKF5KDELibs4Support.so.5 libkf5kdelibs4support5 #MINVER#
 _Z12kDebugStream9QtMsgTypeiPKciS1_@Base 4.96.0
 _Z13kAsciiToLowerPc@Base 4.96.0
 _Z13kAsciiToUpperPc@Base 4.96.0
 _Z13kDebugDevNullv@Base 4.96.0
 _Z13kasciistricmpPKcS0_@Base 4.96.0
 _Z14kRealBacktracei@Base 4.96.0
 _Z15kde_getaddrinfoPKcS0_PK8addrinfoPP12kde_addrinfo@Base 4.96.0
 _Z16kde_freeaddrinfoP12kde_addrinfo@Base 4.96.0
 _Z17kClearDebugConfigv@Base 4.96.0
 _Z39k_system_time_zone_private_reset_configv@Base 4.96.0
 _Z6perror6QDebug9KDebugTag@Base 4.96.0
 _Z6urlcmpRK7QStringS1_@Base 4.96.0
 _Z6urlcmpRK7QStringS1_RK6QFlagsIN4KUrl12EqualsOptionEE@Base 4.96.0
 _ZN10KFileShare10nfsEnabledEv@Base 4.96.0
 _ZN10KFileShare10readConfigEv@Base 4.96.0
 _ZN10KFileShare12isRestrictedEv@Base 4.96.0
 _ZN10KFileShare12sambaEnabledEv@Base 4.96.0
 _ZN10KFileShare13authorizationEv@Base 4.96.0
 _ZN10KFileShare13readShareListEv@Base 4.96.0
 _ZN10KFileShare14fileShareGroupEv@Base 4.96.0
 _ZN10KFileShare14sharingEnabledEv@Base 4.96.0
 _ZN10KFileShare17isDirectorySharedERK7QString@Base 4.96.0
 _ZN10KFileShare9setSharedERK7QStringb@Base 4.96.0
 _ZN10KFileShare9shareModeEv@Base 4.96.0
 _ZN10KLibLoader11findLibraryERK7QStringRK14KComponentData@Base 4.96.0
 _ZN10KLibLoader11qt_metacallEN11QMetaObject4CallEiPPv@Base 4.96.0
 _ZN10KLibLoader11qt_metacastEPKc@Base 4.96.0
 _ZN10KLibLoader13unloadLibraryERK7QString@Base 4.96.0
 _ZN10KLibLoader16staticMetaObjectE@Base 4.96.0
 _ZN10KLibLoader4selfEv@Base 4.96.0
 _ZN10KLibLoader7factoryERK7QString6QFlagsIN8QLibrary8LoadHintEE@Base 4.96.0
 _ZN10KLibLoader7libraryERK7QString6QFlagsIN8QLibrary8LoadHintEE@Base 4.96.0
 _ZN10KLibLoaderC1Ev@Base 4.96.0
 _ZN10KLibLoaderC2Ev@Base 4.96.0
 _ZN10KLibLoaderD0Ev@Base 4.96.0
 _ZN10KLibLoaderD1Ev@Base 4.96.0
 _ZN10KLibLoaderD2Ev@Base 4.96.0
 _ZN10KOCRDialog11qt_metacallEN11QMetaObject4CallEiPPv@Base 4.96.0
 _ZN10KOCRDialog11qt_metacastEPKc@Base 4.96.0
 _ZN10KOCRDialog12getOCRDialogEP7QWidget@Base 4.96.0
 _ZN10KOCRDialog14textRecognizedERK7QStringi@Base 4.96.0
 _ZN10KOCRDialog16staticMetaObjectE@Base 4.96.0
 _ZN10KOCRDialog6nextIdEv@Base 4.96.0
 _ZN10KOCRDialogC1EiiP7QWidgetb@Base 4.96.0
 _ZN10KOCRDialogC2EiiP7QWidgetb@Base 4.96.0
 _ZN10KOCRDialogD0Ev@Base 4.96.0
 _ZN10KOCRDialogD1Ev@Base 4.96.0
 _ZN10KOCRDialogD2Ev@Base 4.96.0
 _ZN10KSSLX509V3C1Ev@Base 4.96.0
 _ZN10KSSLX509V3C2Ev@Base 4.96.0
 _ZN10KSSLX509V3D1Ev@Base 4.96.0
 _ZN10KSSLX509V3D2Ev@Base 4.96.0
 _ZN10KStatusBar10changeItemERK7QStringi@Base 4.96.0
 _ZN10KStatusBar10insertItemERK7QStringii@Base 4.96.0
 _ZN10KStatusBar10removeItemEi@Base 4.96.0
 _ZN10KStatusBar11eventFilterEP7QObjectP6QEvent@Base 4.96.0
 _ZN10KStatusBar11qt_metacallEN11QMetaObject4CallEiPPv@Base 4.96.0
 _ZN10KStatusBar11qt_metacastEPKc@Base 4.96.0
 _ZN10KStatusBar12setItemFixedEii@Base 4.96.0
 _ZN10KStatusBar15insertFixedItemERK7QStringi@Base 4.96.0
 _ZN10KStatusBar16setItemAlignmentEi6QFlagsIN2Qt13AlignmentFlagEE@Base 4.96.0
 _ZN10KStatusBar16staticMetaObjectE@Base 4.96.0
 _ZN10KStatusBar19insertPermanentItemERK7QStringii@Base 4.96.0
 _ZN10KStatusBar24insertPermanentFixedItemERK7QStringi@Base 4.96.0
 _ZN10KStatusBar7pressedEi@Base 4.96.0
 _ZN10KStatusBar8releasedEi@Base 4.96.0
 _ZN10KStatusBarC1EP7QWidget@Base 4.96.0
 _ZN10KStatusBarC2EP7QWidget@Base 4.96.0
 _ZN10KStatusBarD0Ev@Base 4.96.0
 _ZN10KStatusBarD1Ev@Base 4.96.0
 _ZN10KStatusBarD2Ev@Base 4.96.0
 _ZN10KTabWidget10removePageEP7QWidget@Base 4.96.0
 _ZN10KTabWidget10setTabTextEiRK7QString@Base 4.96.0
 _ZN10KTabWidget10tabRemovedEi@Base 4.96.0
 _ZN10KTabWidget10wheelDeltaEi@Base 4.96.0
 _ZN10KTabWidget10wheelEventEP11QWheelEvent@Base 4.96.0
 _ZN10KTabWidget11contextMenuEP7QWidgetRK6QPoint@Base 4.96.0
 _ZN10KTabWidget11contextMenuERK6QPoint@Base 4.96.0
 _ZN10KTabWidget11contextMenuEiRK6QPoint@Base 4.96.0
 _ZN10KTabWidget11qt_metacallEN11QMetaObject4CallEiPPv@Base 4.96.0
 _ZN10KTabWidget11qt_metacastEPKc@Base 4.96.0
 _ZN10KTabWidget11resizeEventEP12QResizeEvent@Base 4.96.0
 _ZN10KTabWidget11tabInsertedEi@Base 4.96.0
 _ZN10KTabWidget12closeRequestEP7QWidget@Base 4.96.0
 _ZN10KTabWidget12closeRequestEi@Base 4.96.0
 _ZN10KTabWidget12initiateDragEP7QWidget@Base 4.96.0
 _ZN10KTabWidget12initiateDragEi@Base 4.96.0
 _ZN10KTabWidget13dragMoveEventEP14QDragMoveEvent@Base 4.96.0
 _ZN10KTabWidget13testCanDecodeEPK14QDragMoveEventRb@Base 4.96.0
 _ZN10KTabWidget14currentChangedEi@Base 4.96.0
 _ZN10KTabWidget14dragEnterEventEP15QDragEnterEvent@Base 4.96.0
 _ZN10KTabWidget15mousePressEventEP11QMouseEvent@Base 4.96.0
 _ZN10KTabWidget15setTabBarHiddenEb@Base 4.96.0
 _ZN10KTabWidget15setTabTextColorEiRK6QColor@Base 4.96.0
 _ZN10KTabWidget16mouseDoubleClickEP7QWidget@Base 4.96.0
 _ZN10KTabWidget16mouseDoubleClickEi@Base 4.96.0
 _ZN10KTabWidget16mouseDoubleClickEv@Base 4.96.0
 _ZN10KTabWidget16mouseMiddleClickEP7QWidget@Base 4.96.0
 _ZN10KTabWidget16mouseMiddleClickEi@Base 4.96.0
 _ZN10KTabWidget16mouseMiddleClickEv@Base 4.96.0
 _ZN10KTabWidget16staticMetaObjectE@Base 4.96.0
 _ZN10KTabWidget17mouseReleaseEventEP11QMouseEvent@Base 4.96.0
 _ZN10KTabWidget17receivedDropEventEP10QDropEvent@Base 4.96.0
 _ZN10KTabWidget17receivedDropEventEP7QWidgetP10QDropEvent@Base 4.96.0
 _ZN10KTabWidget17receivedDropEventEiP10QDropEvent@Base 4.96.0
 _ZN10KTabWidget19setHoverCloseButtonEb@Base 4.96.0
 _ZN10KTabWidget21mouseDoubleClickEventEP11QMouseEvent@Base 4.96.0
 _ZN10KTabWidget21setCloseButtonEnabledEb@Base 4.96.0
 _ZN10KTabWidget22setAutomaticResizeTabsEb@Base 4.96.0
 _ZN10KTabWidget22tabBarWidthForMaxCharsEi@Base 4.96.0
 _ZN10KTabWidget23setTabReorderingEnabledEb@Base 4.96.0
 _ZN10KTabWidget26setHoverCloseButtonDelayedEb@Base 4.96.0
 _ZN10KTabWidget27setTabCloseActivatePreviousEb@Base 4.96.0
 _ZN10KTabWidget7Private10resizeTabsEi@Base 4.96.0
 _ZN10KTabWidget7Private12slotTabMovedEii@Base 4.96.0
 _ZN10KTabWidget7Private9removeTabEi@Base 4.96.0
 _ZN10KTabWidget7Private9updateTabEi@Base 4.96.0
 _ZN10KTabWidget7moveTabEii@Base 4.96.0
 _ZN10KTabWidget8movedTabEii@Base 4.96.0
 _ZN10KTabWidget9dropEventEP10QDropEvent@Base 4.96.0
 _ZN10KTabWidget9removeTabEi@Base 4.96.0
 _ZN10KTabWidgetC1EP7QWidget6QFlagsIN2Qt10WindowTypeEE@Base 4.96.0
 _ZN10KTabWidgetC2EP7QWidget6QFlagsIN2Qt10WindowTypeEE@Base 4.96.0
 _ZN10KTabWidgetD0Ev@Base 4.96.0
 _ZN10KTabWidgetD1Ev@Base 4.96.0
 _ZN10KTabWidgetD2Ev@Base 4.96.0
 _ZN10KTimeZones3addERK9KTimeZone@Base 4.96.0
 _ZN10KTimeZones5clearEv@Base 4.96.0
 _ZN10KTimeZones6removeERK7QString@Base 4.96.0
 _ZN10KTimeZones6removeERK9KTimeZone@Base 4.96.0
 _ZN10KTimeZonesC1Ev@Base 4.96.0
 _ZN10KTimeZonesC2Ev@Base 4.96.0
 _ZN10KTimeZonesD1Ev@Base 4.96.0
 _ZN10KTimeZonesD2Ev@Base 4.96.0
 _ZN10KUndoStack11qt_metacallEN11QMetaObject4CallEiPPv@Base 4.96.0
 _ZN10KUndoStack11qt_metacastEPKc@Base 4.96.0
 _ZN10KUndoStack16createRedoActionEP17KActionCollectionRK7QString@Base 4.96.0
 _ZN10KUndoStack16createUndoActionEP17KActionCollectionRK7QString@Base 4.96.0
 _ZN10KUndoStack16staticMetaObjectE@Base 4.96.0
 _ZN10KUndoStackC1EP7QObject@Base 4.96.0
 _ZN10KUndoStackC2EP7QObject@Base 4.96.0
 _ZN11K4AboutData10addLicenseENS_10LicenseKeyE@Base 4.96.0
 _ZN11K4AboutData10setAppNameERK10QByteArray@Base 4.96.0
 _ZN11K4AboutData10setLicenseENS_10LicenseKeyE@Base 4.96.0
 _ZN11K4AboutData10setVersionERK10QByteArray@Base 4.96.0
 _ZN11K4AboutData11setHomepageERK10QByteArray@Base 4.96.0
 _ZN11K4AboutData12setOtherTextERK16KLocalizedString@Base 4.96.0
 _ZN11K4AboutData13setBugAddressERK10QByteArray@Base 4.96.0
 _ZN11K4AboutData13setTranslatorERK16KLocalizedStringS2_@Base 4.96.0
 _ZN11K4AboutData14addLicenseTextERK16KLocalizedString@Base 4.96.0
 _ZN11K4AboutData14setCatalogNameERK10QByteArray@Base 4.96.0
 _ZN11K4AboutData14setLicenseTextERK16KLocalizedString@Base 4.96.0
 _ZN11K4AboutData14setOcsProviderERK10QByteArray@Base 4.96.0
 _ZN11K4AboutData14setProductNameERK10QByteArray@Base 4.96.0
 _ZN11K4AboutData14setProgramLogoERK8QVariant@Base 4.96.0
 _ZN11K4AboutData14setProgramNameERK16KLocalizedString@Base 4.96.0
 _ZN11K4AboutData18addLicenseTextFileERK7QString@Base 4.96.0
 _ZN11K4AboutData18setLicenseTextFileERK7QString@Base 4.96.0
 _ZN11K4AboutData18setProgramIconNameERK7QString@Base 4.96.0
 _ZN11K4AboutData19setCustomAuthorTextERK16KLocalizedStringS2_@Base 4.96.0
 _ZN11K4AboutData19setShortDescriptionERK16KLocalizedString@Base 4.96.0
 _ZN11K4AboutData20aboutTranslationTeamEv@Base 4.96.0
 _ZN11K4AboutData21setCopyrightStatementERK16KLocalizedString@Base 4.96.0
 _ZN11K4AboutData21setOrganizationDomainERK10QByteArray@Base 4.96.0
 _ZN11K4AboutData21unsetCustomAuthorTextEv@Base 4.96.0
 _ZN11K4AboutData9addAuthorERK16KLocalizedStringS2_RK10QByteArrayS5_@Base 4.96.0
 _ZN11K4AboutData9addAuthorERK16KLocalizedStringS2_RK10QByteArrayS5_S5_@Base 4.96.0
 _ZN11K4AboutData9addCreditERK16KLocalizedStringS2_RK10QByteArrayS5_@Base 4.96.0
 _ZN11K4AboutData9addCreditERK16KLocalizedStringS2_RK10QByteArrayS5_S5_@Base 4.96.0
 _ZN11K4AboutDataC1ERK10QByteArrayS2_RK16KLocalizedStringS2_S5_NS_10LicenseKeyES5_S5_S2_S2_@Base 4.96.0
 _ZN11K4AboutDataC1ERKS_@Base 4.96.0
 _ZN11K4AboutDataC2ERK10QByteArrayS2_RK16KLocalizedStringS2_S5_NS_10LicenseKeyES5_S5_S2_S2_@Base 4.96.0
 _ZN11K4AboutDataC2ERKS_@Base 4.96.0
 _ZN11K4AboutDataD1Ev@Base 4.96.0
 _ZN11K4AboutDataD2Ev@Base 4.96.0
 _ZN11K4AboutDataaSERKS_@Base 4.96.0
 _ZN11KColorCells10setShadingEb@Base 4.96.0
 _ZN11KColorCells11qt_metacallEN11QMetaObject4CallEiPPv@Base 4.96.0
 _ZN11KColorCells11qt_metacastEPKc@Base 4.96.0
 _ZN11KColorCells11resizeEventEP12QResizeEvent@Base 4.96.0
 _ZN11KColorCells11setSelectedEi@Base 4.96.0
 _ZN11KColorCells13colorSelectedEiRK6QColor@Base 4.96.0
 _ZN11KColorCells13dragMoveEventEP14QDragMoveEvent@Base 4.96.0
 _ZN11KColorCells14dragEnterEventEP15QDragEnterEvent@Base 4.96.0
 _ZN11KColorCells14mouseMoveEventEP11QMouseEvent@Base 4.96.0
 _ZN11KColorCells14setAcceptDragsEb@Base 4.96.0
 _ZN11KColorCells15mousePressEventEP11QMouseEvent@Base 4.96.0
 _ZN11KColorCells16staticMetaObjectE@Base 4.96.0
 _ZN11KColorCells17mouseReleaseEventEP11QMouseEvent@Base 4.96.0
 _ZN11KColorCells18colorDoubleClickedEiRK6QColor@Base 4.96.0
 _ZN11KColorCells21mouseDoubleClickEventEP11QMouseEvent@Base 4.96.0
 _ZN11KColorCells8setColorEiRK6QColor@Base 4.96.0
 _ZN11KColorCells9dropEventEP10QDropEvent@Base 4.96.0
 _ZN11KColorCellsC1EP7QWidgetii@Base 4.96.0
 _ZN11KColorCellsC2EP7QWidgetii@Base 4.96.0
 _ZN11KColorCellsD0Ev@Base 4.96.0
 _ZN11KColorCellsD1Ev@Base 4.96.0
 _ZN11KColorCellsD2Ev@Base 4.96.0
 _ZN11KColorPatch10paintEventEP11QPaintEvent@Base 4.96.0
 _ZN11KColorPatch11qt_metacallEN11QMetaObject4CallEiPPv@Base 4.96.0
 _ZN11KColorPatch11qt_metacastEPKc@Base 4.96.0
 _ZN11KColorPatch12colorChangedERK6QColor@Base 4.96.0
 _ZN11KColorPatch14dragEnterEventEP15QDragEnterEvent@Base 4.96.0
 _ZN11KColorPatch14mouseMoveEventEP11QMouseEvent@Base 4.96.0
 _ZN11KColorPatch16staticMetaObjectE@Base 4.96.0
 _ZN11KColorPatch8setColorERK6QColor@Base 4.96.0
 _ZN11KColorPatch9dropEventEP10QDropEvent@Base 4.96.0
 _ZN11KColorPatchC1EP7QWidget@Base 4.96.0
 _ZN11KColorPatchC2EP7QWidget@Base 4.96.0
 _ZN11KColorPatchD0Ev@Base 4.96.0
 _ZN11KColorPatchD1Ev@Base 4.96.0
 _ZN11KColorPatchD2Ev@Base 4.96.0
 _ZN11KDateWidget10initWidgetERK5QDate@Base 4.96.0
 _ZN11KDateWidget11qt_metacallEN11QMetaObject4CallEiPPv@Base 4.96.0
 _ZN11KDateWidget11qt_metacastEPKc@Base 4.96.0
 _ZN11KDateWidget11setCalendarEP15KCalendarSystem@Base 4.96.0
 _ZN11KDateWidget15slotDateChangedEv@Base 4.96.0
 _ZN11KDateWidget16staticMetaObjectE@Base 4.96.0
 _ZN11KDateWidget17setCalendarSystemEN7KLocale14CalendarSystemE@Base 4.96.0
 _ZN11KDateWidget7changedERK5QDate@Base 4.96.0
 _ZN11KDateWidget7setDateERK5QDate@Base 4.96.0
 _ZN11KDateWidgetC1EP7QWidget@Base 4.96.0
 _ZN11KDateWidgetC1ERK5QDateP7QWidget@Base 4.96.0
 _ZN11KDateWidgetC2EP7QWidget@Base 4.96.0
 _ZN11KDateWidgetC2ERK5QDateP7QWidget@Base 4.96.0
 _ZN11KDateWidgetD0Ev@Base 4.96.0
 _ZN11KDateWidgetD1Ev@Base 4.96.0
 _ZN11KDateWidgetD2Ev@Base 4.96.0
 _ZN11KFileDialog10fileWidgetEv@Base 4.96.0
 _ZN11KFileDialog10getOpenUrlERK4QUrlRK7QStringP7QWidgetS5_@Base 4.96.0
 _ZN11KFileDialog10getSaveUrlERK4QUrlRK7QStringP7QWidgetS5_6QFlagsINS_6OptionEE@Base 4.96.0
 _ZN11KFileDialog10getSaveUrlERK4QUrlRK7QStringP7QWidgetS5_@Base 4.96.0
 _ZN11KFileDialog10slotCancelEv@Base 4.96.0
 _ZN11KFileDialog11clearFilterEv@Base 4.96.0
 _ZN11KFileDialog11getOpenUrlsERK4QUrlRK7QStringP7QWidgetS5_@Base 4.96.0
 _ZN11KFileDialog11getStartUrlERK4QUrlR7QString@Base 4.96.0
 _ZN11KFileDialog11qt_metacallEN11QMetaObject4CallEiPPv@Base 4.96.0
 _ZN11KFileDialog11qt_metacastEPKc@Base 4.96.0
 _ZN11KFileDialog11setStartDirERK4QUrl@Base 4.96.0
 _ZN11KFileDialog12fileSelectedERK4QUrl@Base 4.96.0
 _ZN11KFileDialog12setSelectionERK7QString@Base 4.96.0
 _ZN11KFileDialog13filterChangedERK7QString@Base 4.96.0
 _ZN11KFileDialog13keyPressEventEP9QKeyEvent@Base 4.96.0
 _ZN11KFileDialog13setMimeFilterERK11QStringListRK7QString@Base 4.96.0
 _ZN11KFileDialog15fileHighlightedERK4QUrl@Base 4.96.0
 _ZN11KFileDialog15getImageOpenUrlERK4QUrlP7QWidgetRK7QString@Base 4.96.0
 _ZN11KFileDialog15getOpenFileNameERK4QUrlRK7QStringP7QWidgetS5_@Base 4.96.0
 _ZN11KFileDialog15getSaveFileNameERK4QUrlRK7QStringP7QWidgetS5_6QFlagsINS_6OptionEE@Base 4.96.0
 _ZN11KFileDialog15getSaveFileNameERK4QUrlRK7QStringP7QWidgetS5_@Base 4.96.0
 _ZN11KFileDialog15setKeepLocationEb@Base 4.96.0
 _ZN11KFileDialog16getOpenFileNamesERK4QUrlRK7QStringP7QWidgetS5_@Base 4.96.0
 _ZN11KFileDialog16selectionChangedEv@Base 4.96.0
 _ZN11KFileDialog16setLocationLabelERK7QString@Base 4.96.0
 _ZN11KFileDialog16setOperationModeENS_13OperationModeE@Base 4.96.0
 _ZN11KFileDialog16setPreviewWidgetEP18KPreviewWidgetBase@Base 4.96.0
 _ZN11KFileDialog16staticMetaObjectE@Base 4.96.0
 _ZN11KFileDialog18getOpenFileNameWIdERK4QUrlRK7QStringyS5_@Base 4.96.0
 _ZN11KFileDialog18getSaveFileNameWIdERK4QUrlRK7QStringyS5_6QFlagsINS_6OptionEE@Base 4.96.0
 _ZN11KFileDialog18getSaveFileNameWIdERK4QUrlRK7QStringyS5_@Base 4.96.0
 _ZN11KFileDialog19setConfirmOverwriteEb@Base 4.96.0
 _ZN11KFileDialog20getExistingDirectoryERK4QUrlP7QWidgetRK7QString@Base 4.96.0
 _ZN11KFileDialog21currentFilterMimeTypeEv@Base 4.96.0
 _ZN11KFileDialog21setInlinePreviewShownEb@Base 4.96.0
 _ZN11KFileDialog23getExistingDirectoryUrlERK4QUrlP7QWidgetRK7QString@Base 4.96.0
 _ZN11KFileDialog6acceptEv@Base 4.96.0
 _ZN11KFileDialog6setUrlERK4QUrlb@Base 4.96.0
 _ZN11KFileDialog6slotOkEv@Base 4.96.0
 _ZN11KFileDialog7setModeE6QFlagsIN5KFile4ModeEE@Base 4.96.0
 _ZN11KFileDialog9hideEventEP10QHideEvent@Base 4.96.0
 _ZN11KFileDialog9setFilterERK7QString@Base 4.96.0
 _ZN11KFileDialogC1ERK4QUrlRK7QStringP7QWidgetS7_@Base 4.96.0
 _ZN11KFileDialogC2ERK4QUrlRK7QStringP7QWidgetS7_@Base 4.96.0
 _ZN11KFileDialogD0Ev@Base 4.96.0
 _ZN11KFileDialogD1Ev@Base 4.96.0
 _ZN11KFileDialogD2Ev@Base 4.96.0
 _ZN11KFontDialog11getFontDiffER5QFontR6QFlagsIN12KFontChooser8FontDiffEERKS2_INS3_11DisplayFlagEEP7QWidgetPN2Qt10CheckStateE@Base 4.96.0
 _ZN11KFontDialog11qt_metacallEN11QMetaObject4CallEiPPv@Base 4.96.0
 _ZN11KFontDialog11qt_metacastEPKc@Base 4.96.0
 _ZN11KFontDialog12fontSelectedERK5QFont@Base 4.96.0
 _ZN11KFontDialog14getFontAndTextER5QFontR7QStringRK6QFlagsIN12KFontChooser11DisplayFlagEEP7QWidgetPN2Qt10CheckStateE@Base 4.96.0
 _ZN11KFontDialog16staticMetaObjectE@Base 4.96.0
 _ZN11KFontDialog17setSizeIsRelativeEN2Qt10CheckStateE@Base 4.96.0
 _ZN11KFontDialog7getFontER5QFontRK6QFlagsIN12KFontChooser11DisplayFlagEEP7QWidgetPN2Qt10CheckStateE@Base 4.96.0
 _ZN11KFontDialog7setFontERK5QFontb@Base 4.96.0
 _ZN11KFontDialogC1EP7QWidgetRK6QFlagsIN12KFontChooser11DisplayFlagEERK11QStringListPN2Qt10CheckStateE@Base 4.96.0
 _ZN11KFontDialogC2EP7QWidgetRK6QFlagsIN12KFontChooser11DisplayFlagEERK11QStringListPN2Qt10CheckStateE@Base 4.96.0
 _ZN11KFontDialogD0Ev@Base 4.96.0
 _ZN11KFontDialogD1Ev@Base 4.96.0
 _ZN11KFontDialogD2Ev@Base 4.96.0
 _ZN11KIconEngineD0Ev@Base 4.96.0
 _ZN11KIconEngineD1Ev@Base 4.96.0
 _ZN11KIconEngineD2Ev@Base 4.96.0
 _ZN11KIntSpinBox11qt_metacallEN11QMetaObject4CallEiPPv@Base 4.96.0
 _ZN11KIntSpinBox11qt_metacastEPKc@Base 4.96.0
 _ZN11KIntSpinBox12setEditFocusEb@Base 4.96.0
 _ZN11KIntSpinBox16staticMetaObjectE@Base 4.96.0
 _ZN11KIntSpinBox7setBaseEi@Base 4.96.0
 _ZN11KIntSpinBox9setSuffixERK16KLocalizedString@Base 4.96.0
 _ZN11KIntSpinBoxC1EP7QWidget@Base 4.96.0
 _ZN11KIntSpinBoxC1EiiiiP7QWidgeti@Base 4.96.0
 _ZN11KIntSpinBoxC2EP7QWidget@Base 4.96.0
 _ZN11KIntSpinBoxC2EiiiiP7QWidgeti@Base 4.96.0
 _ZN11KIntSpinBoxD0Ev@Base 4.96.0
 _ZN11KIntSpinBoxD1Ev@Base 4.96.0
 _ZN11KIntSpinBoxD2Ev@Base 4.96.0
 _ZN11KListWidget10leaveEventEP6QEvent@Base 4.96.0
 _ZN11KListWidget11qt_metacallEN11QMetaObject4CallEiPPv@Base 4.96.0
 _ZN11KListWidget11qt_metacastEPKc@Base 4.96.0
 _ZN11KListWidget13doubleClickedEP15QListWidgetItemRK6QPoint@Base 4.96.0
 _ZN11KListWidget13focusOutEventEP11QFocusEvent@Base 4.96.0
 _ZN11KListWidget13keyPressEventEP9QKeyEvent@Base 4.96.0
 _ZN11KListWidget15mousePressEventEP11QMouseEvent@Base 4.96.0
 _ZN11KListWidget16staticMetaObjectE@Base 4.96.0
 _ZN11KListWidget17mouseReleaseEventEP11QMouseEvent@Base 4.96.0
 _ZN11KListWidget18KListWidgetPrivate17_k_slotAutoSelectEv@Base 4.96.0
 _ZN11KListWidget18KListWidgetPrivate17_k_slotOnViewportEv@Base 4.96.0
 _ZN11KListWidget18KListWidgetPrivate18_k_slotEmitExecuteEP15QListWidgetItem@Base 4.96.0
 _ZN11KListWidget18KListWidgetPrivate18_k_slotItemEnteredEP15QListWidgetItem@Base 4.96.0
 _ZN11KListWidget18KListWidgetPrivate22_k_slotSettingsChangedEi@Base 4.96.0
 _ZN11KListWidget21mouseDoubleClickEventEP11QMouseEvent@Base 4.96.0
 _ZN11KListWidget8executedEP15QListWidgetItem@Base 4.96.0
 _ZN11KListWidget8executedEP15QListWidgetItemRK6QPoint@Base 4.96.0
 _ZN11KListWidgetC1EP7QWidget@Base 4.96.0
 _ZN11KListWidgetC2EP7QWidget@Base 4.96.0
 _ZN11KListWidgetD0Ev@Base 4.96.0
 _ZN11KListWidgetD1Ev@Base 4.96.0
 _ZN11KListWidgetD2Ev@Base 4.96.0
 _ZN11KMessageBox16queuedMessageBoxEP7QWidgetNS_10DialogTypeERK7QStringS5_6QFlagsINS_6OptionEE@Base 4.96.0
 _ZN11KMessageBox16queuedMessageBoxEP7QWidgetNS_10DialogTypeERK7QStringS5_@Base 4.96.0
 _ZN11KMessageBox19queuedDetailedErrorEP7QWidgetRK7QStringS4_S4_@Base 4.96.0
 _ZN11KMessageBox19queuedMessageBoxWIdEyNS_10DialogTypeERK7QStringS3_6QFlagsINS_6OptionEE@Base 4.96.0
 _ZN11KMessageBox19queuedMessageBoxWIdEyNS_10DialogTypeERK7QStringS3_@Base 4.96.0
 _ZN11KMessageBox22queuedDetailedErrorWIdEyRK7QStringS2_S2_@Base 4.96.0
 _ZN11KPushButton10authorizedERKN5KAuth6ActionE@Base 4.96.0
 _ZN11KPushButton10dragObjectEv@Base 4.96.0
 _ZN11KPushButton10initWidgetERK8KGuiItem@Base 4.96.0
 _ZN11KPushButton10paintEventEP11QPaintEvent@Base 4.96.0
 _ZN11KPushButton10setGuiItemEN16KStandardGuiItem12StandardItemE@Base 4.96.0
 _ZN11KPushButton10setGuiItemERK8KGuiItem@Base 4.96.0
 _ZN11KPushButton11delayedMenuEv@Base 4.96.0
 _ZN11KPushButton11qt_metacallEN11QMetaObject4CallEiPPv@Base 4.96.0
 _ZN11KPushButton11qt_metacastEPKc@Base 4.96.0
 _ZN11KPushButton13setAuthActionERK7QString@Base 4.96.0
 _ZN11KPushButton13setAuthActionERKN5KAuth6ActionE@Base 4.96.0
 _ZN11KPushButton14mouseMoveEventEP11QMouseEvent@Base 4.96.0
 _ZN11KPushButton14setDelayedMenuEP5QMenu@Base 4.96.0
 _ZN11KPushButton14setDragEnabledEb@Base 4.96.0
 _ZN11KPushButton15mousePressEventEP11QMouseEvent@Base 4.96.0
 _ZN11KPushButton16staticMetaObjectE@Base 4.96.0
 _ZN11KPushButton18KPushButtonPrivate19slotClickedInternalEv@Base 4.96.0
 _ZN11KPushButton18KPushButtonPrivate19slotPressedInternalEv@Base 4.96.0
 _ZN11KPushButton18KPushButtonPrivate22slotDelayedMenuTimeoutEv@Base 4.96.0
 _ZN11KPushButton7setIconERK5QIcon@Base 4.96.0
 _ZN11KPushButton7setTextERK7QString@Base 4.96.0
 _ZN11KPushButton9startDragEv@Base 4.96.0
 _ZN11KPushButtonC1EP7QWidget@Base 4.96.0
 _ZN11KPushButtonC1ERK5QIconRK7QStringP7QWidget@Base 4.96.0
 _ZN11KPushButtonC1ERK7QStringP7QWidget@Base 4.96.0
 _ZN11KPushButtonC1ERK8KGuiItemP7QWidget@Base 4.96.0
 _ZN11KPushButtonC2EP7QWidget@Base 4.96.0
 _ZN11KPushButtonC2ERK5QIconRK7QStringP7QWidget@Base 4.96.0
 _ZN11KPushButtonC2ERK7QStringP7QWidget@Base 4.96.0
 _ZN11KPushButtonC2ERK8KGuiItemP7QWidget@Base 4.96.0
 _ZN11KPushButtonD0Ev@Base 4.96.0
 _ZN11KPushButtonD1Ev@Base 4.96.0
 _ZN11KPushButtonD2Ev@Base 4.96.0
 _ZN11KScanDialog10finalImageERK6QImagei@Base 4.96.0
 _ZN11KScanDialog11qt_metacallEN11QMetaObject4CallEiPPv@Base 4.96.0
 _ZN11KScanDialog11qt_metacastEPKc@Base 4.96.0
 _ZN11KScanDialog13getScanDialogEP7QWidget@Base 4.96.0
 _ZN11KScanDialog14textRecognizedERK7QStringi@Base 4.96.0
 _ZN11KScanDialog16staticMetaObjectE@Base 4.96.0
 _ZN11KScanDialog5setupEv@Base 4.96.0
 _ZN11KScanDialog6nextIdEv@Base 4.96.0
 _ZN11KScanDialog7previewERK6QImagei@Base 4.96.0
 _ZN11KScanDialogC1EiiP7QWidget@Base 4.96.0
 _ZN11KScanDialogC2EiiP7QWidget@Base 4.96.0
 _ZN11KScanDialogD0Ev@Base 4.96.0
 _ZN11KScanDialogD1Ev@Base 4.96.0
 _ZN11KScanDialogD2Ev@Base 4.96.0
 _ZN12KApplication10commitDataER15QSessionManager@Base 4.96.0
 _ZN12KApplication11qt_metacallEN11QMetaObject4CallEiPPv@Base 4.96.0
 _ZN12KApplication11qt_metacastEPKc@Base 4.96.0
 _ZN12KApplication12kApplicationEv@Base 4.96.0
 _ZN12KApplication12saveYourselfEv@Base 4.96.0
 _ZN12KApplication12setStartupIdERK10QByteArray@Base 4.96.0
 _ZN12KApplication12setTopWidgetEP7QWidget@Base 4.96.0
 _ZN12KApplication12tempSaveNameERK7QString@Base 4.96.0
 _ZN12KApplication13sessionConfigEv@Base 4.96.0
 _ZN12KApplication14clearStartupIdEv@Base 4.96.0
 _ZN12KApplication16checkRecoverFileERK7QStringRb@Base 4.96.0
 _ZN12KApplication16staticMetaObjectE@Base 4.96.0
 _ZN12KApplication19updateUserTimestampEi@Base 4.96.0
 _ZN12KApplication20removeX11EventFilterEPK7QWidget@Base 4.96.0
 _ZN12KApplication20reparseConfigurationEv@Base 4.96.0
 _ZN12KApplication21installX11EventFilterEP7QWidget@Base 4.96.0
 _ZN12KApplication23enableSessionManagementEv@Base 4.96.0
 _ZN12KApplication24disableSessionManagementEv@Base 4.96.0
 _ZN12KApplication25updateRemoteUserTimestampERK7QStringi@Base 4.96.0
 _ZN12KApplication4KAppE@Base 4.96.0
 _ZN12KApplication4quitEv@Base 4.96.0
 _ZN12KApplication9saveStateER15QSessionManager@Base 4.96.0
 _ZN12KApplicationC1Eb@Base 4.96.0
 _ZN12KApplicationC1EbRK14KComponentData@Base 4.96.0
 _ZN12KApplicationC2Eb@Base 4.96.0
 _ZN12KApplicationC2EbRK14KComponentData@Base 4.96.0
 _ZN12KApplicationD0Ev@Base 4.96.0
 _ZN12KApplicationD1Ev@Base 4.96.0
 _ZN12KApplicationD2Ev@Base 4.96.0
 _ZN12KArrowButton10paintEventEP11QPaintEvent@Base 4.96.0
 _ZN12KArrowButton11qt_metacallEN11QMetaObject4CallEiPPv@Base 4.96.0
 _ZN12KArrowButton11qt_metacastEPKc@Base 4.96.0
 _ZN12KArrowButton12setArrowTypeEN2Qt9ArrowTypeE@Base 4.96.0
 _ZN12KArrowButton16staticMetaObjectE@Base 4.96.0
 _ZN12KArrowButtonC1EP7QWidgetN2Qt9ArrowTypeE@Base 4.96.0
 _ZN12KArrowButtonC2EP7QWidgetN2Qt9ArrowTypeE@Base 4.96.0
 _ZN12KArrowButtonD0Ev@Base 4.96.0
 _ZN12KArrowButtonD1Ev@Base 4.96.0
 _ZN12KArrowButtonD2Ev@Base 4.96.0
 _ZN12KButtonGroup10childEventEP11QChildEvent@Base 4.96.0
 _ZN12KButtonGroup11qt_metacallEN11QMetaObject4CallEiPPv@Base 4.96.0
 _ZN12KButtonGroup11qt_metacastEPKc@Base 4.96.0
 _ZN12KButtonGroup11setSelectedEi@Base 4.96.0
 _ZN12KButtonGroup16staticMetaObjectE@Base 4.96.0
 _ZN12KButtonGroup7Private11slotClickedEi@Base 4.96.0
 _ZN12KButtonGroup7changedEi@Base 4.96.0
 _ZN12KButtonGroup7clickedEi@Base 4.96.0
 _ZN12KButtonGroup7pressedEi@Base 4.96.0
 _ZN12KButtonGroup8releasedEi@Base 4.96.0
 _ZN12KButtonGroupC1EP7QWidget@Base 4.96.0
 _ZN12KButtonGroupC2EP7QWidget@Base 4.96.0
 _ZN12KButtonGroupD0Ev@Base 4.96.0
 _ZN12KButtonGroupD1Ev@Base 4.96.0
 _ZN12KButtonGroupD2Ev@Base 4.96.0
 _ZN12KCmdLineArgs10initIgnoreEiPPcRK10QByteArray@Base 4.96.0
 _ZN12KCmdLineArgs10parsedArgsERK10QByteArray@Base 4.96.0
 _ZN12KCmdLineArgs10usageErrorERK7QString@Base 4.96.0
 _ZN12KCmdLineArgs11enable_i18nEv@Base 4.96.0
 _ZN12KCmdLineArgs11loadAppArgsER11QDataStream@Base 4.96.0
 _ZN12KCmdLineArgs11saveAppArgsER11QDataStream@Base 4.96.0
 _ZN12KCmdLineArgs12allArgumentsEv@Base 4.96.0
 _ZN12KCmdLineArgs13isTempFileSetEv@Base 4.96.0
 _ZN12KCmdLineArgs17addCmdLineOptionsERK15KCmdLineOptionsRK16KLocalizedStringRK10QByteArrayS8_@Base 4.96.0
 _ZN12KCmdLineArgs17addTempFileOptionEv@Base 4.96.0
 _ZN12KCmdLineArgs20addStdCmdLineOptionsE6QFlagsINS_13StdCmdLineArgEE@Base 4.96.0
 _ZN12KCmdLineArgs3cwdEv@Base 4.96.0
 _ZN12KCmdLineArgs4initEPK11K4AboutData@Base 4.96.0
 _ZN12KCmdLineArgs4initEiPPcPK11K4AboutData6QFlagsINS_13StdCmdLineArgEE@Base 4.96.0
 _ZN12KCmdLineArgs4initEiPPcRK10QByteArrayS4_RK16KLocalizedStringS4_S7_6QFlagsINS_13StdCmdLineArgEE@Base 4.96.0
 _ZN12KCmdLineArgs5clearEv@Base 4.96.0
 _ZN12KCmdLineArgs5resetEv@Base 4.96.0
 _ZN12KCmdLineArgs5usageERK10QByteArray@Base 4.96.0
 _ZN12KCmdLineArgs6qtArgcEv@Base 4.96.0
 _ZN12KCmdLineArgs6qtArgvEv@Base 4.96.0
 _ZN12KCmdLineArgs6setCwdERK10QByteArray@Base 4.96.0
 _ZN12KCmdLineArgs7appNameEv@Base 4.96.0
 _ZN12KCmdLineArgs7makeURLERK10QByteArray@Base 4.96.0
 _ZN12KCmdLineArgs9aboutDataEv@Base 4.96.0
 _ZN12KCmdLineArgsC1ERK15KCmdLineOptionsRK16KLocalizedStringRK10QByteArray@Base 4.96.0
 _ZN12KCmdLineArgsC2ERK15KCmdLineOptionsRK16KLocalizedStringRK10QByteArray@Base 4.96.0
 _ZN12KCmdLineArgsD1Ev@Base 4.96.0
 _ZN12KCmdLineArgsD2Ev@Base 4.96.0
 _ZN12KColorDialog11eventFilterEP7QObjectP6QEvent@Base 4.96.0
 _ZN12KColorDialog11qt_metacallEN11QMetaObject4CallEiPPv@Base 4.96.0
 _ZN12KColorDialog11qt_metacastEPKc@Base 4.96.0
 _ZN12KColorDialog12readSettingsEv@Base 4.96.0
 _ZN12KColorDialog13colorSelectedERK6QColor@Base 4.96.0
 _ZN12KColorDialog13keyPressEventEP9QKeyEvent@Base 4.96.0
 _ZN12KColorDialog14mouseMoveEventEP11QMouseEvent@Base 4.96.0
 _ZN12KColorDialog15setDefaultColorERK6QColor@Base 4.96.0
 _ZN12KColorDialog16staticMetaObjectE@Base 4.96.0
 _ZN12KColorDialog17mouseReleaseEventEP11QMouseEvent@Base 4.96.0
 _ZN12KColorDialog19KColorDialogPrivate10setHsvEditERK6QColor@Base 4.96.0
 _ZN12KColorDialog19KColorDialogPrivate10setRgbEditERK6QColor@Base 4.96.0
 _ZN12KColorDialog19KColorDialogPrivate11chooserModeEv@Base 4.96.0
 _ZN12KColorDialog19KColorDialogPrivate11setHtmlEditERK6QColor@Base 4.96.0
 _ZN12KColorDialog19KColorDialogPrivate12slotAChangedEi@Base 4.96.0
 _ZN12KColorDialog19KColorDialogPrivate12slotVChangedEi@Base 4.96.0
 _ZN12KColorDialog19KColorDialogPrivate13slotHSChangedEii@Base 4.96.0
 _ZN12KColorDialog19KColorDialogPrivate14setChooserModeE17KColorChooserMode@Base 4.96.0
 _ZN12KColorDialog19KColorDialogPrivate14slotHSVChangedEv@Base 4.96.0
 _ZN12KColorDialog19KColorDialogPrivate14slotRGBChangedEv@Base 4.96.0
 _ZN12KColorDialog19KColorDialogPrivate15slotColorPickerEv@Base 4.96.0
 _ZN12KColorDialog19KColorDialogPrivate15slotHtmlChangedEv@Base 4.96.0
 _ZN12KColorDialog19KColorDialogPrivate15slotModeChangedEi@Base 4.96.0
 _ZN12KColorDialog19KColorDialogPrivate16slotAlphaChangedEv@Base 4.96.0
 _ZN12KColorDialog19KColorDialogPrivate17slotColorSelectedERK6QColor@Base 4.96.0
 _ZN12KColorDialog19KColorDialogPrivate17slotColorSelectedERK6QColorRK7QString@Base 4.96.0
 _ZN12KColorDialog19KColorDialogPrivate17slotWriteSettingsEv@Base 4.96.0
 _ZN12KColorDialog19KColorDialogPrivate21slotAddToCustomColorsEv@Base 4.96.0
 _ZN12KColorDialog19KColorDialogPrivate22slotColorDoubleClickedERK6QColorRK7QString@Base 4.96.0
 _ZN12KColorDialog19KColorDialogPrivate23slotDefaultColorClickedEv@Base 4.96.0
 _ZN12KColorDialog19KColorDialogPrivate9_setColorERK6QColorRK7QString@Base 4.96.0
 _ZN12KColorDialog19KColorDialogPrivate9showColorERK6QColorRK7QString@Base 4.96.0
 _ZN12KColorDialog22setAlphaChannelEnabledEb@Base 4.96.0
 _ZN12KColorDialog8getColorER6QColorP7QWidget@Base 4.96.0
 _ZN12KColorDialog8getColorER6QColorRKS0_P7QWidget@Base 4.96.0
 _ZN12KColorDialog8setColorERK6QColor@Base 4.96.0
 _ZN12KColorDialog9grabColorERK6QPoint@Base 4.96.0
 _ZN12KColorDialogC1EP7QWidgetb@Base 4.96.0
 _ZN12KColorDialogC2EP7QWidgetb@Base 4.96.0
 _ZN12KColorDialogD0Ev@Base 4.96.0
 _ZN12KColorDialogD1Ev@Base 4.96.0
 _ZN12KColorDialogD2Ev@Base 4.96.0
 _ZN12KEditListBox10insertItemERK7QStringi@Base 4.96.0
 _ZN12KEditListBox10moveItemUpEv@Base 4.96.0
 _ZN12KEditListBox10removeItemEv@Base 4.96.0
 _ZN12KEditListBox10setButtonsE6QFlagsINS_6ButtonEE@Base 4.96.0
 _ZN12KEditListBox11eventFilterEP7QObjectP6QEvent@Base 4.96.0
 _ZN12KEditListBox11qt_metacallEN11QMetaObject4CallEiPPv@Base 4.96.0
 _ZN12KEditListBox11qt_metacastEPKc@Base 4.96.0
 _ZN12KEditListBox12CustomEditor11setLineEditEP9KLineEdit@Base 4.96.0
 _ZN12KEditListBox12CustomEditor23setRepresentationWidgetEP7QWidget@Base 4.96.0
 _ZN12KEditListBox12CustomEditorC1EP7QWidgetP9KLineEdit@Base 4.96.0
 _ZN12KEditListBox12CustomEditorC1EP9KComboBox@Base 4.96.0
 _ZN12KEditListBox12CustomEditorC1Ev@Base 4.96.0
 _ZN12KEditListBox12CustomEditorC2EP7QWidgetP9KLineEdit@Base 4.96.0
 _ZN12KEditListBox12CustomEditorC2EP9KComboBox@Base 4.96.0
 _ZN12KEditListBox12CustomEditorC2Ev@Base 4.96.0
 _ZN12KEditListBox12CustomEditorD0Ev@Base 4.96.0
 _ZN12KEditListBox12CustomEditorD1Ev@Base 4.96.0
 _ZN12KEditListBox12CustomEditorD2Ev@Base 4.96.0
 _ZN12KEditListBox12moveItemDownEv@Base 4.96.0
 _ZN12KEditListBox14typedSomethingERK7QString@Base 4.96.0
 _ZN12KEditListBox15checkAtEnteringEv@Base 4.96.0
 _ZN12KEditListBox15setCustomEditorERKNS_12CustomEditorE@Base 4.96.0
 _ZN12KEditListBox16insertStringListERK11QStringListi@Base 4.96.0
 _ZN12KEditListBox16staticMetaObjectE@Base 4.96.0
 _ZN12KEditListBox17enableMoveButtonsERK11QModelIndexS2_@Base 4.96.0
 _ZN12KEditListBox18setCheckAtEnteringEb@Base 4.96.0
 _ZN12KEditListBox20slotSelectionChangedERK14QItemSelectionS2_@Base 4.96.0
 _ZN12KEditListBox5addedERK7QString@Base 4.96.0
 _ZN12KEditListBox5clearEv@Base 4.96.0
 _ZN12KEditListBox7addItemEv@Base 4.96.0
 _ZN12KEditListBox7changedEv@Base 4.96.0
 _ZN12KEditListBox7removedERK7QString@Base 4.96.0
 _ZN12KEditListBox8setItemsERK11QStringList@Base 4.96.0
 _ZN12KEditListBoxC1EP7QWidget@Base 4.96.0
 _ZN12KEditListBoxC1EP7QWidgetPKcb6QFlagsINS_6ButtonEE@Base 4.96.0
 _ZN12KEditListBoxC1ERK7QStringP7QWidget@Base 4.96.0
 _ZN12KEditListBoxC1ERK7QStringP7QWidgetPKcb6QFlagsINS_6ButtonEE@Base 4.96.0
 _ZN12KEditListBoxC1ERK7QStringRKNS_12CustomEditorEP7QWidgetPKcb6QFlagsINS_6ButtonEE@Base 4.96.0
 _ZN12KEditListBoxC2EP7QWidget@Base 4.96.0
 _ZN12KEditListBoxC2EP7QWidgetPKcb6QFlagsINS_6ButtonEE@Base 4.96.0
 _ZN12KEditListBoxC2ERK7QStringP7QWidget@Base 4.96.0
 _ZN12KEditListBoxC2ERK7QStringP7QWidgetPKcb6QFlagsINS_6ButtonEE@Base 4.96.0
 _ZN12KEditListBoxC2ERK7QStringRKNS_12CustomEditorEP7QWidgetPKcb6QFlagsINS_6ButtonEE@Base 4.96.0
 _ZN12KEditListBoxD0Ev@Base 4.96.0
 _ZN12KEditListBoxD1Ev@Base 4.96.0
 _ZN12KEditListBoxD2Ev@Base 4.96.0
 _ZN12KInputDialog10getIntegerERK7QStringS2_iiiiPbP7QWidget@Base 4.96.0
 _ZN12KInputDialog10getIntegerERK7QStringS2_iiiiiPbP7QWidget@Base 4.96.0
 _ZN12KInputDialog11getItemListERK7QStringS2_RK11QStringListS5_bPbP7QWidget@Base 4.96.0
 _ZN12KInputDialog16getMultiLineTextERK7QStringS2_S2_PbP7QWidget@Base 4.96.0
 _ZN12KInputDialog7getItemERK7QStringS2_RK11QStringListibPbP7QWidget@Base 4.96.0
 _ZN12KInputDialog7getTextERK7QStringS2_S2_PbP7QWidgetP10QValidatorS2_S2_RK11QStringList@Base 4.96.0
 _ZN12KInputDialog9getDoubleERK7QStringS2_ddddiPbP7QWidget@Base 4.96.0
 _ZN12KInputDialog9getDoubleERK7QStringS2_dddiPbP7QWidget@Base 4.96.0
 _ZN12KIntNumInput10initWidgetEii@Base 4.96.0
 _ZN12KIntNumInput10setMaximumEi@Base 4.96.0
 _ZN12KIntNumInput10setMinimumEi@Base 4.96.0
 _ZN12KIntNumInput11qt_metacallEN11QMetaObject4CallEiPPv@Base 4.96.0
 _ZN12KIntNumInput11qt_metacastEPKc@Base 4.96.0
 _ZN12KIntNumInput11resizeEventEP12QResizeEvent@Base 4.96.0
 _ZN12KIntNumInput12setEditFocusEb@Base 4.96.0
 _ZN12KIntNumInput12valueChangedEi@Base 4.96.0
 _ZN12KIntNumInput13setSingleStepEi@Base 4.96.0
 _ZN12KIntNumInput16setRelativeValueEd@Base 4.96.0
 _ZN12KIntNumInput16setSliderEnabledEb@Base 4.96.0
 _ZN12KIntNumInput16spinValueChangedEi@Base 4.96.0
 _ZN12KIntNumInput16staticMetaObjectE@Base 4.96.0
 _ZN12KIntNumInput17setReferencePointEi@Base 4.96.0
 _ZN12KIntNumInput19setSpecialValueTextERK7QString@Base 4.96.0
 _ZN12KIntNumInput20relativeValueChangedEd@Base 4.96.0
 _ZN12KIntNumInput28slotEmitRelativeValueChangedEi@Base 4.96.0
 _ZN12KIntNumInput8doLayoutEv@Base 4.96.0
 _ZN12KIntNumInput8setLabelERK7QString6QFlagsIN2Qt13AlignmentFlagEE@Base 4.96.0
 _ZN12KIntNumInput8setRangeEiii@Base 4.96.0
 _ZN12KIntNumInput8setRangeEiiib@Base 4.96.0
 _ZN12KIntNumInput8setValueEi@Base 4.96.0
 _ZN12KIntNumInput9setPrefixERK7QString@Base 4.96.0
 _ZN12KIntNumInput9setSuffixERK16KLocalizedString@Base 4.96.0
 _ZN12KIntNumInput9setSuffixERK7QString@Base 4.96.0
 _ZN12KIntNumInputC1EP7QWidget@Base 4.96.0
 _ZN12KIntNumInputC1EP9KNumInputiP7QWidgeti@Base 4.96.0
 _ZN12KIntNumInputC1EiP7QWidgeti@Base 4.96.0
 _ZN12KIntNumInputC2EP7QWidget@Base 4.96.0
 _ZN12KIntNumInputC2EP9KNumInputiP7QWidgeti@Base 4.96.0
 _ZN12KIntNumInputC2EiP7QWidgeti@Base 4.96.0
 _ZN12KIntNumInputD0Ev@Base 4.96.0
 _ZN12KIntNumInputD1Ev@Base 4.96.0
 _ZN12KIntNumInputD2Ev@Base 4.96.0
 _ZN12KPixmapCache11deleteCacheERK7QString@Base 4.96.0
 _ZN12KPixmapCache11loadFromSvgERK7QStringRK5QSize@Base 4.96.0
 _ZN12KPixmapCache12loadFromFileERK7QString@Base 4.96.0
 _ZN12KPixmapCache12setTimestampERK9QDateTime@Base 4.96.0
 _ZN12KPixmapCache13removeEntriesEi@Base 4.96.0
 _ZN12KPixmapCache13setCacheLimitEi@Base 4.96.0
 _ZN12KPixmapCache14loadCustomDataER11QDataStream@Base 4.96.0
 _ZN12KPixmapCache15writeCustomDataER11QDataStream@Base 4.96.0
 _ZN12KPixmapCache18recreateCacheFilesEv@Base 4.96.0
 _ZN12KPixmapCache18setUseQPixmapCacheEb@Base 4.96.0
 _ZN12KPixmapCache21loadCustomIndexHeaderER11QDataStream@Base 4.96.0
 _ZN12KPixmapCache22setRemoveEntryStrategyENS_14RemoveStrategyE@Base 4.96.0
 _ZN12KPixmapCache22writeCustomIndexHeaderER11QDataStream@Base 4.96.0
 _ZN12KPixmapCache4findERK7QStringR7QPixmap@Base 4.96.0
 _ZN12KPixmapCache6insertERK7QStringRK7QPixmap@Base 4.96.0
 _ZN12KPixmapCache7Private10dataDeviceEv@Base 4.96.0
 _ZN12KPixmapCache7Private10findOffsetERK7QString@Base 4.96.0
 _ZN12KPixmapCache7Private10unmmapFileEPNS0_8MmapInfoE@Base 4.96.0
 _ZN12KPixmapCache7Private10writeIndexERK7QStringi@Base 4.96.0
 _ZN12KPixmapCache7Private11indexDeviceEv@Base 4.96.0
 _ZN12KPixmapCache7Private11unmmapFilesEv@Base 4.96.0
 _ZN12KPixmapCache7Private13removeEntriesEi@Base 4.96.0
 _ZN12KPixmapCache7Private14loadDataHeaderEv@Base 4.96.0
 _ZN12KPixmapCache7Private15binarySearchKeyER11QDataStreamRK7QStringi@Base 4.96.0
 _ZN12KPixmapCache7Private15loadIndexHeaderEv@Base 4.96.0
 _ZN12KPixmapCache7Private15writeIndexEntryER11QDataStreamRK7QStringi@Base 4.96.0
 _ZN12KPixmapCache7Private16checkFileVersionERK7QString@Base 4.96.0
 _ZN12KPixmapCache7Private19invalidateMmapFilesEv@Base 4.96.0
 _ZN12KPixmapCache7Private4initEv@Base 4.96.0
 _ZN12KPixmapCache7Private7mCachesE@Base 4.96.0
 _ZN12KPixmapCache7Private8indexKeyERK7QString@Base 4.96.0
 _ZN12KPixmapCache7Private8loadDataEiR7QPixmap@Base 4.96.0
 _ZN12KPixmapCache7Private8mmapFileERK7QStringPNS0_8MmapInfoEi@Base 4.96.0
 _ZN12KPixmapCache7Private9kpcNumberE@Base 4.96.0
 _ZN12KPixmapCache7Private9mmapFilesEv@Base 4.96.0
 _ZN12KPixmapCache7Private9writeDataERK7QStringRK7QPixmap@Base 4.96.0
 _ZN12KPixmapCache7PrivateC1EPS_@Base 4.96.0
 _ZN12KPixmapCache7PrivateC2EPS_@Base 4.96.0
 _ZN12KPixmapCache7PrivateD1Ev@Base 4.96.0
 _ZN12KPixmapCache7PrivateD2Ev@Base 4.96.0
 _ZN12KPixmapCache7discardEv@Base 4.96.0
 _ZN12KPixmapCache8setValidEb@Base 4.96.0
 _ZN12KPixmapCacheC1ERK7QString@Base 4.96.0
 _ZN12KPixmapCacheC2ERK7QString@Base 4.96.0
 _ZN12KPixmapCacheD0Ev@Base 4.96.0
 _ZN12KPixmapCacheD1Ev@Base 4.96.0
 _ZN12KPixmapCacheD2Ev@Base 4.96.0
 _ZN12KTextBrowser10wheelEventEP11QWheelEvent@Base 4.96.0
 _ZN12KTextBrowser11qt_metacallEN11QMetaObject4CallEiPPv@Base 4.96.0
 _ZN12KTextBrowser11qt_metacastEPKc@Base 4.96.0
 _ZN12KTextBrowser13keyPressEventEP9QKeyEvent@Base 4.96.0
 _ZN12KTextBrowser14setNotifyClickEb@Base 4.96.0
 _ZN12KTextBrowser16contextMenuEventEP17QContextMenuEvent@Base 4.96.0
 _ZN12KTextBrowser16staticMetaObjectE@Base 4.96.0
 _ZN12KTextBrowser8urlClickERK7QString@Base 4.96.0
 _ZN12KTextBrowser9mailClickERK7QStringS2_@Base 4.96.0
 _ZN12KTextBrowser9setSourceERK4QUrl@Base 4.96.0
 _ZN12KTextBrowserC1EP7QWidgetb@Base 4.96.0
 _ZN12KTextBrowserC2EP7QWidgetb@Base 4.96.0
 _ZN12KTextBrowserD0Ev@Base 4.96.0
 _ZN12KTextBrowserD1Ev@Base 4.96.0
 _ZN12KTextBrowserD2Ev@Base 4.96.0
 _ZN13K4AboutPersonC1ERK16KLocalizedStringS2_RK10QByteArrayS5_@Base 4.96.0
 _ZN13K4AboutPersonC1ERK16KLocalizedStringS2_RK10QByteArrayS5_S5_@Base 4.96.0
 _ZN13K4AboutPersonC1ERK7QStringS2_@Base 4.96.0
 _ZN13K4AboutPersonC1ERKS_@Base 4.96.0
 _ZN13K4AboutPersonC2ERK16KLocalizedStringS2_RK10QByteArrayS5_@Base 4.96.0
 _ZN13K4AboutPersonC2ERK16KLocalizedStringS2_RK10QByteArrayS5_S5_@Base 4.96.0
 _ZN13K4AboutPersonC2ERK7QStringS2_@Base 4.96.0
 _ZN13K4AboutPersonC2ERKS_@Base 4.96.0
 _ZN13K4AboutPersonD1Ev@Base 4.96.0
 _ZN13K4AboutPersonD2Ev@Base 4.96.0
 _ZN13K4AboutPersonaSERKS_@Base 4.96.0
 _ZN13KCurrencyCode18currencyCodeToNameERK7QStringS2_@Base 4.99.0
 _ZN13KCurrencyCode20allCurrencyCodesListE6QFlagsINS_14CurrencyStatusEE@Base 4.99.0
 _ZN13KCurrencyCode7isValidERK7QString6QFlagsINS_14CurrencyStatusEE@Base 4.99.0
 _ZN13KCurrencyCodeC1ERK7QStringS2_@Base 4.99.0
 _ZN13KCurrencyCodeC1ERK9QFileInfoRK7QString@Base 4.99.0
 _ZN13KCurrencyCodeC1ERKS_@Base 4.99.0
 _ZN13KCurrencyCodeC2ERK7QStringS2_@Base 4.99.0
 _ZN13KCurrencyCodeC2ERK9QFileInfoRK7QString@Base 4.99.0
 _ZN13KCurrencyCodeC2ERKS_@Base 4.99.0
 _ZN13KCurrencyCodeD0Ev@Base 4.99.0
 _ZN13KCurrencyCodeD1Ev@Base 4.99.0
 _ZN13KCurrencyCodeD2Ev@Base 4.99.0
 _ZN13KCurrencyCodeaSERKS_@Base 4.99.0
 _ZN13KDataToolInfo5queryERK7QStringS2_S2_@Base 4.96.0
 _ZN13KDataToolInfoC1ERK28QExplicitlySharedDataPointerI8KServiceERK7QString@Base 4.96.0
 _ZN13KDataToolInfoC1ERKS_@Base 4.96.0
 _ZN13KDataToolInfoC1Ev@Base 4.96.0
 _ZN13KDataToolInfoC2ERK28QExplicitlySharedDataPointerI8KServiceERK7QString@Base 4.96.0
 _ZN13KDataToolInfoC2ERKS_@Base 4.96.0
 _ZN13KDataToolInfoC2Ev@Base 4.96.0
 _ZN13KDataToolInfoD1Ev@Base 4.96.0
 _ZN13KDataToolInfoD2Ev@Base 4.96.0
 _ZN13KDataToolInfoaSERKS_@Base 4.96.0
 _ZN13KFileMetaInfo12applyChangesEv@Base 4.96.0
 _ZN13KFileMetaInfo4itemERK7QString@Base 4.96.0
 _ZN13KFileMetaInfoC1ERK4QUrl@Base 4.96.0
 _ZN13KFileMetaInfoC1ERK7QStringS2_6QFlagsINS_4WhatEE@Base 4.96.0
 _ZN13KFileMetaInfoC1ERKS_@Base 4.96.0
 _ZN13KFileMetaInfoC1Ev@Base 4.96.0
 _ZN13KFileMetaInfoC2ERK4QUrl@Base 4.96.0
 _ZN13KFileMetaInfoC2ERK7QStringS2_6QFlagsINS_4WhatEE@Base 4.96.0
 _ZN13KFileMetaInfoC2ERKS_@Base 4.96.0
 _ZN13KFileMetaInfoC2Ev@Base 4.96.0
 _ZN13KFileMetaInfoD1Ev@Base 4.96.0
 _ZN13KFileMetaInfoD2Ev@Base 4.96.0
 _ZN13KFileMetaInfoaSERKS_@Base 4.96.0
 _ZN13KFileTreeView10setRootUrlERK4QUrl@Base 4.96.0
 _ZN13KFileTreeView11qt_metacallEN11QMetaObject4CallEiPPv@Base 4.96.0
 _ZN13KFileTreeView11qt_metacastEPKc@Base 4.96.0
 _ZN13KFileTreeView13setCurrentUrlERK4QUrl@Base 4.96.0
 _ZN13KFileTreeView14currentChangedERK4QUrl@Base 4.96.0
 _ZN13KFileTreeView14setDirOnlyModeEb@Base 4.96.0
 _ZN13KFileTreeView16contextMenuEventEP17QContextMenuEvent@Base 4.96.0
 _ZN13KFileTreeView16staticMetaObjectE@Base 4.96.0
 _ZN13KFileTreeView18setShowHiddenFilesEb@Base 4.96.0
 _ZN13KFileTreeView7Private11_k_expandedERK11QModelIndex@Base 4.96.0
 _ZN13KFileTreeView7Private12_k_activatedERK11QModelIndex@Base 4.96.0
 _ZN13KFileTreeView7Private17_k_currentChangedERK11QModelIndexS3_@Base 4.96.0
 _ZN13KFileTreeView9activatedERK4QUrl@Base 4.96.0
 _ZN13KFileTreeViewC1EP7QWidget@Base 4.96.0
 _ZN13KFileTreeViewC2EP7QWidget@Base 4.96.0
 _ZN13KFileTreeViewD0Ev@Base 4.96.0
 _ZN13KFileTreeViewD1Ev@Base 4.96.0
 _ZN13KFileTreeViewD2Ev@Base 4.96.0
 _ZN13KFontComboBox11qt_metacallEN11QMetaObject4CallEiPPv@Base 4.96.0
 _ZN13KFontComboBox11qt_metacastEPKc@Base 4.96.0
 _ZN13KFontComboBox11setFontListERK11QStringList@Base 4.96.0
 _ZN13KFontComboBox12setOnlyFixedEb@Base 4.96.0
 _ZN13KFontComboBox14setCurrentFontERK5QFont@Base 4.96.0
 _ZN13KFontComboBox16staticMetaObjectE@Base 4.96.0
 _ZN13KFontComboBox18currentFontChangedERK5QFont@Base 4.96.0
 _ZN13KFontComboBox5eventEP6QEvent@Base 4.96.0
 _ZN13KFontComboBoxC1EP7QWidget@Base 4.96.0
 _ZN13KFontComboBoxC2EP7QWidget@Base 4.96.0
 _ZN13KFontComboBoxD0Ev@Base 4.96.0
 _ZN13KFontComboBoxD1Ev@Base 4.96.0
 _ZN13KFontComboBoxD2Ev@Base 4.96.0
 _ZN13KIntValidator7setBaseEi@Base 4.96.0
 _ZN13KIntValidator8setRangeEii@Base 4.96.0
 _ZN13KIntValidatorC1EP7QWidgeti@Base 4.96.0
 _ZN13KIntValidatorC1EiiP7QWidgeti@Base 4.96.0
 _ZN13KIntValidatorC2EP7QWidgeti@Base 4.96.0
 _ZN13KIntValidatorC2EiiP7QWidgeti@Base 4.96.0
 _ZN13KIntValidatorD0Ev@Base 4.96.0
 _ZN13KIntValidatorD1Ev@Base 4.96.0
 _ZN13KIntValidatorD2Ev@Base 4.96.0
 _ZN13KPrintPreview11isAvailableEv@Base 4.97.0
 _ZN13KPrintPreview11qt_metacallEN11QMetaObject4CallEiPPv@Base 4.97.0
 _ZN13KPrintPreview11qt_metacastEPKc@Base 4.97.0
 _ZN13KPrintPreview16staticMetaObjectE@Base 4.97.0
 _ZN13KPrintPreview9showEventEP10QShowEvent@Base 4.97.0
 _ZN13KPrintPreviewC1EP8QPrinterP7QWidget@Base 4.97.0
 _ZN13KPrintPreviewC2EP8QPrinterP7QWidget@Base 4.97.0
 _ZN13KPrintPreviewD0Ev@Base 4.97.0
 _ZN13KPrintPreviewD1Ev@Base 4.97.0
 _ZN13KPrintPreviewD2Ev@Base 4.97.0
 _ZN13KSSLCertChain12setCertChainERK11QStringList@Base 4.96.0
 _ZN13KSSLCertChain5depthEv@Base 4.96.0
 _ZN13KSSLCertChain7isValidEv@Base 4.96.0
 _ZN13KSSLCertChain8rawChainEv@Base 4.96.0
 _ZN13KSSLCertChain8setChainEPv@Base 4.96.0
 _ZN13KSSLCertChain8setChainERK5QListIP15KSSLCertificateE@Base 4.96.0
 _ZN13KSSLCertChain9replicateEv@Base 4.96.0
 _ZN13KSSLCertChainC1Ev@Base 4.96.0
 _ZN13KSSLCertChainC2Ev@Base 4.96.0
 _ZN13KSSLCertChainD1Ev@Base 4.96.0
 _ZN13KSSLCertChainD2Ev@Base 4.96.0
 _ZN13KSplashScreen11qt_metacallEN11QMetaObject4CallEiPPv@Base 4.96.0
 _ZN13KSplashScreen11qt_metacastEPKc@Base 4.96.0
 _ZN13KSplashScreen16staticMetaObjectE@Base 4.96.0
 _ZN13KSplashScreenC1ERK7QPixmap6QFlagsIN2Qt10WindowTypeEE@Base 4.96.0
 _ZN13KSplashScreenC2ERK7QPixmap6QFlagsIN2Qt10WindowTypeEE@Base 4.96.0
 _ZN13KSplashScreenD0Ev@Base 4.96.0
 _ZN13KSplashScreenD1Ev@Base 4.96.0
 _ZN13KSplashScreenD2Ev@Base 4.96.0
 _ZN13KStandardDirs10findAllExeER11QStringListRK7QStringS4_6QFlagsINS_12SearchOptionEE@Base 4.96.0
 _ZN13KStandardDirs11checkAccessERK7QStringi@Base 4.96.0
 _ZN13KStandardDirs11installPathEPKc@Base 4.96.0
 _ZN13KStandardDirs11kde_defaultEPKc@Base 4.96.0
 _ZN13KStandardDirs11locateLocalEPKcRK7QString@Base 4.96.0
 _ZN13KStandardDirs11locateLocalEPKcRK7QStringb@Base 4.96.0
 _ZN13KStandardDirs11systemPathsERK7QString@Base 4.96.0
 _ZN13KStandardDirs12realFilePathERK7QString@Base 4.96.0
 _ZN13KStandardDirs13addCustomizedEP7KConfig@Base 4.96.0
 _ZN13KStandardDirs14addKDEDefaultsEv@Base 4.96.0
 _ZN13KStandardDirs14addResourceDirEPKcRK7QStringb@Base 4.96.0
 _ZN13KStandardDirs15addResourceTypeEPKcRK7QStringb@Base 4.96.0
 _ZN13KStandardDirs15addResourceTypeEPKcS1_RK7QStringb@Base 4.96.0
 _ZN13KStandardDirs16addXdgDataPrefixERK7QString@Base 4.96.0
 _ZN13KStandardDirs16addXdgDataPrefixERK7QStringb@Base 4.96.0
 _ZN13KStandardDirs16kfsstnd_prefixesEv@Base 4.96.0
 _ZN13KStandardDirs18addXdgConfigPrefixERK7QString@Base 4.96.0
 _ZN13KStandardDirs18addXdgConfigPrefixERK7QStringb@Base 4.96.0
 _ZN13KStandardDirs20KStandardDirsPrivate12resourceDirsEPKcRK7QString@Base 4.96.0
 _ZN13KStandardDirs24addResourcesFrom_krcdirsEv@Base 4.96.0
 _ZN13KStandardDirs6existsERK7QString@Base 4.96.0
 _ZN13KStandardDirs6locateEPKcRK7QString@Base 4.96.0
 _ZN13KStandardDirs7findExeERK7QStringS2_6QFlagsINS_12SearchOptionEE@Base 4.96.0
 _ZN13KStandardDirs7makeDirERK7QStringi@Base 4.96.0
 _ZN13KStandardDirs8realPathERK7QString@Base 4.96.0
 _ZN13KStandardDirs9addPrefixERK7QString@Base 4.96.0
 _ZN13KStandardDirs9addPrefixERK7QStringb@Base 4.96.0
 _ZN13KStandardDirsC1Ev@Base 4.96.0
 _ZN13KStandardDirsC2Ev@Base 4.96.0
 _ZN13KStandardDirsD0Ev@Base 4.96.0
 _ZN13KStandardDirsD1Ev@Base 4.96.0
 _ZN13KStandardDirsD2Ev@Base 4.96.0
 _ZN13KTimeZoneData14setTransitionsERK5QListIN9KTimeZone10TransitionEE@Base 4.96.0
 _ZN13KTimeZoneData20setLeapSecondChangesERK5QListIN9KTimeZone11LeapSecondsEE@Base 4.96.0
 _ZN13KTimeZoneData9setPhasesERK5QListIN9KTimeZone5PhaseEERKS2_@Base 4.96.0
 _ZN13KTimeZoneData9setPhasesERK5QListIN9KTimeZone5PhaseEEi@Base 4.96.0
 _ZN13KTimeZoneDataC1ERKS_@Base 4.96.0
 _ZN13KTimeZoneDataC1Ev@Base 4.96.0
 _ZN13KTimeZoneDataC2ERKS_@Base 4.96.0
 _ZN13KTimeZoneDataC2Ev@Base 4.96.0
 _ZN13KTimeZoneDataD0Ev@Base 4.96.0
 _ZN13KTimeZoneDataD1Ev@Base 4.96.0
 _ZN13KTimeZoneDataD2Ev@Base 4.96.0
 _ZN13KTimeZoneDataaSERKS_@Base 4.96.0
 _ZN14K4AboutLicense7PrivateC1EN11K4AboutData10LicenseKeyEPKS1_@Base 4.96.0
 _ZN14K4AboutLicense7PrivateC1ERK16KLocalizedStringPK11K4AboutData@Base 4.96.0
 _ZN14K4AboutLicense7PrivateC1ERK7QStringPK11K4AboutData@Base 4.96.0
 _ZN14K4AboutLicense7PrivateC1ERKS0_@Base 4.96.0
 _ZN14K4AboutLicense7PrivateC2EN11K4AboutData10LicenseKeyEPKS1_@Base 4.96.0
 _ZN14K4AboutLicense7PrivateC2ERK16KLocalizedStringPK11K4AboutData@Base 4.96.0
 _ZN14K4AboutLicense7PrivateC2ERK7QStringPK11K4AboutData@Base 4.96.0
 _ZN14K4AboutLicense7PrivateC2ERKS0_@Base 4.96.0
 _ZN14K4AboutLicense9byKeywordERK7QString@Base 4.96.0
 _ZN14K4AboutLicenseC1EN11K4AboutData10LicenseKeyEPKS0_@Base 4.96.0
 _ZN14K4AboutLicenseC1ERK16KLocalizedStringPK11K4AboutData@Base 4.96.0
 _ZN14K4AboutLicenseC1ERK7QStringPK11K4AboutData@Base 4.96.0
 _ZN14K4AboutLicenseC1ERKS_@Base 4.96.0
 _ZN14K4AboutLicenseC2EN11K4AboutData10LicenseKeyEPKS0_@Base 4.96.0
 _ZN14K4AboutLicenseC2ERK16KLocalizedStringPK11K4AboutData@Base 4.96.0
 _ZN14K4AboutLicenseC2ERK7QStringPK11K4AboutData@Base 4.96.0
 _ZN14K4AboutLicenseC2ERKS_@Base 4.96.0
 _ZN14K4AboutLicenseD1Ev@Base 4.96.0
 _ZN14K4AboutLicenseD2Ev@Base 4.96.0
 _ZN14K4AboutLicenseaSERKS_@Base 4.96.0
 _ZN14KComponentData12setAboutDataERK11K4AboutData@Base 4.96.0
 _ZN14KComponentData12virtual_hookEiPv@Base 4.96.0
 _ZN14KComponentData13mainComponentEv@Base 4.96.0
 _ZN14KComponentData13setConfigNameERK7QString@Base 4.96.0
 _ZN14KComponentData15activeComponentEv@Base 4.96.0
 _ZN14KComponentData16hasMainComponentEv@Base 4.96.0
 _ZN14KComponentData18setActiveComponentERKS_@Base 4.96.0
 _ZN14KComponentDataC1EPK11K4AboutDataNS_25MainComponentRegistrationE@Base 4.96.0
 _ZN14KComponentDataC1ERK10QByteArrayS2_NS_25MainComponentRegistrationE@Base 4.96.0
 _ZN14KComponentDataC1ERK11K4AboutDataNS_25MainComponentRegistrationE@Base 4.96.0
 _ZN14KComponentDataC1ERKS_@Base 4.96.0
 _ZN14KComponentDataC1Ev@Base 4.96.0
 _ZN14KComponentDataC2EPK11K4AboutDataNS_25MainComponentRegistrationE@Base 4.96.0
 _ZN14KComponentDataC2ERK10QByteArrayS2_NS_25MainComponentRegistrationE@Base 4.96.0
 _ZN14KComponentDataC2ERK11K4AboutDataNS_25MainComponentRegistrationE@Base 4.96.0
 _ZN14KComponentDataC2ERKS_@Base 4.96.0
 _ZN14KComponentDataC2Ev@Base 4.96.0
 _ZN14KComponentDataD0Ev@Base 4.96.0
 _ZN14KComponentDataD1Ev@Base 4.96.0
 _ZN14KComponentDataD2Ev@Base 4.96.0
 _ZN14KComponentDataaSERKS_@Base 4.96.0
 _ZN14KDiskFreeSpace11qt_metacallEN11QMetaObject4CallEiPPv@Base 4.96.0
 _ZN14KDiskFreeSpace11qt_metacastEPKc@Base 4.96.0
 _ZN14KDiskFreeSpace13findUsageInfoERK7QString@Base 4.96.0
 _ZN14KDiskFreeSpace15foundMountPointERK7QStringyyy@Base 4.96.0
 _ZN14KDiskFreeSpace16staticMetaObjectE@Base 4.96.0
 _ZN14KDiskFreeSpace4doneEv@Base 4.96.0
 _ZN14KDiskFreeSpace6readDFERK7QString@Base 4.96.0
 _ZN14KDiskFreeSpace7Private21_k_calculateFreeSpaceEv@Base 4.96.0
 _ZN14KDiskFreeSpaceC1EP7QObject@Base 4.96.0
 _ZN14KDiskFreeSpaceC2EP7QObject@Base 4.96.0
 _ZN14KDiskFreeSpaceD0Ev@Base 4.96.0
 _ZN14KDiskFreeSpaceD1Ev@Base 4.96.0
 _ZN14KDiskFreeSpaceD2Ev@Base 4.96.0
 _ZN14KLocalizedDate10addYearsToEi@Base 4.96.0
 _ZN14KLocalizedDate11addMonthsToEi@Base 4.96.0
 _ZN14KLocalizedDate11currentDateEv@Base 4.96.0
 _ZN14KLocalizedDate13fromJulianDayEi@Base 4.96.0
 _ZN14KLocalizedDate14calendarSystemEv@Base 4.96.0
 _ZN14KLocalizedDate14setCurrentDateEv@Base 4.96.0
 _ZN14KLocalizedDate17setCalendarSystemEN7KLocale14CalendarSystemE@Base 4.96.0
 _ZN14KLocalizedDate7setDateE7QStringiii@Base 4.96.0
 _ZN14KLocalizedDate7setDateEN7KLocale16WeekNumberSystemEiii@Base 4.96.0
 _ZN14KLocalizedDate7setDateERK5QDate@Base 4.96.0
 _ZN14KLocalizedDate7setDateEii@Base 4.96.0
 _ZN14KLocalizedDate7setDateEiii@Base 4.96.0
 _ZN14KLocalizedDate8fromDateERK5QDate@Base 4.96.0
 _ZN14KLocalizedDate8readDateERK7QStringN7KLocale13ReadDateFlagsENS3_17DateTimeParseModeEPK15KCalendarSystem@Base 4.96.0
 _ZN14KLocalizedDate8readDateERK7QStringN7KLocale17DateTimeParseModeEPK15KCalendarSystem@Base 4.96.0
 _ZN14KLocalizedDate8readDateERK7QStringS2_N7KLocale17DateTimeParseModeENS3_22DateTimeFormatStandardEPK15KCalendarSystem@Base 4.96.0
 _ZN14KLocalizedDate9addDaysToEi@Base 4.96.0
 _ZN14KLocalizedDateC1ERK5QDatePK15KCalendarSystem@Base 4.96.0
 _ZN14KLocalizedDateC1ERKS_@Base 4.96.0
 _ZN14KLocalizedDateC1EiiiPK15KCalendarSystem@Base 4.96.0
 _ZN14KLocalizedDateC2ERK5QDatePK15KCalendarSystem@Base 4.96.0
 _ZN14KLocalizedDateC2ERKS_@Base 4.96.0
 _ZN14KLocalizedDateC2EiiiPK15KCalendarSystem@Base 4.96.0
 _ZN14KLocalizedDateD1Ev@Base 4.96.0
 _ZN14KLocalizedDateD2Ev@Base 4.96.0
 _ZN14KLocalizedDateaSERK5QDate@Base 4.96.0
 _ZN14KLocalizedDateaSERKS_@Base 4.96.0
 _ZN14KSocketFactory13connectToHostEP10QTcpSocketRK4QUrl@Base 4.96.0
 _ZN14KSocketFactory13connectToHostEP10QTcpSocketRK7QStringS4_t@Base 4.96.0
 _ZN14KSocketFactory13connectToHostERK4QUrlP7QObject@Base 4.96.0
 _ZN14KSocketFactory13connectToHostERK7QStringS2_tP7QObject@Base 4.96.0
 _ZN14KSocketFactory14datagramSocketERK7QStringS2_P7QObject@Base 4.96.0
 _ZN14KSocketFactory16proxyForDatagramERK7QStringS2_@Base 4.96.0
 _ZN14KSocketFactory17proxyForListeningERK7QString@Base 4.96.0
 _ZN14KSocketFactory18proxyForConnectionERK7QStringS2_@Base 4.96.0
 _ZN14KSocketFactory24synchronousConnectToHostEP10QTcpSocketRK4QUrli@Base 4.96.0
 _ZN14KSocketFactory24synchronousConnectToHostEP10QTcpSocketRK7QStringS4_ti@Base 4.96.0
 _ZN14KSocketFactory24synchronousConnectToHostERK4QUrliP7QObject@Base 4.96.0
 _ZN14KSocketFactory24synchronousConnectToHostERK7QStringS2_tiP7QObject@Base 4.96.0
 _ZN14KSocketFactory6listenERK7QStringRK12QHostAddresstP7QObject@Base 4.96.0
 _ZN14KStringHandler14naturalCompareERK7QStringS2_N2Qt15CaseSensitivityE@Base 4.96.0
 _ZN14KTemporaryFile9setPrefixERK7QString@Base 4.96.0
 _ZN14KTemporaryFile9setSuffixERK7QString@Base 4.96.0
 _ZN14KTemporaryFileC1ERK14KComponentData@Base 4.96.0
 _ZN14KTemporaryFileC2ERK14KComponentData@Base 4.96.0
 _ZN14KTemporaryFileD0Ev@Base 4.96.0
 _ZN14KTemporaryFileD1Ev@Base 4.96.0
 _ZN14KTemporaryFileD2Ev@Base 4.96.0
 _ZN14KXErrorHandler10addHandlerEv@Base 4.96.0
 _ZN14KXErrorHandler12errorMessageERK11XErrorEventP9_XDisplay@Base 4.96.0
 _ZN14KXErrorHandler15handler_wrapperEP9_XDisplayP11XErrorEvent@Base 4.96.0
 _ZN14KXErrorHandler3posE@Base 4.96.0
 _ZN14KXErrorHandler4sizeE@Base 4.96.0
 _ZN14KXErrorHandler6handleEP9_XDisplayP11XErrorEvent@Base 4.96.0
 _ZN14KXErrorHandler7displayEv@Base 4.96.0
 _ZN14KXErrorHandler8handlersE@Base 4.96.0
 _ZN14KXErrorHandlerC1EP9_XDisplay@Base 4.96.0
 _ZN14KXErrorHandlerC1EPFbiimEP9_XDisplay@Base 4.96.0
 _ZN14KXErrorHandlerC1EPFiP9_XDisplayP11XErrorEventES1_@Base 4.96.0
 _ZN14KXErrorHandlerC2EP9_XDisplay@Base 4.96.0
 _ZN14KXErrorHandlerC2EPFbiimEP9_XDisplay@Base 4.96.0
 _ZN14KXErrorHandlerC2EPFiP9_XDisplayP11XErrorEventES1_@Base 4.96.0
 _ZN14KXErrorHandlerD1Ev@Base 4.96.0
 _ZN14KXErrorHandlerD2Ev@Base 4.96.0
 _ZN15KCalendarSystem13calendarLabelEN7KLocale14CalendarSystemEPKS0_@Base 4.96.0
 _ZN15KCalendarSystem19calendarSystemsListEv@Base 4.96.0
 _ZN15KCalendarSystem6createEN7KLocale14CalendarSystemE28QExplicitlySharedDataPointerI13KSharedConfigEPKS0_@Base 4.96.0
 _ZN15KCalendarSystem6createEN7KLocale14CalendarSystemEPKS0_@Base 4.96.0
 _ZN15KCalendarSystemC1ER22KCalendarSystemPrivate28QExplicitlySharedDataPointerI13KSharedConfigEPK7KLocale@Base 4.96.0
 _ZN15KCalendarSystemC2ER22KCalendarSystemPrivate28QExplicitlySharedDataPointerI13KSharedConfigEPK7KLocale@Base 4.96.0
 _ZN15KCalendarSystemD0Ev@Base 4.96.0
 _ZN15KCalendarSystemD1Ev@Base 4.96.0
 _ZN15KCalendarSystemD2Ev@Base 4.96.0
 _ZN15KCmdLineOptions3addERK10QByteArrayRK16KLocalizedStringS2_@Base 4.96.0
 _ZN15KCmdLineOptions3addERKS_@Base 4.96.0
 _ZN15KCmdLineOptionsC1ERKS_@Base 4.96.0
 _ZN15KCmdLineOptionsC1Ev@Base 4.96.0
 _ZN15KCmdLineOptionsC2ERKS_@Base 4.96.0
 _ZN15KCmdLineOptionsC2Ev@Base 4.96.0
 _ZN15KCmdLineOptionsD1Ev@Base 4.96.0
 _ZN15KCmdLineOptionsD2Ev@Base 4.96.0
 _ZN15KCmdLineOptionsaSERKS_@Base 4.96.0
 _ZN15KDataToolAction11qt_metacallEN11QMetaObject4CallEiPPv@Base 4.96.0
 _ZN15KDataToolAction11qt_metacastEPKc@Base 4.96.0
 _ZN15KDataToolAction13slotActivatedEv@Base 4.96.0
 _ZN15KDataToolAction13toolActivatedERK13KDataToolInfoRK7QString@Base 4.96.0
 _ZN15KDataToolAction16staticMetaObjectE@Base 4.96.0
 _ZN15KDataToolAction18dataToolActionListERK5QListI13KDataToolInfoEPK7QObjectPKcP17KActionCollection@Base 4.96.0
 _ZN15KDataToolActionC1ERK7QStringRK13KDataToolInfoS2_P7QObject@Base 4.96.0
 _ZN15KDataToolActionC2ERK7QStringRK13KDataToolInfoS2_P7QObject@Base 4.96.0
 _ZN15KDataToolActionD0Ev@Base 4.96.0
 _ZN15KDataToolActionD1Ev@Base 4.96.0
 _ZN15KDataToolActionD2Ev@Base 4.96.0
 _ZN15KDateTimeWidget10initWidgetEv@Base 4.96.0
 _ZN15KDateTimeWidget11qt_metacallEN11QMetaObject4CallEiPPv@Base 4.96.0
 _ZN15KDateTimeWidget11qt_metacastEPKc@Base 4.96.0
 _ZN15KDateTimeWidget11setDateTimeERK9QDateTime@Base 4.96.0
 _ZN15KDateTimeWidget12valueChangedERK9QDateTime@Base 4.96.0
 _ZN15KDateTimeWidget16slotValueChangedEv@Base 4.96.0
 _ZN15KDateTimeWidget16staticMetaObjectE@Base 4.96.0
 _ZN15KDateTimeWidgetC1EP7QWidget@Base 4.96.0
 _ZN15KDateTimeWidgetC1ERK9QDateTimeP7QWidget@Base 4.96.0
 _ZN15KDateTimeWidgetC2EP7QWidget@Base 4.96.0
 _ZN15KDateTimeWidgetC2ERK9QDateTimeP7QWidget@Base 4.96.0
 _ZN15KDateTimeWidgetD0Ev@Base 4.96.0
 _ZN15KDateTimeWidgetD1Ev@Base 4.96.0
 _ZN15KDateTimeWidgetD2Ev@Base 4.96.0
 _ZN15KDoubleNumInput10initWidgetEddddi@Base 4.96.0
 _ZN15KDoubleNumInput10setMaximumEd@Base 4.96.0
 _ZN15KDoubleNumInput10setMinimumEd@Base 4.96.0
 _ZN15KDoubleNumInput11qt_metacallEN11QMetaObject4CallEiPPv@Base 4.96.0
 _ZN15KDoubleNumInput11qt_metacastEPKc@Base 4.96.0
 _ZN15KDoubleNumInput11resizeEventEP12QResizeEvent@Base 4.96.0
 _ZN15KDoubleNumInput11setDecimalsEi@Base 4.96.0
 _ZN15KDoubleNumInput11sliderMovedEi@Base 4.96.0
 _ZN15KDoubleNumInput12valueChangedEd@Base 4.96.0
 _ZN15KDoubleNumInput13setSingleStepEd@Base 4.96.0
 _ZN15KDoubleNumInput14spinBoxChangedEd@Base 4.96.0
 _ZN15KDoubleNumInput16setExponentRatioEd@Base 4.96.0
 _ZN15KDoubleNumInput16setRelativeValueEd@Base 4.96.0
 _ZN15KDoubleNumInput16setSliderEnabledEb@Base 4.96.0
 _ZN15KDoubleNumInput16staticMetaObjectE@Base 4.96.0
 _ZN15KDoubleNumInput17setReferencePointEd@Base 4.96.0
 _ZN15KDoubleNumInput19setSpecialValueTextERK7QString@Base 4.96.0
 _ZN15KDoubleNumInput19updateLegacyMembersEv@Base 4.96.0
 _ZN15KDoubleNumInput20relativeValueChangedEd@Base 4.96.0
 _ZN15KDoubleNumInput28slotEmitRelativeValueChangedEd@Base 4.96.0
 _ZN15KDoubleNumInput8doLayoutEv@Base 4.96.0
 _ZN15KDoubleNumInput8setLabelERK7QString6QFlagsIN2Qt13AlignmentFlagEE@Base 4.96.0
 _ZN15KDoubleNumInput8setRangeEdddb@Base 4.96.0
 _ZN15KDoubleNumInput8setValueEd@Base 4.96.0
 _ZN15KDoubleNumInput9setPrefixERK7QString@Base 4.96.0
 _ZN15KDoubleNumInput9setSuffixERK7QString@Base 4.96.0
 _ZN15KDoubleNumInputC1EP7QWidget@Base 4.96.0
 _ZN15KDoubleNumInputC1EP9KNumInputdddP7QWidgetdi@Base 4.96.0
 _ZN15KDoubleNumInputC1EdddP7QWidgetdi@Base 4.96.0
 _ZN15KDoubleNumInputC2EP7QWidget@Base 4.96.0
 _ZN15KDoubleNumInputC2EP9KNumInputdddP7QWidgetdi@Base 4.96.0
 _ZN15KDoubleNumInputC2EdddP7QWidgetdi@Base 4.96.0
 _ZN15KDoubleNumInputD0Ev@Base 4.96.0
 _ZN15KDoubleNumInputD1Ev@Base 4.96.0
 _ZN15KDoubleNumInputD2Ev@Base 4.96.0
 _ZN15KGlobalSettings10emitChangeENS_10ChangeTypeEi@Base 4.96.0
 _ZN15KGlobalSettings10videosPathEv@Base 4.96.0
 _ZN15KGlobalSettings11desktopPathEv@Base 4.96.0
 _ZN15KGlobalSettings11generalFontEv@Base 4.96.0
 _ZN15KGlobalSettings11iconChangedEi@Base 4.96.0
 _ZN15KGlobalSettings11isMultiHeadEv@Base 4.96.0
 _ZN15KGlobalSettings11qt_metacallEN11QMetaObject4CallEiPPv@Base 4.96.0
 _ZN15KGlobalSettings11qt_metacastEPKc@Base 4.96.0
 _ZN15KGlobalSettings11singleClickEv@Base 4.96.0
 _ZN15KGlobalSettings11taskbarFontEv@Base 4.96.0
 _ZN15KGlobalSettings11toolBarFontEv@Base 4.96.0
 _ZN15KGlobalSettings12buttonLayoutEv@Base 4.96.0
 _ZN15KGlobalSettings12documentPathEv@Base 4.96.0
 _ZN15KGlobalSettings12downloadPathEv@Base 4.96.0
 _ZN15KGlobalSettings12opaqueResizeEv@Base 4.96.0
 _ZN15KGlobalSettings12picturesPathEv@Base 4.96.0
 _ZN15KGlobalSettings13cursorChangedEv@Base 4.96.0
 _ZN15KGlobalSettings13dndEventDelayEv@Base 4.96.0
 _ZN15KGlobalSettings13mouseSettingsEv@Base 4.96.0
 _ZN15KGlobalSettings14blockShortcutsEi@Base 4.96.0
 _ZN15KGlobalSettings14completionModeEv@Base 4.96.0
 _ZN15KGlobalSettings14naturalSortingEv@Base 4.96.0
 _ZN15KGlobalSettings15activeTextColorEv@Base 4.96.0
 _ZN15KGlobalSettings15autoSelectDelayEv@Base 4.96.0
 _ZN15KGlobalSettings15desktopGeometryEPK7QWidget@Base 4.96.0
 _ZN15KGlobalSettings15desktopGeometryERK6QPoint@Base 4.96.0
 _ZN15KGlobalSettings15settingsChangedEi@Base 4.96.0
 _ZN15KGlobalSettings15shadeSortColumnEv@Base 4.96.0
 _ZN15KGlobalSettings15showFilePreviewERK4QUrl@Base 4.96.0
 _ZN15KGlobalSettings15wheelMouseZoomsEv@Base 4.96.0
 _ZN15KGlobalSettings15windowTitleFontEv@Base 4.96.0
 _ZN15KGlobalSettings16activeTitleColorEv@Base 4.96.0
 _ZN15KGlobalSettings16staticMetaObjectE@Base 4.96.0
 _ZN15KGlobalSettings17appearanceChangedEv@Base 4.96.0
 _ZN15KGlobalSettings17inactiveTextColorEv@Base 4.96.0
 _ZN15KGlobalSettings18inactiveTitleColorEv@Base 4.96.0
 _ZN15KGlobalSettings19graphicEffectsLevelEv@Base 4.96.0
 _ZN15KGlobalSettings19kdisplayFontChangedEv@Base 4.96.0
 _ZN15KGlobalSettings20changeCursorOverIconEv@Base 4.96.0
 _ZN15KGlobalSettings20kdisplayStyleChangedEv@Base 4.96.0
 _ZN15KGlobalSettings20smallestReadableFontEv@Base 4.96.0
 _ZN15KGlobalSettings21naturalSortingChangedEv@Base 4.96.0
 _ZN15KGlobalSettings22kdisplayPaletteChangedEv@Base 4.96.0
 _ZN15KGlobalSettings22showIconsOnPushButtonsEv@Base 4.96.0
 _ZN15KGlobalSettings23showContextMenusOnPressEv@Base 4.96.0
 _ZN15KGlobalSettings24createApplicationPaletteERK28QExplicitlySharedDataPointerI13KSharedConfigE@Base 4.96.0
 _ZN15KGlobalSettings24toolbarAppearanceChangedEi@Base 4.96.0
 _ZN15KGlobalSettings26graphicEffectsLevelDefaultEv@Base 4.96.0
 _ZN15KGlobalSettings27createNewApplicationPaletteERK28QExplicitlySharedDataPointerI13KSharedConfigE@Base 4.96.0
 _ZN15KGlobalSettings27splashScreenDesktopGeometryEv@Base 4.96.0
 _ZN15KGlobalSettings28allowDefaultBackgroundImagesEv@Base 4.96.0
 _ZN15KGlobalSettings4selfEv@Base 4.96.0
 _ZN15KGlobalSettings7Private13applyGUIStyleEv@Base 4.96.0
 _ZN15KGlobalSettings7Private13mouseSettingsEv@Base 4.96.0
 _ZN15KGlobalSettings7Private15kdisplaySetFontEv@Base 4.96.0
 _ZN15KGlobalSettings7Private16applyCursorThemeEv@Base 4.96.0
 _ZN15KGlobalSettings7Private16kdisplaySetStyleEv@Base 4.96.0
 _ZN15KGlobalSettings7Private17_k_slotIconChangeEi@Base 4.96.0
 _ZN15KGlobalSettings7Private18kdisplaySetPaletteEv@Base 4.96.0
 _ZN15KGlobalSettings7Private19_k_slotNotifyChangeEii@Base 4.96.0
 _ZN15KGlobalSettings7Private19propagateQtSettingsEv@Base 4.96.0
 _ZN15KGlobalSettings7Private19reloadStyleSettingsEv@Base 4.96.0
 _ZN15KGlobalSettings7Private22dropMouseSettingsCacheEv@Base 4.96.0
 _ZN15KGlobalSettings7Private24createApplicationPaletteERK28QExplicitlySharedDataPointerI13KSharedConfigE@Base 4.96.0
 _ZN15KGlobalSettings7Private27createNewApplicationPaletteERK28QExplicitlySharedDataPointerI13KSharedConfigE@Base 4.96.0
 _ZN15KGlobalSettings7Private9largeFontERK7QString@Base 4.96.0
 _ZN15KGlobalSettings8activateE6QFlagsINS_14ActivateOptionEE@Base 4.96.0
 _ZN15KGlobalSettings8activateEv@Base 4.96.0
 _ZN15KGlobalSettings8contrastEv@Base 4.96.0
 _ZN15KGlobalSettings8menuFontEv@Base 4.96.0
 _ZN15KGlobalSettings9contrastFERK28QExplicitlySharedDataPointerI13KSharedConfigE@Base 4.96.0
 _ZN15KGlobalSettings9fixedFontEv@Base 4.96.0
 _ZN15KGlobalSettings9largeFontERK7QString@Base 4.96.0
 _ZN15KGlobalSettings9musicPathEv@Base 4.96.0
 _ZN15KGlobalSettingsC1Ev@Base 4.96.0
 _ZN15KGlobalSettingsC2Ev@Base 4.96.0
 _ZN15KGlobalSettingsD0Ev@Base 4.96.0
 _ZN15KGlobalSettingsD1Ev@Base 4.96.0
 _ZN15KGlobalSettingsD2Ev@Base 4.96.0
 _ZN15KProgressDialog11progressBarEv@Base 4.96.0
 _ZN15KProgressDialog11qt_metacallEN11QMetaObject4CallEiPPv@Base 4.96.0
 _ZN15KProgressDialog11qt_metacastEPKc@Base 4.96.0
 _ZN15KProgressDialog12ignoreCancelEv@Base 4.96.0
 _ZN15KProgressDialog12setAutoCloseEb@Base 4.96.0
 _ZN15KProgressDialog12setAutoResetEb@Base 4.96.0
 _ZN15KProgressDialog12setLabelTextERK7QString@Base 4.96.0
 _ZN15KProgressDialog13setButtonTextERK7QString@Base 4.96.0
 _ZN15KProgressDialog14setAllowCancelEb@Base 4.96.0
 _ZN15KProgressDialog16showCancelButtonEb@Base 4.96.0
 _ZN15KProgressDialog16staticMetaObjectE@Base 4.96.0
 _ZN15KProgressDialog18setMinimumDurationEi@Base 4.96.0
 _ZN15KProgressDialog22KProgressDialogPrivate12slotAutoShowEv@Base 4.96.0
 _ZN15KProgressDialog22KProgressDialogPrivate15slotAutoActionsEi@Base 4.96.0
 _ZN15KProgressDialog6rejectEv@Base 4.96.0
 _ZN15KProgressDialog9showEventEP10QShowEvent@Base 4.96.0
 _ZN15KProgressDialogC1EP7QWidgetRK7QStringS4_6QFlagsIN2Qt10WindowTypeEE@Base 4.96.0
 _ZN15KProgressDialogC2EP7QWidgetRK7QStringS4_6QFlagsIN2Qt10WindowTypeEE@Base 4.96.0
 _ZN15KProgressDialogD0Ev@Base 4.96.0
 _ZN15KProgressDialogD1Ev@Base 4.96.0
 _ZN15KProgressDialogD2Ev@Base 4.96.0
 _ZN15KRestrictedLine11invalidCharEi@Base 4.96.0
 _ZN15KRestrictedLine11qt_metacallEN11QMetaObject4CallEiPPv@Base 4.96.0
 _ZN15KRestrictedLine11qt_metacastEPKc@Base 4.96.0
 _ZN15KRestrictedLine13keyPressEventEP9QKeyEvent@Base 4.96.0
 _ZN15KRestrictedLine13setValidCharsERK7QString@Base 4.96.0
 _ZN15KRestrictedLine16inputMethodEventEP17QInputMethodEvent@Base 4.96.0
 _ZN15KRestrictedLine16staticMetaObjectE@Base 4.96.0
 _ZN15KRestrictedLineC1EP7QWidget@Base 4.96.0
 _ZN15KRestrictedLineC2EP7QWidget@Base 4.96.0
 _ZN15KRestrictedLineD0Ev@Base 4.96.0
 _ZN15KRestrictedLineD1Ev@Base 4.96.0
 _ZN15KRestrictedLineD2Ev@Base 4.96.0
 _ZN15KSSLCertificate10fromStringERK10QByteArray@Base 4.96.0
 _ZN15KSSLCertificate10revalidateENS_11KSSLPurposeE@Base 4.96.0
 _ZN15KSSLCertificate10revalidateEv@Base 4.96.0
 _ZN15KSSLCertificate10toNetscapeEv@Base 4.96.0
 _ZN15KSSLCertificate10verifyTextENS_14KSSLValidationE@Base 4.96.0
 _ZN15KSSLCertificate12processErrorEi@Base 4.96.0
 _ZN15KSSLCertificate15validateVerboseENS_11KSSLPurposeE@Base 4.96.0
 _ZN15KSSLCertificate15validateVerboseENS_11KSSLPurposeEPS_@Base 4.96.0
 _ZN15KSSLCertificate16x509V3ExtensionsEv@Base 4.96.0
 _ZN15KSSLCertificate22getMD5DigestFromKDEKeyERK7QString@Base 4.96.0
 _ZN15KSSLCertificate5chainEv@Base 4.96.0
 _ZN15KSSLCertificate5toDerEv@Base 4.96.0
 _ZN15KSSLCertificate5toPemEv@Base 4.96.0
 _ZN15KSSLCertificate6toTextEv@Base 4.96.0
 _ZN15KSSLCertificate7getCertEv@Base 4.96.0
 _ZN15KSSLCertificate7isValidENS_11KSSLPurposeE@Base 4.96.0
 _ZN15KSSLCertificate7isValidEv@Base 4.96.0
 _ZN15KSSLCertificate7setCertEP7x509_st@Base 4.96.0
 _ZN15KSSLCertificate7setCertERK7QString@Base 4.96.0
 _ZN15KSSLCertificate8fromX509EP7x509_st@Base 4.96.0
 _ZN15KSSLCertificate8isSignerEv@Base 4.96.0
 _ZN15KSSLCertificate8setChainEPv@Base 4.96.0
 _ZN15KSSLCertificate8toStringEv@Base 4.96.0
 _ZN15KSSLCertificate8validateENS_11KSSLPurposeE@Base 4.96.0
 _ZN15KSSLCertificate8validateEv@Base 4.96.0
 _ZN15KSSLCertificate9replicateEv@Base 4.96.0
 _ZN15KSSLCertificateC1ERKS_@Base 4.96.0
 _ZN15KSSLCertificateC1Ev@Base 4.96.0
 _ZN15KSSLCertificateC2ERKS_@Base 4.96.0
 _ZN15KSSLCertificateC2Ev@Base 4.96.0
 _ZN15KSSLCertificateD1Ev@Base 4.96.0
 _ZN15KSSLCertificateD2Ev@Base 4.96.0
 _ZN15KSessionManager10commitDataER15QSessionManager@Base 4.96.0
 _ZN15KSessionManager12virtual_hookEiPv@Base 4.96.0
 _ZN15KSessionManager14sessionClientsEv@Base 4.96.0
 _ZN15KSessionManager9saveStateER15QSessionManager@Base 4.96.0
 _ZN15KSessionManagerC1Ev@Base 4.96.0
 _ZN15KSessionManagerC2Ev@Base 4.96.0
 _ZN15KSessionManagerD0Ev@Base 4.96.0
 _ZN15KSessionManagerD1Ev@Base 4.96.0
 _ZN15KSessionManagerD2Ev@Base 4.96.0
 _ZN15KSystemTimeZoneC1EP21KSystemTimeZoneSourceRK7QStringS4_ffS4_@Base 4.96.0
 _ZN15KSystemTimeZoneC2EP21KSystemTimeZoneSourceRK7QStringS4_ffS4_@Base 4.96.0
 _ZN15KSystemTimeZoneD0Ev@Base 4.96.0
 _ZN15KSystemTimeZoneD1Ev@Base 4.96.0
 _ZN15KSystemTimeZoneD2Ev@Base 4.96.0
 _ZN15KSystemTrayIcon11qt_metacallEN11QMetaObject4CallEiPPv@Base 4.96.0
 _ZN15KSystemTrayIcon11qt_metacastEPKc@Base 4.96.0
 _ZN15KSystemTrayIcon12quitSelectedEv@Base 4.96.0
 _ZN15KSystemTrayIcon12toggleActiveEv@Base 4.96.0
 _ZN15KSystemTrayIcon14activateOrHideEN15QSystemTrayIcon16ActivationReasonE@Base 4.96.0
 _ZN15KSystemTrayIcon15minimizeRestoreEb@Base 4.96.0
 _ZN15KSystemTrayIcon16actionCollectionEv@Base 4.96.0
 _ZN15KSystemTrayIcon16staticMetaObjectE@Base 4.96.0
 _ZN15KSystemTrayIcon19setContextMenuTitleEP7QAction@Base 4.96.0
 _ZN15KSystemTrayIcon21minimizeRestoreActionEv@Base 4.96.0
 _ZN15KSystemTrayIcon22contextMenuAboutToShowEv@Base 4.96.0
 _ZN15KSystemTrayIcon4initEP7QWidget@Base 4.96.0
 _ZN15KSystemTrayIcon8loadIconERK7QStringRK14KComponentData@Base 4.96.0
 _ZN15KSystemTrayIcon8setMovieEP6QMovie@Base 4.96.0
 _ZN15KSystemTrayIcon9maybeQuitEv@Base 4.96.0
 _ZN15KSystemTrayIconC1EP6QMovieP7QWidget@Base 4.96.0
 _ZN15KSystemTrayIconC1EP7QWidget@Base 4.96.0
 _ZN15KSystemTrayIconC1ERK5QIconP7QWidget@Base 4.96.0
 _ZN15KSystemTrayIconC1ERK7QStringP7QWidget@Base 4.96.0
 _ZN15KSystemTrayIconC2EP6QMovieP7QWidget@Base 4.96.0
 _ZN15KSystemTrayIconC2EP7QWidget@Base 4.96.0
 _ZN15KSystemTrayIconC2ERK5QIconP7QWidget@Base 4.96.0
 _ZN15KSystemTrayIconC2ERK7QStringP7QWidget@Base 4.96.0
 _ZN15KSystemTrayIconD0Ev@Base 4.96.0
 _ZN15KSystemTrayIconD1Ev@Base 4.96.0
 _ZN15KSystemTrayIconD2Ev@Base 4.96.0
 _ZN15KTimeZoneSourceC1Eb@Base 4.96.0
 _ZN15KTimeZoneSourceC1Ev@Base 4.96.0
 _ZN15KTimeZoneSourceC2Eb@Base 4.96.0
 _ZN15KTimeZoneSourceC2Ev@Base 4.96.0
 _ZN15KTimeZoneSourceD0Ev@Base 4.96.0
 _ZN15KTimeZoneSourceD1Ev@Base 4.96.0
 _ZN15KTimeZoneSourceD2Ev@Base 4.96.0
 _ZN15KTzfileTimeZoneC1EP21KTzfileTimeZoneSourceRK7QStringS4_ffS4_@Base 4.96.0
 _ZN15KTzfileTimeZoneC2EP21KTzfileTimeZoneSourceRK7QStringS4_ffS4_@Base 4.96.0
 _ZN15KTzfileTimeZoneD0Ev@Base 4.96.0
 _ZN15KTzfileTimeZoneD1Ev@Base 4.96.0
 _ZN15KTzfileTimeZoneD2Ev@Base 4.96.0
 _ZN15KdeUiProxyStyle11qt_metacallEN11QMetaObject4CallEiPPv@Base 4.96.0
 _ZN15KdeUiProxyStyle11qt_metacastEPKc@Base 4.96.0
 _ZN15KdeUiProxyStyle16staticMetaObjectE@Base 4.96.0
 _ZN15KdeUiProxyStyle6polishEP12QApplication@Base 4.96.0
 _ZN15KdeUiProxyStyle6polishEP7QWidget@Base 4.96.0
 _ZN15KdeUiProxyStyle6polishER8QPalette@Base 4.96.0
 _ZN15KdeUiProxyStyle8unpolishEP12QApplication@Base 4.96.0
 _ZN15KdeUiProxyStyle8unpolishEP7QWidget@Base 4.96.0
 _ZN15KdeUiProxyStyleC1EP7QWidget@Base 4.96.0
 _ZN15KdeUiProxyStyleC2EP7QWidget@Base 4.96.0
 _ZN15KdeUiProxyStyleD0Ev@Base 4.96.0
 _ZN15KdeUiProxyStyleD1Ev@Base 4.96.0
 _ZN15KdeUiProxyStyleD2Ev@Base 4.96.0
 _ZN16K4TimeZoneWidget11displayNameERK9KTimeZone@Base 4.96.0
 _ZN16K4TimeZoneWidget11qt_metacallEN11QMetaObject4CallEiPPv@Base 4.96.0
 _ZN16K4TimeZoneWidget11qt_metacastEPKc@Base 4.96.0
 _ZN16K4TimeZoneWidget11setSelectedERK7QStringb@Base 4.96.0
 _ZN16K4TimeZoneWidget14clearSelectionEv@Base 4.96.0
 _ZN16K4TimeZoneWidget16setSelectionModeEN17QAbstractItemView13SelectionModeE@Base 4.96.0
 _ZN16K4TimeZoneWidget16staticMetaObjectE@Base 4.96.0
 _ZN16K4TimeZoneWidget17setItemsCheckableEb@Base 4.96.0
 _ZN16K4TimeZoneWidgetC1EP7QWidgetP10KTimeZones@Base 4.96.0
 _ZN16K4TimeZoneWidgetC2EP7QWidgetP10KTimeZones@Base 4.96.0
 _ZN16K4TimeZoneWidgetD0Ev@Base 4.96.0
 _ZN16K4TimeZoneWidgetD1Ev@Base 4.96.0
 _ZN16K4TimeZoneWidgetD2Ev@Base 4.96.0
 _ZN16KDeviceListModel11qt_metacallEN11QMetaObject4CallEiPPv@Base 4.96.0
 _ZN16KDeviceListModel11qt_metacastEPKc@Base 4.96.0
 _ZN16KDeviceListModel16modelInitializedEv@Base 4.96.0
 _ZN16KDeviceListModel16staticMetaObjectE@Base 4.96.0
 _ZN16KDeviceListModel7Private10initializeERKN5Solid9PredicateE@Base 4.96.0
 _ZN16KDeviceListModel7Private12removeBranchERK7QString@Base 4.96.0
 _ZN16KDeviceListModel7Private14_k_deviceAddedERK7QString@Base 4.96.0
 _ZN16KDeviceListModel7Private16_k_deviceRemovedERK7QString@Base 4.96.0
 _ZN16KDeviceListModel7Private17_k_initDeviceListEv@Base 4.96.0
 _ZN16KDeviceListModel7Private9addDeviceERKN5Solid6DeviceE@Base 4.96.0
 _ZN16KDeviceListModelC1EP7QObject@Base 4.96.0
 _ZN16KDeviceListModelC1ERK7QStringP7QObject@Base 4.96.0
 _ZN16KDeviceListModelC1ERKN5Solid9PredicateEP7QObject@Base 4.96.0
 _ZN16KDeviceListModelC2EP7QObject@Base 4.96.0
 _ZN16KDeviceListModelC2ERK7QStringP7QObject@Base 4.96.0
 _ZN16KDeviceListModelC2ERKN5Solid9PredicateEP7QObject@Base 4.96.0
 _ZN16KDeviceListModelD0Ev@Base 4.96.0
 _ZN16KDeviceListModelD1Ev@Base 4.96.0
 _ZN16KDeviceListModelD2Ev@Base 4.96.0
 _ZN16KDialogButtonBox11qt_metacallEN11QMetaObject4CallEiPPv@Base 4.96.0
 _ZN16KDialogButtonBox11qt_metacastEPKc@Base 4.96.0
 _ZN16KDialogButtonBox16staticMetaObjectE@Base 4.96.0
 _ZN16KDialogButtonBox9addButtonERK7QStringN16QDialogButtonBox10ButtonRoleEP7QObjectPKc@Base 4.96.0
 _ZN16KDialogButtonBox9addButtonERK8KGuiItemN16QDialogButtonBox10ButtonRoleEP7QObjectPKc@Base 4.96.0
 _ZN16KDialogButtonBoxC1EP7QWidgetN2Qt11OrientationE@Base 4.96.0
 _ZN16KDialogButtonBoxC2EP7QWidgetN2Qt11OrientationE@Base 4.96.0
 _ZN16KDialogButtonBoxD0Ev@Base 4.96.0
 _ZN16KDialogButtonBoxD1Ev@Base 4.96.0
 _ZN16KDialogButtonBoxD2Ev@Base 4.96.0
 _ZN16KDirSelectDialog11qt_metacallEN11QMetaObject4CallEiPPv@Base 4.96.0
 _ZN16KDirSelectDialog11qt_metacastEPKc@Base 4.96.0
 _ZN16KDirSelectDialog13setCurrentUrlERK4QUrl@Base 4.96.0
 _ZN16KDirSelectDialog15selectDirectoryERK4QUrlbP7QWidgetRK7QString@Base 4.96.0
 _ZN16KDirSelectDialog16staticMetaObjectE@Base 4.96.0
 _ZN16KDirSelectDialog6acceptEv@Base 4.96.0
 _ZN16KDirSelectDialog7Private10readConfigERK28QExplicitlySharedDataPointerI13KSharedConfigERK7QString@Base 4.96.0
 _ZN16KDirSelectDialog7Private10saveConfigE28QExplicitlySharedDataPointerI13KSharedConfigERK7QString@Base 4.96.0
 _ZN16KDirSelectDialog7Private10slotDeleteEv@Base 4.96.0
 _ZN16KDirSelectDialog7Private10slotExpandERK11QModelIndex@Base 4.96.0
 _ZN16KDirSelectDialog7Private13slotNewFolderEv@Base 4.96.0
 _ZN16KDirSelectDialog7Private14slotPropertiesEv@Base 4.96.0
 _ZN16KDirSelectDialog7Private15slotMoveToTrashEv@Base 4.96.0
 _ZN16KDirSelectDialog7Private16slotUrlActivatedERK7QString@Base 4.96.0
 _ZN16KDirSelectDialog7Private18slotCurrentChangedEv@Base 4.96.0
 _ZN16KDirSelectDialog7Private20slotComboTextChangedERK7QString@Base 4.96.0
 _ZN16KDirSelectDialog7Private24slotContextMenuRequestedERK6QPoint@Base 4.96.0
 _ZN16KDirSelectDialog7Private9slotMkdirEv@Base 4.96.0
 _ZN16KDirSelectDialog9hideEventEP10QHideEvent@Base 4.96.0
 _ZN16KDirSelectDialogC1ERK4QUrlbP7QWidget@Base 4.96.0
 _ZN16KDirSelectDialogC2ERK4QUrlbP7QWidget@Base 4.96.0
 _ZN16KDirSelectDialogD0Ev@Base 4.96.0
 _ZN16KDirSelectDialogD1Ev@Base 4.96.0
 _ZN16KDirSelectDialogD2Ev@Base 4.96.0
 _ZN16KDoubleValidator11qt_metacallEN11QMetaObject4CallEiPPv@Base 4.96.0
 _ZN16KDoubleValidator11qt_metacastEPKc@Base 4.96.0
 _ZN16KDoubleValidator16staticMetaObjectE@Base 4.96.0
 _ZN16KDoubleValidator25setAcceptLocalizedNumbersEb@Base 4.96.0
 _ZN16KDoubleValidatorC1EP7QObject@Base 4.96.0
 _ZN16KDoubleValidatorC1EddiP7QObject@Base 4.96.0
 _ZN16KDoubleValidatorC2EP7QObject@Base 4.96.0
 _ZN16KDoubleValidatorC2EddiP7QObject@Base 4.96.0
 _ZN16KDoubleValidatorD0Ev@Base 4.96.0
 _ZN16KDoubleValidatorD1Ev@Base 4.96.0
 _ZN16KDoubleValidatorD2Ev@Base 4.96.0
 _ZN16KFileWritePlugin11qt_metacallEN11QMetaObject4CallEiPPv@Base 4.96.0
 _ZN16KFileWritePlugin11qt_metacastEPKc@Base 4.96.0
 _ZN16KFileWritePlugin16staticMetaObjectE@Base 4.96.0
 _ZN16KFileWritePluginC1EP7QObjectRK11QStringList@Base 4.96.0
 _ZN16KFileWritePluginC2EP7QObjectRK11QStringList@Base 4.96.0
 _ZN16KFileWritePluginD0Ev@Base 4.96.0
 _ZN16KFileWritePluginD1Ev@Base 4.96.0
 _ZN16KFileWritePluginD2Ev@Base 4.96.0
 _ZN16KSystemTimeZones11isSimulatedEv@Base 4.96.0
 _ZN16KSystemTimeZones11qt_metacallEN11QMetaObject4CallEiPPv@Base 4.96.0
 _ZN16KSystemTimeZones11qt_metacastEPKc@Base 4.96.0
 _ZN16KSystemTimeZones11zoneinfoDirEv@Base 4.96.0
 _ZN16KSystemTimeZones12setLocalZoneERK9KTimeZone@Base 4.96.0
 _ZN16KSystemTimeZones13configChangedEv@Base 4.96.0
 _ZN16KSystemTimeZones13realLocalZoneEv@Base 4.96.0
 _ZN16KSystemTimeZones14zonetabChangedERK7QString@Base 4.96.0
 _ZN16KSystemTimeZones16staticMetaObjectE@Base 4.96.0
 _ZN16KSystemTimeZones21zoneDefinitionChangedERK7QString@Base 4.96.0
 _ZN16KSystemTimeZones25isTimeZoneDaemonAvailableEv@Base 4.96.0
 _ZN16KSystemTimeZones4zoneERK7QString@Base 4.96.0
 _ZN16KSystemTimeZones5localEv@Base 4.96.0
 _ZN16KSystemTimeZones5zonesEv@Base 4.96.0
 _ZN16KSystemTimeZones8readZoneERK7QString@Base 4.96.0
 _ZN16KSystemTimeZones9timeZonesEv@Base 4.96.0
 _ZN16KSystemTimeZonesC1Ev@Base 4.96.0
 _ZN16KSystemTimeZonesC2Ev@Base 4.96.0
 _ZN16KSystemTimeZonesD0Ev@Base 4.96.0
 _ZN16KSystemTimeZonesD1Ev@Base 4.96.0
 _ZN16KSystemTimeZonesD2Ev@Base 4.96.0
 _ZN16KTimeZoneBackendC1EP15KTimeZoneSourceRK7QStringS4_ffS4_@Base 4.96.0
 _ZN16KTimeZoneBackendC1ERK7QString@Base 4.96.0
 _ZN16KTimeZoneBackendC1ERKS_@Base 4.96.0
 _ZN16KTimeZoneBackendC1Ev@Base 4.96.0
 _ZN16KTimeZoneBackendC2EP15KTimeZoneSourceRK7QStringS4_ffS4_@Base 4.96.0
 _ZN16KTimeZoneBackendC2ERK7QString@Base 4.96.0
 _ZN16KTimeZoneBackendC2ERKS_@Base 4.96.0
 _ZN16KTimeZoneBackendC2Ev@Base 4.96.0
 _ZN16KTimeZoneBackendD0Ev@Base 4.96.0
 _ZN16KTimeZoneBackendD1Ev@Base 4.96.0
 _ZN16KTimeZoneBackendD2Ev@Base 4.96.0
 _ZN16KTimeZoneBackendaSERKS_@Base 4.96.0
 _ZN17KFadeWidgetEffect10paintEventEP11QPaintEvent@Base 4.96.0
 _ZN17KFadeWidgetEffect11qt_metacallEN11QMetaObject4CallEiPPv@Base 4.96.0
 _ZN17KFadeWidgetEffect11qt_metacastEPKc@Base 4.96.0
 _ZN17KFadeWidgetEffect16staticMetaObjectE@Base 4.96.0
 _ZN17KFadeWidgetEffect5startEi@Base 4.96.0
 _ZN17KFadeWidgetEffectC1EP7QWidget@Base 4.96.0
 _ZN17KFadeWidgetEffectC2EP7QWidget@Base 4.96.0
 _ZN17KFadeWidgetEffectD0Ev@Base 4.96.0
 _ZN17KFadeWidgetEffectD1Ev@Base 4.96.0
 _ZN17KFadeWidgetEffectD2Ev@Base 4.96.0
 _ZN17KFileMetaInfoItem8addValueERK8QVariant@Base 4.96.0
 _ZN17KFileMetaInfoItem8setValueERK8QVariant@Base 4.96.0
 _ZN17KFileMetaInfoItemC1ERK7QStringRK8QVariantP16KFileWritePluginb@Base 4.96.0
 _ZN17KFileMetaInfoItemC1ERKS_@Base 4.96.0
 _ZN17KFileMetaInfoItemC1Ev@Base 4.96.0
 _ZN17KFileMetaInfoItemC2ERK7QStringRK8QVariantP16KFileWritePluginb@Base 4.96.0
 _ZN17KFileMetaInfoItemC2ERKS_@Base 4.96.0
 _ZN17KFileMetaInfoItemC2Ev@Base 4.96.0
 _ZN17KFileMetaInfoItemD1Ev@Base 4.96.0
 _ZN17KFileMetaInfoItemD2Ev@Base 4.96.0
 _ZN17KFileMetaInfoItemaSERKS_@Base 4.96.0
 _ZN18KFileMetaInfoGroupC1ERKS_@Base 4.96.0
 _ZN18KFileMetaInfoGroupC2ERKS_@Base 4.96.0
 _ZN18KFileMetaInfoGroupD1Ev@Base 4.96.0
 _ZN18KFileMetaInfoGroupD2Ev@Base 4.96.0
 _ZN18KUniqueApplication11newInstanceEv@Base 4.96.0
 _ZN18KUniqueApplication11qt_metacallEN11QMetaObject4CallEiPPv@Base 4.96.0
 _ZN18KUniqueApplication11qt_metacastEPKc@Base 4.96.0
 _ZN18KUniqueApplication16restoringSessionEv@Base 4.96.0
 _ZN18KUniqueApplication16staticMetaObjectE@Base 4.96.0
 _ZN18KUniqueApplication17addCmdLineOptionsEv@Base 4.96.0
 _ZN18KUniqueApplication20setHandleAutoStartedEv@Base 4.96.0
 _ZN18KUniqueApplication5startE6QFlagsINS_9StartFlagEE@Base 4.96.0
 _ZN18KUniqueApplication5startEv@Base 4.96.0
 _ZN18KUniqueApplication7Private18s_startOwnInstanceE@Base 5.15.0
 _ZN18KUniqueApplication7Private19s_multipleInstancesE@Base 4.96.0
 _ZN18KUniqueApplication7Private20_k_newInstanceNoForkEv@Base 4.96.0
 _ZN18KUniqueApplication7Private8initHackEb@Base 4.96.0
 _ZN18KUniqueApplicationC1Ebb@Base 4.96.0
 _ZN18KUniqueApplicationC2Ebb@Base 4.96.0
 _ZN18KUniqueApplicationD0Ev@Base 4.96.0
 _ZN18KUniqueApplicationD1Ev@Base 4.96.0
 _ZN18KUniqueApplicationD2Ev@Base 4.96.0
 _ZN19KColorValueSelector11drawPaletteEP7QPixmap@Base 4.96.0
 _ZN19KColorValueSelector11qt_metacallEN11QMetaObject4CallEiPPv@Base 4.96.0
 _ZN19KColorValueSelector11qt_metacastEPKc@Base 4.96.0
 _ZN19KColorValueSelector11resizeEventEP12QResizeEvent@Base 4.96.0
 _ZN19KColorValueSelector12drawContentsEP8QPainter@Base 4.96.0
 _ZN19KColorValueSelector13setColorValueEi@Base 4.96.0
 _ZN19KColorValueSelector13setSaturationEi@Base 4.96.0
 _ZN19KColorValueSelector14setChooserModeE17KColorChooserMode@Base 4.96.0
 _ZN19KColorValueSelector14updateContentsEv@Base 4.96.0
 _ZN19KColorValueSelector16staticMetaObjectE@Base 4.96.0
 _ZN19KColorValueSelector6setHueEi@Base 4.96.0
 _ZN19KColorValueSelectorC1EN2Qt11OrientationEP7QWidget@Base 4.96.0
 _ZN19KColorValueSelectorC1EP7QWidget@Base 4.96.0
 _ZN19KColorValueSelectorC2EN2Qt11OrientationEP7QWidget@Base 4.96.0
 _ZN19KColorValueSelectorC2EP7QWidget@Base 4.96.0
 _ZN19KColorValueSelectorD0Ev@Base 4.96.0
 _ZN19KColorValueSelectorD1Ev@Base 4.96.0
 _ZN19KColorValueSelectorD2Ev@Base 4.96.0
 _ZN19KFileMetaDataWidget11qt_metacallEN11QMetaObject4CallEiPPv@Base 4.96.0
 _ZN19KFileMetaDataWidget11qt_metacastEPKc@Base 4.96.0
 _ZN19KFileMetaDataWidget11setReadOnlyEb@Base 4.96.0
 _ZN19KFileMetaDataWidget12urlActivatedERK4QUrl@Base 4.96.0
 _ZN19KFileMetaDataWidget16staticMetaObjectE@Base 4.96.0
 _ZN19KFileMetaDataWidget23metaDataRequestFinishedERK13KFileItemList@Base 4.96.0
 _ZN19KFileMetaDataWidget5eventEP6QEvent@Base 4.96.0
 _ZN19KFileMetaDataWidget7Private10deleteRowsEv@Base 4.96.0
 _ZN19KFileMetaDataWidget7Private17slotLinkActivatedERK7QString@Base 4.96.0
 _ZN19KFileMetaDataWidget7Private19slotLoadingFinishedEv@Base 4.96.0
 _ZN19KFileMetaDataWidget7Private20initMetaInfoSettingsEv@Base 4.96.0
 _ZN19KFileMetaDataWidget7Private21slotDataChangeStartedEv@Base 4.96.0
 _ZN19KFileMetaDataWidget7Private22slotDataChangeFinishedEv@Base 4.96.0
 _ZN19KFileMetaDataWidget7PrivateC1EPS_@Base 4.96.0
 _ZN19KFileMetaDataWidget7PrivateC2EPS_@Base 4.96.0
 _ZN19KFileMetaDataWidget7PrivateD1Ev@Base 4.96.0
 _ZN19KFileMetaDataWidget7PrivateD2Ev@Base 4.96.0
 _ZN19KFileMetaDataWidget8setItemsERK13KFileItemList@Base 4.96.0
 _ZN19KFileMetaDataWidgetC1EP7QWidget@Base 4.96.0
 _ZN19KFileMetaDataWidgetC2EP7QWidget@Base 4.96.0
 _ZN19KFileMetaDataWidgetD0Ev@Base 4.96.0
 _ZN19KFileMetaDataWidgetD1Ev@Base 4.96.0
 _ZN19KFileMetaDataWidgetD2Ev@Base 4.96.0
 _ZN19KFileMetaInfoWidget10makeWidgetEv@Base 4.96.0
 _ZN19KFileMetaInfoWidget11qt_metacallEN11QMetaObject4CallEiPPv@Base 4.96.0
 _ZN19KFileMetaInfoWidget11qt_metacastEPKc@Base 4.96.0
 _ZN19KFileMetaInfoWidget11slotChangedEb@Base 4.96.0
 _ZN19KFileMetaInfoWidget11slotChangedEd@Base 4.96.0
 _ZN19KFileMetaInfoWidget11slotChangedEi@Base 4.96.0
 _ZN19KFileMetaInfoWidget12valueChangedERK8QVariant@Base 4.96.0
 _ZN19KFileMetaInfoWidget13makeIntWidgetEv@Base 4.96.0
 _ZN19KFileMetaInfoWidget14makeBoolWidgetEv@Base 4.96.0
 _ZN19KFileMetaInfoWidget14makeDateWidgetEv@Base 4.96.0
 _ZN19KFileMetaInfoWidget14makeTimeWidgetEv@Base 4.96.0
 _ZN19KFileMetaInfoWidget15slotDateChangedERK5QDate@Base 4.96.0
 _ZN19KFileMetaInfoWidget15slotTimeChangedERK5QTime@Base 4.96.0
 _ZN19KFileMetaInfoWidget16makeDoubleWidgetEv@Base 4.96.0
 _ZN19KFileMetaInfoWidget16makeStringWidgetEv@Base 4.96.0
 _ZN19KFileMetaInfoWidget16slotComboChangedERK7QString@Base 4.96.0
 _ZN19KFileMetaInfoWidget16staticMetaObjectE@Base 4.96.0
 _ZN19KFileMetaInfoWidget17reparentValidatorEP7QWidgetP10QValidator@Base 4.96.0
 _ZN19KFileMetaInfoWidget18makeDateTimeWidgetEv@Base 4.96.0
 _ZN19KFileMetaInfoWidget19slotDateTimeChangedERK9QDateTime@Base 4.96.0
 _ZN19KFileMetaInfoWidget19slotLineEditChangedERK7QString@Base 4.96.0
 _ZN19KFileMetaInfoWidget24slotMultiLineEditChangedEv@Base 4.96.0
 _ZN19KFileMetaInfoWidget5applyEv@Base 4.96.0
 _ZN19KFileMetaInfoWidget8setValueERK8QVariant@Base 4.96.0
 _ZN19KFileMetaInfoWidgetC1E17KFileMetaInfoItemNS_4ModeEP10QValidatorP7QWidget@Base 4.96.0
 _ZN19KFileMetaInfoWidgetC1E17KFileMetaInfoItemP10QValidatorP7QWidget@Base 4.96.0
 _ZN19KFileMetaInfoWidgetC2E17KFileMetaInfoItemNS_4ModeEP10QValidatorP7QWidget@Base 4.96.0
 _ZN19KFileMetaInfoWidgetC2E17KFileMetaInfoItemP10QValidatorP7QWidget@Base 4.96.0
 _ZN19KFileMetaInfoWidgetD0Ev@Base 4.96.0
 _ZN19KFileMetaInfoWidgetD1Ev@Base 4.96.0
 _ZN19KFileMetaInfoWidgetD2Ev@Base 4.96.0
 _ZN19KMimeTypeRepository11useFavIconsEv@Base 4.96.0
 _ZN19KMimeTypeRepository13matchFileNameERK7QStringS2_@Base 4.96.0
 _ZN19KMimeTypeRepository18defaultMimeTypePtrEv@Base 4.96.0
 _ZN19KMimeTypeRepository19patternsForMimetypeERK7QString@Base 4.96.0
 _ZN19KMimeTypeRepository21sharedMimeInfoVersionEv@Base 4.96.0
 _ZN19KMimeTypeRepository4selfEv@Base 4.96.0
 _ZN19KMimeTypeRepositoryC1Ev@Base 4.96.0
 _ZN19KMimeTypeRepositoryC2Ev@Base 4.96.0
 _ZN19KMimeTypeRepositoryD1Ev@Base 4.96.0
 _ZN19KMimeTypeRepositoryD2Ev@Base 4.96.0
 _ZN19PredicateProperties7Private10nullStringE@Base 4.96.0
 _ZN19PredicateProperties7Private14nullStringListE@Base 4.96.0
 _ZN19PredicateProperties7Private6nullPPE@Base 4.96.0
 _ZN19PredicatePropertiesC1ERK7QString@Base 4.96.0
 _ZN19PredicatePropertiesC1ERKS_@Base 4.96.0
 _ZN19PredicatePropertiesC2ERK7QString@Base 4.96.0
 _ZN19PredicatePropertiesC2ERKS_@Base 4.96.0
 _ZN19PredicatePropertiesD1Ev@Base 4.96.0
 _ZN19PredicatePropertiesD2Ev@Base 4.96.0
 _ZN19PredicatePropertiesaSERKS_@Base 4.96.0
 _ZN20KFileMetaPropsPlugin11qt_metacallEN11QMetaObject4CallEiPPv@Base 4.96.0
 _ZN20KFileMetaPropsPlugin11qt_metacastEPKc@Base 4.96.0
 _ZN20KFileMetaPropsPlugin12applyChangesEv@Base 4.96.0
 _ZN20KFileMetaPropsPlugin16staticMetaObjectE@Base 4.96.0
 _ZN20KFileMetaPropsPlugin27KFileMetaPropsPluginPrivate22configureShownMetaDataEv@Base 4.96.0
 _ZN20KFileMetaPropsPlugin27KFileMetaPropsPluginPrivateC1Ev@Base 4.96.0
 _ZN20KFileMetaPropsPlugin27KFileMetaPropsPluginPrivateC2Ev@Base 4.96.0
 _ZN20KFileMetaPropsPlugin27KFileMetaPropsPluginPrivateD1Ev@Base 4.96.0
 _ZN20KFileMetaPropsPlugin27KFileMetaPropsPluginPrivateD2Ev@Base 4.96.0
 _ZN20KFileMetaPropsPlugin8supportsERK13KFileItemList@Base 4.96.0
 _ZN20KFileMetaPropsPluginC1EP17KPropertiesDialog@Base 4.96.0
 _ZN20KFileMetaPropsPluginC2EP17KPropertiesDialog@Base 4.96.0
 _ZN20KFileMetaPropsPluginD0Ev@Base 4.96.0
 _ZN20KFileMetaPropsPluginD1Ev@Base 4.96.0
 _ZN20KFileMetaPropsPluginD2Ev@Base 4.96.0
 _ZN20KStringListValidator11qt_metacallEN11QMetaObject4CallEiPPv@Base 4.96.0
 _ZN20KStringListValidator11qt_metacastEPKc@Base 4.96.0
 _ZN20KStringListValidator12setRejectingEb@Base 4.96.0
 _ZN20KStringListValidator13setStringListERK11QStringList@Base 4.96.0
 _ZN20KStringListValidator15setFixupEnabledEb@Base 4.96.0
 _ZN20KStringListValidator16staticMetaObjectE@Base 4.96.0
 _ZN20KStringListValidatorC1ERK11QStringListbbP7QObject@Base 4.96.0
 _ZN20KStringListValidatorC2ERK11QStringListbbP7QObject@Base 4.96.0
 _ZN20KStringListValidatorD0Ev@Base 4.96.0
 _ZN20KStringListValidatorD1Ev@Base 4.96.0
 _ZN20KStringListValidatorD2Ev@Base 4.96.0
 _ZN21KFileItemActionPlugin11qt_metacallEN11QMetaObject4CallEiPPv@Base 4.96.0
 _ZN21KFileItemActionPlugin11qt_metacastEPKc@Base 4.96.0
 _ZN21KFileItemActionPlugin16staticMetaObjectE@Base 4.96.0
 _ZN21KFileItemActionPluginC1EP7QObject@Base 4.96.0
 _ZN21KFileItemActionPluginC2EP7QObject@Base 4.96.0
 _ZN21KFileItemActionPluginD0Ev@Base 4.96.0
 _ZN21KFileItemActionPluginD1Ev@Base 4.96.0
 _ZN21KFileItemActionPluginD2Ev@Base 4.96.0
 _ZN21KSystemTimeZoneSource13endParseBlockEv@Base 4.96.0
 _ZN21KSystemTimeZoneSource15startParseBlockEv@Base 4.96.0
 _ZN21KSystemTimeZoneSourceC1Ev@Base 4.96.0
 _ZN21KSystemTimeZoneSourceC2Ev@Base 4.96.0
 _ZN21KSystemTimeZoneSourceD0Ev@Base 4.96.0
 _ZN21KSystemTimeZoneSourceD1Ev@Base 4.96.0
 _ZN21KSystemTimeZoneSourceD2Ev@Base 4.96.0
 _ZN21KTzfileTimeZoneSourceC1ERK7QString@Base 4.96.0
 _ZN21KTzfileTimeZoneSourceC2ERK7QString@Base 4.96.0
 _ZN21KTzfileTimeZoneSourceD0Ev@Base 4.96.0
 _ZN21KTzfileTimeZoneSourceD1Ev@Base 4.96.0
 _ZN21KTzfileTimeZoneSourceD2Ev@Base 4.96.0
 _ZN22KHueSaturationSelector11drawPaletteEP7QPixmap@Base 4.96.0
 _ZN22KHueSaturationSelector11qt_metacallEN11QMetaObject4CallEiPPv@Base 4.96.0
 _ZN22KHueSaturationSelector11qt_metacastEPKc@Base 4.96.0
 _ZN22KHueSaturationSelector11resizeEventEP12QResizeEvent@Base 4.96.0
 _ZN22KHueSaturationSelector12drawContentsEP8QPainter@Base 4.96.0
 _ZN22KHueSaturationSelector13setColorValueEi@Base 4.96.0
 _ZN22KHueSaturationSelector13setSaturationEi@Base 4.96.0
 _ZN22KHueSaturationSelector14setChooserModeE17KColorChooserMode@Base 4.96.0
 _ZN22KHueSaturationSelector14updateContentsEv@Base 4.96.0
 _ZN22KHueSaturationSelector16staticMetaObjectE@Base 4.96.0
 _ZN22KHueSaturationSelector6setHueEi@Base 4.96.0
 _ZN22KHueSaturationSelectorC1EP7QWidget@Base 4.96.0
 _ZN22KHueSaturationSelectorC2EP7QWidget@Base 4.96.0
 _ZN22KHueSaturationSelectorD0Ev@Base 4.96.0
 _ZN22KHueSaturationSelectorD1Ev@Base 4.96.0
 _ZN22KHueSaturationSelectorD2Ev@Base 4.96.0
 _ZN22KSystemTimeZoneBackendC1EP21KSystemTimeZoneSourceRK7QStringS4_ffS4_@Base 4.96.0
 _ZN22KSystemTimeZoneBackendC2EP21KSystemTimeZoneSourceRK7QStringS4_ffS4_@Base 4.96.0
 _ZN22KSystemTimeZoneBackendD0Ev@Base 4.96.0
 _ZN22KSystemTimeZoneBackendD1Ev@Base 4.96.0
 _ZN22KSystemTimeZoneBackendD2Ev@Base 4.96.0
 _ZN22KTzfileTimeZoneBackendC1EP21KTzfileTimeZoneSourceRK7QStringS4_ffS4_@Base 4.96.0
 _ZN22KTzfileTimeZoneBackendC2EP21KTzfileTimeZoneSourceRK7QStringS4_ffS4_@Base 4.96.0
 _ZN22KTzfileTimeZoneBackendD0Ev@Base 4.96.0
 _ZN22KTzfileTimeZoneBackendD1Ev@Base 4.96.0
 _ZN22KTzfileTimeZoneBackendD2Ev@Base 4.96.0
 _ZN25KMessageBoxMessageHandler11qt_metacallEN11QMetaObject4CallEiPPv@Base 4.96.0
 _ZN25KMessageBoxMessageHandler11qt_metacastEPKc@Base 4.96.0
 _ZN25KMessageBoxMessageHandler16staticMetaObjectE@Base 4.96.0
 _ZN25KMessageBoxMessageHandler7messageEN8KMessage11MessageTypeERK7QStringS4_@Base 4.96.0
 _ZN25KMessageBoxMessageHandlerC1EP7QWidget@Base 4.96.0
 _ZN25KMessageBoxMessageHandlerC2EP7QWidget@Base 4.96.0
 _ZN25KMessageBoxMessageHandlerD0Ev@Base 4.96.0
 _ZN25KMessageBoxMessageHandlerD1Ev@Base 4.96.0
 _ZN25KMessageBoxMessageHandlerD2Ev@Base 4.96.0
 _ZN27KPassivePopupMessageHandler11qt_metacallEN11QMetaObject4CallEiPPv@Base 4.96.0
 _ZN27KPassivePopupMessageHandler11qt_metacastEPKc@Base 4.96.0
 _ZN27KPassivePopupMessageHandler12parentWidgetEv@Base 4.96.0
 _ZN27KPassivePopupMessageHandler16showPassivePopupEN8KMessage11MessageTypeERK7QStringS4_@Base 4.96.0
 _ZN27KPassivePopupMessageHandler16staticMetaObjectE@Base 4.96.0
 _ZN27KPassivePopupMessageHandler7messageEN8KMessage11MessageTypeERK7QStringS4_@Base 4.96.0
 _ZN27KPassivePopupMessageHandlerC1EP7QWidget@Base 4.96.0
 _ZN27KPassivePopupMessageHandlerC2EP7QWidget@Base 4.96.0
 _ZN32KFileMetaDataConfigurationWidget11qt_metacallEN11QMetaObject4CallEiPPv@Base 4.96.0
 _ZN32KFileMetaDataConfigurationWidget11qt_metacastEPKc@Base 4.96.0
 _ZN32KFileMetaDataConfigurationWidget16staticMetaObjectE@Base 4.96.0
 _ZN32KFileMetaDataConfigurationWidget4saveEv@Base 4.96.0
 _ZN32KFileMetaDataConfigurationWidget5eventEP6QEvent@Base 4.96.0
 _ZN32KFileMetaDataConfigurationWidget7Private12loadMetaDataEv@Base 4.96.0
 _ZN32KFileMetaDataConfigurationWidget7Private19slotLoadingFinishedEv@Base 4.96.0
 _ZN32KFileMetaDataConfigurationWidget7Private7addItemERK4QUrl@Base 4.96.0
 _ZN32KFileMetaDataConfigurationWidget7PrivateC1EPS_@Base 4.96.0
 _ZN32KFileMetaDataConfigurationWidget7PrivateC2EPS_@Base 4.96.0
 _ZN32KFileMetaDataConfigurationWidget7PrivateD1Ev@Base 4.96.0
 _ZN32KFileMetaDataConfigurationWidget7PrivateD2Ev@Base 4.96.0
 _ZN32KFileMetaDataConfigurationWidget8setItemsERK13KFileItemList@Base 4.96.0
 _ZN32KFileMetaDataConfigurationWidgetC1EP7QWidget@Base 4.96.0
 _ZN32KFileMetaDataConfigurationWidgetC2EP7QWidget@Base 4.96.0
 _ZN32KFileMetaDataConfigurationWidgetD0Ev@Base 4.96.0
 _ZN32KFileMetaDataConfigurationWidgetD1Ev@Base 4.96.0
 _ZN32KFileMetaDataConfigurationWidgetD2Ev@Base 4.96.0
 _ZN3KDE12versionMajorEv@Base 4.96.0
 _ZN3KDE12versionMinorEv@Base 4.96.0
 _ZN3KDE13versionStringEv@Base 4.96.0
 _ZN3KDE14versionReleaseEv@Base 4.96.0
 _ZN3KDE7versionEv@Base 4.96.0
 _ZN3KIO11MetaInfoJob10removeItemERK9KFileItem@Base 4.96.0
 _ZN3KIO11MetaInfoJob10slotResultEP4KJob@Base 4.96.0
 _ZN3KIO11MetaInfoJob11getMetaInfoEv@Base 4.96.0
 _ZN3KIO11MetaInfoJob11gotMetaInfoERK9KFileItem@Base 4.96.0
 _ZN3KIO11MetaInfoJob11qt_metacallEN11QMetaObject4CallEiPPv@Base 4.96.0
 _ZN3KIO11MetaInfoJob11qt_metacastEPKc@Base 4.96.0
 _ZN3KIO11MetaInfoJob12slotMetaInfoEPNS_3JobERK10QByteArray@Base 4.96.0
 _ZN3KIO11MetaInfoJob16staticMetaObjectE@Base 4.96.0
 _ZN3KIO11MetaInfoJob17determineNextFileEv@Base 4.96.0
 _ZN3KIO11MetaInfoJob5startEv@Base 4.96.0
 _ZN3KIO11MetaInfoJob6failedERK9KFileItem@Base 4.96.0
 _ZN3KIO11MetaInfoJobC1ERK13KFileItemList6QFlagsIN13KFileMetaInfo4WhatEEiiRK11QStringListSA_@Base 4.96.0
 _ZN3KIO11MetaInfoJobC2ERK13KFileItemList6QFlagsIN13KFileMetaInfo4WhatEEiiRK11QStringListSA_@Base 4.96.0
 _ZN3KIO11MetaInfoJobD0Ev@Base 4.96.0
 _ZN3KIO11MetaInfoJobD1Ev@Base 4.96.0
 _ZN3KIO11MetaInfoJobD2Ev@Base 4.96.0
 _ZN3KIO12fileMetaInfoERK13KFileItemList@Base 4.96.0
 _ZN3KIO12fileMetaInfoERK5QListI4QUrlE@Base 4.96.0
 _ZN3KIO14PasswordDialog11qt_metacallEN11QMetaObject4CallEiPPv@Base 4.96.0
 _ZN3KIO14PasswordDialog11qt_metacastEPKc@Base 4.96.0
 _ZN3KIO14PasswordDialog16staticMetaObjectE@Base 4.96.0
 _ZN3KIO14PasswordDialog18getNameAndPasswordER7QStringS2_PbRKS1_bS5_S5_S5_@Base 4.96.0
 _ZN3KIO14PasswordDialogC1ERK7QStringS3_bbP7QWidget@Base 4.96.0
 _ZN3KIO14PasswordDialogC2ERK7QStringS3_bbP7QWidget@Base 4.96.0
 _ZN3KIO14PasswordDialogD0Ev@Base 4.96.0
 _ZN3KIO14PasswordDialogD1Ev@Base 4.96.0
 _ZN3KIO14PasswordDialogD2Ev@Base 4.96.0
 _ZN3KIO9NetAccess10enter_loopEv@Base 4.96.0
 _ZN3KIO9NetAccess10slotResultEP4KJob@Base 4.96.0
 _ZN3KIO9NetAccess11delInternalERK4QUrlP7QWidget@Base 4.96.0
 _ZN3KIO9NetAccess11qt_metacallEN11QMetaObject4CallEiPPv@Base 4.96.0
 _ZN3KIO9NetAccess11qt_metacastEPKc@Base 4.96.0
 _ZN3KIO9NetAccess12fish_executeERK4QUrlRK7QStringP7QWidget@Base 4.96.0
 _ZN3KIO9NetAccess12mostLocalUrlERK4QUrlP7QWidget@Base 4.96.0
 _ZN3KIO9NetAccess12slotMimetypeEPNS_3JobERK7QString@Base 4.96.0
 _ZN3KIO9NetAccess12statInternalERK4QUrliNS0_8StatSideEP7QWidget@Base 4.96.0
 _ZN3KIO9NetAccess13leaveModalityEv@Base 4.96.0
 _ZN3KIO9NetAccess13mkdirInternalERK4QUrliP7QWidget@Base 4.96.0
 _ZN3KIO9NetAccess14removeTempFileERK7QString@Base 4.96.0
 _ZN3KIO9NetAccess14synchronousRunEPNS_3JobEP7QWidgetP10QByteArrayP4QUrlP4QMapI7QStringSA_E@Base 4.96.0
 _ZN3KIO9NetAccess15dircopyInternalERK5QListI4QUrlERKS2_P7QWidgetb@Base 4.96.0
 _ZN3KIO9NetAccess15lastErrorStringEv@Base 4.96.0
 _ZN3KIO9NetAccess15slotRedirectionEPNS_3JobERK4QUrl@Base 4.96.0
 _ZN3KIO9NetAccess16filecopyInternalERK4QUrlS3_i6QFlagsINS_7JobFlagEEP7QWidgetb@Base 4.96.0
 _ZN3KIO9NetAccess16mimetypeInternalERK4QUrlP7QWidget@Base 4.96.0
 _ZN3KIO9NetAccess16staticMetaObjectE@Base 4.96.0
 _ZN3KIO9NetAccess20fish_executeInternalERK4QUrlRK7QStringP7QWidget@Base 4.96.0
 _ZN3KIO9NetAccess22synchronousRunInternalEPNS_3JobEP7QWidgetP10QByteArrayP4QUrlP4QMapI7QStringSA_E@Base 4.96.0
 _ZN3KIO9NetAccess3delERK4QUrlP7QWidget@Base 4.96.0
 _ZN3KIO9NetAccess4copyERK4QUrlS3_P7QWidget@Base 4.96.0
 _ZN3KIO9NetAccess4moveERK4QUrlS3_P7QWidget@Base 4.96.0
 _ZN3KIO9NetAccess4moveERK5QListI4QUrlERKS2_P7QWidget@Base 4.96.0
 _ZN3KIO9NetAccess4statERK4QUrlRNS_8UDSEntryEP7QWidget@Base 4.96.0
 _ZN3KIO9NetAccess5mkdirERK4QUrlP7QWidgeti@Base 4.96.0
 _ZN3KIO9NetAccess6existsERK4QUrlNS0_8StatSideEP7QWidget@Base 4.96.0
 _ZN3KIO9NetAccess6existsERK4QUrlbP7QWidget@Base 4.96.0
 _ZN3KIO9NetAccess6uploadERK7QStringRK4QUrlP7QWidget@Base 4.96.0
 _ZN3KIO9NetAccess7dircopyERK4QUrlS3_P7QWidget@Base 4.96.0
 _ZN3KIO9NetAccess7dircopyERK5QListI4QUrlERKS2_P7QWidget@Base 4.96.0
 _ZN3KIO9NetAccess8downloadERK4QUrlR7QStringP7QWidget@Base 4.96.0
 _ZN3KIO9NetAccess8mimetypeERK4QUrlP7QWidget@Base 4.96.0
 _ZN3KIO9NetAccess8slotDataEPNS_3JobERK10QByteArray@Base 4.96.0
 _ZN3KIO9NetAccess9file_copyERK4QUrlS3_P7QWidget@Base 4.96.0
 _ZN3KIO9NetAccess9lastErrorEv@Base 4.96.0
 _ZN3KIO9NetAccessC1Ev@Base 4.96.0
 _ZN3KIO9NetAccessC2Ev@Base 4.96.0
 _ZN3KIO9NetAccessD0Ev@Base 4.96.0
 _ZN3KIO9NetAccessD1Ev@Base 4.96.0
 _ZN3KIO9NetAccessD2Ev@Base 4.96.0
 _ZN4KMD512base64DigestEv@Base 4.96.0
 _ZN4KMD52FFERjjjjjjj@Base 4.96.0
 _ZN4KMD52GGERjjjjjjj@Base 4.96.0
 _ZN4KMD52HHERjjjjjjj@Base 4.96.0
 _ZN4KMD52IIERjjjjjjj@Base 4.96.0
 _ZN4KMD54initEv@Base 4.96.0
 _ZN4KMD55resetEv@Base 4.96.0
 _ZN4KMD56decodeEPjPKhj@Base 4.96.0
 _ZN4KMD56encodeEPhPjj@Base 4.96.0
 _ZN4KMD56updateEPKci@Base 4.96.0
 _ZN4KMD56updateEPKhi@Base 4.96.0
 _ZN4KMD56updateER9QIODevice@Base 4.96.0
 _ZN4KMD56updateERK10QByteArray@Base 4.96.0
 _ZN4KMD56verifyERA16_Kh@Base 4.96.0
 _ZN4KMD56verifyERK10QByteArray@Base 4.96.0
 _ZN4KMD58finalizeEv@Base 4.96.0
 _ZN4KMD59hexDigestER10QByteArray@Base 4.96.0
 _ZN4KMD59hexDigestEv@Base 4.96.0
 _ZN4KMD59rawDigestERA16_h@Base 4.96.0
 _ZN4KMD59rawDigestEv@Base 4.96.0
 _ZN4KMD59transformEPKh@Base 4.96.0
 _ZN4KMD5C1EPKci@Base 4.96.0
 _ZN4KMD5C1ERK10QByteArray@Base 4.96.0
 _ZN4KMD5C1Ev@Base 4.96.0
 _ZN4KMD5C2EPKci@Base 4.96.0
 _ZN4KMD5C2ERK10QByteArray@Base 4.96.0
 _ZN4KMD5C2Ev@Base 4.96.0
 _ZN4KMD5D1Ev@Base 4.96.0
 _ZN4KMD5D2Ev@Base 4.96.0
 _ZN4KSSL10initializeEv@Base 4.96.0
 _ZN4KSSL11doesSSLWorkEv@Base 4.96.0
 _ZN4KSSL11m_bSSLWorksE@Base 4.96.0
 _ZN4KSSL11seedWithEGDEv@Base 4.96.0
 _ZN4KSSL11setSettingsEP12KSSLSettings@Base 4.96.0
 _ZN4KSSL12reInitializeEv@Base 4.96.0
 _ZN4KSSL15setAutoReconfigEb@Base 4.96.0
 _ZN4KSSL5closeEv@Base 4.96.0
 _ZN4KSSL8reconfigEv@Base 4.96.0
 _ZN4KSSL8settingsEv@Base 4.96.0
 _ZN4KSSLC1Eb@Base 4.96.0
 _ZN4KSSLC2Eb@Base 4.96.0
 _ZN4KSSLD1Ev@Base 4.96.0
 _ZN4KSSLD2Ev@Base 4.96.0
 _ZN4KUrl10adjustPathENS_16AdjustPathOptionE@Base 4.96.0
 _ZN4KUrl10setHTMLRefERK7QString@Base 4.96.0
 _ZN4KUrl11relativeUrlERKS_S1_@Base 4.96.0
 _ZN4KUrl11setFileNameERK7QString@Base 4.96.0
 _ZN4KUrl11setProtocolERK7QString@Base 4.96.0
 _ZN4KUrl12addQueryItemERK7QStringS2_@Base 4.96.0
 _ZN4KUrl12relativePathERK7QStringS2_Pb@Base 4.96.0
 _ZN4KUrl12setDirectoryERK7QString@Base 4.96.0
 _ZN4KUrl13fromPathOrUrlERK7QString@Base 4.96.0
 _ZN4KUrl13isRelativeUrlERK7QString@Base 4.96.0
 _ZN4KUrl14_setEncodedUrlERK10QByteArray@Base 4.96.0
 _ZN4KUrl15setFileEncodingERK7QString@Base 4.96.0
 _ZN4KUrl22setEncodedPathAndQueryERK7QString@Base 4.96.0
 _ZN4KUrl2cdERK7QString@Base 4.96.0
 _ZN4KUrl4List12fromMimeDataEPK9QMimeDataNS0_13DecodeOptionsEP4QMapI7QStringS6_E@Base 4.96.0
 _ZN4KUrl4List13mimeDataTypesEv@Base 4.96.0
 _ZN4KUrl4List9canDecodeEPK9QMimeData@Base 4.96.0
 _ZN4KUrl4ListC1ERK11QStringList@Base 4.96.0
 _ZN4KUrl4ListC1ERK5QListI4QUrlE@Base 4.96.0
 _ZN4KUrl4ListC1ERK5QListIS_E@Base 4.96.0
 _ZN4KUrl4ListC1ERKS_@Base 4.96.0
 _ZN4KUrl4ListC2ERK11QStringList@Base 4.96.0
 _ZN4KUrl4ListC2ERK5QListI4QUrlE@Base 4.96.0
 _ZN4KUrl4ListC2ERK5QListIS_E@Base 4.96.0
 _ZN4KUrl4ListC2ERKS_@Base 4.96.0
 _ZN4KUrl4joinERKNS_4ListE@Base 4.96.0
 _ZN4KUrl5splitERK7QString@Base 4.96.0
 _ZN4KUrl5splitERKS_@Base 4.96.0
 _ZN4KUrl6setRefERK7QString@Base 4.96.0
 _ZN4KUrl7addPathERK7QString@Base 4.96.0
 _ZN4KUrl7setPassERK7QString@Base 4.96.0
 _ZN4KUrl7setPathERK7QString@Base 4.96.0
 _ZN4KUrl7setUserERK7QString@Base 4.96.0
 _ZN4KUrl8setQueryERK7QString@Base 4.96.0
 _ZN4KUrl9_setQueryERK7QString@Base 4.96.0
 _ZN4KUrl9cleanPathERKNS_15CleanPathOptionE@Base 4.96.0
 _ZN4KUrlC1EPKc@Base 4.96.0
 _ZN4KUrlC1ERK10QByteArray@Base 4.96.0
 _ZN4KUrlC1ERK4QUrl@Base 4.96.0
 _ZN4KUrlC1ERK7QString@Base 4.96.0
 _ZN4KUrlC1ERKS_@Base 4.96.0
 _ZN4KUrlC1ERKS_RK7QString@Base 4.96.0
 _ZN4KUrlC1Ev@Base 4.96.0
 _ZN4KUrlC2EPKc@Base 4.96.0
 _ZN4KUrlC2ERK10QByteArray@Base 4.96.0
 _ZN4KUrlC2ERK4QUrl@Base 4.96.0
 _ZN4KUrlC2ERK7QString@Base 4.96.0
 _ZN4KUrlC2ERKS_@Base 4.96.0
 _ZN4KUrlC2ERKS_RK7QString@Base 4.96.0
 _ZN4KUrlC2Ev@Base 4.96.0
 _ZN4KUrlD1Ev@Base 4.96.0
 _ZN4KUrlD2Ev@Base 4.96.0
 _ZN4KUrlaSERKS_@Base 4.96.0
 _ZN5KHBox10childEventEP11QChildEvent@Base 4.96.0
 _ZN5KHBox10setSpacingEi@Base 4.96.0
 _ZN5KHBox11qt_metacallEN11QMetaObject4CallEiPPv@Base 4.96.0
 _ZN5KHBox11qt_metacastEPKc@Base 4.96.0
 _ZN5KHBox16setStretchFactorEP7QWidgeti@Base 4.96.0
 _ZN5KHBox16staticMetaObjectE@Base 4.96.0
 _ZN5KHBox9setMarginEi@Base 4.96.0
 _ZN5KHBoxC1EP7QWidget@Base 4.96.0
 _ZN5KHBoxC1EbP7QWidget@Base 4.96.0
 _ZN5KHBoxC2EP7QWidget@Base 4.96.0
 _ZN5KHBoxC2EbP7QWidget@Base 4.96.0
 _ZN5KHBoxD0Ev@Base 4.96.0
 _ZN5KHBoxD1Ev@Base 4.96.0
 _ZN5KHBoxD2Ev@Base 4.96.0
 _ZN5KIconC1ERK5QIcon@Base 4.96.0
 _ZN5KIconC1ERK7QString@Base 4.96.0
 _ZN5KIconC1ERK7QStringP11KIconLoader@Base 4.96.0
 _ZN5KIconC1ERK7QStringP11KIconLoaderRK11QStringList@Base 4.96.0
 _ZN5KIconC1Ev@Base 4.96.0
 _ZN5KIconC2ERK5QIcon@Base 4.96.0
 _ZN5KIconC2ERK7QString@Base 4.96.0
 _ZN5KIconC2ERK7QStringP11KIconLoader@Base 4.96.0
 _ZN5KIconC2ERK7QStringP11KIconLoaderRK11QStringList@Base 4.96.0
 _ZN5KIconC2Ev@Base 4.96.0
 _ZN5KIconD1Ev@Base 4.96.0
 _ZN5KIconD2Ev@Base 4.96.0
 _ZN5KMenu10closeEventEP11QCloseEvent@Base 4.96.0
 _ZN5KMenu11contextMenuEv@Base 4.96.0
 _ZN5KMenu11qt_metacallEN11QMetaObject4CallEiPPv@Base 4.96.0
 _ZN5KMenu11qt_metacastEPKc@Base 4.96.0
 _ZN5KMenu12KMenuPrivate10skipTitlesEP9QKeyEvent@Base 4.96.0
 _ZN5KMenu12KMenuPrivate11showCtxMenuERK6QPoint@Base 4.96.0
 _ZN5KMenu12KMenuPrivate13actionHoveredEP7QAction@Base 4.96.0
 _ZN5KMenu12KMenuPrivate17resetKeyboardVarsEb@Base 4.96.0
 _ZN5KMenu12KMenuPrivateC1EPS_@Base 4.96.0
 _ZN5KMenu12KMenuPrivateC2EPS_@Base 4.96.0
 _ZN5KMenu12KMenuPrivateD0Ev@Base 4.96.0
 _ZN5KMenu12KMenuPrivateD1Ev@Base 4.96.0
 _ZN5KMenu12KMenuPrivateD2Ev@Base 4.96.0
 _ZN5KMenu13keyPressEventEP9QKeyEvent@Base 4.96.0
 _ZN5KMenu13underlineTextERK7QStringj@Base 4.96.0
 _ZN5KMenu15hideContextMenuEv@Base 4.96.0
 _ZN5KMenu15mousePressEventEP11QMouseEvent@Base 4.96.0
 _ZN5KMenu16contextMenuEventEP17QContextMenuEvent@Base 4.96.0
 _ZN5KMenu16contextMenuFocusEv@Base 4.96.0
 _ZN5KMenu16staticMetaObjectE@Base 4.96.0
 _ZN5KMenu17mouseReleaseEventEP11QMouseEvent@Base 4.96.0
 _ZN5KMenu18focusNextPrevChildEb@Base 4.96.0
 _ZN5KMenu22aboutToShowContextMenuEPS_P7QActionP5QMenu@Base 4.96.0
 _ZN5KMenu22contextMenuFocusActionEv@Base 4.96.0
 _ZN5KMenu27setKeyboardShortcutsEnabledEb@Base 4.96.0
 _ZN5KMenu27setKeyboardShortcutsExecuteEb@Base 4.96.0
 _ZN5KMenu8addTitleERK5QIconRK7QStringP7QAction@Base 4.96.0
 _ZN5KMenu8addTitleERK7QStringP7QAction@Base 4.96.0
 _ZN5KMenu9hideEventEP10QHideEvent@Base 4.96.0
 _ZN5KMenuC1EP7QWidget@Base 4.96.0
 _ZN5KMenuC1ERK7QStringP7QWidget@Base 4.96.0
 _ZN5KMenuC2EP7QWidget@Base 4.96.0
 _ZN5KMenuC2ERK7QStringP7QWidget@Base 4.96.0
 _ZN5KMenuD0Ev@Base 4.96.0
 _ZN5KMenuD1Ev@Base 4.96.0
 _ZN5KMenuD2Ev@Base 4.96.0
 _ZN5KVBox11qt_metacallEN11QMetaObject4CallEiPPv@Base 4.96.0
 _ZN5KVBox11qt_metacastEPKc@Base 4.96.0
 _ZN5KVBox16staticMetaObjectE@Base 4.96.0
 _ZN5KVBoxC1EP7QWidget@Base 4.96.0
 _ZN5KVBoxC2EP7QWidget@Base 4.96.0
 _ZN5KVBoxD0Ev@Base 4.96.0
 _ZN5KVBoxD1Ev@Base 4.96.0
 _ZN5KVBoxD2Ev@Base 4.96.0
 _ZN5QTest14kWaitForSignalEP7QObjectPKci@Base 4.96.0
 _ZN5Solid10Networking13connectPolicyEv@Base 4.99.0
 _ZN5Solid10Networking16disconnectPolicyEv@Base 4.99.0
 _ZN5Solid10Networking16setConnectPolicyENS0_16ManagementPolicyE@Base 4.99.0
 _ZN5Solid10Networking19setDisconnectPolicyENS0_16ManagementPolicyE@Base 4.99.0
 _ZN5Solid10Networking6statusEv@Base 4.99.0
 _ZN5Solid10Networking8Notifier11qt_metacallEN11QMetaObject4CallEiPPv@Base 4.99.0
 _ZN5Solid10Networking8Notifier11qt_metacastEPKc@Base 4.99.0
 _ZN5Solid10Networking8Notifier13shouldConnectEv@Base 4.99.0
 _ZN5Solid10Networking8Notifier13statusChangedENS0_6StatusE@Base 4.99.0
 _ZN5Solid10Networking8Notifier16shouldDisconnectEv@Base 4.99.0
 _ZN5Solid10Networking8Notifier16staticMetaObjectE@Base 4.99.0
 _ZN5Solid10Networking8NotifierC1Ev@Base 4.99.0
 _ZN5Solid10Networking8NotifierC2Ev@Base 4.99.0
 _ZN5Solid10Networking8notifierEv@Base 4.99.0
 _ZN5Solid15PowerManagement12requestSleepENS0_10SleepStateEP7QObjectPKc@Base 4.99.0
 _ZN5Solid15PowerManagement20stopSuppressingSleepEi@Base 4.99.0
 _ZN5Solid15PowerManagement20supportedSleepStatesEv@Base 4.99.0
 _ZN5Solid15PowerManagement21beginSuppressingSleepERK7QString@Base 4.99.0
 _ZN5Solid15PowerManagement26appShouldConserveResourcesEv@Base 4.99.0
 _ZN5Solid15PowerManagement36stopSuppressingScreenPowerManagementEi@Base 4.99.0
 _ZN5Solid15PowerManagement37beginSuppressingScreenPowerManagementERK7QString@Base 4.99.0
 _ZN5Solid15PowerManagement8Notifier11qt_metacallEN11QMetaObject4CallEiPPv@Base 4.99.0
 _ZN5Solid15PowerManagement8Notifier11qt_metacastEPKc@Base 4.99.0
 _ZN5Solid15PowerManagement8Notifier16staticMetaObjectE@Base 4.99.0
 _ZN5Solid15PowerManagement8Notifier19resumingFromSuspendEv@Base 4.99.0
 _ZN5Solid15PowerManagement8Notifier33appShouldConserveResourcesChangedEb@Base 4.99.0
 _ZN5Solid15PowerManagement8NotifierC1Ev@Base 4.99.0
 _ZN5Solid15PowerManagement8NotifierC2Ev@Base 4.99.0
 _ZN5Solid15PowerManagement8notifierEv@Base 4.99.0
 _ZN6K3IconC1Ev@Base 4.96.0
 _ZN6K3IconC2Ev@Base 4.96.0
 _ZN6K3IconD1Ev@Base 4.96.0
 _ZN6K3IconD2Ev@Base 4.96.0
 _ZN6KDebug12registerAreaERK10QByteArrayb@Base 4.96.0
 _ZN6KDebug13hasNullOutputE9QtMsgTypebib@Base 4.96.0
 _ZN6KDebug5BlockC1EPKci@Base 4.96.0
 _ZN6KDebug5BlockC2EPKci@Base 4.96.0
 _ZN6KDebug5BlockD1Ev@Base 4.96.0
 _ZN6KDebug5BlockD2Ev@Base 4.96.0
 _ZN6KParts7Factory10createPartEP7QWidgetP7QObjectPKcRK11QStringList@Base 4.96.0
 _ZN6KParts7Factory11qt_metacallEN11QMetaObject4CallEiPPv@Base 4.96.0
 _ZN6KParts7Factory11qt_metacastEPKc@Base 4.96.0
 _ZN6KParts7Factory12createObjectEP7QObjectPKcRK11QStringList@Base 4.96.0
 _ZN6KParts7Factory16createPartObjectEP7QWidgetP7QObjectPKcRK11QStringList@Base 4.96.0
 _ZN6KParts7Factory16staticMetaObjectE@Base 4.96.0
 _ZN6KParts7Factory17partComponentDataEv@Base 4.96.0
 _ZN6KParts7Factory28partComponentDataFromLibraryERK7QString@Base 4.96.0
 _ZN6KParts7FactoryC1EP7QObject@Base 4.96.0
 _ZN6KParts7FactoryC2EP7QObject@Base 4.96.0
 _ZN6KParts7FactoryD0Ev@Base 4.96.0
 _ZN6KParts7FactoryD1Ev@Base 4.96.0
 _ZN6KParts7FactoryD2Ev@Base 4.96.0
 _ZN7K4Style10TextOption4initEv@Base 4.96.0
 _ZN7K4Style10TextOptionC1ERK7QString@Base 4.96.0
 _ZN7K4Style10TextOptionC1Ev@Base 4.96.0
 _ZN7K4Style10TextOptionC2ERK7QString@Base 4.96.0
 _ZN7K4Style10TextOptionC2Ev@Base 4.96.0
 _ZN7K4Style11eventFilterEP7QObjectP6QEvent@Base 4.96.0
 _ZN7K4Style11qt_metacallEN11QMetaObject4CallEiPPv@Base 4.96.0
 _ZN7K4Style11qt_metacastEPKc@Base 4.96.0
 _ZN7K4Style12defaultStyleEv@Base 4.96.0
 _ZN7K4Style12newStyleHintERK7QString@Base 4.96.0
 _ZN7K4Style13extractOptionIPNS_10IconOptionEEET_PNS_6OptionE@Base 4.96.0
 _ZN7K4Style13extractOptionIPNS_10TextOptionEEET_PNS_6OptionE@Base 4.96.0
 _ZN7K4Style13extractOptionIPNS_11ColorOptionEEET_PNS_6OptionE@Base 4.96.0
 _ZN7K4Style13extractOptionIPNS_17TitleButtonOptionEEET_PNS_6OptionE@Base 4.96.0
 _ZN7K4Style13newSubElementERK7QString@Base 4.96.0
 _ZN7K4Style15customStyleHintERK7QStringPK7QWidget@Base 4.96.0
 _ZN7K4Style16customSubElementERK7QStringPK7QWidget@Base 4.96.0
 _ZN7K4Style16staticMetaObjectE@Base 4.96.0
 _ZN7K4Style17newControlElementERK7QString@Base 4.96.0
 _ZN7K4Style19setWidgetLayoutPropENS_10WidgetTypeEii@Base 4.96.0
 _ZN7K4Style20customControlElementERK7QStringPK7QWidget@Base 4.96.0
 _ZN7K4Style6polishEP12QApplication@Base 4.96.0
 _ZN7K4Style6polishEP7QWidget@Base 4.96.0
 _ZN7K4Style6polishER8QPalette@Base 4.96.0
 _ZN7K4Style8unpolishEP12QApplication@Base 4.96.0
 _ZN7K4Style8unpolishEP7QWidget@Base 4.96.0
 _ZN7K4Style9ColorMode5colorERK8QPalette@Base 4.96.0
 _ZN7K4Style9ColorModeC1EN8QPalette9ColorRoleE@Base 4.96.0
 _ZN7K4Style9ColorModeC1ENS0_4ModeEN8QPalette9ColorRoleE@Base 4.96.0
 _ZN7K4Style9ColorModeC1Ei@Base 4.96.0
 _ZN7K4Style9ColorModeC2EN8QPalette9ColorRoleE@Base 4.96.0
 _ZN7K4Style9ColorModeC2ENS0_4ModeEN8QPalette9ColorRoleE@Base 4.96.0
 _ZN7K4Style9ColorModeC2Ei@Base 4.96.0
 _ZN7K4StyleC1Ev@Base 4.96.0
 _ZN7K4StyleC2Ev@Base 4.96.0
 _ZN7K4StyleD0Ev@Base 4.96.0
 _ZN7K4StyleD1Ev@Base 4.96.0
 _ZN7K4StyleD2Ev@Base 4.96.0
 _ZN7KAction10authorizedERKN5KAuth6ActionE@Base 4.96.0
 _ZN7KAction11qt_metacallEN11QMetaObject4CallEiPPv@Base 4.96.0
 _ZN7KAction11qt_metacastEPKc@Base 4.96.0
 _ZN7KAction11setHelpTextERK7QString@Base 4.96.0
 _ZN7KAction11setShortcutERK12QKeySequence6QFlagsINS_12ShortcutTypeEE@Base 4.96.0
 _ZN7KAction11setShortcutERK9KShortcut6QFlagsINS_12ShortcutTypeEE@Base 4.96.0
 _ZN7KAction12setShortcutsERK5QListI12QKeySequenceE6QFlagsINS_12ShortcutTypeEE@Base 4.96.0
 _ZN7KAction13setAuthActionERK7QString@Base 4.96.0
 _ZN7KAction13setAuthActionERKN5KAuth6ActionE@Base 4.96.0
 _ZN7KAction15setShapeGestureERK13KShapeGesture6QFlagsINS_12ShortcutTypeEE@Base 4.96.0
 _ZN7KAction16setRockerGestureERK14KRockerGesture6QFlagsINS_12ShortcutTypeEE@Base 4.96.0
 _ZN7KAction16staticMetaObjectE@Base 4.96.0
 _ZN7KAction17setGlobalShortcutERK9KShortcut6QFlagsINS_12ShortcutTypeEENS_21GlobalShortcutLoadingE@Base 4.96.0
 _ZN7KAction20forgetGlobalShortcutEv@Base 4.96.0
 _ZN7KAction21globalShortcutChangedERK12QKeySequence@Base 4.96.0
 _ZN7KAction23setShortcutConfigurableEb@Base 4.96.0
 _ZN7KAction24setGlobalShortcutAllowedEbNS_21GlobalShortcutLoadingE@Base 4.96.0
 _ZN7KAction9triggeredE6QFlagsIN2Qt11MouseButtonEES0_INS1_16KeyboardModifierEE@Base 4.96.0
 _ZN7KActionC1EP7QObject@Base 4.96.0
 _ZN7KActionC1ERK5QIconRK7QStringP7QObject@Base 4.96.0
 _ZN7KActionC1ERK7QStringP7QObject@Base 4.96.0
 _ZN7KActionC2EP7QObject@Base 4.96.0
 _ZN7KActionC2ERK5QIconRK7QStringP7QObject@Base 4.96.0
 _ZN7KActionC2ERK7QStringP7QObject@Base 4.96.0
 _ZN7KActionD0Ev@Base 4.96.0
 _ZN7KActionD1Ev@Base 4.96.0
 _ZN7KActionD2Ev@Base 4.96.0
 _ZN7KDialog10closeEventEP11QCloseEvent@Base 4.96.0
 _ZN7KDialog10mainWidgetEv@Base 4.96.0
 _ZN7KDialog10marginHintEv@Base 4.96.0
 _ZN7KDialog10setButtonsE6QFlagsINS_10ButtonCodeEE@Base 4.96.0
 _ZN7KDialog10setCaptionERK7QString@Base 4.96.0
 _ZN7KDialog10setCaptionERK7QStringb@Base 4.96.0
 _ZN7KDialog10showButtonENS_10ButtonCodeEb@Base 4.96.0
 _ZN7KDialog10tryClickedEv@Base 4.96.0
 _ZN7KDialog10yesClickedEv@Base 4.96.0
 _ZN7KDialog11helpClickedEv@Base 4.96.0
 _ZN7KDialog11qt_metacallEN11QMetaObject4CallEiPPv@Base 4.96.0
 _ZN7KDialog11qt_metacastEPKc@Base 4.96.0
 _ZN7KDialog11spacingHintEv@Base 4.96.0
 _ZN7KDialog12applyClickedEv@Base 4.96.0
 _ZN7KDialog12closeClickedEv@Base 4.96.0
 _ZN7KDialog12enableButtonENS_10ButtonCodeEb@Base 4.96.0
 _ZN7KDialog12resetClickedEv@Base 4.96.0
 _ZN7KDialog12resizeLayoutEP7QLayoutii@Base 4.96.0
 _ZN7KDialog12resizeLayoutEP7QWidgetii@Base 4.96.0
 _ZN7KDialog12user1ClickedEv@Base 4.96.0
 _ZN7KDialog12user2ClickedEv@Base 4.96.0
 _ZN7KDialog12user3ClickedEv@Base 4.96.0
 _ZN7KDialog13buttonClickedENS_10ButtonCodeE@Base 4.96.0
 _ZN7KDialog13cancelClickedEv@Base 4.96.0
 _ZN7KDialog13keyPressEventEP9QKeyEvent@Base 4.96.0
 _ZN7KDialog13setButtonIconENS_10ButtonCodeERK5QIcon@Base 4.96.0
 _ZN7KDialog13setButtonMenuENS_10ButtonCodeEP5QMenuNS_15ButtonPopupModeE@Base 4.96.0
 _ZN7KDialog13setButtonTextENS_10ButtonCodeERK7QString@Base 4.96.0
 _ZN7KDialog13setMainWidgetEP7QWidget@Base 4.96.0
 _ZN7KDialog14centerOnScreenEP7QWidgeti@Base 4.96.0
 _ZN7KDialog14defaultClickedEv@Base 4.96.0
 _ZN7KDialog14enableButtonOkEb@Base 4.96.0
 _ZN7KDialog14setButtonFocusENS_10ButtonCodeE@Base 4.96.0
 _ZN7KDialog14setInitialSizeERK5QSize@Base 4.96.0
 _ZN7KDialog14updateGeometryEv@Base 4.96.0
 _ZN7KDialog15delayedDestructEv@Base 4.96.0
 _ZN7KDialog15setEscapeButtonENS_10ButtonCodeE@Base 4.96.0
 _ZN7KDialog15setHelpLinkTextERK7QString@Base 4.96.0
 _ZN7KDialog15setPlainCaptionERK7QString@Base 4.96.0
 _ZN7KDialog16enableLinkedHelpEb@Base 4.96.0
 _ZN7KDialog16groupSpacingHintEv@Base 4.96.0
 _ZN7KDialog16setButtonGuiItemENS_10ButtonCodeERK8KGuiItem@Base 4.96.0
 _ZN7KDialog16setButtonToolTipENS_10ButtonCodeERK7QString@Base 4.96.0
 _ZN7KDialog16setDefaultButtonENS_10ButtonCodeE@Base 4.96.0
 _ZN7KDialog16setDetailsWidgetEP7QWidget@Base 4.96.0
 _ZN7KDialog16staticMetaObjectE@Base 4.96.0
 _ZN7KDialog17enableButtonApplyEb@Base 4.96.0
 _ZN7KDialog17layoutHintChangedEv@Base 4.96.0
 _ZN7KDialog17restoreDialogSizeERK12KConfigGroup@Base 4.96.0
 _ZN7KDialog17slotButtonClickedEi@Base 4.96.0
 _ZN7KDialog18aboutToShowDetailsEv@Base 4.96.0
 _ZN7KDialog18enableButtonCancelEb@Base 4.96.0
 _ZN7KDialog18setButtonWhatsThisENS_10ButtonCodeERK7QString@Base 4.96.0
 _ZN7KDialog19makeStandardCaptionERK7QStringP7QWidget6QFlagsINS_11CaptionFlagEE@Base 4.96.0
 _ZN7KDialog19showButtonSeparatorEb@Base 4.96.0
 _ZN7KDialog20incrementInitialSizeERK5QSize@Base 4.96.0
 _ZN7KDialog21setButtonsOrientationEN2Qt11OrientationE@Base 4.96.0
 _ZN7KDialog23setDetailsWidgetVisibleEb@Base 4.96.0
 _ZN7KDialog31setAllowEmbeddingInGraphicsViewEb@Base 4.96.0
 _ZN7KDialog6hiddenEv@Base 4.96.0
 _ZN7KDialog7setHelpERK7QStringS2_@Base 4.96.0
 _ZN7KDialog8finishedEv@Base 4.96.0
 _ZN7KDialog9avoidAreaEP7QWidgetRK5QRecti@Base 4.96.0
 _ZN7KDialog9hideEventEP10QHideEvent@Base 4.96.0
 _ZN7KDialog9noClickedEv@Base 4.96.0
 _ZN7KDialog9okClickedEv@Base 4.96.0
 _ZN7KDialogC1EP7QWidget6QFlagsIN2Qt10WindowTypeEE@Base 4.96.0
 _ZN7KDialogC1ER14KDialogPrivateP7QWidget6QFlagsIN2Qt10WindowTypeEE@Base 4.96.0
 _ZN7KDialogC2EP7QWidget6QFlagsIN2Qt10WindowTypeEE@Base 4.96.0
 _ZN7KDialogC2ER14KDialogPrivateP7QWidget6QFlagsIN2Qt10WindowTypeEE@Base 4.96.0
 _ZN7KDialogD0Ev@Base 4.96.0
 _ZN7KDialogD1Ev@Base 4.96.0
 _ZN7KDialogD2Ev@Base 4.96.0
 _ZN7KGlobal12setAllowQuitEb@Base 4.96.0
 _ZN7KGlobal13mainComponentEv@Base 4.96.0
 _ZN7KGlobal13staticQStringEPKc@Base 4.96.0
 _ZN7KGlobal13staticQStringERK7QString@Base 4.96.0
 _ZN7KGlobal15activeComponentEv@Base 4.96.0
 _ZN7KGlobal16hasMainComponentEv@Base 4.96.0
 _ZN7KGlobal18setActiveComponentERK14KComponentData@Base 4.96.0
 _ZN7KGlobal22findDirectChild_helperEPK7QObjectRK11QMetaObject@Base 4.96.0
 _ZN7KGlobal3refEv@Base 4.96.0
 _ZN7KGlobal4dirsEv@Base 4.96.0
 _ZN7KGlobal5derefEv@Base 4.96.0
 _ZN7KGlobal5umaskEv@Base 4.96.0
 _ZN7KGlobal6configEv@Base 4.96.0
 _ZN7KGlobal6localeEv@Base 4.96.0
 _ZN7KGlobal7captionEv@Base 4.96.0
 _ZN7KGlobal8charsetsEv@Base 4.96.0
 _ZN7KGlobal9hasLocaleEv@Base 4.96.0
 _ZN7KLocale10setCountryERK7QStringP7KConfig@Base 4.96.0
 _ZN7KLocale11setCalendarERK7QString@Base 4.96.0
 _ZN7KLocale11setDigitSetENS_8DigitSetE@Base 4.96.0
 _ZN7KLocale11setEncodingEi@Base 4.96.0
 _ZN7KLocale11setLanguageERK11QStringList@Base 4.96.0
 _ZN7KLocale11setLanguageERK7QStringP7KConfig@Base 4.96.0
 _ZN7KLocale11setPageSizeEi@Base 4.96.0
 _ZN7KLocale11splitLocaleERK7QStringRS0_S3_S3_S3_@Base 4.96.0
 _ZN7KLocale13setDateFormatERK7QString@Base 4.96.0
 _ZN7KLocale13setFracDigitsEi@Base 4.96.0
 _ZN7KLocale13setTimeFormatERK7QString@Base 4.96.0
 _ZN7KLocale14defaultCountryEv@Base 4.96.0
 _ZN7KLocale15defaultLanguageEv@Base 4.96.0
 _ZN7KLocale15setCurrencyCodeERK7QString@Base 4.96.0
 _ZN7KLocale15setNegativeSignERK7QString@Base 4.96.0
 _ZN7KLocale15setPositiveSignERK7QString@Base 4.96.0
 _ZN7KLocale15setWeekStartDayEi@Base 4.96.0
 _ZN7KLocale16setDecimalPlacesEi@Base 4.96.0
 _ZN7KLocale16setDecimalSymbolERK7QString@Base 4.96.0
 _ZN7KLocale16setMeasureSystemENS_13MeasureSystemE@Base 4.96.0
 _ZN7KLocale16setWeekDayOfPrayEi@Base 4.96.0
 _ZN7KLocale16weekNumberSystemEv@Base 4.96.0
 _ZN7KLocale17setCalendarSystemENS_14CalendarSystemE@Base 4.96.0
 _ZN7KLocale17setCurrencySymbolERK7QString@Base 4.96.0
 _ZN7KLocale18setDateFormatShortERK7QString@Base 4.96.0
 _ZN7KLocale19defaultCurrencyCodeEv@Base 4.96.0
 _ZN7KLocale19setDateTimeDigitSetENS_8DigitSetE@Base 4.96.0
 _ZN7KLocale19setMonetaryDigitSetENS_8DigitSetE@Base 4.96.0
 _ZN7KLocale19setWeekNumberSystemENS_16WeekNumberSystemE@Base 4.96.0
 _ZN7KLocale20reparseConfigurationEv@Base 4.96.0
 _ZN7KLocale20setBinaryUnitDialectENS_17BinaryUnitDialectE@Base 4.96.0
 _ZN7KLocale20setWorkingWeekEndDayEi@Base 4.96.0
 _ZN7KLocale21setThousandsSeparatorERK7QString@Base 4.96.0
 _ZN7KLocale22setCountryDivisionCodeERK7QString@Base 4.96.0
 _ZN7KLocale22setWorkingWeekStartDayEi@Base 4.96.0
 _ZN7KLocale24setMonetaryDecimalPlacesEi@Base 4.96.0
 _ZN7KLocale24setMonetaryDecimalSymbolERK7QString@Base 4.96.0
 _ZN7KLocale26setDateMonthNamePossessiveEb@Base 4.96.0
 _ZN7KLocale29setMonetaryThousandsSeparatorERK7QString@Base 4.96.0
 _ZN7KLocale31setNegativeMonetarySignPositionENS_12SignPositionE@Base 4.96.0
 _ZN7KLocale31setNegativePrefixCurrencySymbolEb@Base 4.96.0
 _ZN7KLocale31setPositiveMonetarySignPositionENS_12SignPositionE@Base 4.96.0
 _ZN7KLocale31setPositivePrefixCurrencySymbolEb@Base 4.96.0
 _ZN7KLocale6globalEv@Base 4.96.0
 _ZN7KLocaleC1E28QExplicitlySharedDataPointerI13KSharedConfigE@Base 4.96.0
 _ZN7KLocaleC1ERK7QStringS2_P7KConfig@Base 4.96.0
 _ZN7KLocaleC1ERKS_@Base 4.96.0
 _ZN7KLocaleC2E28QExplicitlySharedDataPointerI13KSharedConfigE@Base 4.96.0
 _ZN7KLocaleC2ERK7QStringS2_P7KConfig@Base 4.96.0
 _ZN7KLocaleC2ERKS_@Base 4.96.0
 _ZN7KLocaleD0Ev@Base 4.96.0
 _ZN7KLocaleD1Ev@Base 4.96.0
 _ZN7KLocaleD2Ev@Base 4.96.0
 _ZN7KLocaleaSERKS_@Base 4.96.0
 _ZN7KTabBar10leaveEventEP6QEvent@Base 4.96.0
 _ZN7KTabBar10paintEventEP11QPaintEvent@Base 4.96.0
 _ZN7KTabBar10wheelDeltaEi@Base 4.96.0
 _ZN7KTabBar10wheelEventEP11QWheelEvent@Base 4.96.0
 _ZN7KTabBar11contextMenuEiRK6QPoint@Base 4.96.0
 _ZN7KTabBar11qt_metacallEN11QMetaObject4CallEiPPv@Base 4.96.0
 _ZN7KTabBar11qt_metacastEPKc@Base 4.96.0
 _ZN7KTabBar12closeRequestEi@Base 4.96.0
 _ZN7KTabBar12initiateDragEi@Base 4.96.0
 _ZN7KTabBar13dragMoveEventEP14QDragMoveEvent@Base 4.96.0
 _ZN7KTabBar13newTabRequestEv@Base 4.96.0
 _ZN7KTabBar13testCanDecodeEPK14QDragMoveEventRb@Base 4.96.0
 _ZN7KTabBar14dragEnterEventEP15QDragEnterEvent@Base 4.96.0
 _ZN7KTabBar14mouseMoveEventEP11QMouseEvent@Base 4.96.0
 _ZN7KTabBar15mousePressEventEP11QMouseEvent@Base 4.96.0
 _ZN7KTabBar15tabLayoutChangeEv@Base 4.96.0
 _ZN7KTabBar16mouseDoubleClickEi@Base 4.96.0
 _ZN7KTabBar16mouseMiddleClickEi@Base 4.96.0
 _ZN7KTabBar16staticMetaObjectE@Base 4.96.0
 _ZN7KTabBar16tabDoubleClickedEi@Base 4.96.0
 _ZN7KTabBar17enableCloseButtonEv@Base 4.96.0
 _ZN7KTabBar17mouseReleaseEventEP11QMouseEvent@Base 4.96.0
 _ZN7KTabBar17receivedDropEventEiP10QDropEvent@Base 4.96.0
 _ZN7KTabBar18closeButtonClickedEv@Base 4.96.0
 _ZN7KTabBar19setHoverCloseButtonEb@Base 4.96.0
 _ZN7KTabBar20emptyAreaContextMenuERK6QPoint@Base 4.96.0
 _ZN7KTabBar21activateDragSwitchTabEv@Base 4.96.0
 _ZN7KTabBar21mouseDoubleClickEventEP11QMouseEvent@Base 4.96.0
 _ZN7KTabBar21setCloseButtonEnabledEb@Base 4.96.0
 _ZN7KTabBar23setTabReorderingEnabledEb@Base 4.96.0
 _ZN7KTabBar26setHoverCloseButtonDelayedEb@Base 4.96.0
 _ZN7KTabBar27setTabCloseActivatePreviousEb@Base 4.96.0
 _ZN7KTabBar7moveTabEii@Base 4.96.0
 _ZN7KTabBar9dropEventEP10QDropEvent@Base 4.96.0
 _ZN7KTabBarC1EP7QWidget@Base 4.96.0
 _ZN7KTabBarC2EP7QWidget@Base 4.96.0
 _ZN7KTabBarD0Ev@Base 4.96.0
 _ZN7KTabBarD1Ev@Base 4.96.0
 _ZN7KTabBarD2Ev@Base 4.96.0
 _ZN8KImageIO11isSupportedERK7QStringNS_4ModeE@Base 4.96.0
 _ZN8KImageIO11typeForMimeERK7QString@Base 4.96.0
 _ZN8KImageIO5typesENS_4ModeE@Base 4.96.0
 _ZN8KImageIO7patternENS_4ModeE@Base 4.96.0
 _ZN8KImageIO9mimeTypesENS_4ModeE@Base 4.96.0
 _ZN8KLibrary11qt_metacallEN11QMetaObject4CallEiPPv@Base 4.98.0
 _ZN8KLibrary11qt_metacastEPKc@Base 4.98.0
 _ZN8KLibrary11setFileNameERK7QString@Base 4.98.0
 _ZN8KLibrary16staticMetaObjectE@Base 4.98.0
 _ZN8KLibraryC1EP7QObject@Base 4.98.0
 _ZN8KLibraryC1ERK7QStringP7QObject@Base 4.98.0
 _ZN8KLibraryC1ERK7QStringiP7QObject@Base 4.98.0
 _ZN8KLibraryC2EP7QObject@Base 4.98.0
 _ZN8KLibraryC2ERK7QStringP7QObject@Base 4.98.0
 _ZN8KLibraryC2ERK7QStringiP7QObject@Base 4.98.0
 _ZN8KLibraryD0Ev@Base 4.98.0
 _ZN8KLibraryD1Ev@Base 4.98.0
 _ZN8KLibraryD2Ev@Base 4.98.0
 _ZN8KMenuBar10closeEventEP11QCloseEvent@Base 4.96.0
 _ZN8KMenuBar10paintEventEP11QPaintEvent@Base 4.96.0
 _ZN8KMenuBar11eventFilterEP7QObjectP6QEvent@Base 4.96.0
 _ZN8KMenuBar11qt_metacallEN11QMetaObject4CallEiPPv@Base 4.96.0
 _ZN8KMenuBar11qt_metacastEPKc@Base 4.96.0
 _ZN8KMenuBar11resizeEventEP12QResizeEvent@Base 4.96.0
 _ZN8KMenuBar11setGeometryERK5QRect@Base 4.96.0
 _ZN8KMenuBar11setGeometryEiiii@Base 4.96.0
 _ZN8KMenuBar12setLineWidthEi@Base 4.96.0
 _ZN8KMenuBar13setFrameStyleEi@Base 4.96.0
 _ZN8KMenuBar14slotReadConfigEv@Base 4.96.0
 _ZN8KMenuBar15KMenuBarPrivate17makeSelectionAtomEv@Base 4.96.0
 _ZN8KMenuBar15setTopLevelMenuEb@Base 4.96.0
 _ZN8KMenuBar16selectionTimeoutEv@Base 4.96.0
 _ZN8KMenuBar16staticMetaObjectE@Base 4.96.0
 _ZN8KMenuBar17updateMenuBarSizeEv@Base 4.96.0
 _ZN8KMenuBar18updateFallbackSizeEv@Base 4.96.0
 _ZN8KMenuBar23setTopLevelMenuInternalEb@Base 4.96.0
 _ZN8KMenuBar6resizeERK5QSize@Base 4.96.0
 _ZN8KMenuBar6resizeEii@Base 4.96.0
 _ZN8KMenuBar9checkSizeERiS0_@Base 4.96.0
 _ZN8KMenuBar9setMarginEi@Base 4.96.0
 _ZN8KMenuBarC1EP7QWidget@Base 4.96.0
 _ZN8KMenuBarC2EP7QWidget@Base 4.96.0
 _ZN8KMenuBarD0Ev@Base 4.96.0
 _ZN8KMenuBarD1Ev@Base 4.96.0
 _ZN8KMenuBarD2Ev@Base 4.96.0
 _ZN8KNetwork10KIpAddress10setAddressEPKc@Base 4.96.0
 _ZN8KNetwork10KIpAddress10setAddressEPKvi@Base 4.96.0
 _ZN8KNetwork10KIpAddress10setAddressERK7QString@Base 4.96.0
 _ZN8KNetwork10KIpAddress11localhostV4E@Base 4.96.0
 _ZN8KNetwork10KIpAddress11localhostV6E@Base 4.96.0
 _ZN8KNetwork10KIpAddress9anyhostV4E@Base 4.96.0
 _ZN8KNetwork10KIpAddress9anyhostV6E@Base 4.96.0
 _ZN8KNetwork10KIpAddressaSERKS0_@Base 4.96.0
 _ZN8KNetwork11KSocketBase10resetErrorEv@Base 4.96.0
 _ZN8KNetwork11KSocketBase10setNoDelayEb@Base 4.96.0
 _ZN8KNetwork11KSocketBase11errorStringENS0_11SocketErrorE@Base 4.96.0
 _ZN8KNetwork11KSocketBase11setBlockingEb@Base 4.96.0
 _ZN8KNetwork11KSocketBase11setIPv6OnlyEb@Base 4.96.0
 _ZN8KNetwork11KSocketBase12isFatalErrorEi@Base 4.96.0
 _ZN8KNetwork11KSocketBase12setBroadcastEb@Base 4.96.0
 _ZN8KNetwork11KSocketBase15setSocketDeviceEPNS_13KSocketDeviceE@Base 4.96.0
 _ZN8KNetwork11KSocketBase16setSocketOptionsEi@Base 4.96.0
 _ZN8KNetwork11KSocketBase17unsetSocketDeviceEv@Base 4.96.0
 _ZN8KNetwork11KSocketBase19setAddressReuseableEb@Base 4.96.0
 _ZN8KNetwork11KSocketBase24setRequestedCapabilitiesEii@Base 4.96.0
 _ZN8KNetwork11KSocketBase8setErrorENS0_11SocketErrorE@Base 4.96.0
 _ZN8KNetwork11KSocketBaseC1Ev@Base 4.96.0
 _ZN8KNetwork11KSocketBaseC2Ev@Base 4.96.0
 _ZN8KNetwork11KSocketBaseD0Ev@Base 4.96.0
 _ZN8KNetwork11KSocketBaseD1Ev@Base 4.96.0
 _ZN8KNetwork11KSocketBaseD2Ev@Base 4.96.0
 _ZN8KNetwork13KServerSocket10setAddressERK7QString@Base 4.96.0
 _ZN8KNetwork13KServerSocket10setAddressERK7QStringS3_@Base 4.96.0
 _ZN8KNetwork13KServerSocket10setTimeoutEi@Base 4.96.0
 _ZN8KNetwork13KServerSocket11qt_metacallEN11QMetaObject4CallEiPPv@Base 4.96.0
 _ZN8KNetwork13KServerSocket11qt_metacastEPKc@Base 4.96.0
 _ZN8KNetwork13KServerSocket11readyAcceptEv@Base 4.96.0
 _ZN8KNetwork13KServerSocket16setSocketOptionsEi@Base 4.96.0
 _ZN8KNetwork13KServerSocket16staticMetaObjectE@Base 4.96.0
 _ZN8KNetwork13KServerSocket17setAcceptBufferedEb@Base 4.96.0
 _ZN8KNetwork13KServerSocket18lookupFinishedSlotEv@Base 4.96.0
 _ZN8KNetwork13KServerSocket20setResolutionEnabledEb@Base 4.96.0
 _ZN8KNetwork13KServerSocket4bindERK7QString@Base 4.96.0
 _ZN8KNetwork13KServerSocket4bindERK7QStringS3_@Base 4.96.0
 _ZN8KNetwork13KServerSocket4bindERKNS_14KResolverEntryE@Base 4.96.0
 _ZN8KNetwork13KServerSocket4bindEv@Base 4.96.0
 _ZN8KNetwork13KServerSocket5boundERKNS_14KResolverEntryE@Base 4.96.0
 _ZN8KNetwork13KServerSocket5closeEv@Base 4.96.0
 _ZN8KNetwork13KServerSocket6acceptEv@Base 4.96.0
 _ZN8KNetwork13KServerSocket6closedEv@Base 4.96.0
 _ZN8KNetwork13KServerSocket6doBindEv@Base 4.96.0
 _ZN8KNetwork13KServerSocket6listenEi@Base 4.96.0
 _ZN8KNetwork13KServerSocket6lookupEv@Base 4.96.0
 _ZN8KNetwork13KServerSocket8doListenEv@Base 4.96.0
 _ZN8KNetwork13KServerSocket8gotErrorEi@Base 4.96.0
 _ZN8KNetwork13KServerSocket9copyErrorEv@Base 4.96.0
 _ZN8KNetwork13KServerSocket9hostFoundEv@Base 4.96.0
 _ZN8KNetwork13KServerSocket9setFamilyEi@Base 4.96.0
 _ZN8KNetwork13KServerSocketC1EP7QObject@Base 4.96.0
 _ZN8KNetwork13KServerSocketC1ERK7QStringP7QObject@Base 4.96.0
 _ZN8KNetwork13KServerSocketC1ERK7QStringS3_P7QObject@Base 4.96.0
 _ZN8KNetwork13KServerSocketC2EP7QObject@Base 4.96.0
 _ZN8KNetwork13KServerSocketC2ERK7QStringP7QObject@Base 4.96.0
 _ZN8KNetwork13KServerSocketC2ERK7QStringS3_P7QObject@Base 4.96.0
 _ZN8KNetwork13KServerSocketD0Ev@Base 4.96.0
 _ZN8KNetwork13KServerSocketD1Ev@Base 4.96.0
 _ZN8KNetwork13KServerSocketD2Ev@Base 4.96.0
 _ZN8KNetwork13KSocketDevice10addNewImplEPNS_24KSocketDeviceFactoryBaseEi@Base 4.96.0
 _ZN8KNetwork13KSocketDevice10disconnectEv@Base 4.96.0
 _ZN8KNetwork13KSocketDevice11waitForMoreEiPb@Base 4.96.0
 _ZN8KNetwork13KSocketDevice13createDefaultEPNS_11KSocketBaseE@Base 4.96.0
 _ZN8KNetwork13KSocketDevice13createDefaultEPNS_11KSocketBaseEi@Base 4.96.0
 _ZN8KNetwork13KSocketDevice14setDefaultImplEPNS_24KSocketDeviceFactoryBaseE@Base 4.96.0
 _ZN8KNetwork13KSocketDevice16setSocketOptionsEi@Base 4.96.0
 _ZN8KNetwork13KSocketDevice4bindERKNS_14KResolverEntryE@Base 4.96.0
 _ZN8KNetwork13KSocketDevice4pollEPbS1_S1_iS1_@Base 4.96.0
 _ZN8KNetwork13KSocketDevice4pollEiPb@Base 4.96.0
 _ZN8KNetwork13KSocketDevice5closeEv@Base 4.96.0
 _ZN8KNetwork13KSocketDevice5flushEv@Base 4.96.0
 _ZN8KNetwork13KSocketDevice6acceptEv@Base 4.96.0
 _ZN8KNetwork13KSocketDevice6createERKNS_14KResolverEntryE@Base 4.96.0
 _ZN8KNetwork13KSocketDevice6createEiii@Base 4.96.0
 _ZN8KNetwork13KSocketDevice6listenEi@Base 4.96.0
 _ZN8KNetwork13KSocketDevice7connectERKNS_14KResolverEntryE6QFlagsIN9QIODevice12OpenModeFlagEE@Base 4.96.0
 _ZN8KNetwork13KSocketDevice8peekDataEPcxPNS_14KSocketAddressE@Base 4.96.0
 _ZN8KNetwork13KSocketDevice8readDataEPcxPNS_14KSocketAddressE@Base 4.96.0
 _ZN8KNetwork13KSocketDevice9writeDataEPKcxPKNS_14KSocketAddressE@Base 4.96.0
 _ZN8KNetwork13KSocketDeviceC1EP7QObject@Base 4.96.0
 _ZN8KNetwork13KSocketDeviceC1EPKNS_11KSocketBaseEP7QObject@Base 4.96.0
 _ZN8KNetwork13KSocketDeviceC1EbPKNS_11KSocketBaseE@Base 4.96.0
 _ZN8KNetwork13KSocketDeviceC1Ei6QFlagsIN9QIODevice12OpenModeFlagEE@Base 4.96.0
 _ZN8KNetwork13KSocketDeviceC2EP7QObject@Base 4.96.0
 _ZN8KNetwork13KSocketDeviceC2EPKNS_11KSocketBaseEP7QObject@Base 4.96.0
 _ZN8KNetwork13KSocketDeviceC2EbPKNS_11KSocketBaseE@Base 4.96.0
 _ZN8KNetwork13KSocketDeviceC2Ei6QFlagsIN9QIODevice12OpenModeFlagEE@Base 4.96.0
 _ZN8KNetwork13KSocketDeviceD0Ev@Base 4.96.0
 _ZN8KNetwork13KSocketDeviceD1Ev@Base 4.96.0
 _ZN8KNetwork13KSocketDeviceD2Ev@Base 4.96.0
 _ZN8KNetwork13KStreamSocket10setTimeoutEi@Base 4.96.0
 _ZN8KNetwork13KStreamSocket11qt_metacallEN11QMetaObject4CallEiPPv@Base 4.96.0
 _ZN8KNetwork13KStreamSocket11qt_metacastEPKc@Base 4.96.0
 _ZN8KNetwork13KStreamSocket11timeoutSlotEv@Base 4.96.0
 _ZN8KNetwork13KStreamSocket13hostFoundSlotEv@Base 4.96.0
 _ZN8KNetwork13KStreamSocket14bindLocallyForERKNS_14KResolverEntryE@Base 4.96.0
 _ZN8KNetwork13KStreamSocket15connectionEventEv@Base 4.96.0
 _ZN8KNetwork13KStreamSocket16staticMetaObjectE@Base 4.96.0
 _ZN8KNetwork13KStreamSocket19connectionSucceededERKNS_14KResolverEntryE@Base 4.96.0
 _ZN8KNetwork13KStreamSocket4bindERK7QStringS3_@Base 4.96.0
 _ZN8KNetwork13KStreamSocket4bindERKNS_14KResolverEntryE@Base 4.96.0
 _ZN8KNetwork13KStreamSocket7connectERK7QStringS3_6QFlagsIN9QIODevice12OpenModeFlagEE@Base 4.96.0
 _ZN8KNetwork13KStreamSocket7connectERKNS_14KResolverEntryE6QFlagsIN9QIODevice12OpenModeFlagEE@Base 4.96.0
 _ZN8KNetwork13KStreamSocket8timedOutEv@Base 4.96.0
 _ZN8KNetwork13KStreamSocketC1ERK7QStringS3_P7QObject@Base 4.96.0
 _ZN8KNetwork13KStreamSocketC2ERK7QStringS3_P7QObject@Base 4.96.0
 _ZN8KNetwork13KStreamSocketD0Ev@Base 4.96.0
 _ZN8KNetwork13KStreamSocketD1Ev@Base 4.96.0
 _ZN8KNetwork13KStreamSocketD2Ev@Base 4.96.0
 _ZN8KNetwork14KResolverEntryC1EPK8sockaddrtiiRK7QStringRK10QByteArray@Base 4.96.0
 _ZN8KNetwork14KResolverEntryC1ERKNS_14KSocketAddressEiiRK7QStringRK10QByteArray@Base 4.96.0
 _ZN8KNetwork14KResolverEntryC1ERKS0_@Base 4.96.0
 _ZN8KNetwork14KResolverEntryC1Ev@Base 4.96.0
 _ZN8KNetwork14KResolverEntryC2EPK8sockaddrtiiRK7QStringRK10QByteArray@Base 4.96.0
 _ZN8KNetwork14KResolverEntryC2ERKNS_14KSocketAddressEiiRK7QStringRK10QByteArray@Base 4.96.0
 _ZN8KNetwork14KResolverEntryC2ERKS0_@Base 4.96.0
 _ZN8KNetwork14KResolverEntryC2Ev@Base 4.96.0
 _ZN8KNetwork14KResolverEntryD1Ev@Base 4.96.0
 _ZN8KNetwork14KResolverEntryD2Ev@Base 4.96.0
 _ZN8KNetwork14KResolverEntryaSERKS0_@Base 4.96.0
 _ZN8KNetwork14KSocketAddress10ianaFamilyEi@Base 4.96.0
 _ZN8KNetwork14KSocketAddress10setAddressEPK8sockaddrt@Base 4.96.0
 _ZN8KNetwork14KSocketAddress14fromIanaFamilyEi@Base 4.96.0
 _ZN8KNetwork14KSocketAddress6asInetEv@Base 4.96.0
 _ZN8KNetwork14KSocketAddress6asUnixEv@Base 4.96.0
 _ZN8KNetwork14KSocketAddress7addressEv@Base 4.96.0
 _ZN8KNetwork14KSocketAddress9setFamilyEi@Base 4.96.0
 _ZN8KNetwork14KSocketAddress9setLengthEt@Base 4.96.0
 _ZN8KNetwork14KSocketAddressC1EPK8sockaddrt@Base 4.96.0
 _ZN8KNetwork14KSocketAddressC1EPNS_18KSocketAddressDataE@Base 4.96.0
 _ZN8KNetwork14KSocketAddressC1ERKS0_@Base 4.96.0
 _ZN8KNetwork14KSocketAddressC1Ev@Base 4.96.0
 _ZN8KNetwork14KSocketAddressC2EPK8sockaddrt@Base 4.96.0
 _ZN8KNetwork14KSocketAddressC2EPNS_18KSocketAddressDataE@Base 4.96.0
 _ZN8KNetwork14KSocketAddressC2ERKS0_@Base 4.96.0
 _ZN8KNetwork14KSocketAddressC2Ev@Base 4.96.0
 _ZN8KNetwork14KSocketAddressD0Ev@Base 4.96.0
 _ZN8KNetwork14KSocketAddressD1Ev@Base 4.96.0
 _ZN8KNetwork14KSocketAddressD2Ev@Base 4.96.0
 _ZN8KNetwork14KSocketAddressaSERKS0_@Base 4.96.0
 _ZN8KNetwork15KBufferedSocket10enableReadEb@Base 4.96.0
 _ZN8KNetwork15KBufferedSocket11enableWriteEb@Base 4.96.0
 _ZN8KNetwork15KBufferedSocket11qt_metacallEN11QMetaObject4CallEiPPv@Base 4.96.0
 _ZN8KNetwork15KBufferedSocket11qt_metacastEPKc@Base 4.96.0
 _ZN8KNetwork15KBufferedSocket11waitForMoreEiPb@Base 4.96.0
 _ZN8KNetwork15KBufferedSocket12readLineDataEPcx@Base 4.96.0
 _ZN8KNetwork15KBufferedSocket13stateChangingENS_17KClientSocketBase11SocketStateE@Base 4.96.0
 _ZN8KNetwork15KBufferedSocket14waitForConnectEv@Base 4.96.0
 _ZN8KNetwork15KBufferedSocket15setSocketDeviceEPNS_13KSocketDeviceE@Base 4.96.0
 _ZN8KNetwork15KBufferedSocket16setSocketOptionsEi@Base 4.96.0
 _ZN8KNetwork15KBufferedSocket16slotReadActivityEv@Base 4.96.0
 _ZN8KNetwork15KBufferedSocket16staticMetaObjectE@Base 4.96.0
 _ZN8KNetwork15KBufferedSocket17setInputBufferingEb@Base 4.96.0
 _ZN8KNetwork15KBufferedSocket17slotWriteActivityEv@Base 4.96.0
 _ZN8KNetwork15KBufferedSocket18setOutputBufferingEb@Base 4.96.0
 _ZN8KNetwork15KBufferedSocket5closeEv@Base 4.96.0
 _ZN8KNetwork15KBufferedSocket8closeNowEv@Base 4.96.0
 _ZN8KNetwork15KBufferedSocket8peekDataEPcxPNS_14KSocketAddressE@Base 4.96.0
 _ZN8KNetwork15KBufferedSocket8readDataEPcxPNS_14KSocketAddressE@Base 4.96.0
 _ZN8KNetwork15KBufferedSocket9writeDataEPKcxPKNS_14KSocketAddressE@Base 4.96.0
 _ZN8KNetwork15KBufferedSocketC1ERK7QStringS3_P7QObject@Base 4.96.0
 _ZN8KNetwork15KBufferedSocketC2ERK7QStringS3_P7QObject@Base 4.96.0
 _ZN8KNetwork15KBufferedSocketD0Ev@Base 4.96.0
 _ZN8KNetwork15KBufferedSocketD1Ev@Base 4.96.0
 _ZN8KNetwork15KBufferedSocketD2Ev@Base 4.96.0
 _ZN8KNetwork16KResolverResults10setAddressERK7QStringS3_@Base 4.96.0
 _ZN8KNetwork16KResolverResults12virtual_hookEiPv@Base 4.96.0
 _ZN8KNetwork16KResolverResults8setErrorEii@Base 4.96.0
 _ZN8KNetwork16KResolverResultsC1ERKS0_@Base 4.96.0
 _ZN8KNetwork16KResolverResultsC1Ev@Base 4.96.0
 _ZN8KNetwork16KResolverResultsC2ERKS0_@Base 4.96.0
 _ZN8KNetwork16KResolverResultsC2Ev@Base 4.96.0
 _ZN8KNetwork16KResolverResultsD0Ev@Base 4.96.0
 _ZN8KNetwork16KResolverResultsD1Ev@Base 4.96.0
 _ZN8KNetwork16KResolverResultsD2Ev@Base 4.96.0
 _ZN8KNetwork16KResolverResultsaSERKS0_@Base 4.96.0
 _ZN8KNetwork16KReverseResolver11qt_metacallEN11QMetaObject4CallEiPPv@Base 4.96.0
 _ZN8KNetwork16KReverseResolver11qt_metacastEPKc@Base 4.96.0
 _ZN8KNetwork16KReverseResolver16staticMetaObjectE@Base 4.96.0
 _ZN8KNetwork16KReverseResolver5eventEP6QEvent@Base 4.96.0
 _ZN8KNetwork16KReverseResolver5startEv@Base 4.96.0
 _ZN8KNetwork16KReverseResolver7resolveEPK8sockaddrtR7QStringS5_i@Base 4.96.0
 _ZN8KNetwork16KReverseResolver7resolveERKNS_14KSocketAddressER7QStringS5_i@Base 4.96.0
 _ZN8KNetwork16KReverseResolver8finishedERKS0_@Base 4.96.0
 _ZN8KNetwork16KReverseResolverC1ERKNS_14KSocketAddressEiP7QObject@Base 4.96.0
 _ZN8KNetwork16KReverseResolverC2ERKNS_14KSocketAddressEiP7QObject@Base 4.96.0
 _ZN8KNetwork16KReverseResolverD0Ev@Base 4.96.0
 _ZN8KNetwork16KReverseResolverD1Ev@Base 4.96.0
 _ZN8KNetwork16KReverseResolverD2Ev@Base 4.96.0
 _ZN8KNetwork17KActiveSocketBase10resetErrorEv@Base 4.96.0
 _ZN8KNetwork17KActiveSocketBase11qt_metacallEN11QMetaObject4CallEiPPv@Base 4.96.0
 _ZN8KNetwork17KActiveSocketBase11qt_metacastEPKc@Base 4.96.0
 _ZN8KNetwork17KActiveSocketBase15setSocketDeviceEPNS_13KSocketDeviceE@Base 4.96.0
 _ZN8KNetwork17KActiveSocketBase16staticMetaObjectE@Base 4.96.0
 _ZN8KNetwork17KActiveSocketBase4openE6QFlagsIN9QIODevice12OpenModeFlagEE@Base 4.96.0
 _ZN8KNetwork17KActiveSocketBase4peekEPcx@Base 4.96.0
 _ZN8KNetwork17KActiveSocketBase4peekEPcxRNS_14KSocketAddressE@Base 4.96.0
 _ZN8KNetwork17KActiveSocketBase4readEPcx@Base 4.96.0
 _ZN8KNetwork17KActiveSocketBase4readEPcxRNS_14KSocketAddressE@Base 4.96.0
 _ZN8KNetwork17KActiveSocketBase4readEx@Base 4.96.0
 _ZN8KNetwork17KActiveSocketBase4seekEx@Base 4.96.0
 _ZN8KNetwork17KActiveSocketBase5writeEPKcx@Base 4.96.0
 _ZN8KNetwork17KActiveSocketBase5writeEPKcxRKNS_14KSocketAddressE@Base 4.96.0
 _ZN8KNetwork17KActiveSocketBase5writeERK10QByteArray@Base 4.96.0
 _ZN8KNetwork17KActiveSocketBase8readDataEPcx@Base 4.96.0
 _ZN8KNetwork17KActiveSocketBase8setErrorENS_11KSocketBase11SocketErrorE@Base 4.96.0
 _ZN8KNetwork17KActiveSocketBase9ungetCharEc@Base 4.96.0
 _ZN8KNetwork17KActiveSocketBase9writeDataEPKcx@Base 4.96.0
 _ZN8KNetwork17KActiveSocketBaseC1EP7QObject@Base 4.96.0
 _ZN8KNetwork17KActiveSocketBaseC2EP7QObject@Base 4.96.0
 _ZN8KNetwork17KActiveSocketBaseD0Ev@Base 4.96.0
 _ZN8KNetwork17KActiveSocketBaseD1Ev@Base 4.96.0
 _ZN8KNetwork17KActiveSocketBaseD2Ev@Base 4.96.0
 _ZN8KNetwork17KClientSocketBase10disconnectEv@Base 4.96.0
 _ZN8KNetwork17KClientSocketBase10enableReadEb@Base 4.96.0
 _ZN8KNetwork17KClientSocketBase10readyWriteEv@Base 4.96.0
 _ZN8KNetwork17KClientSocketBase11enableWriteEb@Base 4.96.0
 _ZN8KNetwork17KClientSocketBase11qt_metacallEN11QMetaObject4CallEiPPv@Base 4.96.0
 _ZN8KNetwork17KClientSocketBase11qt_metacastEPKc@Base 4.96.0
 _ZN8KNetwork17KClientSocketBase11waitForMoreEiPb@Base 4.96.0
 _ZN8KNetwork17KClientSocketBase12stateChangedEi@Base 4.96.0
 _ZN8KNetwork17KClientSocketBase13stateChangingENS0_11SocketStateE@Base 4.96.0
 _ZN8KNetwork17KClientSocketBase14aboutToConnectERKNS_14KResolverEntryERb@Base 4.96.0
 _ZN8KNetwork17KClientSocketBase16setSocketOptionsEi@Base 4.96.0
 _ZN8KNetwork17KClientSocketBase16slotReadActivityEv@Base 4.96.0
 _ZN8KNetwork17KClientSocketBase16staticMetaObjectE@Base 4.96.0
 _ZN8KNetwork17KClientSocketBase17slotWriteActivityEv@Base 4.96.0
 _ZN8KNetwork17KClientSocketBase18lookupFinishedSlotEv@Base 4.96.0
 _ZN8KNetwork17KClientSocketBase20setResolutionEnabledEb@Base 4.96.0
 _ZN8KNetwork17KClientSocketBase4bindERKNS_14KResolverEntryE@Base 4.96.0
 _ZN8KNetwork17KClientSocketBase4openE6QFlagsIN9QIODevice12OpenModeFlagEE@Base 4.96.0
 _ZN8KNetwork17KClientSocketBase5boundERKNS_14KResolverEntryE@Base 4.96.0
 _ZN8KNetwork17KClientSocketBase5closeEv@Base 4.96.0
 _ZN8KNetwork17KClientSocketBase5flushEv@Base 4.96.0
 _ZN8KNetwork17KClientSocketBase6closedEv@Base 4.96.0
 _ZN8KNetwork17KClientSocketBase6lookupEv@Base 4.96.0
 _ZN8KNetwork17KClientSocketBase7connectERKNS_14KResolverEntryE6QFlagsIN9QIODevice12OpenModeFlagEE@Base 4.96.0
 _ZN8KNetwork17KClientSocketBase8gotErrorEi@Base 4.96.0
 _ZN8KNetwork17KClientSocketBase8peekDataEPcxPNS_14KSocketAddressE@Base 4.96.0
 _ZN8KNetwork17KClientSocketBase8readDataEPcxPNS_14KSocketAddressE@Base 4.96.0
 _ZN8KNetwork17KClientSocketBase8setStateENS0_11SocketStateE@Base 4.96.0
 _ZN8KNetwork17KClientSocketBase9connectedERKNS_14KResolverEntryE@Base 4.96.0
 _ZN8KNetwork17KClientSocketBase9copyErrorEv@Base 4.96.0
 _ZN8KNetwork17KClientSocketBase9hostFoundEv@Base 4.96.0
 _ZN8KNetwork17KClientSocketBase9setFamilyEi@Base 4.96.0
 _ZN8KNetwork17KClientSocketBase9writeDataEPKcxPKNS_14KSocketAddressE@Base 4.96.0
 _ZN8KNetwork17KClientSocketBaseC1EP7QObject@Base 4.96.0
 _ZN8KNetwork17KClientSocketBaseC2EP7QObject@Base 4.96.0
 _ZN8KNetwork17KClientSocketBaseD0Ev@Base 4.96.0
 _ZN8KNetwork17KClientSocketBaseD1Ev@Base 4.96.0
 _ZN8KNetwork17KClientSocketBaseD2Ev@Base 4.96.0
 _ZN8KNetwork18KInetSocketAddress10setScopeIdEi@Base 4.96.0
 _ZN8KNetwork18KInetSocketAddress11setFlowinfoEj@Base 4.96.0
 _ZN8KNetwork18KInetSocketAddress6updateEv@Base 4.96.0
 _ZN8KNetwork18KInetSocketAddress7setHostERKNS_10KIpAddressE@Base 4.96.0
 _ZN8KNetwork18KInetSocketAddress7setPortEt@Base 4.96.0
 _ZN8KNetwork18KInetSocketAddress8makeIPv4Ev@Base 4.96.0
 _ZN8KNetwork18KInetSocketAddress8makeIPv6Ev@Base 4.96.0
 _ZN8KNetwork18KInetSocketAddressC1EPK8sockaddrt@Base 4.96.0
 _ZN8KNetwork18KInetSocketAddressC1EPNS_18KSocketAddressDataE@Base 4.96.0
 _ZN8KNetwork18KInetSocketAddressC1ERKNS_10KIpAddressEt@Base 4.96.0
 _ZN8KNetwork18KInetSocketAddressC1ERKNS_14KSocketAddressE@Base 4.96.0
 _ZN8KNetwork18KInetSocketAddressC1ERKS0_@Base 4.96.0
 _ZN8KNetwork18KInetSocketAddressC1Ev@Base 4.96.0
 _ZN8KNetwork18KInetSocketAddressC2EPK8sockaddrt@Base 4.96.0
 _ZN8KNetwork18KInetSocketAddressC2EPNS_18KSocketAddressDataE@Base 4.96.0
 _ZN8KNetwork18KInetSocketAddressC2ERKNS_10KIpAddressEt@Base 4.96.0
 _ZN8KNetwork18KInetSocketAddressC2ERKNS_14KSocketAddressE@Base 4.96.0
 _ZN8KNetwork18KInetSocketAddressC2ERKS0_@Base 4.96.0
 _ZN8KNetwork18KInetSocketAddressC2Ev@Base 4.96.0
 _ZN8KNetwork18KInetSocketAddressD0Ev@Base 4.96.0
 _ZN8KNetwork18KInetSocketAddressD1Ev@Base 4.96.0
 _ZN8KNetwork18KInetSocketAddressD2Ev@Base 4.96.0
 _ZN8KNetwork18KInetSocketAddressaSERKS0_@Base 4.96.0
 _ZN8KNetwork18KPassiveSocketBaseC1Ev@Base 4.96.0
 _ZN8KNetwork18KPassiveSocketBaseC2Ev@Base 4.96.0
 _ZN8KNetwork18KPassiveSocketBaseD0Ev@Base 4.96.0
 _ZN8KNetwork18KPassiveSocketBaseD1Ev@Base 4.96.0
 _ZN8KNetwork18KPassiveSocketBaseD2Ev@Base 4.96.0
 _ZN8KNetwork18KUnixSocketAddress11setPathnameERK7QString@Base 4.96.0
 _ZN8KNetwork18KUnixSocketAddressC1EPK8sockaddrt@Base 4.96.0
 _ZN8KNetwork18KUnixSocketAddressC1EPNS_18KSocketAddressDataE@Base 4.96.0
 _ZN8KNetwork18KUnixSocketAddressC1ERK7QString@Base 4.96.0
 _ZN8KNetwork18KUnixSocketAddressC1ERKS0_@Base 4.96.0
 _ZN8KNetwork18KUnixSocketAddressC1Ev@Base 4.96.0
 _ZN8KNetwork18KUnixSocketAddressC2EPK8sockaddrt@Base 4.96.0
 _ZN8KNetwork18KUnixSocketAddressC2EPNS_18KSocketAddressDataE@Base 4.96.0
 _ZN8KNetwork18KUnixSocketAddressC2ERK7QString@Base 4.96.0
 _ZN8KNetwork18KUnixSocketAddressC2ERKS0_@Base 4.96.0
 _ZN8KNetwork18KUnixSocketAddressC2Ev@Base 4.96.0
 _ZN8KNetwork18KUnixSocketAddressD0Ev@Base 4.96.0
 _ZN8KNetwork18KUnixSocketAddressD1Ev@Base 4.96.0
 _ZN8KNetwork18KUnixSocketAddressD2Ev@Base 4.96.0
 _ZN8KNetwork18KUnixSocketAddressaSERKS0_@Base 4.96.0
 _ZN8KNetwork9KResolver10setAddressERK7QStringS3_@Base 4.96.0
 _ZN8KNetwork9KResolver11errorStringEii@Base 4.96.0
 _ZN8KNetwork9KResolver11qt_metacallEN11QMetaObject4CallEiPPv@Base 4.96.0
 _ZN8KNetwork9KResolver11qt_metacastEPKc@Base 4.96.0
 _ZN8KNetwork9KResolver11serviceNameEPKcS2_@Base 4.96.0
 _ZN8KNetwork9KResolver11serviceNameEiPKc@Base 4.96.0
 _ZN8KNetwork9KResolver11servicePortEPKcS2_@Base 4.96.0
 _ZN8KNetwork9KResolver11setNodeNameERK7QString@Base 4.96.0
 _ZN8KNetwork9KResolver11setProtocolEiPKc@Base 4.96.0
 _ZN8KNetwork9KResolver12emitFinishedEv@Base 4.96.0
 _ZN8KNetwork9KResolver12protocolNameEPKc@Base 4.96.0
 _ZN8KNetwork9KResolver12protocolNameEi@Base 4.96.0
 _ZN8KNetwork9KResolver12resolveAsyncEP7QObjectPKcRK7QStringS7_ii@Base 4.96.0
 _ZN8KNetwork9KResolver12virtual_hookEiPv@Base 4.96.0
 _ZN8KNetwork9KResolver13domainToAsciiERK7QString@Base 4.96.0
 _ZN8KNetwork9KResolver13localHostNameEv@Base 4.96.0
 _ZN8KNetwork9KResolver13setSocketTypeEi@Base 4.96.0
 _ZN8KNetwork9KResolver14protocolNumberEPKc@Base 4.96.0
 _ZN8KNetwork9KResolver14setServiceNameERK7QString@Base 4.96.0
 _ZN8KNetwork9KResolver15domainToUnicodeERK10QByteArray@Base 4.96.0
 _ZN8KNetwork9KResolver15domainToUnicodeERK7QString@Base 4.96.0
 _ZN8KNetwork9KResolver15normalizeDomainERK7QString@Base 4.96.0
 _ZN8KNetwork9KResolver16staticMetaObjectE@Base 4.96.0
 _ZN8KNetwork9KResolver4waitEi@Base 4.96.0
 _ZN8KNetwork9KResolver5eventEP6QEvent@Base 4.96.0
 _ZN8KNetwork9KResolver5startEv@Base 4.96.0
 _ZN8KNetwork9KResolver6cancelEb@Base 4.96.0
 _ZN8KNetwork9KResolver7resolveERK7QStringS3_ii@Base 4.96.0
 _ZN8KNetwork9KResolver8finishedERKNS_16KResolverResultsE@Base 4.96.0
 _ZN8KNetwork9KResolver8setFlagsEi@Base 4.96.0
 _ZN8KNetwork9KResolver9setFamilyEi@Base 4.96.0
 _ZN8KNetwork9KResolverC1EP7QObject@Base 4.96.0
 _ZN8KNetwork9KResolverC1ERK7QStringS3_P7QObject@Base 4.96.0
 _ZN8KNetwork9KResolverC2EP7QObject@Base 4.96.0
 _ZN8KNetwork9KResolverC2ERK7QStringS3_P7QObject@Base 4.96.0
 _ZN8KNetwork9KResolverD0Ev@Base 4.96.0
 _ZN8KNetwork9KResolverD1Ev@Base 4.96.0
 _ZN8KNetwork9KResolverD2Ev@Base 4.96.0
 _ZN8KTempDir13setAutoRemoveEb@Base 4.96.0
 _ZN8KTempDir6createERK7QStringi@Base 4.96.0
 _ZN8KTempDir6unlinkEv@Base 4.96.0
 _ZN8KTempDir9removeDirERK7QString@Base 4.96.0
 _ZN8KTempDirC1ERK7QStringi@Base 4.96.0
 _ZN8KTempDirC2ERK7QStringi@Base 4.96.0
 _ZN8KTempDirD1Ev@Base 4.96.0
 _ZN8KTempDirD2Ev@Base 4.96.0
 _ZN8KdePrint17createPrintDialogEP8QPrinterP7QWidget@Base 4.97.0
 _ZN8KdePrint17createPrintDialogEP8QPrinterRK5QListIP7QWidgetES4_@Base 4.97.0
 _ZN9KDataTool11qt_metacallEN11QMetaObject4CallEiPPv@Base 4.96.0
 _ZN9KDataTool11qt_metacastEPKc@Base 4.96.0
 _ZN9KDataTool16setComponentNameERK7QString@Base 4.96.0
 _ZN9KDataTool16staticMetaObjectE@Base 4.96.0
 _ZN9KDataToolC1EP7QObject@Base 4.96.0
 _ZN9KDataToolC2EP7QObject@Base 4.96.0
 _ZN9KDataToolD0Ev@Base 4.96.0
 _ZN9KDataToolD1Ev@Base 4.96.0
 _ZN9KDataToolD2Ev@Base 4.96.0
 _ZN9KDateTime10fromStringERK7QStringNS_10TimeFormatEPb@Base 4.96.0
 _ZN9KDateTime10fromStringERK7QStringS2_PK10KTimeZonesb@Base 4.96.0
 _ZN9KDateTime11setDateOnlyEb@Base 4.96.0
 _ZN9KDateTime11setDateTimeERK9QDateTime@Base 4.96.0
 _ZN9KDateTime11setTimeSpecERKNS_4SpecE@Base 4.96.0
 _ZN9KDateTime15currentDateTimeERKNS_4SpecE@Base 4.96.0
 _ZN9KDateTime16currentLocalDateEv@Base 4.96.0
 _ZN9KDateTime16currentLocalTimeEv@Base 4.96.0
 _ZN9KDateTime18currentUtcDateTimeEv@Base 4.96.0
 _ZN9KDateTime19setSecondOccurrenceEb@Base 4.96.0
 _ZN9KDateTime20currentLocalDateTimeEv@Base 4.96.0
 _ZN9KDateTime20setFromStringDefaultERKNS_4SpecE@Base 4.96.0
 _ZN9KDateTime22setSimulatedSystemTimeERKS_@Base 4.96.0
 _ZN9KDateTime24realCurrentLocalDateTimeEv@Base 4.96.0
 _ZN9KDateTime4Spec13OffsetFromUTCEi@Base 4.96.0
 _ZN9KDateTime4Spec3UTCEv@Base 4.96.0
 _ZN9KDateTime4Spec7setTypeENS_8SpecTypeEi@Base 4.96.0
 _ZN9KDateTime4Spec7setTypeERK9KTimeZone@Base 4.96.0
 _ZN9KDateTime4Spec9ClockTimeEv@Base 4.96.0
 _ZN9KDateTime4Spec9LocalZoneEv@Base 4.96.0
 _ZN9KDateTime4SpecC1ENS_8SpecTypeEi@Base 4.96.0
 _ZN9KDateTime4SpecC1ERK9KTimeZone@Base 4.96.0
 _ZN9KDateTime4SpecC1ERKS0_@Base 4.96.0
 _ZN9KDateTime4SpecC1Ev@Base 4.96.0
 _ZN9KDateTime4SpecC2ENS_8SpecTypeEi@Base 4.96.0
 _ZN9KDateTime4SpecC2ERK9KTimeZone@Base 4.96.0
 _ZN9KDateTime4SpecC2ERKS0_@Base 4.96.0
 _ZN9KDateTime4SpecC2Ev@Base 4.96.0
 _ZN9KDateTime4SpecD1Ev@Base 4.96.0
 _ZN9KDateTime4SpecD2Ev@Base 4.96.0
 _ZN9KDateTime4SpecaSERKS0_@Base 4.96.0
 _ZN9KDateTime6detachEv@Base 4.96.0
 _ZN9KDateTime7setDateERK5QDate@Base 4.96.0
 _ZN9KDateTime7setTimeERK5QTime@Base 4.96.0
 _ZN9KDateTime9setTime_tEx@Base 4.96.0
 _ZN9KDateTimeC1ERK5QDateRK5QTimeRKNS_4SpecE@Base 4.96.0
 _ZN9KDateTimeC1ERK5QDateRKNS_4SpecE@Base 4.96.0
 _ZN9KDateTimeC1ERK9QDateTime@Base 4.96.0
 _ZN9KDateTimeC1ERK9QDateTimeRKNS_4SpecE@Base 4.96.0
 _ZN9KDateTimeC1ERKS_@Base 4.96.0
 _ZN9KDateTimeC1Ev@Base 4.96.0
 _ZN9KDateTimeC2ERK5QDateRK5QTimeRKNS_4SpecE@Base 4.96.0
 _ZN9KDateTimeC2ERK5QDateRKNS_4SpecE@Base 4.96.0
 _ZN9KDateTimeC2ERK9QDateTime@Base 4.96.0
 _ZN9KDateTimeC2ERK9QDateTimeRKNS_4SpecE@Base 4.96.0
 _ZN9KDateTimeC2ERKS_@Base 4.96.0
 _ZN9KDateTimeC2Ev@Base 4.96.0
 _ZN9KDateTimeD1Ev@Base 4.96.0
 _ZN9KDateTimeD2Ev@Base 4.96.0
 _ZN9KDateTimeaSERKS_@Base 4.96.0
 _ZN9KLockFile11getLockInfoERiR7QStringS2_@Base 4.96.0
 _ZN9KLockFile12setStaleTimeEi@Base 4.96.0
 _ZN9KLockFile4lockE6QFlagsINS_8LockFlagEE@Base 4.96.0
 _ZN9KLockFile6unlockEv@Base 4.96.0
 _ZN9KLockFile7Private12readLockFileEv@Base 4.96.0
 _ZN9KLockFile7Private13lockFileOExclER6stat64@Base 5.13.0
 _ZN9KLockFile7Private15deleteStaleLockEv@Base 4.96.0
 _ZN9KLockFile7Private16lockFileWithLinkER6stat64@Base 5.13.0
 _ZN9KLockFile7Private17writeIntoLockFileER5QFile@Base 4.96.0
 _ZN9KLockFile7Private23deleteStaleLockWithLinkEv@Base 4.96.0
 _ZN9KLockFile7Private8lockFileER6stat64@Base 5.13.0
 _ZN9KLockFileC1ERK7QStringS2_@Base 4.96.0
 _ZN9KLockFileC2ERK7QStringS2_@Base 4.96.0
 _ZN9KLockFileD1Ev@Base 4.96.0
 _ZN9KLockFileD2Ev@Base 4.96.0
 _ZN9KMimeType10findByPathERK7QStringjbPi@Base 5.13.0
 _ZN9KMimeType12allMimeTypesEv@Base 4.96.0
 _ZN9KMimeType12isBinaryDataERK7QString@Base 4.96.0
 _ZN9KMimeType13favIconForUrlERK4QUrl@Base 4.96.0
 _ZN9KMimeType13findByContentEP9QIODevicePi@Base 4.96.0
 _ZN9KMimeType13findByContentERK10QByteArrayPi@Base 4.96.0
 _ZN9KMimeType13matchFileNameERK7QStringS2_@Base 4.96.0
 _ZN9KMimeType14iconNameForUrlERK4QUrlj@Base 5.13.0
 _ZN9KMimeType15defaultMimeTypeEv@Base 4.96.0
 _ZN9KMimeType17findByFileContentERK7QStringPi@Base 4.96.0
 _ZN9KMimeType18defaultMimeTypePtrEv@Base 4.96.0
 _ZN9KMimeType18isBufferBinaryDataERK10QByteArray@Base 4.96.0
 _ZN9KMimeType20findByNameAndContentERK7QStringP9QIODevicejPi@Base 5.13.0
 _ZN9KMimeType20findByNameAndContentERK7QStringRK10QByteArrayjPi@Base 5.13.0
 _ZN9KMimeType21extractKnownExtensionERK7QString@Base 4.96.0
 _ZN9KMimeType21sharedMimeInfoVersionEv@Base 4.96.0
 _ZN9KMimeType8mimeTypeERK7QStringNS_16FindByNameOptionE@Base 4.96.0
 _ZN9KMimeType9findByUrlERK4QUrljbbPi@Base 5.13.0
 _ZN9KMimeTypeC1ERK9QMimeType@Base 4.96.0
 _ZN9KMimeTypeC2ERK9QMimeType@Base 4.96.0
 _ZN9KMimeTypeD0Ev@Base 4.96.0
 _ZN9KMimeTypeD1Ev@Base 4.96.0
 _ZN9KMimeTypeD2Ev@Base 4.96.0
 _ZN9KNumInput11qt_metacallEN11QMetaObject4CallEiPPv@Base 4.96.0
 _ZN9KNumInput11qt_metacastEPKc@Base 4.96.0
 _ZN9KNumInput16staticMetaObjectE@Base 4.96.0
 _ZN9KNumInput6layoutEb@Base 4.96.0
 _ZN9KNumInput8setLabelERK7QString6QFlagsIN2Qt13AlignmentFlagEE@Base 4.96.0
 _ZN9KNumInput8setStepsEii@Base 4.96.0
 _ZN9KNumInputC1EP7QWidget@Base 4.96.0
 _ZN9KNumInputC1EP7QWidgetPS_@Base 4.96.0
 _ZN9KNumInputC2EP7QWidget@Base 4.96.0
 _ZN9KNumInputC2EP7QWidgetPS_@Base 4.96.0
 _ZN9KNumInputD0Ev@Base 4.96.0
 _ZN9KNumInputD1Ev@Base 4.96.0
 _ZN9KNumInputD2Ev@Base 4.96.0
 _ZN9KSaveFile11setFileNameERK7QString@Base 4.96.0
 _ZN9KSaveFile22setDirectWriteFallbackEb@Base 4.96.0
 _ZN9KSaveFile4openE6QFlagsIN9QIODevice12OpenModeFlagEE@Base 4.96.0
 _ZN9KSaveFile5abortEv@Base 4.96.0
 _ZN9KSaveFile8finalizeEv@Base 4.96.0
 _ZN9KSaveFileC1ERK7QString@Base 4.96.0
 _ZN9KSaveFileC1Ev@Base 4.96.0
 _ZN9KSaveFileC2ERK7QString@Base 4.96.0
 _ZN9KSaveFileC2Ev@Base 4.96.0
 _ZN9KSaveFileD0Ev@Base 4.96.0
 _ZN9KSaveFileD1Ev@Base 4.96.0
 _ZN9KSaveFileD2Ev@Base 4.96.0
 _ZN9KShortcut10setPrimaryERK12QKeySequence@Base 4.96.0
 _ZN9KShortcut12setAlternateERK12QKeySequence@Base 4.96.0
 _ZN9KShortcut6removeERK12QKeySequenceNS_13EmptyHandlingE@Base 4.96.0
 _ZN9KShortcutC1ERK12QKeySequence@Base 4.96.0
 _ZN9KShortcutC1ERK12QKeySequenceS2_@Base 4.96.0
 _ZN9KShortcutC1ERK5QListI12QKeySequenceE@Base 4.96.0
 _ZN9KShortcutC1ERK7QString@Base 4.96.0
 _ZN9KShortcutC1ERKS_@Base 4.96.0
 _ZN9KShortcutC1Eii@Base 4.96.0
 _ZN9KShortcutC1Ev@Base 4.96.0
 _ZN9KShortcutC2ERK12QKeySequence@Base 4.96.0
 _ZN9KShortcutC2ERK12QKeySequenceS2_@Base 4.96.0
 _ZN9KShortcutC2ERK5QListI12QKeySequenceE@Base 4.96.0
 _ZN9KShortcutC2ERK7QString@Base 4.96.0
 _ZN9KShortcutC2ERKS_@Base 4.96.0
 _ZN9KShortcutC2Eii@Base 4.96.0
 _ZN9KShortcutC2Ev@Base 4.96.0
 _ZN9KShortcutD1Ev@Base 4.96.0
 _ZN9KShortcutD2Ev@Base 4.96.0
 _ZN9KShortcutaSERKS_@Base 4.96.0
 _ZN9KTimeZone10TransitionC1ERK9QDateTimeRKNS_5PhaseE@Base 4.96.0
 _ZN9KTimeZone10TransitionC1ERKS0_@Base 4.96.0
 _ZN9KTimeZone10TransitionC1Ev@Base 4.96.0
 _ZN9KTimeZone10TransitionC2ERK9QDateTimeRKNS_5PhaseE@Base 4.96.0
 _ZN9KTimeZone10TransitionC2ERKS0_@Base 4.96.0
 _ZN9KTimeZone10TransitionC2Ev@Base 4.96.0
 _ZN9KTimeZone10TransitionD1Ev@Base 4.96.0
 _ZN9KTimeZone10TransitionD2Ev@Base 4.96.0
 _ZN9KTimeZone10TransitionaSERKS0_@Base 4.96.0
 _ZN9KTimeZone10fromTime_tEl@Base 4.96.0
 _ZN9KTimeZone10updateBaseERKS_@Base 4.96.0
 _ZN9KTimeZone11LeapSecondsC1ERK9QDateTimeiRK7QString@Base 4.96.0
 _ZN9KTimeZone11LeapSecondsC1ERKS0_@Base 4.96.0
 _ZN9KTimeZone11LeapSecondsC1Ev@Base 4.96.0
 _ZN9KTimeZone11LeapSecondsC2ERK9QDateTimeiRK7QString@Base 4.96.0
 _ZN9KTimeZone11LeapSecondsC2ERKS0_@Base 4.96.0
 _ZN9KTimeZone11LeapSecondsC2Ev@Base 4.96.0
 _ZN9KTimeZone11LeapSecondsD1Ev@Base 4.96.0
 _ZN9KTimeZone11LeapSecondsD2Ev@Base 4.96.0
 _ZN9KTimeZone11LeapSecondsaSERKS0_@Base 4.96.0
 _ZN9KTimeZone13InvalidOffsetE@Base 4.96.0
 _ZN9KTimeZone13InvalidTime_tE@Base 4.96.0
 _ZN9KTimeZone3utcEv@Base 4.96.0
 _ZN9KTimeZone5PhaseC1ERKS0_@Base 4.96.0
 _ZN9KTimeZone5PhaseC1EiRK10QByteArraybRK7QString@Base 4.96.0
 _ZN9KTimeZone5PhaseC1EiRK5QListI10QByteArrayEbRK7QString@Base 4.96.0
 _ZN9KTimeZone5PhaseC1Ev@Base 4.96.0
 _ZN9KTimeZone5PhaseC2ERKS0_@Base 4.96.0
 _ZN9KTimeZone5PhaseC2EiRK10QByteArraybRK7QString@Base 4.96.0
 _ZN9KTimeZone5PhaseC2EiRK5QListI10QByteArrayEbRK7QString@Base 4.96.0
 _ZN9KTimeZone5PhaseC2Ev@Base 4.96.0
 _ZN9KTimeZone5PhaseD1Ev@Base 4.96.0
 _ZN9KTimeZone5PhaseD2Ev@Base 4.96.0
 _ZN9KTimeZone5PhaseaSERKS0_@Base 4.96.0
 _ZN9KTimeZone7UNKNOWNE@Base 4.96.0
 _ZN9KTimeZone7setDataEP13KTimeZoneDataP15KTimeZoneSource@Base 4.96.0
 _ZN9KTimeZone8toTime_tERK9QDateTime@Base 4.96.0
 _ZN9KTimeZoneC1EP16KTimeZoneBackend@Base 4.96.0
 _ZN9KTimeZoneC1ERK7QString@Base 4.96.0
 _ZN9KTimeZoneC1ERKS_@Base 4.96.0
 _ZN9KTimeZoneC1Ev@Base 4.96.0
 _ZN9KTimeZoneC2EP16KTimeZoneBackend@Base 4.96.0
 _ZN9KTimeZoneC2ERK7QString@Base 4.96.0
 _ZN9KTimeZoneC2ERKS_@Base 4.96.0
 _ZN9KTimeZoneC2Ev@Base 4.96.0
 _ZN9KTimeZoneD0Ev@Base 4.96.0
 _ZN9KTimeZoneD1Ev@Base 4.96.0
 _ZN9KTimeZoneD2Ev@Base 4.96.0
 _ZN9KTimeZoneaSERKS_@Base 4.96.0
 _ZNK10KLibLoader10metaObjectEv@Base 4.96.0
 _ZNK10KLibLoader16lastErrorMessageEv@Base 4.96.0
 _ZNK10KOCRDialog10metaObjectEv@Base 4.96.0
 _ZNK10KOCRDialog2idEv@Base 4.96.0
 _ZNK10KSSLX509V310certTypeCAEv@Base 4.96.0
 _ZNK10KSSLX509V313certTypeSMIMEEv@Base 4.96.0
 _ZNK10KSSLX509V313certTypeSSLCAEv@Base 4.96.0
 _ZNK10KSSLX509V314certTypeCodeCAEv@Base 4.96.0
 _ZNK10KSSLX509V315certTypeCRLSignEv@Base 4.96.0
 _ZNK10KSSLX509V315certTypeEmailCAEv@Base 4.96.0
 _ZNK10KSSLX509V317certTypeSMIMESignEv@Base 4.96.0
 _ZNK10KSSLX509V317certTypeSSLClientEv@Base 4.96.0
 _ZNK10KSSLX509V317certTypeSSLServerEv@Base 4.96.0
 _ZNK10KSSLX509V319certTypeNSSSLServerEv@Base 4.96.0
 _ZNK10KSSLX509V320certTypeSMIMEEncryptEv@Base 4.96.0
 _ZNK10KStatusBar10metaObjectEv@Base 4.96.0
 _ZNK10KStatusBar7hasItemEi@Base 4.96.0
 _ZNK10KStatusBar8itemTextEi@Base 4.96.0
 _ZNK10KTabWidget10metaObjectEv@Base 4.96.0
 _ZNK10KTabWidget12tabTextColorEi@Base 4.96.0
 _ZNK10KTabWidget14isTabBarHiddenEv@Base 4.96.0
 _ZNK10KTabWidget16hoverCloseButtonEv@Base 4.96.0
 _ZNK10KTabWidget19automaticResizeTabsEv@Base 4.96.0
 _ZNK10KTabWidget20isCloseButtonEnabledEv@Base 4.96.0
 _ZNK10KTabWidget22isTabReorderingEnabledEv@Base 4.96.0
 _ZNK10KTabWidget23hoverCloseButtonDelayedEv@Base 4.96.0
 _ZNK10KTabWidget24tabCloseActivatePreviousEv@Base 4.96.0
 _ZNK10KTabWidget7Private18isEmptyTabbarSpaceERK6QPoint@Base 4.96.0
 _ZNK10KTabWidget7tabTextEi@Base 4.96.0
 _ZNK10KTimeZones4zoneERK7QString@Base 4.96.0
 _ZNK10KTimeZones5zonesEv@Base 4.96.0
 _ZNK10KUndoStack10metaObjectEv@Base 4.96.0
 _ZNK11K4AboutData10bugAddressEv@Base 4.96.0
 _ZNK11K4AboutData11catalogNameEv@Base 4.96.0
 _ZNK11K4AboutData11licenseNameENS_10NameFormatE@Base 4.96.0
 _ZNK11K4AboutData11productNameEv@Base 4.96.0
 _ZNK11K4AboutData11programLogoEv@Base 4.96.0
 _ZNK11K4AboutData11programNameEv@Base 4.96.0
 _ZNK11K4AboutData11translatorsEv@Base 4.96.0
 _ZNK11K4AboutData14ocsProviderUrlEv@Base 4.96.0
 _ZNK11K4AboutData15internalVersionEv@Base 4.96.0
 _ZNK11K4AboutData15programIconNameEv@Base 4.96.0
 _ZNK11K4AboutData16shortDescriptionEv@Base 4.96.0
 _ZNK11K4AboutData18copyrightStatementEv@Base 4.96.0
 _ZNK11K4AboutData18internalBugAddressEv@Base 4.96.0
 _ZNK11K4AboutData18organizationDomainEv@Base 4.96.0
 _ZNK11K4AboutData19internalProgramNameEv@Base 4.96.0
 _ZNK11K4AboutData20customAuthorRichTextEv@Base 4.96.0
 _ZNK11K4AboutData21customAuthorPlainTextEv@Base 4.96.0
 _ZNK11K4AboutData23customAuthorTextEnabledEv@Base 4.96.0
 _ZNK11K4AboutData28translateInternalProgramNameEv@Base 4.96.0
 _ZNK11K4AboutData7appNameEv@Base 4.96.0
 _ZNK11K4AboutData7authorsEv@Base 4.96.0
 _ZNK11K4AboutData7creditsEv@Base 4.96.0
 _ZNK11K4AboutData7licenseEv@Base 4.96.0
 _ZNK11K4AboutData7versionEv@Base 4.96.0
 _ZNK11K4AboutData8homepageEv@Base 4.96.0
 _ZNK11K4AboutData8licensesEv@Base 4.96.0
 _ZNK11K4AboutData9otherTextEv@Base 4.96.0
 _ZNK11K4AboutDatacv10KAboutDataEv@Base 4.96.0
 _ZNK11KColorCells10metaObjectEv@Base 4.96.0
 _ZNK11KColorCells11acceptDragsEv@Base 4.96.0
 _ZNK11KColorCells13selectedIndexEv@Base 4.96.0
 _ZNK11KColorCells14positionToCellERK6QPointb@Base 4.96.0
 _ZNK11KColorCells14sizeHintForRowEi@Base 4.96.0
 _ZNK11KColorCells17sizeHintForColumnEi@Base 4.96.0
 _ZNK11KColorCells5colorEi@Base 4.96.0
 _ZNK11KColorCells5countEv@Base 4.96.0
 _ZNK11KColorCells7shadingEv@Base 4.96.0
 _ZNK11KColorPatch10metaObjectEv@Base 4.96.0
 _ZNK11KColorPatch5colorEv@Base 4.96.0
 _ZNK11KDateWidget10metaObjectEv@Base 4.96.0
 _ZNK11KDateWidget4dateEv@Base 4.96.0
 _ZNK11KDateWidget8calendarEv@Base 4.96.0
 _ZNK11KFileDialog10metaObjectEv@Base 4.96.0
 _ZNK11KFileDialog11selectedUrlEv@Base 4.96.0
 _ZNK11KFileDialog12cancelButtonEv@Base 4.96.0
 _ZNK11KFileDialog12filterWidgetEv@Base 4.96.0
 _ZNK11KFileDialog12locationEditEv@Base 4.96.0
 _ZNK11KFileDialog12selectedFileEv@Base 4.96.0
 _ZNK11KFileDialog12selectedUrlsEv@Base 4.96.0
 _ZNK11KFileDialog13currentFilterEv@Base 4.96.0
 _ZNK11KFileDialog13keepsLocationEv@Base 4.96.0
 _ZNK11KFileDialog13operationModeEv@Base 4.96.0
 _ZNK11KFileDialog13selectedFilesEv@Base 4.96.0
 _ZNK11KFileDialog16actionCollectionEv@Base 4.96.0
 _ZNK11KFileDialog17currentMimeFilterEv@Base 4.96.0
 _ZNK11KFileDialog4modeEv@Base 4.96.0
 _ZNK11KFileDialog7baseUrlEv@Base 4.96.0
 _ZNK11KFileDialog7toolBarEv@Base 4.96.0
 _ZNK11KFileDialog8okButtonEv@Base 4.96.0
 _ZNK11KFileDialog8sizeHintEv@Base 4.96.0
 _ZNK11KFontDialog10metaObjectEv@Base 4.96.0
 _ZNK11KFontDialog14sizeIsRelativeEv@Base 4.96.0
 _ZNK11KFontDialog4fontEv@Base 4.96.0
 _ZNK11KIntSpinBox10metaObjectEv@Base 4.96.0
 _ZNK11KIntSpinBox13textFromValueEi@Base 4.96.0
 _ZNK11KIntSpinBox13valueFromTextERK7QString@Base 4.96.0
 _ZNK11KIntSpinBox4baseEv@Base 4.96.0
 _ZNK11KListWidget10metaObjectEv@Base 4.96.0
 _ZNK11KPushButton10authActionEv@Base 4.96.0
 _ZNK11KPushButton10metaObjectEv@Base 4.96.0
 _ZNK11KPushButton13isDragEnabledEv@Base 4.96.0
 _ZNK11KPushButton7guiItemEv@Base 4.96.0
 _ZNK11KPushButton8sizeHintEv@Base 4.96.0
 _ZNK11KScanDialog10metaObjectEv@Base 4.96.0
 _ZNK11KScanDialog2idEv@Base 4.96.0
 _ZNK12KApplication10metaObjectEv@Base 4.96.0
 _ZNK12KApplication13sessionSavingEv@Base 4.96.0
 _ZNK12KApplication13userTimestampEv@Base 4.96.0
 _ZNK12KApplication9startupIdEv@Base 4.96.0
 _ZNK12KArrowButton10metaObjectEv@Base 4.96.0
 _ZNK12KArrowButton8sizeHintEv@Base 4.96.0
 _ZNK12KArrowButton9arrowTypeEv@Base 4.96.0
 _ZNK12KButtonGroup10metaObjectEv@Base 4.96.0
 _ZNK12KButtonGroup2idEP15QAbstractButton@Base 4.96.0
 _ZNK12KButtonGroup8selectedEv@Base 4.96.0
 _ZNK12KCmdLineArgs13getOptionListERK10QByteArray@Base 4.96.0
 _ZNK12KCmdLineArgs3argEi@Base 4.96.0
 _ZNK12KCmdLineArgs3urlEi@Base 4.96.0
 _ZNK12KCmdLineArgs5countEv@Base 4.96.0
 _ZNK12KCmdLineArgs5isSetERK10QByteArray@Base 4.96.0
 _ZNK12KCmdLineArgs9getOptionERK10QByteArray@Base 4.96.0
 _ZNK12KColorDialog10metaObjectEv@Base 4.96.0
 _ZNK12KColorDialog12defaultColorEv@Base 4.96.0
 _ZNK12KColorDialog21isAlphaChannelEnabledEv@Base 4.96.0
 _ZNK12KColorDialog5colorEv@Base 4.96.0
 _ZNK12KConfigGroup9readEntryI10QByteArrayEET_PKcRKS2_@Base 4.100.0
 _ZNK12KConfigGroup9readEntryI5QDateEET_PKcRKS2_@Base 4.100.0
 _ZNK12KConfigGroup9readEntryI5QSizeEET_PKcRKS2_@Base 4.100.0
 _ZNK12KConfigGroup9readEntryI6QColorEET_PKcRKS2_@Base 4.100.0
 _ZNK12KConfigGroup9readEntryIbEET_PKcRKS1_@Base 4.100.0
 _ZNK12KConfigGroup9readEntryIiEET_PKcRKS1_@Base 4.100.0
 _ZNK12KEditListBox10downButtonEv@Base 4.96.0
 _ZNK12KEditListBox10metaObjectEv@Base 4.96.0
 _ZNK12KEditListBox11currentItemEv@Base 4.96.0
 _ZNK12KEditListBox11currentTextEv@Base 4.96.0
 _ZNK12KEditListBox12CustomEditor20representationWidgetEv@Base 4.96.0
 _ZNK12KEditListBox12CustomEditor8lineEditEv@Base 4.96.0
 _ZNK12KEditListBox12removeButtonEv@Base 4.96.0
 _ZNK12KEditListBox4textEi@Base 4.96.0
 _ZNK12KEditListBox5countEv@Base 4.96.0
 _ZNK12KEditListBox5itemsEv@Base 4.96.0
 _ZNK12KEditListBox7buttonsEv@Base 4.96.0
 _ZNK12KEditListBox8lineEditEv@Base 4.96.0
 _ZNK12KEditListBox8listViewEv@Base 4.96.0
 _ZNK12KEditListBox8upButtonEv@Base 4.96.0
 _ZNK12KEditListBox9addButtonEv@Base 4.96.0
 _ZNK12KIntNumInput10metaObjectEv@Base 4.96.0
 _ZNK12KIntNumInput10singleStepEv@Base 4.96.0
 _ZNK12KIntNumInput13relativeValueEv@Base 4.96.0
 _ZNK12KIntNumInput14referencePointEv@Base 4.96.0
 _ZNK12KIntNumInput15minimumSizeHintEv@Base 4.96.0
 _ZNK12KIntNumInput16specialValueTextEv@Base 4.96.0
 _ZNK12KIntNumInput5valueEv@Base 4.96.0
 _ZNK12KIntNumInput6prefixEv@Base 4.96.0
 _ZNK12KIntNumInput6suffixEv@Base 4.96.0
 _ZNK12KIntNumInput7maximumEv@Base 4.96.0
 _ZNK12KIntNumInput7minimumEv@Base 4.96.0
 _ZNK12KIntNumInput7spinBoxEv@Base 4.96.0
 _ZNK12KPixmapCache10cacheLimitEv@Base 4.96.0
 _ZNK12KPixmapCache12ensureInitedEv@Base 4.96.0
 _ZNK12KPixmapCache15useQPixmapCacheEv@Base 4.96.0
 _ZNK12KPixmapCache19removeEntryStrategyEv@Base 4.96.0
 _ZNK12KPixmapCache4sizeEv@Base 4.96.0
 _ZNK12KPixmapCache7Private6qpcKeyERK7QString@Base 4.96.0
 _ZNK12KPixmapCache7isValidEv@Base 4.96.0
 _ZNK12KPixmapCache9isEnabledEv@Base 4.96.0
 _ZNK12KPixmapCache9timestampEv@Base 4.96.0
 _ZNK12KTextBrowser10metaObjectEv@Base 4.96.0
 _ZNK12KTextBrowser13isNotifyClickEv@Base 4.96.0
 _ZNK13K4AboutPerson10webAddressEv@Base 4.96.0
 _ZNK13K4AboutPerson11ocsUsernameEv@Base 4.96.0
 _ZNK13K4AboutPerson12emailAddressEv@Base 4.96.0
 _ZNK13K4AboutPerson4nameEv@Base 4.97.0
 _ZNK13K4AboutPerson4taskEv@Base 4.97.0
 _ZNK13KCurrencyCode10symbolListEv@Base 4.99.0
 _ZNK13KCurrencyCode11hasSubunitsEv@Base 4.99.0
 _ZNK13KCurrencyCode13dateSuspendedEv@Base 4.99.0
 _ZNK13KCurrencyCode13dateWithdrawnEv@Base 4.99.0
 _ZNK13KCurrencyCode13decimalPlacesEv@Base 4.99.0
 _ZNK13KCurrencyCode13defaultSymbolEv@Base 4.99.0
 _ZNK13KCurrencyCode13subunitSymbolEv@Base 4.99.0
 _ZNK13KCurrencyCode14dateIntroducedEv@Base 4.99.0
 _ZNK13KCurrencyCode15isoCurrencyCodeEv@Base 4.99.0
 _ZNK13KCurrencyCode15subunitsPerUnitEv@Base 4.99.0
 _ZNK13KCurrencyCode17unambiguousSymbolEv@Base 4.99.0
 _ZNK13KCurrencyCode22countriesUsingCurrencyEv@Base 4.99.0
 _ZNK13KCurrencyCode22isoCurrencyCodeNumericEv@Base 4.99.0
 _ZNK13KCurrencyCode24hasSubunitsInCirculationEv@Base 4.99.0
 _ZNK13KCurrencyCode4nameEv@Base 4.99.0
 _ZNK13KCurrencyCode6statusEv@Base 4.99.0
 _ZNK13KCurrencyCode7isValidEv@Base 4.99.0
 _ZNK13KCurrencyCode7isoNameEv@Base 4.99.0
 _ZNK13KDataToolInfo10createToolEP7QObject@Base 4.96.0
 _ZNK13KDataToolInfo10isReadOnlyEv@Base 4.96.0
 _ZNK13KDataToolInfo12userCommandsEv@Base 4.96.0
 _ZNK13KDataToolInfo13componentNameEv@Base 4.96.0
 _ZNK13KDataToolInfo7isValidEv@Base 4.96.0
 _ZNK13KDataToolInfo7serviceEv@Base 4.96.0
 _ZNK13KDataToolInfo8commandsEv@Base 4.96.0
 _ZNK13KDataToolInfo8dataTypeEv@Base 4.96.0
 _ZNK13KDataToolInfo8iconNameEv@Base 4.96.0
 _ZNK13KDataToolInfo9mimeTypesEv@Base 4.96.0
 _ZNK13KFileMetaInfo13preferredKeysEv@Base 4.96.0
 _ZNK13KFileMetaInfo13supportedKeysEv@Base 4.96.0
 _ZNK13KFileMetaInfo3urlEv@Base 4.96.0
 _ZNK13KFileMetaInfo4itemERK7QString@Base 4.96.0
 _ZNK13KFileMetaInfo4keysEv@Base 4.96.0
 _ZNK13KFileMetaInfo5itemsEv@Base 4.96.0
 _ZNK13KFileMetaInfo7isValidEv@Base 4.96.0
 _ZNK13KFileTreeView10currentUrlEv@Base 4.96.0
 _ZNK13KFileTreeView10metaObjectEv@Base 4.96.0
 _ZNK13KFileTreeView11selectedUrlEv@Base 4.96.0
 _ZNK13KFileTreeView12selectedUrlsEv@Base 4.96.0
 _ZNK13KFileTreeView15showHiddenFilesEv@Base 4.96.0
 _ZNK13KFileTreeView7Private16urlForProxyIndexERK11QModelIndex@Base 4.96.0
 _ZNK13KFileTreeView7rootUrlEv@Base 4.96.0
 _ZNK13KFileTreeView8sizeHintEv@Base 4.96.0
 _ZNK13KFontComboBox10metaObjectEv@Base 4.96.0
 _ZNK13KFontComboBox11currentFontEv@Base 4.96.0
 _ZNK13KFontComboBox8sizeHintEv@Base 4.96.0
 _ZNK13KIntValidator3topEv@Base 4.96.0
 _ZNK13KIntValidator4baseEv@Base 4.96.0
 _ZNK13KIntValidator5fixupER7QString@Base 4.96.0
 _ZNK13KIntValidator6bottomEv@Base 4.96.0
 _ZNK13KIntValidator8validateER7QStringRi@Base 4.96.0
 _ZNK13KPrintPreview10metaObjectEv@Base 4.97.0
 _ZNK13KSSLCertChain8getChainEv@Base 4.96.0
 _ZNK13KSplashScreen10metaObjectEv@Base 4.96.0
 _ZNK13KStandardDirs11localkdedirEv@Base 4.96.0
 _ZNK13KStandardDirs12findResourceEPKcRK7QString@Base 4.96.0
 _ZNK13KStandardDirs12resourceDirsEPKc@Base 4.96.0
 _ZNK13KStandardDirs12saveLocationEPKcRK7QStringb@Base 4.96.0
 _ZNK13KStandardDirs15findResourceDirEPKcRK7QString@Base 4.96.0
 _ZNK13KStandardDirs15localxdgconfdirEv@Base 4.96.0
 _ZNK13KStandardDirs15localxdgdatadirEv@Base 4.96.0
 _ZNK13KStandardDirs16calcResourceHashEPKcRK7QString6QFlagsINS_12SearchOptionEE@Base 4.96.0
 _ZNK13KStandardDirs16findAllResourcesEPKcRK7QString6QFlagsINS_12SearchOptionEE@Base 4.96.0
 _ZNK13KStandardDirs16findAllResourcesEPKcRK7QString6QFlagsINS_12SearchOptionEER11QStringList@Base 4.96.0
 _ZNK13KStandardDirs16relativeLocationEPKcRK7QString@Base 4.96.0
 _ZNK13KStandardDirs20KStandardDirsPrivate19hasDataRestrictionsERK7QString@Base 4.96.0
 _ZNK13KStandardDirs20isRestrictedResourceEPKcRK7QString@Base 4.96.0
 _ZNK13KStandardDirs8allTypesEv@Base 4.96.0
 _ZNK13KStandardDirs8findDirsEPKcRK7QString@Base 4.96.0
 _ZNK13KTimeZoneData10transitionERK9QDateTimePPKN9KTimeZone10TransitionEPb@Base 4.96.0
 _ZNK13KTimeZoneData10utcOffsetsEv@Base 4.96.0
 _ZNK13KTimeZoneData11transitionsERK9QDateTimeS2_@Base 4.96.0
 _ZNK13KTimeZoneData12abbreviationERK9QDateTime@Base 4.96.0
 _ZNK13KTimeZoneData13abbreviationsEv@Base 4.96.0
 _ZNK13KTimeZoneData14hasTransitionsEv@Base 4.96.0
 _ZNK13KTimeZoneData15transitionIndexERK9QDateTimePiPb@Base 4.96.0
 _ZNK13KTimeZoneData15transitionTimesERKN9KTimeZone5PhaseERK9QDateTimeS6_@Base 4.96.0
 _ZNK13KTimeZoneData16leapSecondChangeERK9QDateTime@Base 4.96.0
 _ZNK13KTimeZoneData17leapSecondChangesEv@Base 4.96.0
 _ZNK13KTimeZoneData17previousUtcOffsetEv@Base 4.96.0
 _ZNK13KTimeZoneData5cloneEv@Base 4.96.0
 _ZNK13KTimeZoneData6phasesEv@Base 4.96.0
 _ZNK14K4AboutLicense3keyEv@Base 4.96.0
 _ZNK14K4AboutLicense4nameEN11K4AboutData10NameFormatE@Base 4.96.0
 _ZNK14K4AboutLicense4textEv@Base 4.96.0
 _ZNK14KComponentData11catalogNameEv@Base 4.96.0
 _ZNK14KComponentData13componentNameEv@Base 4.96.0
 _ZNK14KComponentData6configEv@Base 4.96.0
 _ZNK14KComponentData7isValidEv@Base 4.96.0
 _ZNK14KComponentData9aboutDataEv@Base 4.96.0
 _ZNK14KComponentDatacv10KAboutDataEv@Base 4.96.0
 _ZNK14KComponentDataeqERKS_@Base 4.96.0
 _ZNK14KComponentDataneERKS_@Base 4.96.0
 _ZNK14KDiskFreeSpace10metaObjectEv@Base 4.96.0
 _ZNK14KLocalizedDate10daysInWeekEv@Base 4.96.0
 _ZNK14KLocalizedDate10daysInYearEv@Base 4.96.0
 _ZNK14KLocalizedDate10formatDateEN7KLocale10DateFormatE@Base 4.96.0
 _ZNK14KLocalizedDate10formatDateEN7KLocale17DateTimeComponentENS0_23DateTimeComponentFormatENS0_16WeekNumberSystemE@Base 4.96.0
 _ZNK14KLocalizedDate10formatDateERK7QStringN7KLocale22DateTimeFormatStandardE@Base 4.96.0
 _ZNK14KLocalizedDate10isLeapYearEv@Base 4.96.0
 _ZNK14KLocalizedDate11daysInMonthEv@Base 4.96.0
 _ZNK14KLocalizedDate11toJulianDayEv@Base 4.96.0
 _ZNK14KLocalizedDate11weeksInYearEN7KLocale16WeekNumberSystemE@Base 4.96.0
 _ZNK14KLocalizedDate11weeksInYearEv@Base 4.96.0
 _ZNK14KLocalizedDate12monthsInYearEv@Base 4.96.0
 _ZNK14KLocalizedDate13lastDayOfYearEv@Base 4.96.0
 _ZNK14KLocalizedDate14dateDifferenceERK5QDatePiS3_S3_S3_@Base 4.96.0
 _ZNK14KLocalizedDate14dateDifferenceERKS_PiS2_S2_S2_@Base 4.96.0
 _ZNK14KLocalizedDate14daysDifferenceERK5QDate@Base 4.96.0
 _ZNK14KLocalizedDate14daysDifferenceERKS_@Base 4.96.0
 _ZNK14KLocalizedDate14firstDayOfYearEv@Base 4.96.0
 _ZNK14KLocalizedDate14lastDayOfMonthEv@Base 4.96.0
 _ZNK14KLocalizedDate15firstDayOfMonthEv@Base 4.96.0
 _ZNK14KLocalizedDate15yearsDifferenceERK5QDate@Base 4.96.0
 _ZNK14KLocalizedDate15yearsDifferenceERKS_@Base 4.96.0
 _ZNK14KLocalizedDate16monthsDifferenceERK5QDate@Base 4.96.0
 _ZNK14KLocalizedDate16monthsDifferenceERKS_@Base 4.96.0
 _ZNK14KLocalizedDate3dayEv@Base 4.96.0
 _ZNK14KLocalizedDate4dateEv@Base 4.96.0
 _ZNK14KLocalizedDate4weekEN7KLocale16WeekNumberSystemEPi@Base 4.96.0
 _ZNK14KLocalizedDate4weekEPi@Base 4.96.0
 _ZNK14KLocalizedDate4yearEv@Base 4.96.0
 _ZNK14KLocalizedDate5monthEv@Base 4.96.0
 _ZNK14KLocalizedDate6isNullEv@Base 4.96.0
 _ZNK14KLocalizedDate7addDaysEi@Base 4.96.0
 _ZNK14KLocalizedDate7eraNameEv@Base 4.96.0
 _ZNK14KLocalizedDate7eraYearEv@Base 4.96.0
 _ZNK14KLocalizedDate7getDateEPiS0_S0_@Base 4.96.0
 _ZNK14KLocalizedDate7isValidEv@Base 4.96.0
 _ZNK14KLocalizedDate8addYearsEi@Base 4.96.0
 _ZNK14KLocalizedDate8calendarEv@Base 4.96.0
 _ZNK14KLocalizedDate9addMonthsEi@Base 4.96.0
 _ZNK14KLocalizedDate9dayOfWeekEv@Base 4.96.0
 _ZNK14KLocalizedDate9dayOfYearEv@Base 4.96.0
 _ZNK14KLocalizedDate9yearInEraEv@Base 4.96.0
 _ZNK14KLocalizedDateeqERK5QDate@Base 4.96.0
 _ZNK14KLocalizedDateeqERKS_@Base 4.96.0
 _ZNK14KLocalizedDategeERK5QDate@Base 4.96.0
 _ZNK14KLocalizedDategeERKS_@Base 4.96.0
 _ZNK14KLocalizedDategtERK5QDate@Base 4.96.0
 _ZNK14KLocalizedDategtERKS_@Base 4.96.0
 _ZNK14KLocalizedDateleERK5QDate@Base 4.96.0
 _ZNK14KLocalizedDateleERKS_@Base 4.96.0
 _ZNK14KLocalizedDateltERK5QDate@Base 4.96.0
 _ZNK14KLocalizedDateltERKS_@Base 4.96.0
 _ZNK14KLocalizedDateneERK5QDate@Base 4.96.0
 _ZNK14KLocalizedDateneERKS_@Base 4.96.0
 _ZNK14KXErrorHandler10errorEventEv@Base 4.96.0
 _ZNK14KXErrorHandler5errorEb@Base 4.96.0
 _ZNK15KCalendarSystem10daysInWeekERK5QDate@Base 4.96.0
 _ZNK15KCalendarSystem10daysInYearERK5QDate@Base 4.96.0
 _ZNK15KCalendarSystem10daysInYearEi@Base 4.96.0
 _ZNK15KCalendarSystem10formatDateERK5QDateN7KLocale10DateFormatE@Base 4.96.0
 _ZNK15KCalendarSystem10formatDateERK5QDateN7KLocale17DateTimeComponentENS3_23DateTimeComponentFormatENS3_16WeekNumberSystemE@Base 4.96.0
 _ZNK15KCalendarSystem10formatDateERK5QDateRK7QStringN7KLocale22DateTimeFormatStandardE@Base 4.96.0
 _ZNK15KCalendarSystem10formatDateERK5QDateRK7QStringN7KLocale8DigitSetENS6_22DateTimeFormatStandardE@Base 4.96.0
 _ZNK15KCalendarSystem10isLeapYearERK5QDate@Base 4.96.0
 _ZNK15KCalendarSystem10isLeapYearEi@Base 4.96.0
 _ZNK15KCalendarSystem11daysInMonthERK5QDate@Base 4.96.0
 _ZNK15KCalendarSystem11daysInMonthEii@Base 4.96.0
 _ZNK15KCalendarSystem11weekDayNameERK5QDateNS_17WeekDayNameFormatE@Base 4.96.0
 _ZNK15KCalendarSystem11weekDayNameEiNS_17WeekDayNameFormatE@Base 4.96.0
 _ZNK15KCalendarSystem11weeksInYearEiN7KLocale16WeekNumberSystemE@Base 4.96.0
 _ZNK15KCalendarSystem12monthsInYearERK5QDate@Base 4.96.0
 _ZNK15KCalendarSystem12monthsInYearEi@Base 4.96.0
 _ZNK15KCalendarSystem13calendarLabelEv@Base 4.96.0
 _ZNK15KCalendarSystem13lastDayOfYearERK5QDate@Base 4.96.0
 _ZNK15KCalendarSystem13lastDayOfYearEi@Base 4.96.0
 _ZNK15KCalendarSystem14dateDifferenceERK5QDateS2_PiS3_S3_S3_@Base 4.96.0
 _ZNK15KCalendarSystem14firstDayOfYearERK5QDate@Base 4.96.0
 _ZNK15KCalendarSystem14firstDayOfYearEi@Base 4.96.0
 _ZNK15KCalendarSystem14lastDayOfMonthERK5QDate@Base 4.96.0
 _ZNK15KCalendarSystem14lastDayOfMonthEii@Base 4.96.0
 _ZNK15KCalendarSystem14setDateIsoWeekER5QDateiii@Base 4.96.0
 _ZNK15KCalendarSystem15firstDayOfMonthERK5QDate@Base 4.96.0
 _ZNK15KCalendarSystem15firstDayOfMonthEii@Base 4.96.0
 _ZNK15KCalendarSystem15yearsDifferenceERK5QDateS2_@Base 4.96.0
 _ZNK15KCalendarSystem16monthsDifferenceERK5QDateS2_@Base 4.96.0
 _ZNK15KCalendarSystem18dayStringToIntegerERK7QStringRi@Base 4.96.0
 _ZNK15KCalendarSystem18isValidIsoWeekDateEiii@Base 4.96.0
 _ZNK15KCalendarSystem19yearStringToIntegerERK7QStringRi@Base 4.96.0
 _ZNK15KCalendarSystem20applyShortYearWindowEi@Base 4.96.0
 _ZNK15KCalendarSystem20monthStringToIntegerERK7QStringRi@Base 4.96.0
 _ZNK15KCalendarSystem24shortYearWindowStartYearEv@Base 4.96.0
 _ZNK15KCalendarSystem3dayERK5QDate@Base 4.96.0
 _ZNK15KCalendarSystem3eraERK5QDate@Base 4.96.0
 _ZNK15KCalendarSystem3eraERK7QStringi@Base 4.96.0
 _ZNK15KCalendarSystem4weekERK5QDateN7KLocale16WeekNumberSystemEPi@Base 4.96.0
 _ZNK15KCalendarSystem4yearERK5QDate@Base 4.96.0
 _ZNK15KCalendarSystem5monthERK5QDate@Base 4.96.0
 _ZNK15KCalendarSystem6localeEv@Base 4.96.0
 _ZNK15KCalendarSystem7eraListEv@Base 4.96.0
 _ZNK15KCalendarSystem7eraNameERK5QDateNS_12StringFormatE@Base 4.96.0
 _ZNK15KCalendarSystem7eraYearERK5QDateNS_12StringFormatE@Base 4.96.0
 _ZNK15KCalendarSystem7getDateE5QDatePiS1_S1_@Base 4.96.0
 _ZNK15KCalendarSystem7isValidERK7QStringiii@Base 4.96.0
 _ZNK15KCalendarSystem7isValidEii@Base 4.96.0
 _ZNK15KCalendarSystem7isValidEiii@Base 4.96.0
 _ZNK15KCalendarSystem7setDateER5QDate7QStringiii@Base 4.96.0
 _ZNK15KCalendarSystem7setDateER5QDateii@Base 4.96.0
 _ZNK15KCalendarSystem7setDateER5QDateiii@Base 4.96.0
 _ZNK15KCalendarSystem8addYearsERK5QDatei@Base 4.96.0
 _ZNK15KCalendarSystem8readDateERK7QStringN7KLocale13ReadDateFlagsEPb@Base 4.96.0
 _ZNK15KCalendarSystem8readDateERK7QStringPb@Base 4.96.0
 _ZNK15KCalendarSystem8readDateERK7QStringS2_Pb@Base 4.96.0
 _ZNK15KCalendarSystem8readDateERK7QStringS2_PbN7KLocale22DateTimeFormatStandardE@Base 4.96.0
 _ZNK15KCalendarSystem9addMonthsERK5QDatei@Base 4.96.0
 _ZNK15KCalendarSystem9dayOfWeekERK5QDate@Base 4.96.0
 _ZNK15KCalendarSystem9dayOfYearERK5QDate@Base 4.96.0
 _ZNK15KCalendarSystem9monthNameERK5QDateNS_15MonthNameFormatE@Base 4.96.0
 _ZNK15KCalendarSystem9monthNameEiiNS_15MonthNameFormatE@Base 4.96.0
 _ZNK15KCalendarSystem9yearInEraERK5QDate@Base 4.96.0
 _ZNK15KDataToolAction10metaObjectEv@Base 4.96.0
 _ZNK15KDateTimeWidget10metaObjectEv@Base 4.96.0
 _ZNK15KDateTimeWidget8dateTimeEv@Base 4.96.0
 _ZNK15KDoubleNumInput10metaObjectEv@Base 4.96.0
 _ZNK15KDoubleNumInput10singleStepEv@Base 4.96.0
 _ZNK15KDoubleNumInput13exponentRatioEv@Base 4.96.0
 _ZNK15KDoubleNumInput13relativeValueEv@Base 4.96.0
 _ZNK15KDoubleNumInput14referencePointEv@Base 4.96.0
 _ZNK15KDoubleNumInput15mapSliderToSpinEi@Base 4.96.0
 _ZNK15KDoubleNumInput15minimumSizeHintEv@Base 4.96.0
 _ZNK15KDoubleNumInput16specialValueTextEv@Base 4.96.0
 _ZNK15KDoubleNumInput5valueEv@Base 4.96.0
 _ZNK15KDoubleNumInput6prefixEv@Base 4.96.0
 _ZNK15KDoubleNumInput6suffixEv@Base 4.96.0
 _ZNK15KDoubleNumInput7maximumEv@Base 4.96.0
 _ZNK15KDoubleNumInput7minimumEv@Base 4.96.0
 _ZNK15KDoubleNumInput8decimalsEv@Base 4.96.0
 _ZNK15KGlobalSettings10metaObjectEv@Base 4.96.0
 _ZNK15KProgressDialog10buttonTextEv@Base 4.96.0
 _ZNK15KProgressDialog10metaObjectEv@Base 4.96.0
 _ZNK15KProgressDialog11allowCancelEv@Base 4.96.0
 _ZNK15KProgressDialog11progressBarEv@Base 4.96.0
 _ZNK15KProgressDialog12wasCancelledEv@Base 4.96.0
 _ZNK15KProgressDialog15minimumDurationEv@Base 4.96.0
 _ZNK15KProgressDialog9autoCloseEv@Base 4.96.0
 _ZNK15KProgressDialog9autoResetEv@Base 4.96.0
 _ZNK15KProgressDialog9labelTextEv@Base 4.96.0
 _ZNK15KRestrictedLine10metaObjectEv@Base 4.96.0
 _ZNK15KRestrictedLine10validCharsEv@Base 4.96.0
 _ZNK15KSSLCertificate10getKeyTypeEv@Base 4.96.0
 _ZNK15KSSLCertificate10getSubjectEv@Base 4.96.0
 _ZNK15KSSLCertificate11getNotAfterEv@Base 4.96.0
 _ZNK15KSSLCertificate12getMD5DigestEv@Base 4.96.0
 _ZNK15KSSLCertificate12getNotBeforeEv@Base 4.96.0
 _ZNK15KSSLCertificate12subjAltNamesEv@Base 4.96.0
 _ZNK15KSSLCertificate14getQDTNotAfterEv@Base 4.96.0
 _ZNK15KSSLCertificate15getQDTNotBeforeEv@Base 4.96.0
 _ZNK15KSSLCertificate15getSerialNumberEv@Base 4.96.0
 _ZNK15KSSLCertificate16getMD5DigestTextEv@Base 4.96.0
 _ZNK15KSSLCertificate16getPublicKeyTextEv@Base 4.96.0
 _ZNK15KSSLCertificate16getSignatureTextEv@Base 4.96.0
 _ZNK15KSSLCertificate16purposeToOpenSSLENS_11KSSLPurposeE@Base 4.96.0
 _ZNK15KSSLCertificate9getEmailsER11QStringList@Base 4.96.0
 _ZNK15KSSLCertificate9getIssuerEv@Base 4.96.0
 _ZNK15KSSLCertificate9getKDEKeyEv@Base 4.96.0
 _ZNK15KSystemTrayIcon10metaObjectEv@Base 4.96.0
 _ZNK15KSystemTrayIcon12parentWidgetEv@Base 4.96.0
 _ZNK15KSystemTrayIcon16contextMenuTitleEv@Base 4.96.0
 _ZNK15KSystemTrayIcon21parentWidgetTrayCloseEv@Base 4.96.0
 _ZNK15KSystemTrayIcon5movieEv@Base 4.96.0
 _ZNK15KTimeZoneSource12useZoneParseEv@Base 4.96.0
 _ZNK15KTimeZoneSource5parseERK9KTimeZone@Base 4.96.0
 _ZNK15KdeUiProxyStyle10metaObjectEv@Base 4.96.0
 _ZNK15KdeUiProxyStyle11drawControlEN6QStyle14ControlElementEPK12QStyleOptionP8QPainterPK7QWidget@Base 4.96.0
 _ZNK15KdeUiProxyStyle11pixelMetricEN6QStyle11PixelMetricEPK12QStyleOptionPK7QWidget@Base 4.96.0
 _ZNK15KdeUiProxyStyle12drawItemTextEP8QPainterRK5QRectiRK8QPalettebRK7QStringNS5_9ColorRoleE@Base 4.96.0
 _ZNK15KdeUiProxyStyle12itemTextRectERK12QFontMetricsRK5QRectibRK7QString@Base 4.96.0
 _ZNK15KdeUiProxyStyle12standardIconEN6QStyle14StandardPixmapEPK12QStyleOptionPK7QWidget@Base 4.96.0
 _ZNK15KdeUiProxyStyle13drawPrimitiveEN6QStyle16PrimitiveElementEPK12QStyleOptionP8QPainterPK7QWidget@Base 4.96.0
 _ZNK15KdeUiProxyStyle13layoutSpacingEN11QSizePolicy11ControlTypeES1_N2Qt11OrientationEPK12QStyleOptionPK7QWidget@Base 4.96.0
 _ZNK15KdeUiProxyStyle14drawItemPixmapEP8QPainterRK5QRectiRK7QPixmap@Base 4.96.0
 _ZNK15KdeUiProxyStyle14itemPixmapRectERK5QRectiRK7QPixmap@Base 4.96.0
 _ZNK15KdeUiProxyStyle14standardPixmapEN6QStyle14StandardPixmapEPK12QStyleOptionPK7QWidget@Base 4.96.0
 _ZNK15KdeUiProxyStyle14subControlRectEN6QStyle14ComplexControlEPK19QStyleOptionComplexNS0_10SubControlEPK7QWidget@Base 4.96.0
 _ZNK15KdeUiProxyStyle14subElementRectEN6QStyle10SubElementEPK12QStyleOptionPK7QWidget@Base 4.96.0
 _ZNK15KdeUiProxyStyle15standardPaletteEv@Base 4.96.0
 _ZNK15KdeUiProxyStyle16sizeFromContentsEN6QStyle12ContentsTypeEPK12QStyleOptionRK5QSizePK7QWidget@Base 4.96.0
 _ZNK15KdeUiProxyStyle18drawComplexControlEN6QStyle14ComplexControlEPK19QStyleOptionComplexP8QPainterPK7QWidget@Base 4.96.0
 _ZNK15KdeUiProxyStyle19generatedIconPixmapEN5QIcon4ModeERK7QPixmapPK12QStyleOption@Base 4.96.0
 _ZNK15KdeUiProxyStyle21hitTestComplexControlEN6QStyle14ComplexControlEPK19QStyleOptionComplexRK6QPointPK7QWidget@Base 4.96.0
 _ZNK15KdeUiProxyStyle5styleEv@Base 4.96.0
 _ZNK15KdeUiProxyStyle9styleHintEN6QStyle9StyleHintEPK12QStyleOptionPK7QWidgetP16QStyleHintReturn@Base 4.96.0
 _ZNK16K4TimeZoneWidget10metaObjectEv@Base 4.96.0
 _ZNK16K4TimeZoneWidget13selectionModeEv@Base 4.96.0
 _ZNK16K4TimeZoneWidget14itemsCheckableEv@Base 4.96.0
 _ZNK16K4TimeZoneWidget9selectionEv@Base 4.96.0
 _ZNK16KDeviceListModel10headerDataEiN2Qt11OrientationEi@Base 4.96.0
 _ZNK16KDeviceListModel10metaObjectEv@Base 4.96.0
 _ZNK16KDeviceListModel11columnCountERK11QModelIndex@Base 4.96.0
 _ZNK16KDeviceListModel14deviceForIndexERK11QModelIndex@Base 4.96.0
 _ZNK16KDeviceListModel4dataERK11QModelIndexi@Base 4.96.0
 _ZNK16KDeviceListModel5indexEiiRK11QModelIndex@Base 4.96.0
 _ZNK16KDeviceListModel6parentERK11QModelIndex@Base 4.96.0
 _ZNK16KDeviceListModel7Private12indexForItemEP15KDeviceListItem@Base 4.96.0
 _ZNK16KDeviceListModel8rowCountERK11QModelIndex@Base 4.96.0
 _ZNK16KDeviceListModel9rootIndexEv@Base 4.96.0
 _ZNK16KDialogButtonBox10metaObjectEv@Base 4.96.0
 _ZNK16KDirSelectDialog10metaObjectEv@Base 4.96.0
 _ZNK16KDirSelectDialog3urlEv@Base 4.96.0
 _ZNK16KDirSelectDialog4viewEv@Base 4.96.0
 _ZNK16KDirSelectDialog8startDirEv@Base 4.96.0
 _ZNK16KDirSelectDialog9localOnlyEv@Base 4.96.0
 _ZNK16KDoubleValidator10metaObjectEv@Base 4.96.0
 _ZNK16KDoubleValidator22acceptLocalizedNumbersEv@Base 4.96.0
 _ZNK16KDoubleValidator8validateER7QStringRi@Base 4.96.0
 _ZNK16KFileWritePlugin10metaObjectEv@Base 4.96.0
 _ZNK16KSystemTimeZones10metaObjectEv@Base 4.96.0
 _ZNK16KTimeZoneBackend10isDstAtUtcEPK9KTimeZoneRK9QDateTime@Base 4.96.0
 _ZNK16KTimeZoneBackend11offsetAtUtcEPK9KTimeZoneRK9QDateTime@Base 4.96.0
 _ZNK16KTimeZoneBackend14hasTransitionsEPK9KTimeZone@Base 4.96.0
 _ZNK16KTimeZoneBackend16offsetAtZoneTimeEPK9KTimeZoneRK9QDateTimePi@Base 4.96.0
 _ZNK16KTimeZoneBackend4typeEv@Base 4.96.0
 _ZNK16KTimeZoneBackend5cloneEv@Base 4.96.0
 _ZNK16KTimeZoneBackend5isDstEPK9KTimeZonel@Base 5.13.0
 _ZNK16KTimeZoneBackend6offsetEPK9KTimeZonel@Base 4.96.0
 _ZNK17KFadeWidgetEffect10metaObjectEv@Base 4.96.0
 _ZNK17KFileMetaInfoItem10isEditableEv@Base 4.96.0
 _ZNK17KFileMetaInfoItem10isModifiedEv@Base 4.96.0
 _ZNK17KFileMetaInfoItem10propertiesEv@Base 4.96.0
 _ZNK17KFileMetaInfoItem4nameEv@Base 4.96.0
 _ZNK17KFileMetaInfoItem5valueEv@Base 4.96.0
 _ZNK17KFileMetaInfoItem6prefixEv@Base 4.96.0
 _ZNK17KFileMetaInfoItem6suffixEv@Base 4.96.0
 _ZNK17KFileMetaInfoItem7isValidEv@Base 4.96.0
 _ZNK17KFileMetaInfoItem9isRemovedEv@Base 4.96.0
 _ZNK17KFileMetaInfoItem9isSkippedEv@Base 4.96.0
 _ZNK18KFileMetaInfoGroup4nameEv@Base 4.96.0
 _ZNK18KFileMetaInfoGroup5itemsEv@Base 4.96.0
 _ZNK18KUniqueApplication10metaObjectEv@Base 4.96.0
 _ZNK19KColorValueSelector10colorValueEv@Base 4.96.0
 _ZNK19KColorValueSelector10metaObjectEv@Base 4.96.0
 _ZNK19KColorValueSelector10saturationEv@Base 4.96.0
 _ZNK19KColorValueSelector11chooserModeEv@Base 4.96.0
 _ZNK19KColorValueSelector3hueEv@Base 4.96.0
 _ZNK19KFileMetaDataWidget10isReadOnlyEv@Base 4.96.0
 _ZNK19KFileMetaDataWidget10metaObjectEv@Base 4.96.0
 _ZNK19KFileMetaDataWidget5itemsEv@Base 4.96.0
 _ZNK19KFileMetaDataWidget8sizeHintEv@Base 4.96.0
 _ZNK19KFileMetaInfoWidget10metaObjectEv@Base 4.96.0
 _ZNK19KFileMetaInfoWidget4itemEv@Base 4.96.0
 _ZNK19KFileMetaInfoWidget5valueEv@Base 4.96.0
 _ZNK19KFileMetaInfoWidget9validatorEv@Base 4.96.0
 _ZNK19PredicateProperties10attributesEv@Base 4.96.0
 _ZNK19PredicateProperties14maxCardinalityEv@Base 4.96.0
 _ZNK19PredicateProperties14minCardinalityEv@Base 4.96.0
 _ZNK19PredicateProperties15createValidatorEv@Base 4.96.0
 _ZNK19PredicateProperties15suggestedValuesEv@Base 4.96.0
 _ZNK19PredicateProperties4nameEv@Base 4.96.0
 _ZNK19PredicateProperties4typeEv@Base 4.96.0
 _ZNK19PredicateProperties6parentEv@Base 4.96.0
 _ZNK19PredicateProperties7isValidEv@Base 4.96.0
 _ZNK20KFileMetaPropsPlugin10metaObjectEv@Base 4.96.0
 _ZNK20KStringListValidator10metaObjectEv@Base 4.96.0
 _ZNK20KStringListValidator10stringListEv@Base 4.96.0
 _ZNK20KStringListValidator11isRejectingEv@Base 4.96.0
 _ZNK20KStringListValidator14isFixupEnabledEv@Base 4.96.0
 _ZNK20KStringListValidator5fixupER7QString@Base 4.96.0
 _ZNK20KStringListValidator8validateER7QStringRi@Base 4.96.0
 _ZNK21KFileItemActionPlugin10metaObjectEv@Base 4.96.0
 _ZNK21KSystemTimeZoneSource5parseERK9KTimeZone@Base 4.96.0
 _ZNK21KTzfileTimeZoneSource5parseERK9KTimeZone@Base 4.96.0
 _ZNK21KTzfileTimeZoneSource8locationEv@Base 4.96.0
 _ZNK22KHueSaturationSelector10colorValueEv@Base 4.96.0
 _ZNK22KHueSaturationSelector10metaObjectEv@Base 4.96.0
 _ZNK22KHueSaturationSelector10saturationEv@Base 4.96.0
 _ZNK22KHueSaturationSelector11chooserModeEv@Base 4.96.0
 _ZNK22KHueSaturationSelector3hueEv@Base 4.96.0
 _ZNK22KSystemTimeZoneBackend10isDstAtUtcEPK9KTimeZoneRK9QDateTime@Base 4.96.0
 _ZNK22KSystemTimeZoneBackend11offsetAtUtcEPK9KTimeZoneRK9QDateTime@Base 4.96.0
 _ZNK22KSystemTimeZoneBackend16offsetAtZoneTimeEPK9KTimeZoneRK9QDateTimePi@Base 4.96.0
 _ZNK22KSystemTimeZoneBackend4typeEv@Base 4.96.0
 _ZNK22KSystemTimeZoneBackend5cloneEv@Base 4.96.0
 _ZNK22KSystemTimeZoneBackend5isDstEPK9KTimeZonel@Base 4.96.0
 _ZNK22KSystemTimeZoneBackend6offsetEPK9KTimeZonel@Base 5.13.0
 _ZNK22KTzfileTimeZoneBackend14hasTransitionsEPK9KTimeZone@Base 4.96.0
 _ZNK22KTzfileTimeZoneBackend4typeEv@Base 4.96.0
 _ZNK22KTzfileTimeZoneBackend5cloneEv@Base 4.96.0
 _ZNK25KMessageBoxMessageHandler10metaObjectEv@Base 4.96.0
 _ZNK27KPassivePopupMessageHandler10metaObjectEv@Base 4.96.0
 _ZNK32KFileMetaDataConfigurationWidget10metaObjectEv@Base 4.96.0
 _ZNK32KFileMetaDataConfigurationWidget5itemsEv@Base 4.96.0
 _ZNK32KFileMetaDataConfigurationWidget8sizeHintEv@Base 4.96.0
 _ZNK3KIO11MetaInfoJob10metaObjectEv@Base 4.96.0
 _ZNK3KIO14PasswordDialog10metaObjectEv@Base 4.96.0
 _ZNK3KIO9NetAccess10metaObjectEv@Base 4.96.0
 _ZNK4KUrl10hasHTMLRefEv@Base 4.96.0
 _ZNK4KUrl10isParentOfERKS_@Base 4.96.0
 _ZNK4KUrl10queryItemsERK6QFlagsINS_16QueryItemsOptionEE@Base 4.96.0
 _ZNK4KUrl11isLocalFileEv@Base 4.96.0
 _ZNK4KUrl11toLocalFileENS_16AdjustPathOptionE@Base 4.96.0
 _ZNK4KUrl12fileEncodingEv@Base 4.96.0
 _ZNK4KUrl14encodedHtmlRefEv@Base 4.96.0
 _ZNK4KUrl16populateMimeDataEP9QMimeDataRK4QMapI7QStringS3_ENS_13MimeDataFlagsE@Base 4.96.0
 _ZNK4KUrl16toMimeDataStringEv@Base 4.96.0
 _ZNK4KUrl19encodedPathAndQueryENS_16AdjustPathOptionERK6QFlagsINS_25EncodedPathAndQueryOptionEE@Base 4.96.0
 _ZNK4KUrl3cmpERKS_b@Base 4.96.0
 _ZNK4KUrl3refEv@Base 4.96.0
 _ZNK4KUrl3urlENS_16AdjustPathOptionE@Base 4.96.0
 _ZNK4KUrl4List12toStringListENS_16AdjustPathOptionE@Base 4.96.0
 _ZNK4KUrl4List12toStringListEv@Base 4.96.0
 _ZNK4KUrl4List16populateMimeDataEP9QMimeDataRK4QMapI7QStringS4_ENS_13MimeDataFlagsE@Base 4.96.0
 _ZNK4KUrl4List16populateMimeDataERKS0_P9QMimeDataRK4QMapI7QStringS6_ENS_13MimeDataFlagsE@Base 4.96.0
 _ZNK4KUrl4Listcv5QListI4QUrlEEv@Base 4.96.0
 _ZNK4KUrl4Listcv8QVariantEv@Base 4.96.0
 _ZNK4KUrl4passEv@Base 4.96.0
 _ZNK4KUrl4pathENS_16AdjustPathOptionE@Base 4.96.0
 _ZNK4KUrl4userEv@Base 4.96.0
 _ZNK4KUrl5queryEv@Base 4.96.0
 _ZNK4KUrl5upUrlEv@Base 4.96.0
 _ZNK4KUrl6equalsERKS_RK6QFlagsINS_12EqualsOptionEE@Base 4.96.0
 _ZNK4KUrl6hasRefEv@Base 4.96.0
 _ZNK4KUrl7hasHostEv@Base 4.96.0
 _ZNK4KUrl7hasPassEv@Base 4.96.0
 _ZNK4KUrl7hasPathEv@Base 4.96.0
 _ZNK4KUrl7hasUserEv@Base 4.96.0
 _ZNK4KUrl7htmlRefEv@Base 4.96.0
 _ZNK4KUrl8fileNameERK6QFlagsINS_15DirectoryOptionEE@Base 4.96.0
 _ZNK4KUrl8protocolEv@Base 4.96.0
 _ZNK4KUrl9directoryERK6QFlagsINS_15DirectoryOptionEE@Base 4.96.0
 _ZNK4KUrl9hasSubUrlEv@Base 4.96.0
 _ZNK4KUrl9pathOrUrlENS_16AdjustPathOptionE@Base 4.96.0
 _ZNK4KUrl9prettyUrlENS_16AdjustPathOptionE@Base 4.96.0
 _ZNK4KUrl9queryItemERK7QString@Base 4.96.0
 _ZNK4KUrlcv8QVariantEv@Base 4.96.0
 _ZNK4KUrleqERK7QString@Base 4.96.0
 _ZNK4KUrleqERKS_@Base 4.96.0
 _ZNK5KHBox10metaObjectEv@Base 4.96.0
 _ZNK5KHBox15minimumSizeHintEv@Base 4.96.0
 _ZNK5KHBox8sizeHintEv@Base 4.96.0
 _ZNK5KMenu10metaObjectEv@Base 4.96.0
 _ZNK5KMenu11contextMenuEv@Base 4.96.0
 _ZNK5KMenu12mouseButtonsEv@Base 4.96.0
 _ZNK5KMenu17keyboardModifiersEv@Base 4.96.0
 _ZNK5KVBox10metaObjectEv@Base 4.96.0
 _ZNK5Solid10Networking8Notifier10metaObjectEv@Base 4.99.0
 _ZNK5Solid15PowerManagement8Notifier10metaObjectEv@Base 4.99.0
 _ZNK6K3Icon7isValidEv@Base 4.96.0
 _ZNK6KParts7Factory10metaObjectEv@Base 4.96.0
 _ZNK7K4Style10centerRectERK5QRectRK5QSize@Base 4.96.0
 _ZNK7K4Style10centerRectERK5QRectii@Base 4.96.0
 _ZNK7K4Style10metaObjectEv@Base 4.96.0
 _ZNK7K4Style11drawControlEN6QStyle14ControlElementEPK12QStyleOptionP8QPainterPK7QWidget@Base 4.96.0
 _ZNK7K4Style11pixelMetricEN6QStyle11PixelMetricEPK12QStyleOptionPK7QWidget@Base 4.96.0
 _ZNK7K4Style11useSideTextEPK23QStyleOptionProgressBar@Base 4.96.0
 _ZNK7K4Style12drawItemTextEP8QPainterRK5QRectiRK8QPalettebRK7QStringNS5_9ColorRoleE@Base 4.96.0
 _ZNK7K4Style12insideMarginERK5QRectNS_10WidgetTypeEiPK12QStyleOptionPK7QWidget@Base 4.96.0
 _ZNK7K4Style12itemTextRectERK12QFontMetricsRK5QRectibRK7QString@Base 4.96.0
 _ZNK7K4Style12standardIconEN6QStyle14StandardPixmapEPK12QStyleOptionPK7QWidget@Base 4.96.0
 _ZNK7K4Style13drawPrimitiveEN6QStyle16PrimitiveElementEPK12QStyleOptionP8QPainterPK7QWidget@Base 4.96.0
 _ZNK7K4Style13isVerticalTabEPK15QStyleOptionTab@Base 4.96.0
 _ZNK7K4Style13layoutSpacingEN11QSizePolicy11ControlTypeES1_N2Qt11OrientationEPK12QStyleOptionPK7QWidget@Base 4.96.0
 _ZNK7K4Style13sideTextWidthEPK23QStyleOptionProgressBar@Base 4.96.0
 _ZNK7K4Style14drawInsideRectEP8QPainterRK5QRect@Base 4.96.0
 _ZNK7K4Style14drawItemPixmapEP8QPainterRK5QRectiRK7QPixmap@Base 4.96.0
 _ZNK7K4Style14isReflectedTabEPK15QStyleOptionTab@Base 4.96.0
 _ZNK7K4Style14itemPixmapRectERK5QRectiRK7QPixmap@Base 4.96.0
 _ZNK7K4Style14standardPixmapEN6QStyle14StandardPixmapEPK12QStyleOptionPK7QWidget@Base 4.96.0
 _ZNK7K4Style14subControlRectEN6QStyle14ComplexControlEPK19QStyleOptionComplexNS0_10SubControlEPK7QWidget@Base 4.96.0
 _ZNK7K4Style14subElementRectEN6QStyle10SubElementEPK12QStyleOptionPK7QWidget@Base 4.96.0
 _ZNK7K4Style15standardPaletteEv@Base 4.96.0
 _ZNK7K4Style16sizeFromContentsEN6QStyle12ContentsTypeEPK12QStyleOptionRK5QSizePK7QWidget@Base 4.96.0
 _ZNK7K4Style16widgetLayoutPropENS_10WidgetTypeEiPK12QStyleOptionPK7QWidget@Base 4.96.0
 _ZNK7K4Style17marginAdjustedTabEPK15QStyleOptionTabi@Base 4.96.0
 _ZNK7K4Style18drawComplexControlEN6QStyle14ComplexControlEPK19QStyleOptionComplexP8QPainterPK7QWidget@Base 4.96.0
 _ZNK7K4Style19drawKStylePrimitiveENS_10WidgetTypeEiPK12QStyleOptionRK5QRectRK8QPalette6QFlagsIN6QStyle9StateFlagEEP8QPainterPK7QWidgetPNS_6OptionE@Base 4.96.0
 _ZNK7K4Style19generatedIconPixmapEN5QIcon4ModeERK7QPixmapPK12QStyleOption@Base 4.96.0
 _ZNK7K4Style21hitTestComplexControlEN6QStyle14ComplexControlEPK19QStyleOptionComplexRK6QPointPK7QWidget@Base 4.96.0
 _ZNK7K4Style22internalSubControlRectEN6QStyle14ComplexControlEPK19QStyleOptionComplexNS0_10SubControlEPK7QWidget@Base 4.96.0
 _ZNK7K4Style7tabSideEPK15QStyleOptionTab@Base 4.96.0
 _ZNK7K4Style9ColorModecviEv@Base 4.96.0
 _ZNK7K4Style9expandDimERK5QSizeNS_10WidgetTypeEiPK12QStyleOptionPK7QWidgetb@Base 4.96.0
 _ZNK7K4Style9handleRTLEPK12QStyleOptionRK5QRect@Base 4.96.0
 _ZNK7K4Style9handleRTLEPK12QStyleOptionRK6QPoint@Base 4.96.0
 _ZNK7K4Style9styleHintEN6QStyle9StyleHintEPK12QStyleOptionPK7QWidgetP16QStyleHintReturn@Base 4.96.0
 _ZNK7KAction10authActionEv@Base 4.96.0
 _ZNK7KAction10metaObjectEv@Base 4.96.0
 _ZNK7KAction12shapeGestureE6QFlagsINS_12ShortcutTypeEE@Base 4.96.0
 _ZNK7KAction13rockerGestureE6QFlagsINS_12ShortcutTypeEE@Base 4.96.0
 _ZNK7KAction14globalShortcutE6QFlagsINS_12ShortcutTypeEE@Base 4.96.0
 _ZNK7KAction21globalShortcutAllowedEv@Base 4.96.0
 _ZNK7KAction22isShortcutConfigurableEv@Base 4.96.0
 _ZNK7KAction23isGlobalShortcutEnabledEv@Base 4.96.0
 _ZNK7KAction8shortcutE6QFlagsINS_12ShortcutTypeEE@Base 4.96.0
 _ZNK7KDialog10buttonIconENS_10ButtonCodeE@Base 4.96.0
 _ZNK7KDialog10buttonTextENS_10ButtonCodeE@Base 4.96.0
 _ZNK7KDialog10metaObjectEv@Base 4.96.0
 _ZNK7KDialog12helpLinkTextEv@Base 4.96.0
 _ZNK7KDialog13buttonToolTipENS_10ButtonCodeE@Base 4.96.0
 _ZNK7KDialog13defaultButtonEv@Base 4.96.0
 _ZNK7KDialog14saveDialogSizeER12KConfigGroup6QFlagsIN11KConfigBase15WriteConfigFlagEE@Base 4.96.0
 _ZNK7KDialog15buttonWhatsThisENS_10ButtonCodeE@Base 4.96.0
 _ZNK7KDialog15isButtonEnabledENS_10ButtonCodeE@Base 4.96.0
 _ZNK7KDialog15minimumSizeHintEv@Base 4.96.0
 _ZNK7KDialog22isDetailsWidgetVisibleEv@Base 4.96.0
 _ZNK7KDialog6buttonENS_10ButtonCodeE@Base 4.96.0
 _ZNK7KDialog8sizeHintEv@Base 4.96.0
 _ZNK7KLocale10dateFormatEv@Base 4.96.0
 _ZNK7KLocale10formatDateERK5QDateNS_10DateFormatE@Base 4.96.0
 _ZNK7KLocale10formatLongEl@Base 4.96.0
 _ZNK7KLocale10formatTimeERK5QTimebb@Base 4.96.0
 _ZNK7KLocale10fracDigitsEv@Base 4.96.0
 _ZNK7KLocale10readNumberERK7QStringPb@Base 4.96.0
 _ZNK7KLocale10timeFormatEv@Base 4.96.0
 _ZNK7KLocale10use12ClockEv@Base 4.96.0
 _ZNK7KLocale11encodingMibEv@Base 4.96.0
 _ZNK7KLocale11formatMoneyEdRK7QStringi@Base 4.96.0
 _ZNK7KLocale12calendarTypeEv@Base 4.96.0
 _ZNK7KLocale12currencyCodeEv@Base 4.96.0
 _ZNK7KLocale12formatNumberERK7QStringbi@Base 4.96.0
 _ZNK7KLocale12formatNumberEdi@Base 4.96.0
 _ZNK7KLocale12languageListEv@Base 4.96.0
 _ZNK7KLocale12negativeSignEv@Base 4.96.0
 _ZNK7KLocale12positiveSignEv@Base 4.96.0
 _ZNK7KLocale12weekStartDayEv@Base 4.96.0
 _ZNK7KLocale13convertDigitsERK7QStringNS_8DigitSetEb@Base 4.96.0
 _ZNK7KLocale13dayPeriodTextERK5QTimeNS_23DateTimeComponentFormatE@Base 4.96.0
 _ZNK7KLocale13decimalPlacesEv@Base 4.96.0
 _ZNK7KLocale13decimalSymbolEv@Base 4.96.0
 _ZNK7KLocale13measureSystemEv@Base 4.96.0
 _ZNK7KLocale13weekDayOfPrayEv@Base 4.96.0
 _ZNK7KLocale14calendarSystemEv@Base 4.96.0
 _ZNK7KLocale14currencySymbolEv@Base 4.96.0
 _ZNK7KLocale14digitSetToNameENS_8DigitSetEb@Base 4.96.0
 _ZNK7KLocale14formatByteSizeEd@Base 4.96.0
 _ZNK7KLocale14formatByteSizeEdiNS_17BinaryUnitDialectENS_15BinarySizeUnitsE@Base 4.96.0
 _ZNK7KLocale14formatDateTimeERK9KDateTimeNS_10DateFormatE6QFlagsINS_20DateTimeFormatOptionEE@Base 4.96.0
 _ZNK7KLocale14formatDateTimeERK9QDateTimeNS_10DateFormatEb@Base 4.96.0
 _ZNK7KLocale14formatDurationEm@Base 4.96.0
 _ZNK7KLocale14nounDeclensionEv@Base 4.96.0
 _ZNK7KLocale14readLocaleTimeERK7QStringPb6QFlagsINS_16TimeFormatOptionEES4_INS_20TimeProcessingOptionEE@Base 4.96.0
 _ZNK7KLocale15dateFormatShortEv@Base 4.96.0
 _ZNK7KLocale15fileEncodingMibEv@Base 4.96.0
 _ZNK7KLocale16allCountriesListEv@Base 4.96.0
 _ZNK7KLocale16allDigitSetsListEv@Base 4.96.0
 _ZNK7KLocale16allLanguagesListEv@Base 4.96.0
 _ZNK7KLocale16codecForEncodingEv@Base 4.96.0
 _ZNK7KLocale16currencyCodeListEv@Base 4.96.0
 _ZNK7KLocale16dateTimeDigitSetEv@Base 4.96.0
 _ZNK7KLocale16formatLocaleTimeERK5QTime6QFlagsINS_16TimeFormatOptionEE@Base 4.96.0
 _ZNK7KLocale16monetaryDigitSetEv@Base 4.96.0
 _ZNK7KLocale16weekNumberSystemEv@Base 4.96.0
 _ZNK7KLocale17binaryUnitDialectEv@Base 4.96.0
 _ZNK7KLocale17countryCodeToNameERK7QString@Base 4.96.0
 _ZNK7KLocale17workingWeekEndDayEv@Base 4.96.0
 _ZNK7KLocale18installedLanguagesEv@Base 4.96.0
 _ZNK7KLocale18languageCodeToNameERK7QString@Base 4.96.0
 _ZNK7KLocale18thousandsSeparatorEv@Base 4.96.0
 _ZNK7KLocale19countryDivisionCodeEv@Base 4.96.0
 _ZNK7KLocale19workingWeekStartDayEv@Base 4.96.0
 _ZNK7KLocale20prettyFormatDurationEm@Base 4.96.0
 _ZNK7KLocale21monetaryDecimalPlacesEv@Base 4.96.0
 _ZNK7KLocale21monetaryDecimalSymbolEv@Base 4.96.0
 _ZNK7KLocale23dateMonthNamePossessiveEv@Base 4.96.0
 _ZNK7KLocale26monetaryThousandsSeparatorEv@Base 4.96.0
 _ZNK7KLocale28negativeMonetarySignPositionEv@Base 4.96.0
 _ZNK7KLocale28negativePrefixCurrencySymbolEv@Base 4.96.0
 _ZNK7KLocale28positiveMonetarySignPositionEv@Base 4.96.0
 _ZNK7KLocale28positivePrefixCurrencySymbolEv@Base 4.96.0
 _ZNK7KLocale7countryEv@Base 4.96.0
 _ZNK7KLocale8calendarEv@Base 4.96.0
 _ZNK7KLocale8currencyEv@Base 4.96.0
 _ZNK7KLocale8digitSetEv@Base 4.96.0
 _ZNK7KLocale8encodingEv@Base 4.96.0
 _ZNK7KLocale8languageEv@Base 4.96.0
 _ZNK7KLocale8pageSizeEv@Base 4.96.0
 _ZNK7KLocale8readDateERK7QStringNS_13ReadDateFlagsEPb@Base 4.96.0
 _ZNK7KLocale8readDateERK7QStringPb@Base 4.96.0
 _ZNK7KLocale8readDateERK7QStringS2_Pb@Base 4.96.0
 _ZNK7KLocale8readTimeERK7QStringNS_13ReadTimeFlagsEPb@Base 4.96.0
 _ZNK7KLocale8readTimeERK7QStringPb@Base 4.96.0
 _ZNK7KLocale9readMoneyERK7QStringPb@Base 4.96.0
 _ZNK7KTabBar10metaObjectEv@Base 4.96.0
 _ZNK7KTabBar11tabSizeHintEi@Base 4.96.0
 _ZNK7KTabBar14closeButtonPosEi@Base 4.96.0
 _ZNK7KTabBar15closeButtonRectEi@Base 4.96.0
 _ZNK7KTabBar16hoverCloseButtonEv@Base 4.96.0
 _ZNK7KTabBar20isCloseButtonEnabledEv@Base 4.96.0
 _ZNK7KTabBar22isTabReorderingEnabledEv@Base 4.96.0
 _ZNK7KTabBar23hoverCloseButtonDelayedEv@Base 4.96.0
 _ZNK7KTabBar24tabCloseActivatePreviousEv@Base 4.96.0
 _ZNK7KTabBar9selectTabERK6QPoint@Base 4.96.0
 _ZNK8KLibrary10metaObjectEv@Base 4.98.0
 _ZNK8KMenuBar10metaObjectEv@Base 4.96.0
 _ZNK8KMenuBar14isTopLevelMenuEv@Base 4.96.0
 _ZNK8KMenuBar8sizeHintEv@Base 4.96.0
 _ZNK8KNetwork10KIpAddress7compareERKS0_b@Base 4.96.0
 _ZNK8KNetwork10KIpAddress8toStringEv@Base 4.96.0
 _ZNK8KNetwork11KSocketBase10isIPv6OnlyEv@Base 4.96.0
 _ZNK8KNetwork11KSocketBase11errorStringEv@Base 4.96.0
 _ZNK8KNetwork11KSocketBase12socketDeviceEv@Base 4.96.0
 _ZNK8KNetwork11KSocketBase13socketOptionsEv@Base 4.96.0
 _ZNK8KNetwork11KSocketBase16addressReuseableEv@Base 4.96.0
 _ZNK8KNetwork11KSocketBase5errorEv@Base 4.96.0
 _ZNK8KNetwork11KSocketBase5mutexEv@Base 4.96.0
 _ZNK8KNetwork11KSocketBase7noDelayEv@Base 4.96.0
 _ZNK8KNetwork11KSocketBase8blockingEv@Base 4.96.0
 _ZNK8KNetwork11KSocketBase9broadcastEv@Base 4.96.0
 _ZNK8KNetwork11KSocketBase9hasDeviceEv@Base 4.96.0
 _ZNK8KNetwork13KServerSocket10metaObjectEv@Base 4.96.0
 _ZNK8KNetwork13KServerSocket12localAddressEv@Base 4.96.0
 _ZNK8KNetwork13KServerSocket15externalAddressEv@Base 4.96.0
 _ZNK8KNetwork13KServerSocket15resolverResultsEv@Base 4.96.0
 _ZNK8KNetwork13KServerSocket8resolverEv@Base 4.96.0
 _ZNK8KNetwork13KSocketDevice11peerAddressEv@Base 4.96.0
 _ZNK8KNetwork13KSocketDevice12capabilitiesEv@Base 4.96.0
 _ZNK8KNetwork13KSocketDevice12localAddressEv@Base 4.96.0
 _ZNK8KNetwork13KSocketDevice12readNotifierEv@Base 4.96.0
 _ZNK8KNetwork13KSocketDevice13writeNotifierEv@Base 4.96.0
 _ZNK8KNetwork13KSocketDevice14bytesAvailableEv@Base 4.96.0
 _ZNK8KNetwork13KSocketDevice14createNotifierEN15QSocketNotifier4TypeE@Base 4.96.0
 _ZNK8KNetwork13KSocketDevice15externalAddressEv@Base 4.96.0
 _ZNK8KNetwork13KSocketDevice17exceptionNotifierEv@Base 4.96.0
 _ZNK8KNetwork13KSocketDevice6socketEv@Base 4.96.0
 _ZNK8KNetwork13KStreamSocket10metaObjectEv@Base 4.96.0
 _ZNK8KNetwork13KStreamSocket16remainingTimeoutEv@Base 4.96.0
 _ZNK8KNetwork13KStreamSocket7timeoutEv@Base 4.96.0
 _ZNK8KNetwork14KResolverEntry10socketTypeEv@Base 4.96.0
 _ZNK8KNetwork14KResolverEntry11encodedNameEv@Base 4.96.0
 _ZNK8KNetwork14KResolverEntry13canonicalNameEv@Base 4.96.0
 _ZNK8KNetwork14KResolverEntry6familyEv@Base 4.96.0
 _ZNK8KNetwork14KResolverEntry6lengthEv@Base 4.96.0
 _ZNK8KNetwork14KResolverEntry7addressEv@Base 4.96.0
 _ZNK8KNetwork14KResolverEntry8protocolEv@Base 4.96.0
 _ZNK8KNetwork14KSocketAddress11serviceNameEv@Base 4.96.0
 _ZNK8KNetwork14KSocketAddress6asInetEv@Base 4.96.0
 _ZNK8KNetwork14KSocketAddress6asUnixEv@Base 4.96.0
 _ZNK8KNetwork14KSocketAddress6familyEv@Base 4.96.0
 _ZNK8KNetwork14KSocketAddress6lengthEv@Base 4.96.0
 _ZNK8KNetwork14KSocketAddress7addressEv@Base 4.96.0
 _ZNK8KNetwork14KSocketAddress8nodeNameEv@Base 4.96.0
 _ZNK8KNetwork14KSocketAddress8toStringEv@Base 4.96.0
 _ZNK8KNetwork14KSocketAddresseqERKS0_@Base 4.96.0
 _ZNK8KNetwork15KBufferedSocket10metaObjectEv@Base 4.96.0
 _ZNK8KNetwork15KBufferedSocket11canReadLineEv@Base 4.96.0
 _ZNK8KNetwork15KBufferedSocket12bytesToWriteEv@Base 4.96.0
 _ZNK8KNetwork15KBufferedSocket14bytesAvailableEv@Base 4.96.0
 _ZNK8KNetwork16KResolverResults11serviceNameEv@Base 4.96.0
 _ZNK8KNetwork16KResolverResults11systemErrorEv@Base 4.96.0
 _ZNK8KNetwork16KResolverResults5errorEv@Base 4.96.0
 _ZNK8KNetwork16KResolverResults8nodeNameEv@Base 4.96.0
 _ZNK8KNetwork16KReverseResolver10metaObjectEv@Base 4.96.0
 _ZNK8KNetwork16KReverseResolver4nodeEv@Base 4.96.0
 _ZNK8KNetwork16KReverseResolver7addressEv@Base 4.96.0
 _ZNK8KNetwork16KReverseResolver7failureEv@Base 4.96.0
 _ZNK8KNetwork16KReverseResolver7serviceEv@Base 4.96.0
 _ZNK8KNetwork16KReverseResolver7successEv@Base 4.96.0
 _ZNK8KNetwork16KReverseResolver9isRunningEv@Base 4.96.0
 _ZNK8KNetwork17KActiveSocketBase10metaObjectEv@Base 4.96.0
 _ZNK8KNetwork17KActiveSocketBase11errorStringEv@Base 4.96.0
 _ZNK8KNetwork17KActiveSocketBase12isSequentialEv@Base 4.96.0
 _ZNK8KNetwork17KActiveSocketBase3posEv@Base 4.96.0
 _ZNK8KNetwork17KActiveSocketBase4sizeEv@Base 4.96.0
 _ZNK8KNetwork17KActiveSocketBase5atEndEv@Base 4.96.0
 _ZNK8KNetwork17KClientSocketBase10metaObjectEv@Base 4.96.0
 _ZNK8KNetwork17KClientSocketBase11peerAddressEv@Base 4.96.0
 _ZNK8KNetwork17KClientSocketBase11peerResultsEv@Base 4.96.0
 _ZNK8KNetwork17KClientSocketBase12localAddressEv@Base 4.96.0
 _ZNK8KNetwork17KClientSocketBase12localResultsEv@Base 4.96.0
 _ZNK8KNetwork17KClientSocketBase12peerResolverEv@Base 4.96.0
 _ZNK8KNetwork17KClientSocketBase13localResolverEv@Base 4.96.0
 _ZNK8KNetwork17KClientSocketBase14bytesAvailableEv@Base 4.96.0
 _ZNK8KNetwork17KClientSocketBase14emitsReadyReadEv@Base 4.96.0
 _ZNK8KNetwork17KClientSocketBase15emitsReadyWriteEv@Base 4.96.0
 _ZNK8KNetwork17KClientSocketBase5stateEv@Base 4.96.0
 _ZNK8KNetwork18KInetSocketAddress4portEv@Base 4.96.0
 _ZNK8KNetwork18KInetSocketAddress7scopeIdEv@Base 4.96.0
 _ZNK8KNetwork18KInetSocketAddress8flowinfoEv@Base 4.96.0
 _ZNK8KNetwork18KInetSocketAddress9ipAddressEv@Base 4.96.0
 _ZNK8KNetwork18KInetSocketAddress9ipVersionEv@Base 4.96.0
 _ZNK8KNetwork18KUnixSocketAddress8pathnameEv@Base 4.96.0
 _ZNK8KNetwork9KResolver10metaObjectEv@Base 4.96.0
 _ZNK8KNetwork9KResolver11errorStringEv@Base 4.96.0
 _ZNK8KNetwork9KResolver11serviceNameEv@Base 4.96.0
 _ZNK8KNetwork9KResolver11systemErrorEv@Base 4.96.0
 _ZNK8KNetwork9KResolver5errorEv@Base 4.96.0
 _ZNK8KNetwork9KResolver5flagsEv@Base 4.96.0
 _ZNK8KNetwork9KResolver6statusEv@Base 4.96.0
 _ZNK8KNetwork9KResolver7resultsEv@Base 4.96.0
 _ZNK8KNetwork9KResolver8nodeNameEv@Base 4.96.0
 _ZNK8KNetwork9KResolver9isRunningEv@Base 4.96.0
 _ZNK8KTempDir10autoRemoveEv@Base 4.96.0
 _ZNK8KTempDir4nameEv@Base 4.96.0
 _ZNK8KTempDir6existsEv@Base 4.96.0
 _ZNK8KTempDir6statusEv@Base 4.96.0
 _ZNK9KDataTool10metaObjectEv@Base 4.96.0
 _ZNK9KDataTool13componentNameEv@Base 4.96.0
 _ZNK9KDateTime10isDateOnlyEv@Base 4.96.0
 _ZNK9KDateTime10toTimeSpecERKNS_4SpecE@Base 4.96.0
 _ZNK9KDateTime10toTimeSpecERKS_@Base 4.96.0
 _ZNK9KDateTime11isClockTimeEv@Base 4.96.0
 _ZNK9KDateTime11isLocalZoneEv@Base 4.96.0
 _ZNK9KDateTime11toClockTimeEv@Base 4.96.0
 _ZNK9KDateTime11toLocalZoneEv@Base 4.96.0
 _ZNK9KDateTime15isOffsetFromUtcEv@Base 4.96.0
 _ZNK9KDateTime15toOffsetFromUtcEi@Base 4.96.0
 _ZNK9KDateTime15toOffsetFromUtcEv@Base 4.96.0
 _ZNK9KDateTime18isSecondOccurrenceEv@Base 4.96.0
 _ZNK9KDateTime4Spec11isClockTimeEv@Base 4.96.0
 _ZNK9KDateTime4Spec11isLocalZoneEv@Base 4.96.0
 _ZNK9KDateTime4Spec12equivalentToERKS0_@Base 4.96.0
 _ZNK9KDateTime4Spec15isOffsetFromUtcEv@Base 4.96.0
 _ZNK9KDateTime4Spec4typeEv@Base 4.96.0
 _ZNK9KDateTime4Spec5isUtcEv@Base 4.96.0
 _ZNK9KDateTime4Spec7isValidEv@Base 4.96.0
 _ZNK9KDateTime4Spec8timeZoneEv@Base 4.96.0
 _ZNK9KDateTime4Spec9utcOffsetEv@Base 4.96.0
 _ZNK9KDateTime4SpeceqERKS0_@Base 4.96.0
 _ZNK9KDateTime4dateEv@Base 4.96.0
 _ZNK9KDateTime4timeEv@Base 4.96.0
 _ZNK9KDateTime5isUtcEv@Base 4.96.0
 _ZNK9KDateTime5toUtcEv@Base 4.96.0
 _ZNK9KDateTime6daysToERKS_@Base 4.96.0
 _ZNK9KDateTime6isNullEv@Base 4.96.0
 _ZNK9KDateTime6secsToERKS_@Base 4.96.0
 _ZNK9KDateTime6toZoneERK9KTimeZone@Base 4.96.0
 _ZNK9KDateTime7addDaysEx@Base 4.96.0
 _ZNK9KDateTime7addSecsEx@Base 4.96.0
 _ZNK9KDateTime7compareERKS_@Base 4.96.0
 _ZNK9KDateTime7isValidEv@Base 4.96.0
 _ZNK9KDateTime8addMSecsEx@Base 4.96.0
 _ZNK9KDateTime8addYearsEi@Base 4.96.0
 _ZNK9KDateTime8dateTimeEv@Base 4.96.0
 _ZNK9KDateTime8timeSpecEv@Base 4.96.0
 _ZNK9KDateTime8timeTypeEv@Base 4.96.0
 _ZNK9KDateTime8timeZoneEv@Base 4.96.0
 _ZNK9KDateTime8toStringENS_10TimeFormatE@Base 4.96.0
 _ZNK9KDateTime8toStringERK7QString@Base 4.96.0
 _ZNK9KDateTime8toTime_tEv@Base 4.96.0
 _ZNK9KDateTime9addMonthsEi@Base 4.96.0
 _ZNK9KDateTime9utcOffsetEv@Base 4.96.0
 _ZNK9KDateTimeeqERKS_@Base 4.96.0
 _ZNK9KDateTimeltERKS_@Base 4.96.0
 _ZNK9KLockFile7Private5isNfsEv@Base 4.96.0
 _ZNK9KLockFile8isLockedEv@Base 4.96.0
 _ZNK9KLockFile9staleTimeEv@Base 4.96.0
 _ZNK9KMimeType13mainExtensionEv@Base 4.96.0
 _ZNK9KMimeType14parentMimeTypeEv@Base 4.96.0
 _ZNK9KMimeType15parentMimeTypesEv@Base 4.96.0
 _ZNK9KMimeType18allParentMimeTypesEv@Base 4.96.0
 _ZNK9KMimeType21userSpecifiedIconNameEv@Base 4.96.0
 _ZNK9KMimeType2isERK7QString@Base 4.96.0
 _ZNK9KMimeType4nameEv@Base 4.96.0
 _ZNK9KMimeType7commentEv@Base 4.96.0
 _ZNK9KMimeType8iconNameEv@Base 4.96.0
 _ZNK9KMimeType8patternsEv@Base 4.96.0
 _ZNK9KMimeType9isDefaultEv@Base 4.96.0
 _ZNK9KNumInput10metaObjectEv@Base 4.96.0
 _ZNK9KNumInput10showSliderEv@Base 4.96.0
 _ZNK9KNumInput5labelEv@Base 4.96.0
 _ZNK9KNumInput6sliderEv@Base 4.96.0
 _ZNK9KNumInput8sizeHintEv@Base 4.96.0
 _ZNK9KSaveFile11errorStringEv@Base 4.96.0
 _ZNK9KSaveFile19directWriteFallbackEv@Base 4.96.0
 _ZNK9KSaveFile5errorEv@Base 4.96.0
 _ZNK9KSaveFile8fileNameEv@Base 4.96.0
 _ZNK9KShortcut13conflictsWithERK12QKeySequence@Base 4.96.0
 _ZNK9KShortcut6toListENS_13EmptyHandlingE@Base 4.96.0
 _ZNK9KShortcut7isEmptyEv@Base 4.96.0
 _ZNK9KShortcut7primaryEv@Base 4.96.0
 _ZNK9KShortcut8containsERK12QKeySequence@Base 4.96.0
 _ZNK9KShortcut8toStringEN12QKeySequence14SequenceFormatE@Base 4.96.0
 _ZNK9KShortcut8toStringEv@Base 4.96.0
 _ZNK9KShortcut9alternateEv@Base 4.96.0
 _ZNK9KShortcutcv5QListI12QKeySequenceEEv@Base 4.96.0
 _ZNK9KShortcutcv8QVariantEv@Base 4.96.0
 _ZNK9KShortcuteqERKS_@Base 4.96.0
 _ZNK9KShortcutneERKS_@Base 4.96.0
 _ZNK9KTimeZone10Transition4timeEv@Base 4.96.0
 _ZNK9KTimeZone10Transition5phaseEv@Base 4.96.0
 _ZNK9KTimeZone10TransitionltERKS0_@Base 4.96.0
 _ZNK9KTimeZone10isDstAtUtcERK9QDateTime@Base 4.96.0
 _ZNK9KTimeZone10toZoneTimeERK9QDateTimePb@Base 4.96.0
 _ZNK9KTimeZone10transitionERK9QDateTimePPKNS_10TransitionEPb@Base 4.96.0
 _ZNK9KTimeZone10utcOffsetsEv@Base 4.96.0
 _ZNK9KTimeZone11LeapSeconds11leapSecondsEv@Base 4.96.0
 _ZNK9KTimeZone11LeapSeconds7commentEv@Base 4.96.0
 _ZNK9KTimeZone11LeapSeconds7isValidEv@Base 4.96.0
 _ZNK9KTimeZone11LeapSeconds8dateTimeEv@Base 4.96.0
 _ZNK9KTimeZone11LeapSecondsltERKS0_@Base 4.96.0
 _ZNK9KTimeZone11countryCodeEv@Base 4.96.0
 _ZNK9KTimeZone11offsetAtUtcERK9QDateTime@Base 4.96.0
 _ZNK9KTimeZone11transitionsERK9QDateTimeS2_@Base 4.96.0
 _ZNK9KTimeZone12abbreviationERK9QDateTime@Base 4.96.0
 _ZNK9KTimeZone13abbreviationsEv@Base 4.96.0
 _ZNK9KTimeZone13currentOffsetEN2Qt8TimeSpecE@Base 4.96.0
 _ZNK9KTimeZone14hasTransitionsEv@Base 4.96.0
 _ZNK9KTimeZone15transitionIndexERK9QDateTimePiPb@Base 4.96.0
 _ZNK9KTimeZone15transitionTimesERKNS_5PhaseERK9QDateTimeS5_@Base 4.96.0
 _ZNK9KTimeZone16offsetAtZoneTimeERK9QDateTimePi@Base 4.96.0
 _ZNK9KTimeZone17leapSecondChangesEv@Base 4.96.0
 _ZNK9KTimeZone4dataEb@Base 4.96.0
 _ZNK9KTimeZone4nameEv@Base 4.96.0
 _ZNK9KTimeZone4typeEv@Base 4.96.0
 _ZNK9KTimeZone5Phase13abbreviationsEv@Base 4.96.0
 _ZNK9KTimeZone5Phase5isDstEv@Base 4.96.0
 _ZNK9KTimeZone5Phase7commentEv@Base 4.96.0
 _ZNK9KTimeZone5Phase9utcOffsetEv@Base 4.96.0
 _ZNK9KTimeZone5PhaseeqERKS0_@Base 4.96.0
 _ZNK9KTimeZone5isDstEl@Base 5.13.0
 _ZNK9KTimeZone5parseEv@Base 4.96.0
 _ZNK9KTimeZone5toUtcERK9QDateTime@Base 4.96.0
 _ZNK9KTimeZone6offsetEl@Base 4.96.0
 _ZNK9KTimeZone6phasesEv@Base 4.96.0
 _ZNK9KTimeZone6sourceEv@Base 4.96.0
 _ZNK9KTimeZone7commentEv@Base 4.96.0
 _ZNK9KTimeZone7convertERKS_RK9QDateTime@Base 4.96.0
 _ZNK9KTimeZone7isValidEv@Base 4.96.0
 _ZNK9KTimeZone8latitudeEv@Base 4.96.0
 _ZNK9KTimeZone9longitudeEv@Base 4.96.0
 _ZNK9KTimeZoneeqERKS_@Base 4.96.0
 _ZTI10KLibLoader@Base 4.96.0
 _ZTI10KOCRDialog@Base 4.96.0
 _ZTI10KStatusBar@Base 4.96.0
 _ZTI10KTabWidget@Base 4.96.0
 _ZTI10KUndoStack@Base 4.96.0
 _ZTI11KColorCells@Base 4.96.0
 _ZTI11KColorPatch@Base 4.96.0
 _ZTI11KDateWidget@Base 4.96.0
 _ZTI11KFileDialog@Base 4.96.0
 _ZTI11KFontDialog@Base 4.96.0
 _ZTI11KIconEngine@Base 4.96.0
 _ZTI11KIntSpinBox@Base 4.96.0
 _ZTI11KListWidget@Base 4.96.0
 _ZTI11KPushButton@Base 4.96.0
 _ZTI11KScanDialog@Base 4.96.0
 _ZTI11QSharedData@Base 4.96.0
 _ZTI12KApplication@Base 4.96.0
 _ZTI12KArrowButton@Base 4.96.0
 _ZTI12KButtonGroup@Base 4.96.0
 _ZTI12KColorDialog@Base 4.96.0
 _ZTI12KEditListBox@Base 4.96.0
 _ZTI12KIntNumInput@Base 4.96.0
 _ZTI12KPixmapCache@Base 4.96.0
 _ZTI12KTextBrowser@Base 4.96.0
 _ZTI13KCurrencyCode@Base 4.99.0
 _ZTI13KFileTreeView@Base 4.96.0
 _ZTI13KFontComboBox@Base 4.96.0
 _ZTI13KIntValidator@Base 4.96.0
 _ZTI13KPrintPreview@Base 4.97.0
 _ZTI13KSplashScreen@Base 4.96.0
 _ZTI13KStandardDirs@Base 4.96.0
 _ZTI13KTimeZoneData@Base 4.96.0
 _ZTI14KComponentData@Base 4.96.0
 _ZTI14KDiskFreeSpace@Base 4.96.0
 _ZTI14KTemporaryFile@Base 4.96.0
 _ZTI15KCalendarSystem@Base 4.96.0
 _ZTI15KDataToolAction@Base 4.96.0
 _ZTI15KDateTimeWidget@Base 4.96.0
 _ZTI15KDoubleNumInput@Base 4.96.0
 _ZTI15KGlobalSettings@Base 4.96.0
 _ZTI15KMessageHandler@Base 4.96.0
 _ZTI15KProgressDialog@Base 4.96.0
 _ZTI15KRestrictedLine@Base 4.96.0
 _ZTI15KSessionManager@Base 4.96.0
 _ZTI15KSystemTimeZone@Base 4.96.0
 _ZTI15KSystemTrayIcon@Base 4.96.0
 _ZTI15KTimeZoneSource@Base 4.96.0
 _ZTI15KTzfileTimeZone@Base 4.96.0
 _ZTI15KdeUiProxyStyle@Base 4.96.0
 _ZTI16K4TimeZoneWidget@Base 4.96.0
 _ZTI16KDeviceListModel@Base 4.96.0
 _ZTI16KDialogButtonBox@Base 4.96.0
 _ZTI16KDirSelectDialog@Base 4.96.0
 _ZTI16KDoubleValidator@Base 4.96.0
 _ZTI16KFileWritePlugin@Base 4.96.0
 _ZTI16KSystemTimeZones@Base 4.96.0
 _ZTI16KTimeZoneBackend@Base 4.96.0
 _ZTI17KFadeWidgetEffect@Base 4.96.0
 _ZTI18KUniqueApplication@Base 4.96.0
 _ZTI19KColorValueSelector@Base 4.96.0
 _ZTI19KFileMetaDataWidget@Base 4.96.0
 _ZTI19KFileMetaInfoWidget@Base 4.96.0
 _ZTI20KFileMetaPropsPlugin@Base 4.96.0
 _ZTI20KStringListValidator@Base 4.96.0
 _ZTI21KFileItemActionPlugin@Base 4.96.0
 _ZTI21KSystemTimeZoneSource@Base 4.96.0
 _ZTI21KTzfileTimeZoneSource@Base 4.96.0
 _ZTI22KHueSaturationSelector@Base 4.96.0
 _ZTI22KSystemTimeZoneBackend@Base 4.96.0
 _ZTI22KTzfileTimeZoneBackend@Base 4.96.0
 _ZTI25KMessageBoxMessageHandler@Base 4.96.0
 _ZTI27KPassivePopupMessageHandler@Base 4.96.0
 _ZTI32KFileMetaDataConfigurationWidget@Base 4.96.0
 _ZTI5KHBox@Base 4.96.0
 _ZTI5KMenu@Base 4.96.0
 _ZTI5KVBox@Base 4.96.0
 _ZTI7K4Style@Base 4.96.0
 _ZTI7KAction@Base 4.96.0
 _ZTI7KDialog@Base 4.96.0
 _ZTI7KLocale@Base 4.96.0
 _ZTI7KTabBar@Base 4.96.0
 _ZTI8KLibrary@Base 4.98.0
 _ZTI8KMenuBar@Base 4.96.0
 _ZTI9KDataTool@Base 4.96.0
 _ZTI9KMimeType@Base 4.96.0
 _ZTI9KNumInput@Base 4.96.0
 _ZTI9KSaveFile@Base 4.96.0
 _ZTI9KTimeZone@Base 4.96.0
 _ZTIN12KEditListBox12CustomEditorE@Base 4.96.0
 _ZTIN3KIO11MetaInfoJobE@Base 4.96.0
 _ZTIN3KIO14PasswordDialogE@Base 4.96.0
 _ZTIN3KIO9NetAccessE@Base 4.96.0
 _ZTIN5KMenu12KMenuPrivateE@Base 4.96.0
 _ZTIN5Solid10Networking8NotifierE@Base 4.99.0
 _ZTIN5Solid15PowerManagement8NotifierE@Base 4.99.0
 _ZTIN6KParts7FactoryE@Base 4.96.0
 _ZTIN7K4Style10IconOptionE@Base 4.96.0
 _ZTIN7K4Style10OptionBaseINS_10IconOptionENS_6OptionEEE@Base 4.96.0
 _ZTIN7K4Style10OptionBaseINS_10TextOptionENS_11ColorOptionEEE@Base 4.96.0
 _ZTIN7K4Style10OptionBaseINS_11ColorOptionENS_6OptionEEE@Base 4.96.0
 _ZTIN7K4Style10OptionBaseINS_17TitleButtonOptionENS_6OptionEEE@Base 4.96.0
 _ZTIN7K4Style10OptionBaseINS_18DoubleButtonOptionENS_6OptionEEE@Base 4.96.0
 _ZTIN7K4Style10TextOptionE@Base 4.96.0
 _ZTIN7K4Style11ColorOptionE@Base 4.96.0
 _ZTIN7K4Style17TitleButtonOptionE@Base 4.96.0
 _ZTIN7K4Style18DoubleButtonOptionE@Base 4.96.0
 _ZTIN7K4Style6OptionE@Base 4.96.0
 _ZTIN7KGlobal13LocaleWrapperE@Base 4.96.0
 _ZTIN8KNetwork11KSocketBaseE@Base 4.96.0
 _ZTIN8KNetwork13KServerSocketE@Base 4.96.0
 _ZTIN8KNetwork13KSocketDeviceE@Base 4.96.0
 _ZTIN8KNetwork13KStreamSocketE@Base 4.96.0
 _ZTIN8KNetwork14KSocketAddressE@Base 4.96.0
 _ZTIN8KNetwork15KBufferedSocketE@Base 4.96.0
 _ZTIN8KNetwork16KResolverResultsE@Base 4.96.0
 _ZTIN8KNetwork16KReverseResolverE@Base 4.96.0
 _ZTIN8KNetwork17KActiveSocketBaseE@Base 4.96.0
 _ZTIN8KNetwork17KClientSocketBaseE@Base 4.96.0
 _ZTIN8KNetwork18KInetSocketAddressE@Base 4.96.0
 _ZTIN8KNetwork18KPassiveSocketBaseE@Base 4.96.0
 _ZTIN8KNetwork18KUnixSocketAddressE@Base 4.96.0
 _ZTIN8KNetwork9KResolverE@Base 4.96.0
 _ZTS10KLibLoader@Base 4.96.0
 _ZTS10KOCRDialog@Base 4.96.0
 _ZTS10KStatusBar@Base 4.96.0
 _ZTS10KTabWidget@Base 4.96.0
 _ZTS10KUndoStack@Base 4.96.0
 _ZTS11KColorCells@Base 4.96.0
 _ZTS11KColorPatch@Base 4.96.0
 _ZTS11KDateWidget@Base 4.96.0
 _ZTS11KFileDialog@Base 4.96.0
 _ZTS11KFontDialog@Base 4.96.0
 _ZTS11KIconEngine@Base 4.96.0
 _ZTS11KIntSpinBox@Base 4.96.0
 _ZTS11KListWidget@Base 4.96.0
 _ZTS11KPushButton@Base 4.96.0
 _ZTS11KScanDialog@Base 4.96.0
 _ZTS11QSharedData@Base 4.96.0
 _ZTS12KApplication@Base 4.96.0
 _ZTS12KArrowButton@Base 4.96.0
 _ZTS12KButtonGroup@Base 4.96.0
 _ZTS12KColorDialog@Base 4.96.0
 _ZTS12KEditListBox@Base 4.96.0
 _ZTS12KIntNumInput@Base 4.96.0
 _ZTS12KPixmapCache@Base 4.96.0
 _ZTS12KTextBrowser@Base 4.96.0
 _ZTS13KCurrencyCode@Base 4.99.0
 _ZTS13KFileTreeView@Base 4.96.0
 _ZTS13KFontComboBox@Base 4.96.0
 _ZTS13KIntValidator@Base 4.96.0
 _ZTS13KPrintPreview@Base 4.97.0
 _ZTS13KSplashScreen@Base 4.96.0
 _ZTS13KStandardDirs@Base 4.96.0
 _ZTS13KTimeZoneData@Base 4.96.0
 _ZTS14KComponentData@Base 4.96.0
 _ZTS14KDiskFreeSpace@Base 4.96.0
 _ZTS14KTemporaryFile@Base 4.96.0
 _ZTS15KCalendarSystem@Base 4.96.0
 _ZTS15KDataToolAction@Base 4.96.0
 _ZTS15KDateTimeWidget@Base 4.96.0
 _ZTS15KDoubleNumInput@Base 4.96.0
 _ZTS15KGlobalSettings@Base 4.96.0
 _ZTS15KMessageHandler@Base 4.96.0
 _ZTS15KProgressDialog@Base 4.96.0
 _ZTS15KRestrictedLine@Base 4.96.0
 _ZTS15KSessionManager@Base 4.96.0
 _ZTS15KSystemTimeZone@Base 4.96.0
 _ZTS15KSystemTrayIcon@Base 4.96.0
 _ZTS15KTimeZoneSource@Base 4.96.0
 _ZTS15KTzfileTimeZone@Base 4.96.0
 _ZTS15KdeUiProxyStyle@Base 4.96.0
 _ZTS16K4TimeZoneWidget@Base 4.96.0
 _ZTS16KDeviceListModel@Base 4.96.0
 _ZTS16KDialogButtonBox@Base 4.96.0
 _ZTS16KDirSelectDialog@Base 4.96.0
 _ZTS16KDoubleValidator@Base 4.96.0
 _ZTS16KFileWritePlugin@Base 4.96.0
 _ZTS16KSystemTimeZones@Base 4.96.0
 _ZTS16KTimeZoneBackend@Base 4.96.0
 _ZTS17KFadeWidgetEffect@Base 4.96.0
 _ZTS18KUniqueApplication@Base 4.96.0
 _ZTS19KColorValueSelector@Base 4.96.0
 _ZTS19KFileMetaDataWidget@Base 4.96.0
 _ZTS19KFileMetaInfoWidget@Base 4.96.0
 _ZTS20KFileMetaPropsPlugin@Base 4.96.0
 _ZTS20KStringListValidator@Base 4.96.0
 _ZTS21KFileItemActionPlugin@Base 4.96.0
 _ZTS21KSystemTimeZoneSource@Base 4.96.0
 _ZTS21KTzfileTimeZoneSource@Base 4.96.0
 _ZTS22KHueSaturationSelector@Base 4.96.0
 _ZTS22KSystemTimeZoneBackend@Base 4.96.0
 _ZTS22KTzfileTimeZoneBackend@Base 4.96.0
 _ZTS25KMessageBoxMessageHandler@Base 4.96.0
 _ZTS27KPassivePopupMessageHandler@Base 4.96.0
 _ZTS32KFileMetaDataConfigurationWidget@Base 4.96.0
 _ZTS5KHBox@Base 4.96.0
 _ZTS5KMenu@Base 4.96.0
 _ZTS5KVBox@Base 4.96.0
 _ZTS7K4Style@Base 4.96.0
 _ZTS7KAction@Base 4.96.0
 _ZTS7KDialog@Base 4.96.0
 _ZTS7KLocale@Base 4.96.0
 _ZTS7KTabBar@Base 4.96.0
 _ZTS8KLibrary@Base 4.98.0
 _ZTS8KMenuBar@Base 4.96.0
 _ZTS9KDataTool@Base 4.96.0
 _ZTS9KMimeType@Base 4.96.0
 _ZTS9KNumInput@Base 4.96.0
 _ZTS9KSaveFile@Base 4.96.0
 _ZTS9KTimeZone@Base 4.96.0
 _ZTSN12KEditListBox12CustomEditorE@Base 4.96.0
 _ZTSN3KIO11MetaInfoJobE@Base 4.96.0
 _ZTSN3KIO14PasswordDialogE@Base 4.96.0
 _ZTSN3KIO9NetAccessE@Base 4.96.0
 _ZTSN5KMenu12KMenuPrivateE@Base 4.96.0
 _ZTSN5Solid10Networking8NotifierE@Base 4.99.0
 _ZTSN5Solid15PowerManagement8NotifierE@Base 4.99.0
 _ZTSN6KParts7FactoryE@Base 4.96.0
 _ZTSN7K4Style10IconOptionE@Base 4.96.0
 _ZTSN7K4Style10OptionBaseINS_10IconOptionENS_6OptionEEE@Base 4.96.0
 _ZTSN7K4Style10OptionBaseINS_10TextOptionENS_11ColorOptionEEE@Base 4.96.0
 _ZTSN7K4Style10OptionBaseINS_11ColorOptionENS_6OptionEEE@Base 4.96.0
 _ZTSN7K4Style10OptionBaseINS_17TitleButtonOptionENS_6OptionEEE@Base 4.96.0
 _ZTSN7K4Style10OptionBaseINS_18DoubleButtonOptionENS_6OptionEEE@Base 4.96.0
 _ZTSN7K4Style10TextOptionE@Base 4.96.0
 _ZTSN7K4Style11ColorOptionE@Base 4.96.0
 _ZTSN7K4Style17TitleButtonOptionE@Base 4.96.0
 _ZTSN7K4Style18DoubleButtonOptionE@Base 4.96.0
 _ZTSN7K4Style6OptionE@Base 4.96.0
 _ZTSN7KGlobal13LocaleWrapperE@Base 4.96.0
 _ZTSN8KNetwork11KSocketBaseE@Base 4.96.0
 _ZTSN8KNetwork13KServerSocketE@Base 4.96.0
 _ZTSN8KNetwork13KSocketDeviceE@Base 4.96.0
 _ZTSN8KNetwork13KStreamSocketE@Base 4.96.0
 _ZTSN8KNetwork14KSocketAddressE@Base 4.96.0
 _ZTSN8KNetwork15KBufferedSocketE@Base 4.96.0
 _ZTSN8KNetwork16KResolverResultsE@Base 4.96.0
 _ZTSN8KNetwork16KReverseResolverE@Base 4.96.0
 _ZTSN8KNetwork17KActiveSocketBaseE@Base 4.96.0
 _ZTSN8KNetwork17KClientSocketBaseE@Base 4.96.0
 _ZTSN8KNetwork18KInetSocketAddressE@Base 4.96.0
 _ZTSN8KNetwork18KPassiveSocketBaseE@Base 4.96.0
 _ZTSN8KNetwork18KUnixSocketAddressE@Base 4.96.0
 _ZTSN8KNetwork9KResolverE@Base 4.96.0
 _ZTTN8KNetwork13KServerSocketE@Base 4.96.0
 _ZTTN8KNetwork13KSocketDeviceE@Base 4.96.0
 _ZTTN8KNetwork13KStreamSocketE@Base 4.96.0
 _ZTTN8KNetwork15KBufferedSocketE@Base 4.96.0
 _ZTTN8KNetwork17KActiveSocketBaseE@Base 4.96.0
 _ZTTN8KNetwork17KClientSocketBaseE@Base 4.96.0
 _ZTTN8KNetwork18KPassiveSocketBaseE@Base 4.96.0
 _ZTV10KLibLoader@Base 4.96.0
 _ZTV10KOCRDialog@Base 4.96.0
 _ZTV10KStatusBar@Base 4.96.0
 _ZTV10KTabWidget@Base 4.96.0
 _ZTV10KUndoStack@Base 4.96.0
 _ZTV11KColorCells@Base 4.96.0
 _ZTV11KColorPatch@Base 4.96.0
 _ZTV11KDateWidget@Base 4.96.0
 _ZTV11KFileDialog@Base 4.96.0
 _ZTV11KFontDialog@Base 4.96.0
 _ZTV11KIconEngine@Base 4.96.0
 _ZTV11KIntSpinBox@Base 4.96.0
 _ZTV11KListWidget@Base 4.96.0
 _ZTV11KPushButton@Base 4.96.0
 _ZTV11KScanDialog@Base 4.96.0
 _ZTV12KApplication@Base 4.96.0
 _ZTV12KArrowButton@Base 4.96.0
 _ZTV12KButtonGroup@Base 4.96.0
 _ZTV12KColorDialog@Base 4.96.0
 _ZTV12KEditListBox@Base 4.96.0
 _ZTV12KIntNumInput@Base 4.96.0
 _ZTV12KPixmapCache@Base 4.96.0
 _ZTV12KTextBrowser@Base 4.96.0
 _ZTV13KCurrencyCode@Base 4.99.0
 _ZTV13KFileTreeView@Base 4.96.0
 _ZTV13KFontComboBox@Base 4.96.0
 _ZTV13KIntValidator@Base 4.96.0
 _ZTV13KPrintPreview@Base 4.97.0
 _ZTV13KSplashScreen@Base 4.96.0
 _ZTV13KStandardDirs@Base 4.96.0
 _ZTV13KTimeZoneData@Base 4.96.0
 _ZTV14KComponentData@Base 4.96.0
 _ZTV14KDiskFreeSpace@Base 4.96.0
 _ZTV14KTemporaryFile@Base 4.96.0
 _ZTV15KCalendarSystem@Base 4.96.0
 _ZTV15KDataToolAction@Base 4.96.0
 _ZTV15KDateTimeWidget@Base 4.96.0
 _ZTV15KDoubleNumInput@Base 4.96.0
 _ZTV15KGlobalSettings@Base 4.96.0
 _ZTV15KProgressDialog@Base 4.96.0
 _ZTV15KRestrictedLine@Base 4.96.0
 _ZTV15KSessionManager@Base 4.96.0
 _ZTV15KSystemTimeZone@Base 4.96.0
 _ZTV15KSystemTrayIcon@Base 4.96.0
 _ZTV15KTimeZoneSource@Base 4.96.0
 _ZTV15KTzfileTimeZone@Base 4.96.0
 _ZTV15KdeUiProxyStyle@Base 4.96.0
 _ZTV16K4TimeZoneWidget@Base 4.96.0
 _ZTV16KDeviceListModel@Base 4.96.0
 _ZTV16KDialogButtonBox@Base 4.96.0
 _ZTV16KDirSelectDialog@Base 4.96.0
 _ZTV16KDoubleValidator@Base 4.96.0
 _ZTV16KFileWritePlugin@Base 4.96.0
 _ZTV16KSystemTimeZones@Base 4.96.0
 _ZTV16KTimeZoneBackend@Base 4.96.0
 _ZTV17KFadeWidgetEffect@Base 4.96.0
 _ZTV18KUniqueApplication@Base 4.96.0
 _ZTV19KColorValueSelector@Base 4.96.0
 _ZTV19KFileMetaDataWidget@Base 4.96.0
 _ZTV19KFileMetaInfoWidget@Base 4.96.0
 _ZTV20KFileMetaPropsPlugin@Base 4.96.0
 _ZTV20KStringListValidator@Base 4.96.0
 _ZTV21KFileItemActionPlugin@Base 4.96.0
 _ZTV21KSystemTimeZoneSource@Base 4.96.0
 _ZTV21KTzfileTimeZoneSource@Base 4.96.0
 _ZTV22KHueSaturationSelector@Base 4.96.0
 _ZTV22KSystemTimeZoneBackend@Base 4.96.0
 _ZTV22KTzfileTimeZoneBackend@Base 4.96.0
 _ZTV25KMessageBoxMessageHandler@Base 4.96.0
 _ZTV27KPassivePopupMessageHandler@Base 4.96.0
 _ZTV32KFileMetaDataConfigurationWidget@Base 4.96.0
 _ZTV5KHBox@Base 4.96.0
 _ZTV5KMenu@Base 4.96.0
 _ZTV5KVBox@Base 4.96.0
 _ZTV7K4Style@Base 4.96.0
 _ZTV7KAction@Base 4.96.0
 _ZTV7KDialog@Base 4.96.0
 _ZTV7KLocale@Base 4.96.0
 _ZTV7KTabBar@Base 4.96.0
 _ZTV8KLibrary@Base 4.98.0
 _ZTV8KMenuBar@Base 4.96.0
 _ZTV9KDataTool@Base 4.96.0
 _ZTV9KMimeType@Base 4.96.0
 _ZTV9KNumInput@Base 4.96.0
 _ZTV9KSaveFile@Base 4.96.0
 _ZTV9KTimeZone@Base 4.96.0
 _ZTVN12KEditListBox12CustomEditorE@Base 4.96.0
 _ZTVN3KIO11MetaInfoJobE@Base 4.96.0
 _ZTVN3KIO14PasswordDialogE@Base 4.96.0
 _ZTVN3KIO9NetAccessE@Base 4.96.0
 _ZTVN5KMenu12KMenuPrivateE@Base 4.96.0
 _ZTVN5Solid10Networking8NotifierE@Base 4.99.0
 _ZTVN5Solid15PowerManagement8NotifierE@Base 4.99.0
 _ZTVN6KParts7FactoryE@Base 4.96.0
 _ZTVN7K4Style10IconOptionE@Base 4.96.0
 _ZTVN7K4Style10TextOptionE@Base 4.96.0
 _ZTVN7K4Style11ColorOptionE@Base 4.96.0
 _ZTVN7K4Style17TitleButtonOptionE@Base 4.96.0
 _ZTVN7K4Style18DoubleButtonOptionE@Base 4.96.0
 _ZTVN7KGlobal13LocaleWrapperE@Base 4.96.0
 _ZTVN8KNetwork11KSocketBaseE@Base 4.96.0
 _ZTVN8KNetwork13KServerSocketE@Base 4.96.0
 _ZTVN8KNetwork13KSocketDeviceE@Base 4.96.0
 _ZTVN8KNetwork13KStreamSocketE@Base 4.96.0
 _ZTVN8KNetwork14KSocketAddressE@Base 4.96.0
 _ZTVN8KNetwork15KBufferedSocketE@Base 4.96.0
 _ZTVN8KNetwork16KResolverResultsE@Base 4.96.0
 _ZTVN8KNetwork16KReverseResolverE@Base 4.96.0
 _ZTVN8KNetwork17KActiveSocketBaseE@Base 4.96.0
 _ZTVN8KNetwork17KClientSocketBaseE@Base 4.96.0
 _ZTVN8KNetwork18KInetSocketAddressE@Base 4.96.0
 _ZTVN8KNetwork18KPassiveSocketBaseE@Base 4.96.0
 _ZTVN8KNetwork18KUnixSocketAddressE@Base 4.96.0
 _ZTVN8KNetwork9KResolverE@Base 4.96.0
 _ZThn16_N10KOCRDialogD0Ev@Base 4.96.0
 _ZThn16_N10KOCRDialogD1Ev@Base 4.96.0
 _ZThn16_N10KStatusBarD0Ev@Base 4.96.0
 _ZThn16_N10KStatusBarD1Ev@Base 4.96.0
 _ZThn16_N10KTabWidgetD0Ev@Base 4.96.0
 _ZThn16_N10KTabWidgetD1Ev@Base 4.96.0
 _ZThn16_N11KColorCellsD0Ev@Base 4.96.0
 _ZThn16_N11KColorCellsD1Ev@Base 4.96.0
 _ZThn16_N11KColorPatchD0Ev@Base 4.96.0
 _ZThn16_N11KColorPatchD1Ev@Base 4.96.0
 _ZThn16_N11KDateWidgetD0Ev@Base 4.96.0
 _ZThn16_N11KDateWidgetD1Ev@Base 4.96.0
 _ZThn16_N11KFileDialogD0Ev@Base 4.96.0
 _ZThn16_N11KFileDialogD1Ev@Base 4.96.0
 _ZThn16_N11KFontDialogD0Ev@Base 4.96.0
 _ZThn16_N11KFontDialogD1Ev@Base 4.96.0
 _ZThn16_N11KIntSpinBoxD0Ev@Base 4.96.0
 _ZThn16_N11KIntSpinBoxD1Ev@Base 4.96.0
 _ZThn16_N11KListWidgetD0Ev@Base 4.96.0
 _ZThn16_N11KListWidgetD1Ev@Base 4.96.0
 _ZThn16_N11KPushButtonD0Ev@Base 4.96.0
 _ZThn16_N11KPushButtonD1Ev@Base 4.96.0
 _ZThn16_N11KScanDialogD0Ev@Base 4.96.0
 _ZThn16_N11KScanDialogD1Ev@Base 4.96.0
 _ZThn16_N12KArrowButtonD0Ev@Base 4.96.0
 _ZThn16_N12KArrowButtonD1Ev@Base 4.96.0
 _ZThn16_N12KButtonGroupD0Ev@Base 4.96.0
 _ZThn16_N12KButtonGroupD1Ev@Base 4.96.0
 _ZThn16_N12KColorDialogD0Ev@Base 4.96.0
 _ZThn16_N12KColorDialogD1Ev@Base 4.96.0
 _ZThn16_N12KEditListBoxD0Ev@Base 4.96.0
 _ZThn16_N12KEditListBoxD1Ev@Base 4.96.0
 _ZThn16_N12KIntNumInputD0Ev@Base 4.96.0
 _ZThn16_N12KIntNumInputD1Ev@Base 4.96.0
 _ZThn16_N12KTextBrowserD0Ev@Base 4.96.0
 _ZThn16_N12KTextBrowserD1Ev@Base 4.96.0
 _ZThn16_N13KFileTreeViewD0Ev@Base 4.96.0
 _ZThn16_N13KFileTreeViewD1Ev@Base 4.96.0
 _ZThn16_N13KFontComboBoxD0Ev@Base 4.96.0
 _ZThn16_N13KFontComboBoxD1Ev@Base 4.96.0
 _ZThn16_N13KPrintPreviewD0Ev@Base 4.97.0
 _ZThn16_N13KPrintPreviewD1Ev@Base 4.97.0
 _ZThn16_N13KSplashScreenD0Ev@Base 4.96.0
 _ZThn16_N13KSplashScreenD1Ev@Base 4.96.0
 _ZThn16_N15KDateTimeWidgetD0Ev@Base 4.96.0
 _ZThn16_N15KDateTimeWidgetD1Ev@Base 4.96.0
 _ZThn16_N15KDoubleNumInputD0Ev@Base 4.96.0
 _ZThn16_N15KDoubleNumInputD1Ev@Base 4.96.0
 _ZThn16_N15KProgressDialogD0Ev@Base 4.96.0
 _ZThn16_N15KProgressDialogD1Ev@Base 4.96.0
 _ZThn16_N15KRestrictedLineD0Ev@Base 4.96.0
 _ZThn16_N15KRestrictedLineD1Ev@Base 4.96.0
 _ZThn16_N16K4TimeZoneWidgetD0Ev@Base 4.96.0
 _ZThn16_N16K4TimeZoneWidgetD1Ev@Base 4.96.0
 _ZThn16_N16KDialogButtonBoxD0Ev@Base 4.96.0
 _ZThn16_N16KDialogButtonBoxD1Ev@Base 4.96.0
 _ZThn16_N16KDirSelectDialogD0Ev@Base 4.96.0
 _ZThn16_N16KDirSelectDialogD1Ev@Base 4.96.0
 _ZThn16_N17KFadeWidgetEffectD0Ev@Base 4.96.0
 _ZThn16_N17KFadeWidgetEffectD1Ev@Base 4.96.0
 _ZThn16_N19KColorValueSelectorD0Ev@Base 4.96.0
 _ZThn16_N19KColorValueSelectorD1Ev@Base 4.96.0
 _ZThn16_N19KFileMetaDataWidgetD0Ev@Base 4.96.0
 _ZThn16_N19KFileMetaDataWidgetD1Ev@Base 4.96.0
 _ZThn16_N19KFileMetaInfoWidgetD0Ev@Base 4.96.0
 _ZThn16_N19KFileMetaInfoWidgetD1Ev@Base 4.96.0
 _ZThn16_N22KHueSaturationSelectorD0Ev@Base 4.96.0
 _ZThn16_N22KHueSaturationSelectorD1Ev@Base 4.96.0
 _ZThn16_N25KMessageBoxMessageHandler7messageEN8KMessage11MessageTypeERK7QStringS4_@Base 4.96.0
 _ZThn16_N25KMessageBoxMessageHandlerD0Ev@Base 4.96.0
 _ZThn16_N25KMessageBoxMessageHandlerD1Ev@Base 4.96.0
 _ZThn16_N27KPassivePopupMessageHandler7messageEN8KMessage11MessageTypeERK7QStringS4_@Base 4.96.0
 _ZThn16_N32KFileMetaDataConfigurationWidgetD0Ev@Base 4.96.0
 _ZThn16_N32KFileMetaDataConfigurationWidgetD1Ev@Base 4.96.0
 _ZThn16_N3KIO14PasswordDialogD0Ev@Base 4.96.0
 _ZThn16_N3KIO14PasswordDialogD1Ev@Base 4.96.0
 _ZThn16_N5KHBoxD0Ev@Base 4.96.0
 _ZThn16_N5KHBoxD1Ev@Base 4.96.0
 _ZThn16_N5KMenuD0Ev@Base 4.96.0
 _ZThn16_N5KMenuD1Ev@Base 4.96.0
 _ZThn16_N5KVBoxD0Ev@Base 4.96.0
 _ZThn16_N5KVBoxD1Ev@Base 4.96.0
 _ZThn16_N7KDialogD0Ev@Base 4.96.0
 _ZThn16_N7KDialogD1Ev@Base 4.96.0
 _ZThn16_N7KTabBarD0Ev@Base 4.96.0
 _ZThn16_N7KTabBarD1Ev@Base 4.96.0
 _ZThn16_N8KMenuBarD0Ev@Base 4.96.0
 _ZThn16_N8KMenuBarD1Ev@Base 4.96.0
 _ZThn16_N8KNetwork13KServerSocket4bindERKNS_14KResolverEntryE@Base 4.96.0
 _ZThn16_N8KNetwork13KServerSocket5closeEv@Base 4.96.0
 _ZThn16_N8KNetwork13KServerSocket6acceptEv@Base 4.96.0
 _ZThn16_N8KNetwork13KServerSocket6listenEi@Base 4.96.0
 _ZThn16_N8KNetwork13KServerSocketD0Ev@Base 4.96.0
 _ZThn16_N8KNetwork13KServerSocketD1Ev@Base 4.96.0
 _ZThn16_N8KNetwork13KSocketDevice4bindERKNS_14KResolverEntryE@Base 4.96.0
 _ZThn16_N8KNetwork13KSocketDevice5closeEv@Base 4.96.0
 _ZThn16_N8KNetwork13KSocketDevice6acceptEv@Base 4.96.0
 _ZThn16_N8KNetwork13KSocketDevice6listenEi@Base 4.96.0
 _ZThn16_N8KNetwork13KSocketDeviceD0Ev@Base 4.96.0
 _ZThn16_N8KNetwork13KSocketDeviceD1Ev@Base 4.96.0
 _ZThn16_N9KNumInputD0Ev@Base 4.96.0
 _ZThn16_N9KNumInputD1Ev@Base 4.96.0
 _ZThn16_NK8KNetwork13KServerSocket12localAddressEv@Base 4.96.0
 _ZThn16_NK8KNetwork13KServerSocket15externalAddressEv@Base 4.96.0
 _ZThn16_NK8KNetwork13KSocketDevice12localAddressEv@Base 4.96.0
 _ZThn16_NK8KNetwork13KSocketDevice15externalAddressEv@Base 4.96.0
 _ZThn48_N13KFontComboBoxD0Ev@Base 4.96.0
 _ZThn48_N13KFontComboBoxD1Ev@Base 4.96.0
 _ZThn48_N15KRestrictedLineD0Ev@Base 4.96.0
 _ZThn48_N15KRestrictedLineD1Ev@Base 4.96.0
 _ZTv0_n24_N8KNetwork13KServerSocketD0Ev@Base 4.96.0
 _ZTv0_n24_N8KNetwork13KServerSocketD1Ev@Base 4.96.0
 _ZTv0_n24_N8KNetwork13KSocketDeviceD0Ev@Base 4.96.0
 _ZTv0_n24_N8KNetwork13KSocketDeviceD1Ev@Base 4.96.0
 _ZTv0_n24_N8KNetwork13KStreamSocketD0Ev@Base 4.96.0
 _ZTv0_n24_N8KNetwork13KStreamSocketD1Ev@Base 4.96.0
 _ZTv0_n24_N8KNetwork15KBufferedSocketD0Ev@Base 4.96.0
 _ZTv0_n24_N8KNetwork15KBufferedSocketD1Ev@Base 4.96.0
 _ZTv0_n24_N8KNetwork17KActiveSocketBaseD0Ev@Base 4.96.0
 _ZTv0_n24_N8KNetwork17KActiveSocketBaseD1Ev@Base 4.96.0
 _ZTv0_n24_N8KNetwork17KClientSocketBaseD0Ev@Base 4.96.0
 _ZTv0_n24_N8KNetwork17KClientSocketBaseD1Ev@Base 4.96.0
 _ZTv0_n24_N8KNetwork18KPassiveSocketBaseD0Ev@Base 4.96.0
 _ZTv0_n24_N8KNetwork18KPassiveSocketBaseD1Ev@Base 4.96.0
 _ZTv0_n32_N8KNetwork13KServerSocket16setSocketOptionsEi@Base 4.96.0
 _ZTv0_n32_N8KNetwork13KSocketDevice16setSocketOptionsEi@Base 4.96.0
 _ZTv0_n32_N8KNetwork15KBufferedSocket16setSocketOptionsEi@Base 4.96.0
 _ZTv0_n32_N8KNetwork17KClientSocketBase16setSocketOptionsEi@Base 4.96.0
 _ZTv0_n88_N8KNetwork15KBufferedSocket15setSocketDeviceEPNS_13KSocketDeviceE@Base 4.96.0
 _ZTv0_n88_N8KNetwork17KActiveSocketBase15setSocketDeviceEPNS_13KSocketDeviceE@Base 4.96.0
 _ZZN7K4Style10OptionBaseINS_10IconOptionENS_6OptionEE13defaultOptionEvE10theDefault@Base 4.96.0
 _ZZN7K4Style10OptionBaseINS_10TextOptionENS_11ColorOptionEE13defaultOptionEvE10theDefault@Base 4.96.0
 _ZZN7K4Style10OptionBaseINS_11ColorOptionENS_6OptionEE13defaultOptionEvE10theDefault@Base 4.96.0
 _ZZN7K4Style10OptionBaseINS_17TitleButtonOptionENS_6OptionEE13defaultOptionEvE10theDefault@Base 4.96.0
 _ZZN7K4Style10OptionBaseINS_18DoubleButtonOptionENS_6OptionEE13defaultOptionEvE10theDefault@Base 4.96.0
 _ZeqR15KSSLCertificateS0_@Base 4.96.0
 _Zls6QDebugRK14KLocalizedDate@Base 4.96.0
 _Zls6QDebugRK9KDateTime@Base 5.12.0
 _ZlsR11QDataStreamRK13KFileMetaInfo@Base 4.96.0
 _ZlsR11QDataStreamRK14KLocalizedDate@Base 4.96.0
 _ZlsR11QDataStreamRK15KSSLCertificate@Base 4.96.0
 _ZlsR11QDataStreamRK9KDateTime@Base 4.96.0
 _ZlsR11QDataStreamRKN9KDateTime4SpecE@Base 4.96.0
 _ZrsR11QDataStreamR13KFileMetaInfo@Base 4.96.0
 _ZrsR11QDataStreamR14KLocalizedDate@Base 4.96.0
 _ZrsR11QDataStreamR15KSSLCertificate@Base 4.96.0
 _ZrsR11QDataStreamR9KDateTime@Base 4.96.0
 _ZrsR11QDataStreamRN9KDateTime4SpecE@Base 4.96.0
 kde_kdebug_enable_dbus_interface@Base 4.96.0
