libKF5Gpgmepp.so.5 libkf5gpgmepp5 #MINVER#
 _ZN5GpgME10EngineInfoC1EP18_gpgme_engine_info@Base 15.07.90
 _ZN5GpgME10EngineInfoC1Ev@Base 15.07.90
 _ZN5GpgME10EngineInfoC2EP18_gpgme_engine_info@Base 15.07.90
 _ZN5GpgME10EngineInfoC2Ev@Base 15.07.90
 _ZN5GpgME10engineInfoENS_6EngineE@Base 15.07.90
 _ZN5GpgME10engineInfoENS_8ProtocolE@Base 15.07.90
 _ZN5GpgME10hasFeatureEm@Base 15.07.90
 _ZN5GpgME10hasFeatureEmm@Base 15.07.90
 _ZN5GpgME11checkEngineENS_6EngineE@Base 15.07.90
 _ZN5GpgME11checkEngineENS_8ProtocolE@Base 15.07.90
 _ZN5GpgME12AssuanResult4initEP13gpgme_context@Base 15.07.90
 _ZN5GpgME12AssuanResultC1EP13gpgme_contextRKNS_5ErrorE@Base 15.07.90
 _ZN5GpgME12AssuanResultC1EP13gpgme_contexti@Base 15.07.90
 _ZN5GpgME12AssuanResultC1ERKNS_5ErrorE@Base 15.07.90
 _ZN5GpgME12AssuanResultC1Ev@Base 15.07.90
 _ZN5GpgME12AssuanResultC2EP13gpgme_contextRKNS_5ErrorE@Base 15.07.90
 _ZN5GpgME12AssuanResultC2EP13gpgme_contexti@Base 15.07.90
 _ZN5GpgME12AssuanResultC2ERKNS_5ErrorE@Base 15.07.90
 _ZN5GpgME12AssuanResultC2Ev@Base 15.07.90
 _ZN5GpgME12ImportResult4initEP13gpgme_context@Base 15.07.90
 _ZN5GpgME12ImportResultC1EP13gpgme_contextRKNS_5ErrorE@Base 15.07.90
 _ZN5GpgME12ImportResultC1EP13gpgme_contexti@Base 15.07.90
 _ZN5GpgME12ImportResultC1ERKNS_5ErrorE@Base 15.07.90
 _ZN5GpgME12ImportResultC1Ev@Base 15.07.90
 _ZN5GpgME12ImportResultC2EP13gpgme_contextRKNS_5ErrorE@Base 15.07.90
 _ZN5GpgME12ImportResultC2EP13gpgme_contexti@Base 15.07.90
 _ZN5GpgME12ImportResultC2ERKNS_5ErrorE@Base 15.07.90
 _ZN5GpgME12ImportResultC2Ev@Base 15.07.90
 _ZN5GpgME12getQIODeviceEi@Base 15.07.90
 _ZN5GpgME13Configuration6Option11setNewValueERKNS0_8ArgumentE@Base 15.07.90
 _ZN5GpgME13Configuration6Option18resetToActiveValueEv@Base 15.07.90
 _ZN5GpgME13Configuration6Option19resetToDefaultValueEv@Base 15.07.90
 _ZN5GpgME13Configuration8ArgumentC1ERKN5boost10shared_ptrI15gpgme_conf_compEEP14gpgme_conf_optP14gpgme_conf_argb@Base 15.07.90
 _ZN5GpgME13Configuration8ArgumentC1ERKS1_@Base 15.07.90
 _ZN5GpgME13Configuration8ArgumentC2ERKN5boost10shared_ptrI15gpgme_conf_compEEP14gpgme_conf_optP14gpgme_conf_argb@Base 15.07.90
 _ZN5GpgME13Configuration8ArgumentC2ERKS1_@Base 15.07.90
 _ZN5GpgME13Configuration8ArgumentD1Ev@Base 15.07.90
 _ZN5GpgME13Configuration8ArgumentD2Ev@Base 15.07.90
 _ZN5GpgME13Configuration9Component4loadERNS_5ErrorE@Base 15.07.90
 _ZN5GpgME13ConfigurationlsERSoNS0_4FlagE@Base 15.07.90
 _ZN5GpgME13ConfigurationlsERSoNS0_4TypeE@Base 15.07.90
 _ZN5GpgME13ConfigurationlsERSoNS0_5LevelE@Base 15.07.90
 _ZN5GpgME13ConfigurationlsERSoRKNS0_6OptionE@Base 15.07.90
 _ZN5GpgME13ConfigurationlsERSoRKNS0_8ArgumentE@Base 15.07.90
 _ZN5GpgME13ConfigurationlsERSoRKNS0_9ComponentE@Base 15.07.90
 _ZN5GpgME13KeyListResult4initEP13gpgme_context@Base 15.07.90
 _ZN5GpgME13KeyListResult6detachEv@Base 15.07.90
 _ZN5GpgME13KeyListResult9mergeWithERKS0_@Base 15.07.90
 _ZN5GpgME13KeyListResultC1EP13gpgme_contextRKNS_5ErrorE@Base 15.07.90
 _ZN5GpgME13KeyListResultC1EP13gpgme_contexti@Base 15.07.90
 _ZN5GpgME13KeyListResultC1ERKNS_5ErrorE@Base 15.07.90
 _ZN5GpgME13KeyListResultC1ERKNS_5ErrorERK24_gpgme_op_keylist_result@Base 15.07.90
 _ZN5GpgME13KeyListResultC1Ev@Base 15.07.90
 _ZN5GpgME13KeyListResultC2EP13gpgme_contextRKNS_5ErrorE@Base 15.07.90
 _ZN5GpgME13KeyListResultC2EP13gpgme_contexti@Base 15.07.90
 _ZN5GpgME13KeyListResultC2ERKNS_5ErrorE@Base 15.07.90
 _ZN5GpgME13KeyListResultC2ERKNS_5ErrorERK24_gpgme_op_keylist_result@Base 15.07.90
 _ZN5GpgME13KeyListResultC2Ev@Base 15.07.90
 _ZN5GpgME13SigningResult4initEP13gpgme_context@Base 15.07.90
 _ZN5GpgME13SigningResultC1EP13gpgme_contextRKNS_5ErrorE@Base 15.07.90
 _ZN5GpgME13SigningResultC1EP13gpgme_contexti@Base 15.07.90
 _ZN5GpgME13SigningResultC1ERKNS_5ErrorE@Base 15.07.90
 _ZN5GpgME13SigningResultC1Ev@Base 15.07.90
 _ZN5GpgME13SigningResultC2EP13gpgme_contextRKNS_5ErrorE@Base 15.07.90
 _ZN5GpgME13SigningResultC2EP13gpgme_contexti@Base 15.07.90
 _ZN5GpgME13SigningResultC2ERKNS_5ErrorE@Base 15.07.90
 _ZN5GpgME13SigningResultC2Ev@Base 15.07.90
 _ZN5GpgME13getGIOChannelEi@Base 15.07.90
 _ZN5GpgME14EditInteractor15setDebugChannelEP8_IO_FILE@Base 15.07.90
 _ZN5GpgME14EditInteractor7PrivateC1EPS0_@Base 15.07.90
 _ZN5GpgME14EditInteractor7PrivateC2EPS0_@Base 15.07.90
 _ZN5GpgME14EditInteractor7PrivateD1Ev@Base 15.07.90
 _ZN5GpgME14EditInteractor7PrivateD2Ev@Base 15.07.90
 _ZN5GpgME14EditInteractorC1Ev@Base 15.07.90
 _ZN5GpgME14EditInteractorC2Ev@Base 15.07.90
 _ZN5GpgME14EditInteractorD0Ev@Base 15.07.90
 _ZN5GpgME14EditInteractorD1Ev@Base 15.07.90
 _ZN5GpgME14EditInteractorD2Ev@Base 15.07.90
 _ZN5GpgME14VfsMountResult4initEP13gpgme_context@Base 15.07.90
 _ZN5GpgME14VfsMountResultC1EP13gpgme_contextRKNS_5ErrorES5_@Base 15.07.90
 _ZN5GpgME14VfsMountResultC1ERKNS_5ErrorE@Base 15.07.90
 _ZN5GpgME14VfsMountResultC1Ev@Base 15.07.90
 _ZN5GpgME14VfsMountResultC2EP13gpgme_contextRKNS_5ErrorES5_@Base 15.07.90
 _ZN5GpgME14VfsMountResultC2ERKNS_5ErrorE@Base 15.07.90
 _ZN5GpgME14VfsMountResultC2Ev@Base 15.07.90
 _ZN5GpgME16CreatedSignatureC1ERKN5boost10shared_ptrINS_13SigningResult7PrivateEEEj@Base 15.07.90
 _ZN5GpgME16CreatedSignatureC1Ev@Base 15.07.90
 _ZN5GpgME16CreatedSignatureC2ERKN5boost10shared_ptrINS_13SigningResult7PrivateEEEj@Base 15.07.90
 _ZN5GpgME16CreatedSignatureC2Ev@Base 15.07.90
 _ZN5GpgME16DecryptionResult4initEP13gpgme_context@Base 15.07.90
 _ZN5GpgME16DecryptionResult9RecipientC1EP16_gpgme_recipient@Base 15.07.90
 _ZN5GpgME16DecryptionResult9RecipientC1Ev@Base 15.07.90
 _ZN5GpgME16DecryptionResult9RecipientC2EP16_gpgme_recipient@Base 15.07.90
 _ZN5GpgME16DecryptionResult9RecipientC2Ev@Base 15.07.90
 _ZN5GpgME16DecryptionResultC1EP13gpgme_contextRKNS_5ErrorE@Base 15.07.90
 _ZN5GpgME16DecryptionResultC1EP13gpgme_contexti@Base 15.07.90
 _ZN5GpgME16DecryptionResultC1ERKNS_5ErrorE@Base 15.07.90
 _ZN5GpgME16DecryptionResultC1Ev@Base 15.07.90
 _ZN5GpgME16DecryptionResultC2EP13gpgme_contextRKNS_5ErrorE@Base 15.07.90
 _ZN5GpgME16DecryptionResultC2EP13gpgme_contexti@Base 15.07.90
 _ZN5GpgME16DecryptionResultC2ERKNS_5ErrorE@Base 15.07.90
 _ZN5GpgME16DecryptionResultC2Ev@Base 15.07.90
 _ZN5GpgME16EncryptionResult4initEP13gpgme_context@Base 15.07.90
 _ZN5GpgME16EncryptionResultC1EP13gpgme_contextRKNS_5ErrorE@Base 15.07.90
 _ZN5GpgME16EncryptionResultC1EP13gpgme_contexti@Base 15.07.90
 _ZN5GpgME16EncryptionResultC1ERKNS_5ErrorE@Base 15.07.90
 _ZN5GpgME16EncryptionResultC1Ev@Base 15.07.90
 _ZN5GpgME16EncryptionResultC2EP13gpgme_contextRKNS_5ErrorE@Base 15.07.90
 _ZN5GpgME16EncryptionResultC2EP13gpgme_contexti@Base 15.07.90
 _ZN5GpgME16EncryptionResultC2ERKNS_5ErrorE@Base 15.07.90
 _ZN5GpgME16EncryptionResultC2Ev@Base 15.07.90
 _ZN5GpgME16InvalidRecipientC1ERKN5boost10shared_ptrINS_16EncryptionResult7PrivateEEEj@Base 15.07.90
 _ZN5GpgME16InvalidRecipientC1Ev@Base 15.07.90
 _ZN5GpgME16InvalidRecipientC2ERKN5boost10shared_ptrINS_16EncryptionResult7PrivateEEEj@Base 15.07.90
 _ZN5GpgME16InvalidRecipientC2Ev@Base 15.07.90
 _ZN5GpgME16setDefaultLocaleEiPKc@Base 15.07.90
 _ZN5GpgME17InvalidSigningKeyC1ERKN5boost10shared_ptrINS_13SigningResult7PrivateEEEj@Base 15.07.90
 _ZN5GpgME17InvalidSigningKeyC1Ev@Base 15.07.90
 _ZN5GpgME17InvalidSigningKeyC2ERKN5boost10shared_ptrINS_13SigningResult7PrivateEEEj@Base 15.07.90
 _ZN5GpgME17InvalidSigningKeyC2Ev@Base 15.07.90
 _ZN5GpgME17initializeLibraryEi@Base 15.07.90
 _ZN5GpgME17initializeLibraryEv@Base 15.07.90
 _ZN5GpgME18VerificationResult4initEP13gpgme_context@Base 15.07.90
 _ZN5GpgME18VerificationResultC1EP13gpgme_contextRKNS_5ErrorE@Base 15.07.90
 _ZN5GpgME18VerificationResultC1EP13gpgme_contexti@Base 15.07.90
 _ZN5GpgME18VerificationResultC1ERKNS_5ErrorE@Base 15.07.90
 _ZN5GpgME18VerificationResultC1Ev@Base 15.07.90
 _ZN5GpgME18VerificationResultC2EP13gpgme_contextRKNS_5ErrorE@Base 15.07.90
 _ZN5GpgME18VerificationResultC2EP13gpgme_contexti@Base 15.07.90
 _ZN5GpgME18VerificationResultC2ERKNS_5ErrorE@Base 15.07.90
 _ZN5GpgME18VerificationResultC2Ev@Base 15.07.90
 _ZN5GpgME19EventLoopInteractor5actOnEiNS0_9DirectionE@Base 15.07.90
 _ZN5GpgME19EventLoopInteractor5mSelfE@Base 15.07.90
 _ZN5GpgME19EventLoopInteractor6manageEPNS_7ContextE@Base 15.07.90
 _ZN5GpgME19EventLoopInteractor7Private10removeIOCbEPv@Base 15.07.90
 _ZN5GpgME19EventLoopInteractor7Private12registerIOCbEPviiPFjS2_iES2_PS2_@Base 15.07.90
 _ZN5GpgME19EventLoopInteractor7Private5iocbsE@Base 15.07.90
 _ZN5GpgME19EventLoopInteractor7Private9eventIOCbEPv16gpgme_event_io_tS2_@Base 15.07.90
 _ZN5GpgME19EventLoopInteractor8unmanageEPNS_7ContextE@Base 15.07.90
 _ZN5GpgME19EventLoopInteractorC1Ev@Base 15.07.90
 _ZN5GpgME19EventLoopInteractorC2Ev@Base 15.07.90
 _ZN5GpgME19EventLoopInteractorD0Ev@Base 15.07.90
 _ZN5GpgME19EventLoopInteractorD1Ev@Base 15.07.90
 _ZN5GpgME19EventLoopInteractorD2Ev@Base 15.07.90
 _ZN5GpgME19KeyGenerationResult4initEP13gpgme_context@Base 15.07.90
 _ZN5GpgME19KeyGenerationResultC1EP13gpgme_contextRKNS_5ErrorE@Base 15.07.90
 _ZN5GpgME19KeyGenerationResultC1EP13gpgme_contexti@Base 15.07.90
 _ZN5GpgME19KeyGenerationResultC1ERKNS_5ErrorE@Base 15.07.90
 _ZN5GpgME19KeyGenerationResultC1Ev@Base 15.07.90
 _ZN5GpgME19KeyGenerationResultC2EP13gpgme_contextRKNS_5ErrorE@Base 15.07.90
 _ZN5GpgME19KeyGenerationResultC2EP13gpgme_contexti@Base 15.07.90
 _ZN5GpgME19KeyGenerationResultC2ERKNS_5ErrorE@Base 15.07.90
 _ZN5GpgME19KeyGenerationResultC2Ev@Base 15.07.90
 _ZN5GpgME24DefaultAssuanTransaction4dataEPKcm@Base 15.07.90
 _ZN5GpgME24DefaultAssuanTransaction6statusEPKcS2_@Base 15.07.90
 _ZN5GpgME24DefaultAssuanTransaction7inquireEPKcS2_RNS_5ErrorE@Base 15.07.90
 _ZN5GpgME24DefaultAssuanTransactionC1Ev@Base 15.07.90
 _ZN5GpgME24DefaultAssuanTransactionC2Ev@Base 15.07.90
 _ZN5GpgME24DefaultAssuanTransactionD0Ev@Base 15.07.90
 _ZN5GpgME24DefaultAssuanTransactionD1Ev@Base 15.07.90
 _ZN5GpgME24DefaultAssuanTransactionD2Ev@Base 15.07.90
 _ZN5GpgME24GpgSignKeyEditInteractor13setCheckLevelEj@Base 15.07.90
 _ZN5GpgME24GpgSignKeyEditInteractor16setUserIDsToSignERKSt6vectorIjSaIjEE@Base 15.07.90
 _ZN5GpgME24GpgSignKeyEditInteractor17setSigningOptionsEi@Base 15.07.90
 _ZN5GpgME24GpgSignKeyEditInteractor7PrivateC1Ev@Base 15.07.90
 _ZN5GpgME24GpgSignKeyEditInteractor7PrivateC2Ev@Base 15.07.90
 _ZN5GpgME24GpgSignKeyEditInteractorC1Ev@Base 15.07.90
 _ZN5GpgME24GpgSignKeyEditInteractorC2Ev@Base 15.07.90
 _ZN5GpgME24GpgSignKeyEditInteractorD0Ev@Base 15.07.90
 _ZN5GpgME24GpgSignKeyEditInteractorD1Ev@Base 15.07.90
 _ZN5GpgME24GpgSignKeyEditInteractorD2Ev@Base 15.07.90
 _ZN5GpgME26GpgAddUserIDEditInteractor11setNameUtf8ERKNSt7__cxx1112basic_stringIcSt11char_traitsIcESaIcEEE@Base 15.07.90
 _ZN5GpgME26GpgAddUserIDEditInteractor12setEmailUtf8ERKNSt7__cxx1112basic_stringIcSt11char_traitsIcESaIcEEE@Base 15.07.90
 _ZN5GpgME26GpgAddUserIDEditInteractor14setCommentUtf8ERKNSt7__cxx1112basic_stringIcSt11char_traitsIcESaIcEEE@Base 15.07.90
 _ZN5GpgME26GpgAddUserIDEditInteractorC1Ev@Base 15.07.90
 _ZN5GpgME26GpgAddUserIDEditInteractorC2Ev@Base 15.07.90
 _ZN5GpgME26GpgAddUserIDEditInteractorD0Ev@Base 15.07.90
 _ZN5GpgME26GpgAddUserIDEditInteractorD1Ev@Base 15.07.90
 _ZN5GpgME26GpgAddUserIDEditInteractorD2Ev@Base 15.07.90
 _ZN5GpgME27ScdGetInfoAssuanTransaction4dataEPKcm@Base 15.07.90
 _ZN5GpgME27ScdGetInfoAssuanTransaction6statusEPKcS2_@Base 15.07.90
 _ZN5GpgME27ScdGetInfoAssuanTransaction7inquireEPKcS2_RNS_5ErrorE@Base 15.07.90
 _ZN5GpgME27ScdGetInfoAssuanTransactionC1ENS0_8InfoItemE@Base 15.07.90
 _ZN5GpgME27ScdGetInfoAssuanTransactionC2ENS0_8InfoItemE@Base 15.07.90
 _ZN5GpgME27ScdGetInfoAssuanTransactionD0Ev@Base 15.07.90
 _ZN5GpgME27ScdGetInfoAssuanTransactionD1Ev@Base 15.07.90
 _ZN5GpgME27ScdGetInfoAssuanTransactionD2Ev@Base 15.07.90
 _ZN5GpgME30GpgSetExpiryTimeEditInteractorC1ERKNSt7__cxx1112basic_stringIcSt11char_traitsIcESaIcEEE@Base 15.07.90
 _ZN5GpgME30GpgSetExpiryTimeEditInteractorC2ERKNSt7__cxx1112basic_stringIcSt11char_traitsIcESaIcEEE@Base 15.07.90
 _ZN5GpgME30GpgSetExpiryTimeEditInteractorD0Ev@Base 15.07.90
 _ZN5GpgME30GpgSetExpiryTimeEditInteractorD1Ev@Base 15.07.90
 _ZN5GpgME30GpgSetExpiryTimeEditInteractorD2Ev@Base 15.07.90
 _ZN5GpgME30GpgSetOwnerTrustEditInteractorC1ENS_3Key10OwnerTrustE@Base 15.07.90
 _ZN5GpgME30GpgSetOwnerTrustEditInteractorC2ENS_3Key10OwnerTrustE@Base 15.07.90
 _ZN5GpgME30GpgSetOwnerTrustEditInteractorD0Ev@Base 15.07.90
 _ZN5GpgME30GpgSetOwnerTrustEditInteractorD1Ev@Base 15.07.90
 _ZN5GpgME30GpgSetOwnerTrustEditInteractorD2Ev@Base 15.07.90
 _ZN5GpgME32GpgAgentGetInfoAssuanTransaction4dataEPKcm@Base 15.07.90
 _ZN5GpgME32GpgAgentGetInfoAssuanTransaction6statusEPKcS2_@Base 15.07.90
 _ZN5GpgME32GpgAgentGetInfoAssuanTransaction7inquireEPKcS2_RNS_5ErrorE@Base 15.07.90
 _ZN5GpgME32GpgAgentGetInfoAssuanTransactionC1ENS0_8InfoItemE@Base 15.07.90
 _ZN5GpgME32GpgAgentGetInfoAssuanTransactionC2ENS0_8InfoItemE@Base 15.07.90
 _ZN5GpgME32GpgAgentGetInfoAssuanTransactionD0Ev@Base 15.07.90
 _ZN5GpgME32GpgAgentGetInfoAssuanTransactionD1Ev@Base 15.07.90
 _ZN5GpgME32GpgAgentGetInfoAssuanTransactionD2Ev@Base 15.07.90
 _ZN5GpgME3Key4nullE@Base 15.07.90
 _ZN5GpgME3Key9mergeWithERKS0_@Base 15.07.90
 _ZN5GpgME3KeyC1EP10_gpgme_keyb@Base 15.07.90
 _ZN5GpgME3KeyC1ERKN5boost10shared_ptrI10_gpgme_keyEE@Base 15.07.90
 _ZN5GpgME3KeyC1ERKNS0_4NullE@Base 15.07.90
 _ZN5GpgME3KeyC1Ev@Base 15.07.90
 _ZN5GpgME3KeyC2EP10_gpgme_keyb@Base 15.07.90
 _ZN5GpgME3KeyC2ERKN5boost10shared_ptrI10_gpgme_keyEE@Base 15.07.90
 _ZN5GpgME3KeyC2ERKNS0_4NullE@Base 15.07.90
 _ZN5GpgME3KeyC2Ev@Base 15.07.90
 _ZN5GpgME4Data11setEncodingENS0_8EncodingE@Base 15.07.90
 _ZN5GpgME4Data11setFileNameEPKc@Base 15.07.90
 _ZN5GpgME4Data4nullE@Base 15.07.90
 _ZN5GpgME4Data4readEPvm@Base 15.07.90
 _ZN5GpgME4Data4seekEli@Base 15.07.90
 _ZN5GpgME4Data5writeEPKvm@Base 15.07.90
 _ZN5GpgME4Data7PrivateD1Ev@Base 15.07.90
 _ZN5GpgME4Data7PrivateD2Ev@Base 15.07.90
 _ZN5GpgME4DataC1EP10gpgme_data@Base 15.07.90
 _ZN5GpgME4DataC1EP8_IO_FILE@Base 15.07.90
 _ZN5GpgME4DataC1EP8_IO_FILElm@Base 15.07.90
 _ZN5GpgME4DataC1EPKc@Base 15.07.90
 _ZN5GpgME4DataC1EPKclm@Base 15.07.90
 _ZN5GpgME4DataC1EPKcmb@Base 15.07.90
 _ZN5GpgME4DataC1EPNS_12DataProviderE@Base 15.07.90
 _ZN5GpgME4DataC1ERKNS0_4NullE@Base 15.07.90
 _ZN5GpgME4DataC1Ei@Base 15.07.90
 _ZN5GpgME4DataC1Ev@Base 15.07.90
 _ZN5GpgME4DataC2EP10gpgme_data@Base 15.07.90
 _ZN5GpgME4DataC2EP8_IO_FILE@Base 15.07.90
 _ZN5GpgME4DataC2EP8_IO_FILElm@Base 15.07.90
 _ZN5GpgME4DataC2EPKc@Base 15.07.90
 _ZN5GpgME4DataC2EPKclm@Base 15.07.90
 _ZN5GpgME4DataC2EPKcmb@Base 15.07.90
 _ZN5GpgME4DataC2EPNS_12DataProviderE@Base 15.07.90
 _ZN5GpgME4DataC2ERKNS0_4NullE@Base 15.07.90
 _ZN5GpgME4DataC2Ei@Base 15.07.90
 _ZN5GpgME4DataC2Ev@Base 15.07.90
 _ZN5GpgME5Error14hasSystemErrorEv@Base 15.07.90
 _ZN5GpgME5Error14setSystemErrorE14gpg_err_code_t@Base 15.07.90
 _ZN5GpgME5Error15fromSystemErrorEj@Base 15.07.90
 _ZN5GpgME5Error8fromCodeEjj@Base 15.07.90
 _ZN5GpgME5Error8setErrnoEi@Base 15.07.90
 _ZN5GpgME5Error9fromErrnoEij@Base 15.07.90
 _ZN5GpgME6ImportC1ERKN5boost10shared_ptrINS_12ImportResult7PrivateEEEj@Base 15.07.90
 _ZN5GpgME6ImportC1Ev@Base 15.07.90
 _ZN5GpgME6ImportC2ERKN5boost10shared_ptrINS_12ImportResult7PrivateEEEj@Base 15.07.90
 _ZN5GpgME6ImportC2Ev@Base 15.07.90
 _ZN5GpgME6SubkeyC1ERKN5boost10shared_ptrI10_gpgme_keyEEP13_gpgme_subkey@Base 15.07.90
 _ZN5GpgME6SubkeyC1ERKN5boost10shared_ptrI10_gpgme_keyEEj@Base 15.07.90
 _ZN5GpgME6SubkeyC1Ev@Base 15.07.90
 _ZN5GpgME6SubkeyC2ERKN5boost10shared_ptrI10_gpgme_keyEEP13_gpgme_subkey@Base 15.07.90
 _ZN5GpgME6SubkeyC2ERKN5boost10shared_ptrI10_gpgme_keyEEj@Base 15.07.90
 _ZN5GpgME6SubkeyC2Ev@Base 15.07.90
 _ZN5GpgME6UserID9SignatureC1ERKN5boost10shared_ptrI10_gpgme_keyEEP14_gpgme_user_idP14_gpgme_key_sig@Base 15.07.90
 _ZN5GpgME6UserID9SignatureC1ERKN5boost10shared_ptrI10_gpgme_keyEEP14_gpgme_user_idj@Base 15.07.90
 _ZN5GpgME6UserID9SignatureC1Ev@Base 15.07.90
 _ZN5GpgME6UserID9SignatureC2ERKN5boost10shared_ptrI10_gpgme_keyEEP14_gpgme_user_idP14_gpgme_key_sig@Base 15.07.90
 _ZN5GpgME6UserID9SignatureC2ERKN5boost10shared_ptrI10_gpgme_keyEEP14_gpgme_user_idj@Base 15.07.90
 _ZN5GpgME6UserID9SignatureC2Ev@Base 15.07.90
 _ZN5GpgME6UserIDC1ERKN5boost10shared_ptrI10_gpgme_keyEEP14_gpgme_user_id@Base 15.07.90
 _ZN5GpgME6UserIDC1ERKN5boost10shared_ptrI10_gpgme_keyEEj@Base 15.07.90
 _ZN5GpgME6UserIDC1Ev@Base 15.07.90
 _ZN5GpgME6UserIDC2ERKN5boost10shared_ptrI10_gpgme_keyEEP14_gpgme_user_id@Base 15.07.90
 _ZN5GpgME6UserIDC2ERKN5boost10shared_ptrI10_gpgme_keyEEj@Base 15.07.90
 _ZN5GpgME6UserIDC2Ev@Base 15.07.90
 _ZN5GpgME7Context10importKeysERKNS_4DataE@Base 15.07.90
 _ZN5GpgME7Context10importKeysERKSt6vectorINS_3KeyESaIS2_EE@Base 15.07.90
 _ZN5GpgME7Context10setOfflineEb@Base 15.08.1+git20150917.1103+15.10
 _ZN5GpgME7Context11generateKeyEPKcRNS_4DataE@Base 15.07.90
 _ZN5GpgME7Context11getAuditLogERNS_4DataEj@Base 15.07.90
 _ZN5GpgME7Context11setTextModeEb@Base 15.07.90
 _ZN5GpgME7Context11startPasswdERKNS_3KeyE@Base 15.07.90
 _ZN5GpgME7Context12startEditingERKNS_3KeyESt8auto_ptrINS_14EditInteractorEERNS_4DataE@Base 15.07.90
 _ZN5GpgME7Context12startSigningERKNS_4DataERS1_NS_13SignatureModeE@Base 15.07.90
 _ZN5GpgME7Context13addSigningKeyERKNS_3KeyE@Base 15.07.90
 _ZN5GpgME7Context13endKeyListingEv@Base 15.07.90
 _ZN5GpgME7Context13nextTrustItemERNS_5ErrorE@Base 15.07.90
 _ZN5GpgME7Context14addKeyListModeEj@Base 15.07.90
 _ZN5GpgME7Context14assuanTransactEPKc@Base 15.07.90
 _ZN5GpgME7Context14assuanTransactEPKcSt8auto_ptrINS_17AssuanTransactionEE@Base 15.07.90
 _ZN5GpgME7Context14setKeyListModeEj@Base 15.07.90
 _ZN5GpgME7Context14signAndEncryptERKSt6vectorINS_3KeyESaIS2_EERKNS_4DataERS7_NS0_15EncryptionFlagsE@Base 15.07.90
 _ZN5GpgME7Context14startKeyImportERKNS_4DataE@Base 15.07.90
 _ZN5GpgME7Context14startKeyImportERKSt6vectorINS_3KeyESaIS2_EE@Base 15.07.90
 _ZN5GpgME7Context15createForEngineENS_6EngineEPNS_5ErrorE@Base 15.07.90
 _ZN5GpgME7Context15startDecryptionERKNS_4DataERS1_@Base 15.07.90
 _ZN5GpgME7Context15startEncryptionERKSt6vectorINS_3KeyESaIS2_EERKNS_4DataERS7_NS0_15EncryptionFlagsE@Base 15.07.90
 _ZN5GpgME7Context15startKeyListingEPKcb@Base 15.07.90
 _ZN5GpgME7Context15startKeyListingEPPKcb@Base 15.07.90
 _ZN5GpgME7Context16clearSigningKeysEv@Base 15.07.90
 _ZN5GpgME7Context16decryptAndVerifyERKNS_4DataERS1_@Base 15.07.90
 _ZN5GpgME7Context16exportPublicKeysEPKcRNS_4DataE@Base 15.07.90
 _ZN5GpgME7Context16exportPublicKeysEPPKcRNS_4DataE@Base 15.07.90
 _ZN5GpgME7Context16startCardEditingERKNS_3KeyESt8auto_ptrINS_14EditInteractorEERNS_4DataE@Base 15.07.90
 _ZN5GpgME7Context16startGetAuditLogERNS_4DataEj@Base 15.07.90
 _ZN5GpgME7Context16startKeyDeletionERKNS_3KeyEb@Base 15.07.90
 _ZN5GpgME7Context17createForProtocolENS_8ProtocolE@Base 15.07.90
 _ZN5GpgME7Context17setEngineFileNameEPKc@Base 15.07.90
 _ZN5GpgME7Context18installIOCallbacksEP12gpgme_io_cbs@Base 15.07.90
 _ZN5GpgME7Context18startKeyGenerationEPKcRNS_4DataE@Base 15.07.90
 _ZN5GpgME7Context19endTrustItemListingEv@Base 15.07.90
 _ZN5GpgME7Context19setProgressProviderEPNS_16ProgressProviderE@Base 15.07.90
 _ZN5GpgME7Context20addSignatureNotationEPKcS2_j@Base 15.07.90
 _ZN5GpgME7Context20encryptSymmetricallyERKNS_4DataERS1_@Base 15.07.90
 _ZN5GpgME7Context20startPublicKeyExportEPKcRNS_4DataE@Base 15.07.90
 _ZN5GpgME7Context20startPublicKeyExportEPPKcRNS_4DataE@Base 15.07.90
 _ZN5GpgME7Context20uninstallIOCallbacksEv@Base 15.07.90
 _ZN5GpgME7Context21addSignaturePolicyURLEPKcb@Base 15.07.90
 _ZN5GpgME7Context21setPassphraseProviderEPNS_18PassphraseProviderE@Base 15.07.90
 _ZN5GpgME7Context21startTrustItemListingEPKci@Base 15.07.90
 _ZN5GpgME7Context21verifyOpaqueSignatureERKNS_4DataERS1_@Base 15.07.90
 _ZN5GpgME7Context22cancelPendingOperationEv@Base 15.07.90
 _ZN5GpgME7Context22setEngineHomeDirectoryEPKc@Base 15.07.90
 _ZN5GpgME7Context22setIncludeCertificatesEi@Base 15.07.90
 _ZN5GpgME7Context22startAssuanTransactionEPKc@Base 15.07.90
 _ZN5GpgME7Context22startAssuanTransactionEPKcSt8auto_ptrINS_17AssuanTransactionEE@Base 15.07.90
 _ZN5GpgME7Context22takeLastEditInteractorEv@Base 15.07.90
 _ZN5GpgME7Context23clearSignatureNotationsEv@Base 15.07.90
 _ZN5GpgME7Context23verifyDetachedSignatureERKNS_4DataES3_@Base 15.07.90
 _ZN5GpgME7Context25takeLastAssuanTransactionEv@Base 15.07.90
 _ZN5GpgME7Context26takeLastCardEditInteractorEv@Base 15.07.90
 _ZN5GpgME7Context31setManagedByEventLoopInteractorEb@Base 15.07.90
 _ZN5GpgME7Context32startOpaqueSignatureVerificationERKNS_4DataERS1_@Base 15.07.90
 _ZN5GpgME7Context33startCombinedSigningAndEncryptionERKSt6vectorINS_3KeyESaIS2_EERKNS_4DataERS7_NS0_15EncryptionFlagsE@Base 15.07.90
 _ZN5GpgME7Context34startDetachedSignatureVerificationERKNS_4DataES3_@Base 15.07.90
 _ZN5GpgME7Context38startCombinedDecryptionAndVerificationERKNS_4DataERS1_@Base 15.07.90
 _ZN5GpgME7Context3keyEPKcRNS_5ErrorEb@Base 15.07.90
 _ZN5GpgME7Context4editERKNS_3KeyESt8auto_ptrINS_14EditInteractorEERNS_4DataE@Base 15.07.90
 _ZN5GpgME7Context4pollEv@Base 15.07.90
 _ZN5GpgME7Context4signERKNS_4DataERS1_NS_13SignatureModeE@Base 15.07.90
 _ZN5GpgME7Context4waitEv@Base 15.07.90
 _ZN5GpgME7Context6passwdERKNS_3KeyE@Base 15.07.90
 _ZN5GpgME7Context7PrivateC1EP13gpgme_context@Base 15.07.90
 _ZN5GpgME7Context7PrivateC2EP13gpgme_context@Base 15.07.90
 _ZN5GpgME7Context7PrivateD1Ev@Base 15.07.90
 _ZN5GpgME7Context7PrivateD2Ev@Base 15.07.90
 _ZN5GpgME7Context7decryptERKNS_4DataERS1_@Base 15.07.90
 _ZN5GpgME7Context7encryptERKSt6vectorINS_3KeyESaIS2_EERKNS_4DataERS7_NS0_15EncryptionFlagsE@Base 15.07.90
 _ZN5GpgME7Context7nextKeyERNS_5ErrorE@Base 15.07.90
 _ZN5GpgME7Context8cardEditERKNS_3KeyESt8auto_ptrINS_14EditInteractorEERNS_4DataE@Base 15.07.90
 _ZN5GpgME7Context8mountVFSEPKcS2_@Base 15.07.90
 _ZN5GpgME7Context8setArmorEb@Base 15.07.90
 _ZN5GpgME7Context9createVFSEPKcRKSt6vectorINS_3KeyESaIS4_EE@Base 15.07.90
 _ZN5GpgME7Context9deleteKeyERKNS_3KeyEb@Base 15.07.90
 _ZN5GpgME7Context9setLocaleEiPKc@Base 15.07.90
 _ZN5GpgME7ContextC1EP13gpgme_context@Base 15.07.90
 _ZN5GpgME7ContextC2EP13gpgme_context@Base 15.07.90
 _ZN5GpgME7ContextD0Ev@Base 15.07.90
 _ZN5GpgME7ContextD1Ev@Base 15.07.90
 _ZN5GpgME7ContextD2Ev@Base 15.07.90
 _ZN5GpgME8NotationC1EP19_gpgme_sig_notation@Base 15.07.90
 _ZN5GpgME8NotationC1ERKN5boost10shared_ptrINS_18VerificationResult7PrivateEEEjj@Base 15.07.90
 _ZN5GpgME8NotationC1Ev@Base 15.07.90
 _ZN5GpgME8NotationC2EP19_gpgme_sig_notation@Base 15.07.90
 _ZN5GpgME8NotationC2ERKN5boost10shared_ptrINS_18VerificationResult7PrivateEEEjj@Base 15.07.90
 _ZN5GpgME8NotationC2Ev@Base 15.07.90
 _ZN5GpgME9Exception12make_messageERKNS_5ErrorERKNSt7__cxx1112basic_stringIcSt11char_traitsIcESaIcEEE@Base 15.07.90
 _ZN5GpgME9Exception12make_messageERKNS_5ErrorERKNSt7__cxx1112basic_stringIcSt11char_traitsIcESaIcEEENS0_7OptionsE@Base 15.07.90
 _ZN5GpgME9ExceptionD0Ev@Base 15.07.90
 _ZN5GpgME9ExceptionD1Ev@Base 15.07.90
 _ZN5GpgME9ExceptionD2Ev@Base 15.07.90
 _ZN5GpgME9SignatureC1ERKN5boost10shared_ptrINS_18VerificationResult7PrivateEEEj@Base 15.07.90
 _ZN5GpgME9SignatureC1Ev@Base 15.07.90
 _ZN5GpgME9SignatureC2ERKN5boost10shared_ptrINS_18VerificationResult7PrivateEEEj@Base 15.07.90
 _ZN5GpgME9SignatureC2Ev@Base 15.07.90
 _ZN5GpgME9TrustItemC1EP17_gpgme_trust_item@Base 15.07.90
 _ZN5GpgME9TrustItemC1ERKS0_@Base 15.07.90
 _ZN5GpgME9TrustItemC2EP17_gpgme_trust_item@Base 15.07.90
 _ZN5GpgME9TrustItemC2ERKS0_@Base 15.07.90
 _ZN5GpgME9TrustItemD0Ev@Base 15.07.90
 _ZN5GpgME9TrustItemD1Ev@Base 15.07.90
 _ZN5GpgME9TrustItemD2Ev@Base 15.07.90
 _ZN5GpgMElsERSoNS_11KeyListModeE@Base 15.07.90
 _ZN5GpgMElsERSoNS_13SignatureModeE@Base 15.07.90
 _ZN5GpgMElsERSoNS_6EngineE@Base 15.07.90
 _ZN5GpgMElsERSoNS_7Context13AuditLogFlagsE@Base 15.07.90
 _ZN5GpgMElsERSoNS_7Context15EncryptionFlagsE@Base 15.07.90
 _ZN5GpgMElsERSoNS_7Context20CertificateInclusionE@Base 15.07.90
 _ZN5GpgMElsERSoNS_8Notation5FlagsE@Base 15.07.90
 _ZN5GpgMElsERSoNS_8ProtocolE@Base 15.07.90
 _ZN5GpgMElsERSoNS_9Signature7SummaryE@Base 15.07.90
 _ZN5GpgMElsERSoNS_9Signature9PKAStatusE@Base 15.07.90
 _ZN5GpgMElsERSoRKNS_12AssuanResultE@Base 15.07.90
 _ZN5GpgMElsERSoRKNS_13SigningResultE@Base 15.07.90
 _ZN5GpgMElsERSoRKNS_14VfsMountResultE@Base 15.07.90
 _ZN5GpgMElsERSoRKNS_16CreatedSignatureE@Base 15.07.90
 _ZN5GpgMElsERSoRKNS_16DecryptionResult9RecipientE@Base 15.07.90
 _ZN5GpgMElsERSoRKNS_16DecryptionResultE@Base 15.07.90
 _ZN5GpgMElsERSoRKNS_16EncryptionResultE@Base 15.07.90
 _ZN5GpgMElsERSoRKNS_16InvalidRecipientE@Base 15.07.90
 _ZN5GpgMElsERSoRKNS_17InvalidSigningKeyE@Base 15.07.90
 _ZN5GpgMElsERSoRKNS_18VerificationResultE@Base 15.07.90
 _ZN5GpgMElsERSoRKNS_5ErrorE@Base 15.07.90
 _ZN5GpgMElsERSoRKNS_8NotationE@Base 15.07.90
 _ZN5GpgMElsERSoRKNS_9SignatureE@Base 15.07.90
 _ZNK5GpgME10EngineInfo13homeDirectoryEv@Base 15.07.90
 _ZNK5GpgME10EngineInfo15requiredVersionEv@Base 15.07.90
 _ZNK5GpgME10EngineInfo6isNullEv@Base 15.07.90
 _ZNK5GpgME10EngineInfo7versionEv@Base 15.07.90
 _ZNK5GpgME10EngineInfo8fileNameEv@Base 15.07.90
 _ZNK5GpgME10EngineInfo8protocolEv@Base 15.07.90
 _ZNK5GpgME12AssuanResult11assuanErrorEv@Base 15.07.90
 _ZNK5GpgME12AssuanResult6isNullEv@Base 15.07.90
 _ZNK5GpgME12ImportResult10newSubkeysEv@Base 15.07.90
 _ZNK5GpgME12ImportResult10newUserIDsEv@Base 15.07.90
 _ZNK5GpgME12ImportResult11notImportedEv@Base 15.07.90
 _ZNK5GpgME12ImportResult11numImportedEv@Base 15.07.90
 _ZNK5GpgME12ImportResult12numUnchangedEv@Base 15.07.90
 _ZNK5GpgME12ImportResult13newSignaturesEv@Base 15.07.90
 _ZNK5GpgME12ImportResult13numConsideredEv@Base 15.07.90
 _ZNK5GpgME12ImportResult14newRevocationsEv@Base 15.07.90
 _ZNK5GpgME12ImportResult14numRSAImportedEv@Base 15.07.90
 _ZNK5GpgME12ImportResult20numKeysWithoutUserIDEv@Base 15.07.90
 _ZNK5GpgME12ImportResult21numSecretKeysImportedEv@Base 15.07.90
 _ZNK5GpgME12ImportResult22numSecretKeysUnchangedEv@Base 15.07.90
 _ZNK5GpgME12ImportResult23numSecretKeysConsideredEv@Base 15.07.90
 _ZNK5GpgME12ImportResult6importEj@Base 15.07.90
 _ZNK5GpgME12ImportResult6isNullEv@Base 15.07.90
 _ZNK5GpgME12ImportResult7importsEv@Base 15.07.90
 _ZNK5GpgME13Configuration6Option11activeValueEv@Base 15.07.90
 _ZNK5GpgME13Configuration6Option11descriptionEv@Base 15.07.90
 _ZNK5GpgME13Configuration6Option12argumentNameEv@Base 15.07.90
 _ZNK5GpgME13Configuration6Option12currentValueEv@Base 15.07.90
 _ZNK5GpgME13Configuration6Option12defaultValueEv@Base 15.07.90
 _ZNK5GpgME13Configuration6Option13alternateTypeEv@Base 15.07.90
 _ZNK5GpgME13Configuration6Option15noArgumentValueEv@Base 15.07.90
 _ZNK5GpgME13Configuration6Option17createIntArgumentEi@Base 15.07.90
 _ZNK5GpgME13Configuration6Option18createNoneArgumentEb@Base 15.07.90
 _ZNK5GpgME13Configuration6Option18createUIntArgumentEj@Base 15.07.90
 _ZNK5GpgME13Configuration6Option18defaultDescriptionEv@Base 15.07.90
 _ZNK5GpgME13Configuration6Option20createStringArgumentEPKc@Base 15.07.90
 _ZNK5GpgME13Configuration6Option20createStringArgumentERKNSt7__cxx1112basic_stringIcSt11char_traitsIcESaIcEEE@Base 15.07.90
 _ZNK5GpgME13Configuration6Option21createIntListArgumentERKSt6vectorIiSaIiEE@Base 15.07.90
 _ZNK5GpgME13Configuration6Option21noArgumentDescriptionEv@Base 15.07.90
 _ZNK5GpgME13Configuration6Option22createNoneListArgumentEj@Base 15.07.90
 _ZNK5GpgME13Configuration6Option22createUIntListArgumentERKSt6vectorIjSaIjEE@Base 15.07.90
 _ZNK5GpgME13Configuration6Option24createStringListArgumentERKSt6vectorINSt7__cxx1112basic_stringIcSt11char_traitsIcESaIcEEESaIS8_EE@Base 15.07.90
 _ZNK5GpgME13Configuration6Option24createStringListArgumentERKSt6vectorIPKcSaIS4_EE@Base 15.07.90
 _ZNK5GpgME13Configuration6Option3setEv@Base 15.07.90
 _ZNK5GpgME13Configuration6Option4nameEv@Base 15.07.90
 _ZNK5GpgME13Configuration6Option4typeEv@Base 15.07.90
 _ZNK5GpgME13Configuration6Option5dirtyEv@Base 15.07.90
 _ZNK5GpgME13Configuration6Option5flagsEv@Base 15.07.90
 _ZNK5GpgME13Configuration6Option5levelEv@Base 15.07.90
 _ZNK5GpgME13Configuration6Option6parentEv@Base 15.07.90
 _ZNK5GpgME13Configuration6Option8newValueEv@Base 15.07.90
 _ZNK5GpgME13Configuration8Argument10uintValuesEv@Base 15.07.90
 _ZNK5GpgME13Configuration8Argument11numElementsEv@Base 15.07.90
 _ZNK5GpgME13Configuration8Argument11stringValueEj@Base 15.07.90
 _ZNK5GpgME13Configuration8Argument12stringValuesEv@Base 15.07.90
 _ZNK5GpgME13Configuration8Argument16numberOfTimesSetEv@Base 15.07.90
 _ZNK5GpgME13Configuration8Argument6parentEv@Base 15.07.90
 _ZNK5GpgME13Configuration8Argument8intValueEj@Base 15.07.90
 _ZNK5GpgME13Configuration8Argument9boolValueEv@Base 15.07.90
 _ZNK5GpgME13Configuration8Argument9intValuesEv@Base 15.07.90
 _ZNK5GpgME13Configuration8Argument9uintValueEj@Base 15.07.90
 _ZNK5GpgME13Configuration9Component10numOptionsEv@Base 15.07.90
 _ZNK5GpgME13Configuration9Component11descriptionEv@Base 15.07.90
 _ZNK5GpgME13Configuration9Component11programNameEv@Base 15.07.90
 _ZNK5GpgME13Configuration9Component4nameEv@Base 15.07.90
 _ZNK5GpgME13Configuration9Component4saveEv@Base 15.07.90
 _ZNK5GpgME13Configuration9Component6optionEPKc@Base 15.07.90
 _ZNK5GpgME13Configuration9Component6optionEj@Base 15.07.90
 _ZNK5GpgME13Configuration9Component7optionsEv@Base 15.07.90
 _ZNK5GpgME13KeyListResult11isTruncatedEv@Base 15.07.90
 _ZNK5GpgME13KeyListResult6isNullEv@Base 15.07.90
 _ZNK5GpgME13SigningResult16createdSignatureEj@Base 15.07.90
 _ZNK5GpgME13SigningResult17createdSignaturesEv@Base 15.07.90
 _ZNK5GpgME13SigningResult17invalidSigningKeyEj@Base 15.07.90
 _ZNK5GpgME13SigningResult18invalidSigningKeysEv@Base 15.07.90
 _ZNK5GpgME13SigningResult6isNullEv@Base 15.07.90
 _ZNK5GpgME14EditInteractor15needsNoResponseEj@Base 15.07.90
 _ZNK5GpgME14EditInteractor5stateEv@Base 15.07.90
 _ZNK5GpgME14EditInteractor9lastErrorEv@Base 15.07.90
 _ZNK5GpgME14VfsMountResult6isNullEv@Base 15.07.90
 _ZNK5GpgME14VfsMountResult8mountDirEv@Base 15.07.90
 _ZNK5GpgME16CreatedSignature11fingerprintEv@Base 15.07.90
 _ZNK5GpgME16CreatedSignature12creationTimeEv@Base 15.07.90
 _ZNK5GpgME16CreatedSignature13hashAlgorithmEv@Base 15.07.90
 _ZNK5GpgME16CreatedSignature14signatureClassEv@Base 15.07.90
 _ZNK5GpgME16CreatedSignature18publicKeyAlgorithmEv@Base 15.07.90
 _ZNK5GpgME16CreatedSignature21hashAlgorithmAsStringEv@Base 15.07.90
 _ZNK5GpgME16CreatedSignature26publicKeyAlgorithmAsStringEv@Base 15.07.90
 _ZNK5GpgME16CreatedSignature4modeEv@Base 15.07.90
 _ZNK5GpgME16CreatedSignature6isNullEv@Base 15.07.90
 _ZNK5GpgME16DecryptionResult10recipientsEv@Base 15.07.90
 _ZNK5GpgME16DecryptionResult13numRecipientsEv@Base 15.07.90
 _ZNK5GpgME16DecryptionResult15isWrongKeyUsageEv@Base 15.07.90
 _ZNK5GpgME16DecryptionResult20unsupportedAlgorithmEv@Base 15.07.90
 _ZNK5GpgME16DecryptionResult6isNullEv@Base 15.07.90
 _ZNK5GpgME16DecryptionResult8fileNameEv@Base 15.07.90
 _ZNK5GpgME16DecryptionResult9Recipient10shortKeyIDEv@Base 15.07.90
 _ZNK5GpgME16DecryptionResult9Recipient18publicKeyAlgorithmEv@Base 15.07.90
 _ZNK5GpgME16DecryptionResult9Recipient26publicKeyAlgorithmAsStringEv@Base 15.07.90
 _ZNK5GpgME16DecryptionResult9Recipient5keyIDEv@Base 15.07.90
 _ZNK5GpgME16DecryptionResult9Recipient6isNullEv@Base 15.07.90
 _ZNK5GpgME16DecryptionResult9Recipient6statusEv@Base 15.07.90
 _ZNK5GpgME16DecryptionResult9recipientEj@Base 15.07.90
 _ZNK5GpgME16EncryptionResult20invalidEncryptionKeyEj@Base 15.07.90
 _ZNK5GpgME16EncryptionResult20numInvalidRecipientsEv@Base 15.07.90
 _ZNK5GpgME16EncryptionResult21invalidEncryptionKeysEv@Base 15.07.90
 _ZNK5GpgME16EncryptionResult6isNullEv@Base 15.07.90
 _ZNK5GpgME16InvalidRecipient11fingerprintEv@Base 15.07.90
 _ZNK5GpgME16InvalidRecipient6isNullEv@Base 15.07.90
 _ZNK5GpgME16InvalidRecipient6reasonEv@Base 15.07.90
 _ZNK5GpgME17InvalidSigningKey11fingerprintEv@Base 15.07.90
 _ZNK5GpgME17InvalidSigningKey6isNullEv@Base 15.07.90
 _ZNK5GpgME17InvalidSigningKey6reasonEv@Base 15.07.90
 _ZNK5GpgME18VerificationResult10signaturesEv@Base 15.07.90
 _ZNK5GpgME18VerificationResult13numSignaturesEv@Base 15.07.90
 _ZNK5GpgME18VerificationResult6isNullEv@Base 15.07.90
 _ZNK5GpgME18VerificationResult8fileNameEv@Base 15.07.90
 _ZNK5GpgME18VerificationResult9signatureEj@Base 15.07.90
 _ZNK5GpgME19KeyGenerationResult11fingerprintEv@Base 15.07.90
 _ZNK5GpgME19KeyGenerationResult17isSubkeyGeneratedEv@Base 15.07.90
 _ZNK5GpgME19KeyGenerationResult21isPrimaryKeyGeneratedEv@Base 15.07.90
 _ZNK5GpgME19KeyGenerationResult6isNullEv@Base 15.07.90
 _ZNK5GpgME24DefaultAssuanTransaction10statusLineB5cxx11EPKc@Base 15.07.90
 _ZNK5GpgME24DefaultAssuanTransaction15firstStatusLineB5cxx11EPKc@Base 15.07.90
 _ZNK5GpgME24GpgSignKeyEditInteractor6actionERNS_5ErrorE@Base 15.07.90
 _ZNK5GpgME24GpgSignKeyEditInteractor9nextStateEjPKcRNS_5ErrorE@Base 15.07.90
 _ZNK5GpgME26GpgAddUserIDEditInteractor6actionERNS_5ErrorE@Base 15.07.90
 _ZNK5GpgME26GpgAddUserIDEditInteractor9nextStateEjPKcRNS_5ErrorE@Base 15.07.90
 _ZNK5GpgME27ScdGetInfoAssuanTransaction10readerListB5cxx11Ev@Base 15.07.90
 _ZNK5GpgME27ScdGetInfoAssuanTransaction10socketNameB5cxx11Ev@Base 15.07.90
 _ZNK5GpgME27ScdGetInfoAssuanTransaction11makeCommandEv@Base 15.07.90
 _ZNK5GpgME27ScdGetInfoAssuanTransaction15applicationListB5cxx11Ev@Base 15.07.90
 _ZNK5GpgME27ScdGetInfoAssuanTransaction3pidEv@Base 15.07.90
 _ZNK5GpgME27ScdGetInfoAssuanTransaction6statusEv@Base 15.07.90
 _ZNK5GpgME27ScdGetInfoAssuanTransaction7commandEv@Base 15.07.90
 _ZNK5GpgME27ScdGetInfoAssuanTransaction7versionB5cxx11Ev@Base 15.07.90
 _ZNK5GpgME30GpgSetExpiryTimeEditInteractor6actionERNS_5ErrorE@Base 15.07.90
 _ZNK5GpgME30GpgSetExpiryTimeEditInteractor9nextStateEjPKcRNS_5ErrorE@Base 15.07.90
 _ZNK5GpgME30GpgSetOwnerTrustEditInteractor6actionERNS_5ErrorE@Base 15.07.90
 _ZNK5GpgME30GpgSetOwnerTrustEditInteractor9nextStateEjPKcRNS_5ErrorE@Base 15.07.90
 _ZNK5GpgME32GpgAgentGetInfoAssuanTransaction10socketNameB5cxx11Ev@Base 15.07.90
 _ZNK5GpgME32GpgAgentGetInfoAssuanTransaction11makeCommandEv@Base 15.07.90
 _ZNK5GpgME32GpgAgentGetInfoAssuanTransaction13sshSocketNameB5cxx11Ev@Base 15.07.90
 _ZNK5GpgME32GpgAgentGetInfoAssuanTransaction3pidEv@Base 15.07.90
 _ZNK5GpgME32GpgAgentGetInfoAssuanTransaction7commandEv@Base 15.07.90
 _ZNK5GpgME32GpgAgentGetInfoAssuanTransaction7versionB5cxx11Ev@Base 15.07.90
 _ZNK5GpgME3Key10canCertifyEv@Base 15.07.90
 _ZNK5GpgME3Key10canEncryptEv@Base 15.07.90
 _ZNK5GpgME3Key10isDisabledEv@Base 15.07.90
 _ZNK5GpgME3Key10issuerNameEv@Base 15.07.90
 _ZNK5GpgME3Key10numSubkeysEv@Base 15.07.90
 _ZNK5GpgME3Key10numUserIDsEv@Base 15.07.90
 _ZNK5GpgME3Key10ownerTrustEv@Base 15.07.90
 _ZNK5GpgME3Key10shortKeyIDEv@Base 15.07.90
 _ZNK5GpgME3Key11isQualifiedEv@Base 15.07.90
 _ZNK5GpgME3Key11keyListModeEv@Base 15.07.90
 _ZNK5GpgME3Key12issuerSerialEv@Base 15.07.90
 _ZNK5GpgME3Key13canReallySignEv@Base 15.07.90
 _ZNK5GpgME3Key15canAuthenticateEv@Base 15.07.90
 _ZNK5GpgME3Key16protocolAsStringEv@Base 15.07.90
 _ZNK5GpgME3Key18ownerTrustAsStringEv@Base 15.07.90
 _ZNK5GpgME3Key18primaryFingerprintEv@Base 15.07.90
 _ZNK5GpgME3Key5keyIDEv@Base 15.07.90
 _ZNK5GpgME3Key6isRootEv@Base 15.07.90
 _ZNK5GpgME3Key6subkeyEj@Base 15.07.90
 _ZNK5GpgME3Key6userIDEj@Base 15.07.90
 _ZNK5GpgME3Key7canSignEv@Base 15.07.90
 _ZNK5GpgME3Key7chainIDEv@Base 15.07.90
 _ZNK5GpgME3Key7subkeysEv@Base 15.07.90
 _ZNK5GpgME3Key7userIDsEv@Base 15.07.90
 _ZNK5GpgME3Key8protocolEv@Base 15.07.90
 _ZNK5GpgME3Key9hasSecretEv@Base 15.07.90
 _ZNK5GpgME3Key9isExpiredEv@Base 15.07.90
 _ZNK5GpgME3Key9isInvalidEv@Base 15.07.90
 _ZNK5GpgME3Key9isRevokedEv@Base 15.07.90
 _ZNK5GpgME4Data6isNullEv@Base 15.07.90
 _ZNK5GpgME4Data8encodingEv@Base 15.07.90
 _ZNK5GpgME4Data8fileNameEv@Base 15.07.90
 _ZNK5GpgME5Error10isCanceledEv@Base 15.07.90
 _ZNK5GpgME5Error4codeEv@Base 15.07.90
 _ZNK5GpgME5Error6sourceEv@Base 15.07.90
 _ZNK5GpgME5Error7toErrnoEv@Base 15.07.90
 _ZNK5GpgME5Error8asStringEv@Base 15.07.90
 _ZNK5GpgME5Error8sourceIDEv@Base 15.07.90
 _ZNK5GpgME6Import11fingerprintEv@Base 15.07.90
 _ZNK5GpgME6Import5errorEv@Base 15.07.90
 _ZNK5GpgME6Import6isNullEv@Base 15.07.90
 _ZNK5GpgME6Import6statusEv@Base 15.07.90
 _ZNK5GpgME6Subkey10canCertifyEv@Base 15.07.90
 _ZNK5GpgME6Subkey10canEncryptEv@Base 15.07.90
 _ZNK5GpgME6Subkey10isDisabledEv@Base 15.07.90
 _ZNK5GpgME6Subkey11fingerprintEv@Base 15.07.90
 _ZNK5GpgME6Subkey11isQualifiedEv@Base 15.07.90
 _ZNK5GpgME6Subkey12creationTimeEv@Base 15.07.90
 _ZNK5GpgME6Subkey12neverExpiresEv@Base 15.07.90
 _ZNK5GpgME6Subkey14expirationTimeEv@Base 15.07.90
 _ZNK5GpgME6Subkey15canAuthenticateEv@Base 15.07.90
 _ZNK5GpgME6Subkey16cardSerialNumberEv@Base 15.07.90
 _ZNK5GpgME6Subkey18publicKeyAlgorithmEv@Base 15.07.90
 _ZNK5GpgME6Subkey26publicKeyAlgorithmAsStringEv@Base 15.07.90
 _ZNK5GpgME6Subkey5keyIDEv@Base 15.07.90
 _ZNK5GpgME6Subkey6lengthEv@Base 15.07.90
 _ZNK5GpgME6Subkey6parentEv@Base 15.07.90
 _ZNK5GpgME6Subkey7canSignEv@Base 15.07.90
 _ZNK5GpgME6Subkey8isSecretEv@Base 15.07.90
 _ZNK5GpgME6Subkey9isCardKeyEv@Base 15.07.90
 _ZNK5GpgME6Subkey9isExpiredEv@Base 15.07.90
 _ZNK5GpgME6Subkey9isInvalidEv@Base 15.07.90
 _ZNK5GpgME6Subkey9isRevokedEv@Base 15.07.90
 _ZNK5GpgME6UserID10signaturesEv@Base 15.07.90
 _ZNK5GpgME6UserID13numSignaturesEv@Base 15.07.90
 _ZNK5GpgME6UserID16validityAsStringEv@Base 15.07.90
 _ZNK5GpgME6UserID2idEv@Base 15.07.90
 _ZNK5GpgME6UserID4nameEv@Base 15.07.90
 _ZNK5GpgME6UserID5emailEv@Base 15.07.90
 _ZNK5GpgME6UserID6parentEv@Base 15.07.90
 _ZNK5GpgME6UserID7commentEv@Base 15.07.90
 _ZNK5GpgME6UserID8validityEv@Base 15.07.90
 _ZNK5GpgME6UserID9Signature10signerNameEv@Base 15.07.90
 _ZNK5GpgME6UserID9Signature11signerEmailEv@Base 15.07.90
 _ZNK5GpgME6UserID9Signature11signerKeyIDEv@Base 15.07.90
 _ZNK5GpgME6UserID9Signature12creationTimeEv@Base 15.07.90
 _ZNK5GpgME6UserID9Signature12isExportableEv@Base 15.07.90
 _ZNK5GpgME6UserID9Signature12isRevokationEv@Base 15.07.90
 _ZNK5GpgME6UserID9Signature12neverExpiresEv@Base 15.07.90
 _ZNK5GpgME6UserID9Signature12numNotationsEv@Base 15.07.90
 _ZNK5GpgME6UserID9Signature12signerUserIDEv@Base 15.07.90
 _ZNK5GpgME6UserID9Signature13signerCommentEv@Base 15.07.90
 _ZNK5GpgME6UserID9Signature14expirationTimeEv@Base 15.07.90
 _ZNK5GpgME6UserID9Signature14statusAsStringB5cxx11Ev@Base 15.07.90
 _ZNK5GpgME6UserID9Signature17algorithmAsStringEv@Base 15.07.90
 _ZNK5GpgME6UserID9Signature6parentEv@Base 15.07.90
 _ZNK5GpgME6UserID9Signature6statusEv@Base 15.07.90
 _ZNK5GpgME6UserID9Signature8notationEj@Base 15.07.90
 _ZNK5GpgME6UserID9Signature9algorithmEv@Base 15.07.90
 _ZNK5GpgME6UserID9Signature9certClassEv@Base 15.07.90
 _ZNK5GpgME6UserID9Signature9isExpiredEv@Base 15.07.90
 _ZNK5GpgME6UserID9Signature9isInvalidEv@Base 15.07.90
 _ZNK5GpgME6UserID9Signature9notationsEv@Base 15.07.90
 _ZNK5GpgME6UserID9Signature9policyURLEv@Base 15.07.90
 _ZNK5GpgME6UserID9isInvalidEv@Base 15.07.90
 _ZNK5GpgME6UserID9isRevokedEv@Base 15.07.90
 _ZNK5GpgME6UserID9signatureEj@Base 15.07.90
 _ZNK5GpgME7Context10engineInfoEv@Base 15.07.90
 _ZNK5GpgME7Context10signingKeyEj@Base 15.07.90
 _ZNK5GpgME7Context11keyListModeEv@Base 15.07.90
 _ZNK5GpgME7Context11signingKeysEv@Base 15.07.90
 _ZNK5GpgME7Context12assuanResultEv@Base 15.07.90
 _ZNK5GpgME7Context12importResultEv@Base 15.07.90
 _ZNK5GpgME7Context13keyListResultEv@Base 15.07.90
 _ZNK5GpgME7Context13signingResultEv@Base 15.07.90
 _ZNK5GpgME7Context16decryptionResultEv@Base 15.07.90
 _ZNK5GpgME7Context16encryptionResultEv@Base 15.07.90
 _ZNK5GpgME7Context16progressProviderEv@Base 15.07.90
 _ZNK5GpgME7Context17signatureNotationEj@Base 15.07.90
 _ZNK5GpgME7Context18lastEditInteractorEv@Base 15.07.90
 _ZNK5GpgME7Context18passphraseProviderEv@Base 15.07.90
 _ZNK5GpgME7Context18signatureNotationsEv@Base 15.07.90
 _ZNK5GpgME7Context18signaturePolicyURLEv@Base 15.07.90
 _ZNK5GpgME7Context18verificationResultEv@Base 15.07.90
 _ZNK5GpgME7Context19includeCertificatesEv@Base 15.07.90
 _ZNK5GpgME7Context19keyGenerationResultEv@Base 15.07.90
 _ZNK5GpgME7Context21lastAssuanTransactionEv@Base 15.07.90
 _ZNK5GpgME7Context22lastCardEditInteractorEv@Base 15.07.90
 _ZNK5GpgME7Context28managedByEventLoopInteractorEv@Base 15.07.90
 _ZNK5GpgME7Context5armorEv@Base 15.07.90
 _ZNK5GpgME7Context7offlineEv@Base 15.08.1+git20150917.1103+15.10
 _ZNK5GpgME7Context8protocolEv@Base 15.07.90
 _ZNK5GpgME7Context8textModeEv@Base 15.07.90
 _ZNK5GpgME7Context9lastErrorEv@Base 15.07.90
 _ZNK5GpgME8Notation10isCriticalEv@Base 15.07.90
 _ZNK5GpgME8Notation15isHumanReadableEv@Base 15.07.90
 _ZNK5GpgME8Notation4nameEv@Base 15.07.90
 _ZNK5GpgME8Notation5flagsEv@Base 15.07.90
 _ZNK5GpgME8Notation5valueEv@Base 15.07.90
 _ZNK5GpgME8Notation6isNullEv@Base 15.07.90
 _ZNK5GpgME9Signature10pkaAddressEv@Base 15.07.90
 _ZNK5GpgME9Signature11fingerprintEv@Base 15.07.90
 _ZNK5GpgME9Signature12creationTimeEv@Base 15.07.90
 _ZNK5GpgME9Signature12neverExpiresEv@Base 15.07.90
 _ZNK5GpgME9Signature13hashAlgorithmEv@Base 15.07.90
 _ZNK5GpgME9Signature14expirationTimeEv@Base 15.07.90
 _ZNK5GpgME9Signature15isWrongKeyUsageEv@Base 15.07.90
 _ZNK5GpgME9Signature16validityAsStringEv@Base 15.07.90
 _ZNK5GpgME9Signature17nonValidityReasonEv@Base 15.07.90
 _ZNK5GpgME9Signature18publicKeyAlgorithmEv@Base 15.07.90
 _ZNK5GpgME9Signature21hashAlgorithmAsStringEv@Base 15.07.90
 _ZNK5GpgME9Signature25isVerifiedUsingChainModelEv@Base 15.07.90
 _ZNK5GpgME9Signature26publicKeyAlgorithmAsStringEv@Base 15.07.90
 _ZNK5GpgME9Signature6isNullEv@Base 15.07.90
 _ZNK5GpgME9Signature6statusEv@Base 15.07.90
 _ZNK5GpgME9Signature7summaryEv@Base 15.07.90
 _ZNK5GpgME9Signature8notationEj@Base 15.07.90
 _ZNK5GpgME9Signature8validityEv@Base 15.07.90
 _ZNK5GpgME9Signature9notationsEv@Base 15.07.90
 _ZNK5GpgME9Signature9pkaStatusEv@Base 15.07.90
 _ZNK5GpgME9Signature9policyURLEv@Base 15.07.90
 _ZNK5GpgME9TrustItem10trustLevelEv@Base 15.07.90
 _ZNK5GpgME9TrustItem16validityAsStringEv@Base 15.07.90
 _ZNK5GpgME9TrustItem18ownerTrustAsStringEv@Base 15.07.90
 _ZNK5GpgME9TrustItem4implEv@Base 15.07.90
 _ZNK5GpgME9TrustItem4typeEv@Base 15.07.90
 _ZNK5GpgME9TrustItem5keyIDEv@Base 15.07.90
 _ZNK5GpgME9TrustItem6isNullEv@Base 15.07.90
 _ZNK5GpgME9TrustItem6userIDEv@Base 15.07.90
 _ZNSt6vectorIN5GpgME13Configuration6OptionESaIS2_EE19_M_emplace_back_auxIIS2_EEEvDpOT_@Base 15.07.90
 _ZNSt6vectorIN5GpgME13Configuration6OptionESaIS2_EE19_M_emplace_back_auxIJS2_EEEvDpOT_@Base 15.07.90
 _ZNSt6vectorIN5GpgME13Configuration6OptionESaIS2_EED1Ev@Base 15.07.90
 _ZNSt6vectorIN5GpgME13Configuration6OptionESaIS2_EED2Ev@Base 15.07.90
 _ZNSt6vectorIN5GpgME13Configuration9ComponentESaIS2_EE17_M_default_appendEm@Base 15.07.90
 _ZNSt6vectorIN5GpgME13Configuration9ComponentESaIS2_EED1Ev@Base 15.07.90
 _ZNSt6vectorIN5GpgME13Configuration9ComponentESaIS2_EED2Ev@Base 15.07.90
 _ZNSt6vectorIN5GpgME16CreatedSignatureESaIS1_EE19_M_emplace_back_auxIIS1_EEEvDpOT_@Base 15.07.90
 _ZNSt6vectorIN5GpgME16CreatedSignatureESaIS1_EE19_M_emplace_back_auxIJS1_EEEvDpOT_@Base 15.07.90
 _ZNSt6vectorIN5GpgME16CreatedSignatureESaIS1_EED1Ev@Base 15.07.90
 _ZNSt6vectorIN5GpgME16CreatedSignatureESaIS1_EED2Ev@Base 15.07.90
 _ZNSt6vectorIN5GpgME16DecryptionResult9RecipientESaIS2_EE19_M_emplace_back_auxIIS2_EEEvDpOT_@Base 15.07.90
 _ZNSt6vectorIN5GpgME16DecryptionResult9RecipientESaIS2_EE19_M_emplace_back_auxIJS2_EEEvDpOT_@Base 15.07.90
 _ZNSt6vectorIN5GpgME16DecryptionResult9RecipientESaIS2_EE7reserveEm@Base 15.07.90
 _ZNSt6vectorIN5GpgME16DecryptionResult9RecipientESaIS2_EED1Ev@Base 15.07.90
 _ZNSt6vectorIN5GpgME16DecryptionResult9RecipientESaIS2_EED2Ev@Base 15.07.90
 _ZNSt6vectorIN5GpgME16InvalidRecipientESaIS1_EE19_M_emplace_back_auxIIS1_EEEvDpOT_@Base 15.07.90
 _ZNSt6vectorIN5GpgME16InvalidRecipientESaIS1_EE19_M_emplace_back_auxIJS1_EEEvDpOT_@Base 15.07.90
 _ZNSt6vectorIN5GpgME16InvalidRecipientESaIS1_EE7reserveEm@Base 15.07.90
 _ZNSt6vectorIN5GpgME16InvalidRecipientESaIS1_EED1Ev@Base 15.07.90
 _ZNSt6vectorIN5GpgME16InvalidRecipientESaIS1_EED2Ev@Base 15.07.90
 _ZNSt6vectorIN5GpgME17InvalidSigningKeyESaIS1_EE19_M_emplace_back_auxIIS1_EEEvDpOT_@Base 15.07.90
 _ZNSt6vectorIN5GpgME17InvalidSigningKeyESaIS1_EE19_M_emplace_back_auxIJS1_EEEvDpOT_@Base 15.07.90
 _ZNSt6vectorIN5GpgME17InvalidSigningKeyESaIS1_EED1Ev@Base 15.07.90
 _ZNSt6vectorIN5GpgME17InvalidSigningKeyESaIS1_EED2Ev@Base 15.07.90
 _ZNSt6vectorIN5GpgME3KeyESaIS1_EE19_M_emplace_back_auxIIS1_EEEvDpOT_@Base 15.07.90
 _ZNSt6vectorIN5GpgME3KeyESaIS1_EE19_M_emplace_back_auxIJS1_EEEvDpOT_@Base 15.07.90
 _ZNSt6vectorIN5GpgME6ImportESaIS1_EE19_M_emplace_back_auxIIS1_EEEvDpOT_@Base 15.07.90
 _ZNSt6vectorIN5GpgME6ImportESaIS1_EE19_M_emplace_back_auxIJS1_EEEvDpOT_@Base 15.07.90
 _ZNSt6vectorIN5GpgME6ImportESaIS1_EE7reserveEm@Base 15.07.90
 _ZNSt6vectorIN5GpgME6ImportESaIS1_EED1Ev@Base 15.07.90
 _ZNSt6vectorIN5GpgME6ImportESaIS1_EED2Ev@Base 15.07.90
 _ZNSt6vectorIN5GpgME6SubkeyESaIS1_EE19_M_emplace_back_auxIIS1_EEEvDpOT_@Base 15.07.90
 _ZNSt6vectorIN5GpgME6SubkeyESaIS1_EE19_M_emplace_back_auxIJS1_EEEvDpOT_@Base 15.07.90
 _ZNSt6vectorIN5GpgME6SubkeyESaIS1_EED1Ev@Base 15.07.90
 _ZNSt6vectorIN5GpgME6SubkeyESaIS1_EED2Ev@Base 15.07.90
 _ZNSt6vectorIN5GpgME6UserID9SignatureESaIS2_EE19_M_emplace_back_auxIIS2_EEEvDpOT_@Base 15.07.90
 _ZNSt6vectorIN5GpgME6UserID9SignatureESaIS2_EE19_M_emplace_back_auxIJS2_EEEvDpOT_@Base 15.07.90
 _ZNSt6vectorIN5GpgME6UserID9SignatureESaIS2_EE7reserveEm@Base 15.07.90
 _ZNSt6vectorIN5GpgME6UserID9SignatureESaIS2_EED1Ev@Base 15.07.90
 _ZNSt6vectorIN5GpgME6UserID9SignatureESaIS2_EED2Ev@Base 15.07.90
 _ZNSt6vectorIN5GpgME6UserIDESaIS1_EE19_M_emplace_back_auxIIS1_EEEvDpOT_@Base 15.07.90
 _ZNSt6vectorIN5GpgME6UserIDESaIS1_EE19_M_emplace_back_auxIJS1_EEEvDpOT_@Base 15.07.90
 _ZNSt6vectorIN5GpgME6UserIDESaIS1_EED1Ev@Base 15.07.90
 _ZNSt6vectorIN5GpgME6UserIDESaIS1_EED2Ev@Base 15.07.90
 _ZNSt6vectorIN5GpgME8NotationESaIS1_EE19_M_emplace_back_auxIIS1_EEEvDpOT_@Base 15.07.90
 _ZNSt6vectorIN5GpgME8NotationESaIS1_EE19_M_emplace_back_auxIJS1_EEEvDpOT_@Base 15.07.90
 _ZNSt6vectorIN5GpgME8NotationESaIS1_EE7reserveEm@Base 15.07.90
 _ZNSt6vectorIN5GpgME8NotationESaIS1_EED1Ev@Base 15.07.90
 _ZNSt6vectorIN5GpgME8NotationESaIS1_EED2Ev@Base 15.07.90
 _ZNSt6vectorIN5GpgME9SignatureESaIS1_EED1Ev@Base 15.07.90
 _ZNSt6vectorIN5GpgME9SignatureESaIS1_EED2Ev@Base 15.07.90
 _ZNSt6vectorINSt7__cxx1112basic_stringIcSt11char_traitsIcESaIcEEESaIS5_EE19_M_emplace_back_auxIIRKS5_EEEvDpOT_@Base 15.07.90
 _ZNSt6vectorINSt7__cxx1112basic_stringIcSt11char_traitsIcESaIcEEESaIS5_EE19_M_emplace_back_auxIIS5_EEEvDpOT_@Base 15.07.90
 _ZNSt6vectorINSt7__cxx1112basic_stringIcSt11char_traitsIcESaIcEEESaIS5_EE19_M_emplace_back_auxIJRKS5_EEEvDpOT_@Base 15.07.90
 _ZNSt6vectorINSt7__cxx1112basic_stringIcSt11char_traitsIcESaIcEEESaIS5_EE19_M_emplace_back_auxIJS5_EEEvDpOT_@Base 15.07.90
 _ZNSt6vectorIPKcSaIS1_EE12emplace_backIIS1_EEEvDpOT_@Base 15.07.90
 _ZNSt6vectorIPKcSaIS1_EE12emplace_backIJS1_EEEvDpOT_@Base 15.07.90
 _ZNSt6vectorIPKcSaIS1_EE19_M_emplace_back_auxIIS1_EEEvDpOT_@Base 15.07.90
 _ZNSt6vectorIPKcSaIS1_EE19_M_emplace_back_auxIJS1_EEEvDpOT_@Base 15.07.90
 _ZNSt6vectorIPN5GpgME19EventLoopInteractor7Private5OneFDESaIS4_EE19_M_emplace_back_auxIIS4_EEEvDpOT_@Base 15.07.90
 _ZNSt6vectorIPN5GpgME19EventLoopInteractor7Private5OneFDESaIS4_EE19_M_emplace_back_auxIJS4_EEEvDpOT_@Base 15.07.90
 _ZNSt6vectorIPcSaIS0_EE19_M_emplace_back_auxIIS0_EEEvDpOT_@Base 15.07.90
 _ZNSt6vectorIPcSaIS0_EE19_M_emplace_back_auxIJS0_EEEvDpOT_@Base 15.07.90
 _ZNSt6vectorIS_IN5GpgME18VerificationResult7Private4NotaESaIS3_EESaIS5_EE19_M_emplace_back_auxIIS5_EEEvDpOT_@Base 15.07.90
 _ZNSt6vectorIS_IN5GpgME18VerificationResult7Private4NotaESaIS3_EESaIS5_EE19_M_emplace_back_auxIJS5_EEEvDpOT_@Base 15.07.90
 _ZNSt6vectorISt4pairINSt7__cxx1112basic_stringIcSt11char_traitsIcESaIcEEES6_ESaIS7_EE19_M_emplace_back_auxIIS7_EEEvDpOT_@Base 15.07.90
 _ZNSt6vectorISt4pairINSt7__cxx1112basic_stringIcSt11char_traitsIcESaIcEEES6_ESaIS7_EE19_M_emplace_back_auxIJS7_EEEvDpOT_@Base 15.07.90
 _ZNSt6vectorIiSaIiEE19_M_emplace_back_auxIIRKiEEEvDpOT_@Base 15.07.90
 _ZNSt6vectorIiSaIiEE19_M_emplace_back_auxIJRKiEEEvDpOT_@Base 15.07.90
 _ZNSt6vectorIjSaIjEE19_M_emplace_back_auxIIRKjEEEvDpOT_@Base 15.07.90
 _ZNSt6vectorIjSaIjEE19_M_emplace_back_auxIJRKjEEEvDpOT_@Base 15.07.90
 _ZNSt6vectorIjSaIjEEaSERKS1_@Base 15.07.90
 _ZTIN5GpgME14EditInteractorE@Base 15.07.90
 _ZTIN5GpgME17AssuanTransactionE@Base 15.07.90
 _ZTIN5GpgME19EventLoopInteractorE@Base 15.07.90
 _ZTIN5GpgME24DefaultAssuanTransactionE@Base 15.07.90
 _ZTIN5GpgME24GpgSignKeyEditInteractorE@Base 15.07.90
 _ZTIN5GpgME26GpgAddUserIDEditInteractorE@Base 15.07.90
 _ZTIN5GpgME27ScdGetInfoAssuanTransactionE@Base 15.07.90
 _ZTIN5GpgME30GpgSetExpiryTimeEditInteractorE@Base 15.07.90
 _ZTIN5GpgME30GpgSetOwnerTrustEditInteractorE@Base 15.07.90
 _ZTIN5GpgME32GpgAgentGetInfoAssuanTransactionE@Base 15.07.90
 _ZTIN5GpgME7ContextE@Base 15.07.90
 _ZTIN5GpgME9ExceptionE@Base 15.07.90
 _ZTIN5GpgME9TrustItemE@Base 15.07.90
 _ZTIN5boost16exception_detail10clone_baseE@Base 15.07.90
 _ZTIN5boost9exceptionE@Base 15.07.90
 _ZTSN5GpgME14EditInteractorE@Base 15.07.90
 _ZTSN5GpgME17AssuanTransactionE@Base 15.07.90
 _ZTSN5GpgME19EventLoopInteractorE@Base 15.07.90
 _ZTSN5GpgME24DefaultAssuanTransactionE@Base 15.07.90
 _ZTSN5GpgME24GpgSignKeyEditInteractorE@Base 15.07.90
 _ZTSN5GpgME26GpgAddUserIDEditInteractorE@Base 15.07.90
 _ZTSN5GpgME27ScdGetInfoAssuanTransactionE@Base 15.07.90
 _ZTSN5GpgME30GpgSetExpiryTimeEditInteractorE@Base 15.07.90
 _ZTSN5GpgME30GpgSetOwnerTrustEditInteractorE@Base 15.07.90
 _ZTSN5GpgME32GpgAgentGetInfoAssuanTransactionE@Base 15.07.90
 _ZTSN5GpgME7ContextE@Base 15.07.90
 _ZTSN5GpgME9ExceptionE@Base 15.07.90
 _ZTSN5GpgME9TrustItemE@Base 15.07.90
 _ZTSN5boost16exception_detail10clone_baseE@Base 15.07.90
 _ZTSN5boost9exceptionE@Base 15.07.90
 _ZTVN5GpgME14EditInteractorE@Base 15.07.90
 _ZTVN5GpgME19EventLoopInteractorE@Base 15.07.90
 _ZTVN5GpgME24DefaultAssuanTransactionE@Base 15.07.90
 _ZTVN5GpgME24GpgSignKeyEditInteractorE@Base 15.07.90
 _ZTVN5GpgME26GpgAddUserIDEditInteractorE@Base 15.07.90
 _ZTVN5GpgME27ScdGetInfoAssuanTransactionE@Base 15.07.90
 _ZTVN5GpgME30GpgSetExpiryTimeEditInteractorE@Base 15.07.90
 _ZTVN5GpgME30GpgSetOwnerTrustEditInteractorE@Base 15.07.90
 _ZTVN5GpgME32GpgAgentGetInfoAssuanTransactionE@Base 15.07.90
 _ZTVN5GpgME7ContextE@Base 15.07.90
 _ZTVN5GpgME9ExceptionE@Base 15.07.90
 _ZTVN5GpgME9TrustItemE@Base 15.07.90
 _ZTVN5boost16exception_detail10clone_baseE@Base 15.07.90
 _ZTVN5boost9exceptionE@Base 15.07.90
