libKF5Mbox.so.5 libkf5mbox5 #MINVER#
 _ZN5KMBox4MBox11readMessageERKNS_9MBoxEntryE@Base 15.07.90
 _ZN5KMBox4MBox11setLockFileERK7QString@Base 15.07.90
 _ZN5KMBox4MBox11setLockTypeENS0_8LockTypeE@Base 15.07.90
 _ZN5KMBox4MBox11setReadOnlyEb@Base 15.07.90
 _ZN5KMBox4MBox13appendMessageERK14QSharedPointerIN5KMime7MessageEE@Base 15.12.0
 _ZN5KMBox4MBox14readRawMessageERKNS_9MBoxEntryE@Base 15.07.90
 _ZN5KMBox4MBox16setUnlockTimeoutEi@Base 15.07.90
 _ZN5KMBox4MBox18readMessageHeadersERKNS_9MBoxEntryE@Base 15.07.90
 _ZN5KMBox4MBox4loadERK7QString@Base 15.07.90
 _ZN5KMBox4MBox4lockEv@Base 15.07.90
 _ZN5KMBox4MBox4saveERK7QString@Base 15.07.90
 _ZN5KMBox4MBox5purgeERK7QVectorINS_9MBoxEntryEEP5QListI5QPairIS2_S2_EE@Base 15.07.90
 _ZN5KMBox4MBox6unlockEv@Base 15.07.90
 _ZN5KMBox4MBoxC1Ev@Base 15.07.90
 _ZN5KMBox4MBoxC2Ev@Base 15.07.90
 _ZN5KMBox4MBoxD1Ev@Base 15.07.90
 _ZN5KMBox4MBoxD2Ev@Base 15.07.90
 _ZN5KMBox9MBoxEntryC1ERKS0_@Base 15.07.90
 _ZN5KMBox9MBoxEntryC1Ev@Base 15.07.90
 _ZN5KMBox9MBoxEntryC1Ey@Base 15.07.90
 _ZN5KMBox9MBoxEntryC2ERKS0_@Base 15.07.90
 _ZN5KMBox9MBoxEntryC2Ev@Base 15.07.90
 _ZN5KMBox9MBoxEntryC2Ey@Base 15.07.90
 _ZN5KMBox9MBoxEntryD1Ev@Base 15.07.90
 _ZN5KMBox9MBoxEntryD2Ev@Base 15.07.90
 _ZN5KMBox9MBoxEntryaSERKS0_@Base 15.07.90
 _ZNK5KMBox4MBox10isReadOnlyEv@Base 15.07.90
 _ZNK5KMBox4MBox6lockedEv@Base 15.07.90
 _ZNK5KMBox4MBox7entriesERK7QVectorINS_9MBoxEntryEE@Base 15.07.90
 _ZNK5KMBox4MBox8fileNameEv@Base 15.07.90
 _ZNK5KMBox9MBoxEntry11messageSizeEv@Base 15.07.90
 _ZNK5KMBox9MBoxEntry13messageOffsetEv@Base 15.07.90
 _ZNK5KMBox9MBoxEntry13separatorSizeEv@Base 15.07.90
 _ZNK5KMBox9MBoxEntry7isValidEv@Base 15.07.90
 _ZNK5KMBox9MBoxEntryeqERKS0_@Base 15.07.90
 _ZNK5KMBox9MBoxEntryneERKS0_@Base 15.07.90
