KF5IdleTimeXcbPlugin0.so libkf5idletime5 #MINVER#
 qt_plugin_instance@Base 5.13.0
 qt_plugin_query_metadata@Base 5.13.0
KF5IdleTimeXcbPlugin1.so libkf5idletime5 #MINVER#
 qt_plugin_instance@Base 5.13.0
 qt_plugin_query_metadata@Base 5.13.0
libKF5IdleTime.so.5 libkf5idletime5 #MINVER#
 _ZN17WidgetBasedPoller10addTimeoutEi@Base 5.13.0
 _ZN17WidgetBasedPoller11eventFilterEP7QObjectP6QEvent@Base 5.13.0
 _ZN17WidgetBasedPoller11isAvailableEv@Base 5.13.0
 _ZN17WidgetBasedPoller11qt_metacallEN11QMetaObject4CallEiPPv@Base 5.13.0
 _ZN17WidgetBasedPoller11qt_metacastEPKc@Base 5.13.0
 _ZN17WidgetBasedPoller11setUpPollerEv@Base 5.13.0
 _ZN17WidgetBasedPoller12unloadPollerEv@Base 5.13.0
 _ZN17WidgetBasedPoller13removeTimeoutEi@Base 5.13.0
 _ZN17WidgetBasedPoller14catchIdleEventEv@Base 5.13.0
 _ZN17WidgetBasedPoller15waitForActivityEv@Base 5.13.0
 _ZN17WidgetBasedPoller16detectedActivityEv@Base 5.13.0
 _ZN17WidgetBasedPoller16forcePollRequestEv@Base 5.13.0
 _ZN17WidgetBasedPoller16releaseInputLockEv@Base 5.13.0
 _ZN17WidgetBasedPoller16staticMetaObjectE@Base 5.13.0
 _ZN17WidgetBasedPoller22stopCatchingIdleEventsEv@Base 5.13.0
 _ZN17WidgetBasedPoller4pollEv@Base 5.13.0
 _ZN17WidgetBasedPollerC1EP7QObject@Base 5.13.0
 _ZN17WidgetBasedPollerC2EP7QObject@Base 5.13.0
 _ZN17WidgetBasedPollerD0Ev@Base 5.13.0
 _ZN17WidgetBasedPollerD1Ev@Base 5.13.0
 _ZN17WidgetBasedPollerD2Ev@Base 5.13.0
 _ZN20AbstractSystemPoller11qt_metacallEN11QMetaObject4CallEiPPv@Base 5.13.0
 _ZN20AbstractSystemPoller11qt_metacastEPKc@Base 5.13.0
 _ZN20AbstractSystemPoller14timeoutReachedEi@Base 5.13.0
 _ZN20AbstractSystemPoller16resumingFromIdleEv@Base 5.13.0
 _ZN20AbstractSystemPoller16staticMetaObjectE@Base 5.13.0
 _ZN20AbstractSystemPollerC1EP7QObject@Base 5.13.0
 _ZN20AbstractSystemPollerC2EP7QObject@Base 5.13.0
 _ZN20AbstractSystemPollerD0Ev@Base 5.13.0
 _ZN20AbstractSystemPollerD1Ev@Base 5.13.0
 _ZN20AbstractSystemPollerD2Ev@Base 5.13.0
 _ZN9KIdleTime11qt_metacallEN11QMetaObject4CallEiPPv@Base 4.96.0
 _ZN9KIdleTime11qt_metacastEPKc@Base 4.96.0
 _ZN9KIdleTime14addIdleTimeoutEi@Base 4.96.0
 _ZN9KIdleTime14timeoutReachedEi@Base 4.96.0
 _ZN9KIdleTime14timeoutReachedEii@Base 4.96.0
 _ZN9KIdleTime16resumingFromIdleEv@Base 4.96.0
 _ZN9KIdleTime16staticMetaObjectE@Base 4.96.0
 _ZN9KIdleTime17removeIdleTimeoutEi@Base 4.96.0
 _ZN9KIdleTime20catchNextResumeEventEv@Base 4.96.0
 _ZN9KIdleTime20simulateUserActivityEv@Base 4.96.0
 _ZN9KIdleTime21removeAllIdleTimeoutsEv@Base 4.96.0
 _ZN9KIdleTime23stopCatchingResumeEventEv@Base 4.96.0
 _ZN9KIdleTime8instanceEv@Base 4.96.0
 _ZN9KIdleTimeC1Ev@Base 4.96.0
 _ZN9KIdleTimeC2Ev@Base 4.96.0
 _ZN9KIdleTimeD0Ev@Base 4.96.0
 _ZN9KIdleTimeD1Ev@Base 4.96.0
 _ZN9KIdleTimeD2Ev@Base 4.96.0
 _ZNK17WidgetBasedPoller10metaObjectEv@Base 5.13.0
 _ZNK17WidgetBasedPoller8timeoutsEv@Base 5.13.0
 _ZNK20AbstractSystemPoller10metaObjectEv@Base 5.13.0
 _ZNK9KIdleTime10metaObjectEv@Base 4.96.0
 _ZNK9KIdleTime12idleTimeoutsEv@Base 4.96.0
 _ZNK9KIdleTime8idleTimeEv@Base 4.96.0
 _ZTI17WidgetBasedPoller@Base 5.13.0
 _ZTI20AbstractSystemPoller@Base 5.13.0
 _ZTI9KIdleTime@Base 4.96.0
 _ZTS17WidgetBasedPoller@Base 5.13.0
 _ZTS20AbstractSystemPoller@Base 5.13.0
 _ZTS9KIdleTime@Base 4.96.0
 _ZTV17WidgetBasedPoller@Base 5.13.0
 _ZTV20AbstractSystemPoller@Base 5.13.0
 _ZTV9KIdleTime@Base 4.96.0
