libKF5TextWidgets.so.5 libkf5textwidgets5 #MINVER#
 _ZN11KFindDialog10setOptionsEl@Base 4.96.0
 _ZN11KFindDialog10setPatternERK7QString@Base 4.96.0
 _ZN11KFindDialog11qt_metacallEN11QMetaObject4CallEiPPv@Base 4.96.0
 _ZN11KFindDialog11qt_metacastEPKc@Base 4.96.0
 _ZN11KFindDialog12setHasCursorEb@Base 4.96.0
 _ZN11KFindDialog13cancelClickedEv@Base 5.1.0
 _ZN11KFindDialog14optionsChangedEv@Base 4.96.0
 _ZN11KFindDialog14setFindHistoryERK11QStringList@Base 4.96.0
 _ZN11KFindDialog15setHasSelectionEb@Base 4.96.0
 _ZN11KFindDialog16staticMetaObjectE@Base 4.96.0
 _ZN11KFindDialog18KFindDialogPrivate13_k_slotRejectEv@Base 5.1.0
 _ZN11KFindDialog18KFindDialogPrivate15_k_showPatternsEv@Base 4.96.0
 _ZN11KFindDialog18KFindDialogPrivate19_k_showPlaceholdersEv@Base 4.96.0
 _ZN11KFindDialog18KFindDialogPrivate20_k_textSearchChangedERK7QString@Base 4.96.0
 _ZN11KFindDialog18KFindDialogPrivate26_k_slotSelectedTextToggledEb@Base 4.96.0
 _ZN11KFindDialog18KFindDialogPrivate30_k_slotPlaceholdersAboutToShowEv@Base 4.96.0
 _ZN11KFindDialog18KFindDialogPrivate4initEbRK11QStringListb@Base 4.96.0
 _ZN11KFindDialog18KFindDialogPrivate9_k_slotOkEv@Base 4.96.0
 _ZN11KFindDialog24setSupportsBackwardsFindEb@Base 4.96.0
 _ZN11KFindDialog25setSupportsWholeWordsFindEb@Base 4.96.0
 _ZN11KFindDialog28setSupportsCaseSensitiveFindEb@Base 4.96.0
 _ZN11KFindDialog32setSupportsRegularExpressionFindEb@Base 4.96.0
 _ZN11KFindDialog9okClickedEv@Base 5.1.0
 _ZN11KFindDialog9showEventEP10QShowEvent@Base 4.96.0
 _ZN11KFindDialogC1EP7QWidgetlRK11QStringListbb@Base 4.96.0
 _ZN11KFindDialogC2EP7QWidgetlRK11QStringListbb@Base 4.96.0
 _ZN11KFindDialogD0Ev@Base 4.96.0
 _ZN11KFindDialogD1Ev@Base 4.96.0
 _ZN11KFindDialogD2Ev@Base 4.96.0
 _ZN13KRichTextEdit10alignRightEv@Base 4.96.0
 _ZN13KRichTextEdit10updateLinkERK7QStringS2_@Base 4.96.0
 _ZN13KRichTextEdit11alignCenterEv@Base 4.96.0
 _ZN13KRichTextEdit11qt_metacallEN11QMetaObject4CallEiPPv@Base 4.96.0
 _ZN13KRichTextEdit11qt_metacastEPKc@Base 4.96.0
 _ZN13KRichTextEdit11setFontSizeEi@Base 4.96.0
 _ZN13KRichTextEdit11setTextBoldEb@Base 4.96.0
 _ZN13KRichTextEdit12alignJustifyEv@Base 4.96.0
 _ZN13KRichTextEdit12setListStyleEi@Base 4.96.0
 _ZN13KRichTextEdit13keyPressEventEP9QKeyEvent@Base 4.96.0
 _ZN13KRichTextEdit13setFontFamilyERK7QString@Base 4.96.0
 _ZN13KRichTextEdit13setTextItalicEb@Base 4.96.0
 _ZN13KRichTextEdit13setTextOrHtmlERK7QString@Base 4.96.0
 _ZN13KRichTextEdit14indentListLessEv@Base 4.96.0
 _ZN13KRichTextEdit14indentListMoreEv@Base 4.96.0
 _ZN13KRichTextEdit15makeLeftToRightEv@Base 4.96.0
 _ZN13KRichTextEdit15makeRightToLeftEv@Base 4.96.0
 _ZN13KRichTextEdit15textModeChangedENS_4ModeE@Base 4.96.0
 _ZN13KRichTextEdit16setTextStrikeOutEb@Base 4.96.0
 _ZN13KRichTextEdit16setTextSubScriptEb@Base 4.96.0
 _ZN13KRichTextEdit16setTextUnderlineEb@Base 4.96.0
 _ZN13KRichTextEdit16staticMetaObjectE@Base 4.96.0
 _ZN13KRichTextEdit17selectionFinishedEv@Base 4.96.0
 _ZN13KRichTextEdit17switchToPlainTextEv@Base 4.96.0
 _ZN13KRichTextEdit18enableRichTextModeEv@Base 4.96.0
 _ZN13KRichTextEdit18setTextSuperScriptEb@Base 4.96.0
 _ZN13KRichTextEdit20insertHorizontalRuleEv@Base 4.96.0
 _ZN13KRichTextEdit22setTextBackgroundColorERK6QColor@Base 4.96.0
 _ZN13KRichTextEdit22setTextForegroundColorERK6QColor@Base 4.96.0
 _ZN13KRichTextEdit29insertPlainTextImplementationEv@Base 4.96.0
 _ZN13KRichTextEdit7setFontERK5QFont@Base 4.96.0
 _ZN13KRichTextEdit9alignLeftEv@Base 4.96.0
 _ZN13KRichTextEditC1EP7QWidget@Base 4.96.0
 _ZN13KRichTextEditC1ERK7QStringP7QWidget@Base 4.96.0
 _ZN13KRichTextEditC2EP7QWidget@Base 4.96.0
 _ZN13KRichTextEditC2ERK7QStringP7QWidget@Base 4.96.0
 _ZN13KRichTextEditD0Ev@Base 4.96.0
 _ZN13KRichTextEditD1Ev@Base 4.96.0
 _ZN13KRichTextEditD2Ev@Base 4.96.0
 _ZN14KReplaceDialog10setOptionsEl@Base 4.96.0
 _ZN14KReplaceDialog11qt_metacallEN11QMetaObject4CallEiPPv@Base 4.96.0
 _ZN14KReplaceDialog11qt_metacastEPKc@Base 4.96.0
 _ZN14KReplaceDialog16staticMetaObjectE@Base 4.96.0
 _ZN14KReplaceDialog21setReplacementHistoryERK11QStringList@Base 4.96.0
 _ZN14KReplaceDialog9showEventEP10QShowEvent@Base 4.96.0
 _ZN14KReplaceDialogC1EP7QWidgetlRK11QStringListS4_b@Base 4.96.0
 _ZN14KReplaceDialogC2EP7QWidgetlRK11QStringListS4_b@Base 4.96.0
 _ZN14KReplaceDialogD0Ev@Base 4.96.0
 _ZN14KReplaceDialogD1Ev@Base 4.96.0
 _ZN14KReplaceDialogD2Ev@Base 4.96.0
 _ZN15KRichTextWidget11qt_metacallEN11QMetaObject4CallEiPPv@Base 4.96.0
 _ZN15KRichTextWidget11qt_metacastEPKc@Base 4.96.0
 _ZN15KRichTextWidget13createActionsEv@Base 4.96.0
 _ZN15KRichTextWidget16staticMetaObjectE@Base 4.96.0
 _ZN15KRichTextWidget17mouseReleaseEventEP11QMouseEvent@Base 4.96.0
 _ZN15KRichTextWidget17setActionsEnabledEb@Base 4.96.0
 _ZN15KRichTextWidget18setRichTextSupportERK6QFlagsINS_21RichTextSupportValuesEE@Base 4.96.0
 _ZN15KRichTextWidget18updateActionStatesEv@Base 4.96.0
 _ZN15KRichTextWidget7Private13_k_manageLinkEv@Base 4.96.0
 _ZN15KRichTextWidget7Private15_k_setListStyleEi@Base 4.96.0
 _ZN15KRichTextWidget7Private16_k_formatPainterEb@Base 4.96.0
 _ZN15KRichTextWidget7Private20_k_updateMiscActionsEv@Base 4.96.0
 _ZN15KRichTextWidget7Private25_k_setTextBackgroundColorEv@Base 4.96.0
 _ZN15KRichTextWidget7Private25_k_setTextForegroundColorEv@Base 4.96.0
 _ZN15KRichTextWidget7Private26_k_updateCharFormatActionsERK15QTextCharFormat@Base 4.96.0
 _ZN15KRichTextWidget7Private4initEv@Base 4.96.0
 _ZN15KRichTextWidgetC1EP7QWidget@Base 4.96.0
 _ZN15KRichTextWidgetC1ERK7QStringP7QWidget@Base 4.96.0
 _ZN15KRichTextWidgetC2EP7QWidget@Base 4.96.0
 _ZN15KRichTextWidgetC2ERK7QStringP7QWidget@Base 4.96.0
 _ZN15KRichTextWidgetD0Ev@Base 4.96.0
 _ZN15KRichTextWidgetD1Ev@Base 4.96.0
 _ZN15KRichTextWidgetD2Ev@Base 4.96.0
 _ZN22KPluralHandlingSpinBox11qt_metacallEN11QMetaObject4CallEiPPv@Base 5.0.0
 _ZN22KPluralHandlingSpinBox11qt_metacastEPKc@Base 5.0.0
 _ZN22KPluralHandlingSpinBox16staticMetaObjectE@Base 5.0.0
 _ZN22KPluralHandlingSpinBox9setSuffixERK16KLocalizedString@Base 5.0.0
 _ZN22KPluralHandlingSpinBoxC1EP7QWidget@Base 5.0.0
 _ZN22KPluralHandlingSpinBoxC2EP7QWidget@Base 5.0.0
 _ZN22KPluralHandlingSpinBoxD0Ev@Base 5.0.0
 _ZN22KPluralHandlingSpinBoxD1Ev@Base 5.0.0
 _ZN22KPluralHandlingSpinBoxD2Ev@Base 5.0.0
 _ZN5KFind10setOptionsEl@Base 4.96.0
 _ZN5KFind10setPatternERK7QString@Base 4.96.0
 _ZN5KFind11qt_metacallEN11QMetaObject4CallEiPPv@Base 4.96.0
 _ZN5KFind11qt_metacastEPKc@Base 4.96.0
 _ZN5KFind11resetCountsEv@Base 4.96.0
 _ZN5KFind12dialogClosedEv@Base 4.96.0
 _ZN5KFind13validateMatchERK7QStringii@Base 4.96.0
 _ZN5KFind14findNextDialogEb@Base 4.96.0
 _ZN5KFind14optionsChangedEv@Base 4.96.0
 _ZN5KFind16staticMetaObjectE@Base 4.96.0
 _ZN5KFind19closeFindNextDialogEv@Base 4.96.0
 _ZN5KFind4findERK7QStringRK7QRegExpilPi@Base 4.96.0
 _ZN5KFind4findERK7QStringS2_ilPi@Base 4.96.0
 _ZN5KFind4findEv@Base 4.96.0
 _ZN5KFind7Private15_k_slotFindNextEv@Base 4.96.0
 _ZN5KFind7Private19_k_slotDialogClosedEv@Base 4.96.0
 _ZN5KFind7Private25startNewIncrementalSearchEv@Base 4.96.0
 _ZN5KFind7Private4initERK7QString@Base 4.96.0
 _ZN5KFind7setDataERK7QStringi@Base 4.96.0
 _ZN5KFind7setDataEiRK7QStringi@Base 4.96.0
 _ZN5KFind8findNextEv@Base 4.96.0
 _ZN5KFind9highlightERK7QStringii@Base 4.96.0
 _ZN5KFind9highlightEiii@Base 4.96.0
 _ZN5KFindC1ERK7QStringlP7QWidget@Base 4.96.0
 _ZN5KFindC1ERK7QStringlP7QWidgetS4_@Base 4.96.0
 _ZN5KFindC2ERK7QStringlP7QWidget@Base 4.96.0
 _ZN5KFindC2ERK7QStringlP7QWidgetS4_@Base 4.96.0
 _ZN5KFindD0Ev@Base 4.96.0
 _ZN5KFindD1Ev@Base 4.96.0
 _ZN5KFindD2Ev@Base 4.96.0
 _ZN8KReplace11qt_metacallEN11QMetaObject4CallEiPPv@Base 4.96.0
 _ZN8KReplace11qt_metacastEPKc@Base 4.96.0
 _ZN8KReplace11resetCountsEv@Base 4.96.0
 _ZN8KReplace16staticMetaObjectE@Base 4.96.0
 _ZN8KReplace17replaceNextDialogEb@Base 4.96.0
 _ZN8KReplace22closeReplaceNextDialogEv@Base 4.96.0
 _ZN8KReplace7replaceER7QStringRK7QRegExpRKS0_ilPi@Base 4.96.0
 _ZN8KReplace7replaceER7QStringRKS0_S3_ilPi@Base 4.96.0
 _ZN8KReplace7replaceERK7QStringiii@Base 4.96.0
 _ZN8KReplace7replaceEv@Base 4.96.0
 _ZN8KReplaceC1ERK7QStringS2_lP7QWidget@Base 4.96.0
 _ZN8KReplaceC1ERK7QStringS2_lP7QWidgetS4_@Base 4.96.0
 _ZN8KReplaceC2ERK7QStringS2_lP7QWidget@Base 4.96.0
 _ZN8KReplaceC2ERK7QStringS2_lP7QWidgetS4_@Base 4.96.0
 _ZN8KReplaceD0Ev@Base 4.96.0
 _ZN8KReplaceD1Ev@Base 4.96.0
 _ZN8KReplaceD2Ev@Base 4.96.0
 _ZN9KTextEdit10slotDoFindEv@Base 4.96.0
 _ZN9KTextEdit11qt_metacallEN11QMetaObject4CallEiPPv@Base 4.96.0
 _ZN9KTextEdit11qt_metacastEPKc@Base 4.96.0
 _ZN9KTextEdit11setReadOnlyEb@Base 4.96.0
 _ZN9KTextEdit11slotReplaceEv@Base 4.96.0
 _ZN9KTextEdit12focusInEventEP11QFocusEvent@Base 4.96.0
 _ZN9KTextEdit12slotFindNextEv@Base 4.96.0
 _ZN9KTextEdit13checkSpellingEv@Base 4.96.0
 _ZN9KTextEdit13highlightWordEii@Base 4.96.0
 _ZN9KTextEdit13keyPressEventEP9QKeyEvent@Base 4.96.0
 _ZN9KTextEdit13showTabActionEb@Base 4.96.0
 _ZN9KTextEdit13slotDoReplaceEv@Base 4.96.0
 _ZN9KTextEdit13slotSpeakTextEv@Base 4.96.0
 _ZN9KTextEdit14clearDecoratorEv@Base 5.11.0
 _ZN9KTextEdit14deleteWordBackEv@Base 4.96.0
 _ZN9KTextEdit14mousePopupMenuEv@Base 4.96.0
 _ZN9KTextEdit14setHighlighterEPN6Sonnet11HighlighterE@Base 4.96.0
 _ZN9KTextEdit15languageChangedERK7QString@Base 4.96.0
 _ZN9KTextEdit15slotReplaceNextEv@Base 4.96.0
 _ZN9KTextEdit16addTextDecoratorEPN6Sonnet19SpellCheckDecoratorE@Base 5.11.0
 _ZN9KTextEdit16contextMenuEventEP17QContextMenuEvent@Base 4.96.0
 _ZN9KTextEdit16slotFindPreviousEv@Base 5.11.0
 _ZN9KTextEdit16spellCheckStatusERK7QString@Base 4.96.0
 _ZN9KTextEdit16staticMetaObjectE@Base 4.96.0
 _ZN9KTextEdit17createHighlighterEv@Base 4.96.0
 _ZN9KTextEdit17deleteWordForwardEv@Base 4.96.0
 _ZN9KTextEdit17enableFindReplaceEb@Base 4.96.0
 _ZN9KTextEdit18forceSpellCheckingEv@Base 4.96.0
 _ZN9KTextEdit20checkSpellingChangedEb@Base 4.96.0
 _ZN9KTextEdit21showAutoCorrectButtonEb@Base 4.96.0
 _ZN9KTextEdit21showSpellConfigDialogERK7QString@Base 4.96.0
 _ZN9KTextEdit21spellCheckingCanceledEv@Base 4.96.0
 _ZN9KTextEdit21spellCheckingFinishedEv@Base 4.96.0
 _ZN9KTextEdit22aboutToShowContextMenuEP5QMenu@Base 4.96.0
 _ZN9KTextEdit23setCheckSpellingEnabledEb@Base 4.96.0
 _ZN9KTextEdit23spellCheckerAutoCorrectERK7QStringS2_@Base 4.96.0
 _ZN9KTextEdit24setSpellCheckingLanguageERK7QString@Base 4.96.0
 _ZN9KTextEdit5eventEP6QEvent@Base 4.96.0
 _ZN9KTextEdit7Private12slotAllowTabEv@Base 4.96.0
 _ZN9KTextEdit7Private13checkSpellingEb@Base 4.96.0
 _ZN9KTextEdit7Private13menuActivatedEP7QAction@Base 4.96.0
 _ZN9KTextEdit7Private13undoableClearEv@Base 4.96.0
 _ZN9KTextEdit7Private14handleShortcutEPK9QKeyEvent@Base 4.96.0
 _ZN9KTextEdit7Private15slotReplaceTextERK7QStringiii@Base 4.96.0
 _ZN9KTextEdit7Private16overrideShortcutEPK9QKeyEvent@Base 4.96.0
 _ZN9KTextEdit7Private17slotFindHighlightERK7QStringii@Base 4.96.0
 _ZN9KTextEdit7Private20spellCheckerCanceledEv@Base 4.96.0
 _ZN9KTextEdit7Private20spellCheckerFinishedEv@Base 4.96.0
 _ZN9KTextEdit7Private20toggleAutoSpellCheckEv@Base 4.96.0
 _ZN9KTextEdit7Private21spellCheckerCorrectedERK7QStringiS3_@Base 4.96.0
 _ZN9KTextEdit7Private23spellCheckerAutoCorrectERK7QStringS3_@Base 4.96.0
 _ZN9KTextEdit7Private23spellCheckerMisspellingERK7QStringi@Base 4.96.0
 _ZN9KTextEdit7Private4initEv@Base 4.96.0
 _ZN9KTextEdit7replaceEv@Base 4.96.0
 _ZN9KTextEdit8slotFindEv@Base 4.96.0
 _ZN9KTextEditC1EP7QWidget@Base 4.96.0
 _ZN9KTextEditC1ERK7QStringP7QWidget@Base 4.96.0
 _ZN9KTextEditC2EP7QWidget@Base 4.96.0
 _ZN9KTextEditC2ERK7QStringP7QWidget@Base 4.96.0
 _ZN9KTextEditD0Ev@Base 4.96.0
 _ZN9KTextEditD1Ev@Base 4.96.0
 _ZN9KTextEditD2Ev@Base 4.96.0
 _ZNK11KFindDialog10metaObjectEv@Base 4.96.0
 _ZNK11KFindDialog11findHistoryEv@Base 4.96.0
 _ZNK11KFindDialog13findExtensionEv@Base 4.96.0
 _ZNK11KFindDialog7optionsEv@Base 4.96.0
 _ZNK11KFindDialog7patternEv@Base 4.96.0
 _ZNK13KRichTextEdit10metaObjectEv@Base 4.96.0
 _ZNK13KRichTextEdit10textOrHtmlEv@Base 4.96.0
 _ZNK13KRichTextEdit11toCleanHtmlEv@Base 4.96.0
 _ZNK13KRichTextEdit13canDedentListEv@Base 4.96.0
 _ZNK13KRichTextEdit13canIndentListEv@Base 4.96.0
 _ZNK13KRichTextEdit14currentLinkUrlEv@Base 4.96.0
 _ZNK13KRichTextEdit14selectLinkTextEP11QTextCursor@Base 4.96.0
 _ZNK13KRichTextEdit14selectLinkTextEv@Base 4.96.0
 _ZNK13KRichTextEdit15currentLinkTextEv@Base 4.96.0
 _ZNK13KRichTextEdit8textModeEv@Base 4.96.0
 _ZNK14KReplaceDialog10metaObjectEv@Base 4.96.0
 _ZNK14KReplaceDialog11replacementEv@Base 4.96.0
 _ZNK14KReplaceDialog16replaceExtensionEv@Base 4.96.0
 _ZNK14KReplaceDialog18replacementHistoryEv@Base 4.96.0
 _ZNK14KReplaceDialog7optionsEv@Base 4.96.0
 _ZNK15KRichTextWidget10metaObjectEv@Base 4.96.0
 _ZNK15KRichTextWidget15richTextSupportEv@Base 4.96.0
 _ZNK22KPluralHandlingSpinBox10metaObjectEv@Base 5.0.0
 _ZNK5KFind10metaObjectEv@Base 4.96.0
 _ZNK5KFind10numMatchesEv@Base 4.96.0
 _ZNK5KFind12parentWidgetEv@Base 4.96.0
 _ZNK5KFind13dialogsParentEv@Base 4.96.0
 _ZNK5KFind13shouldRestartEbb@Base 4.96.0
 _ZNK5KFind18displayFinalDialogEv@Base 4.96.0
 _ZNK5KFind5indexEv@Base 4.96.0
 _ZNK5KFind7optionsEv@Base 4.96.0
 _ZNK5KFind7patternEv@Base 4.96.0
 _ZNK5KFind8needDataEv@Base 4.96.0
 _ZNK8KReplace10metaObjectEv@Base 4.96.0
 _ZNK8KReplace13shouldRestartEbb@Base 4.96.0
 _ZNK8KReplace15numReplacementsEv@Base 4.96.0
 _ZNK8KReplace18displayFinalDialogEv@Base 4.96.0
 _ZNK9KTextEdit10metaObjectEv@Base 4.96.0
 _ZNK9KTextEdit11highlighterEv@Base 4.96.0
 _ZNK9KTextEdit20checkSpellingEnabledEv@Base 4.96.0
 _ZNK9KTextEdit21spellCheckingLanguageEv@Base 4.96.0
 _ZNK9KTextEdit25shouldBlockBeSpellCheckedERK7QString@Base 4.96.0
 _ZTI11KFindDialog@Base 4.96.0
 _ZTI13KRichTextEdit@Base 4.96.0
 _ZTI14KReplaceDialog@Base 4.96.0
 _ZTI15KRichTextWidget@Base 4.96.0
 _ZTI22KPluralHandlingSpinBox@Base 5.0.0
 _ZTI5KFind@Base 4.96.0
 _ZTI8KReplace@Base 4.96.0
 _ZTI9KTextEdit@Base 4.96.0
 _ZTS11KFindDialog@Base 4.96.0
 _ZTS13KRichTextEdit@Base 4.96.0
 _ZTS14KReplaceDialog@Base 4.96.0
 _ZTS15KRichTextWidget@Base 4.96.0
 _ZTS22KPluralHandlingSpinBox@Base 5.0.0
 _ZTS5KFind@Base 4.96.0
 _ZTS8KReplace@Base 4.96.0
 _ZTS9KTextEdit@Base 4.96.0
 _ZTV11KFindDialog@Base 4.96.0
 _ZTV13KRichTextEdit@Base 4.96.0
 _ZTV14KReplaceDialog@Base 4.96.0
 _ZTV15KRichTextWidget@Base 4.96.0
 _ZTV22KPluralHandlingSpinBox@Base 5.0.0
 _ZTV5KFind@Base 4.96.0
 _ZTV8KReplace@Base 4.96.0
 _ZTV9KTextEdit@Base 4.96.0
 _ZThn16_N11KFindDialogD0Ev@Base 4.96.0
 _ZThn16_N11KFindDialogD1Ev@Base 4.96.0
 _ZThn16_N13KRichTextEditD0Ev@Base 4.96.0
 _ZThn16_N13KRichTextEditD1Ev@Base 4.96.0
 _ZThn16_N14KReplaceDialogD0Ev@Base 4.96.0
 _ZThn16_N14KReplaceDialogD1Ev@Base 4.96.0
 _ZThn16_N15KRichTextWidgetD0Ev@Base 4.96.0
 _ZThn16_N15KRichTextWidgetD1Ev@Base 4.96.0
 _ZThn16_N22KPluralHandlingSpinBoxD0Ev@Base 5.0.0
 _ZThn16_N22KPluralHandlingSpinBoxD1Ev@Base 5.0.0
 _ZThn16_N9KTextEditD0Ev@Base 4.96.0
 _ZThn16_N9KTextEditD1Ev@Base 4.96.0
 _ZZZN9KTextEdit7PrivateC4EPS_ENKUlvE0_clEvE15qstring_literal@Base 5.16.0
 _ZZZN9KTextEdit7PrivateC4EPS_ENKUlvE1_clEvE15qstring_literal@Base 5.16.0
 _ZZZN9KTextEdit7PrivateC4EPS_ENKUlvE_clEvE15qstring_literal@Base 5.16.0
