libKF5GAPICore.so.5 libkf5gapicore5 #MINVER#
 _ZN5Utils19stringToContentTypeERK7QString@Base 4.80.0
 _ZN5Utils6ts2StrEy@Base 4.80.0
 _ZN5Utils8bool2StrEb@Base 4.80.0
 _ZN6KGAPI210AuthWidget10setAccountERK14QSharedPointerINS_7AccountEE@Base 4.80.0
 _ZN6KGAPI210AuthWidget11qt_metacallEN11QMetaObject4CallEiPPv@Base 4.80.0
 _ZN6KGAPI210AuthWidget11qt_metacastEPKc@Base 4.80.0
 _ZN6KGAPI210AuthWidget11setPasswordERK7QString@Base 4.80.0
 _ZN6KGAPI210AuthWidget11setUsernameERK7QString@Base 4.80.0
 _ZN6KGAPI210AuthWidget12authenticateEv@Base 4.80.0
 _ZN6KGAPI210AuthWidget13authenticatedERK14QSharedPointerINS_7AccountEE@Base 4.80.0
 _ZN6KGAPI210AuthWidget16clearCredentialsEv@Base 4.80.0
 _ZN6KGAPI210AuthWidget16staticMetaObjectE@Base 4.80.0
 _ZN6KGAPI210AuthWidget18setShowProgressBarEb@Base 4.80.0
 _ZN6KGAPI210AuthWidget5errorENS_5ErrorERK7QString@Base 4.80.0
 _ZN6KGAPI210AuthWidget8progressENS0_8ProgressE@Base 4.80.0
 _ZN6KGAPI210AuthWidgetC1EP7QWidget@Base 4.80.0
 _ZN6KGAPI210AuthWidgetC2EP7QWidget@Base 4.80.0
 _ZN6KGAPI210AuthWidgetD0Ev@Base 4.80.0
 _ZN6KGAPI210AuthWidgetD1Ev@Base 4.80.0
 _ZN6KGAPI210AuthWidgetD2Ev@Base 4.80.0
 _ZN6KGAPI211AccountInfo11setBirthdayERK7QString@Base 4.80.0
 _ZN6KGAPI211AccountInfo11setPhotoUrlERK7QString@Base 4.80.0
 _ZN6KGAPI211AccountInfo11setTimezoneERK7QString@Base 4.80.0
 _ZN6KGAPI211AccountInfo12setGivenNameERK7QString@Base 4.80.0
 _ZN6KGAPI211AccountInfo13setFamilyNameERK7QString@Base 4.80.0
 _ZN6KGAPI211AccountInfo16setVerifiedEmailEb@Base 4.80.0
 _ZN6KGAPI211AccountInfo5setIdERK7QString@Base 4.80.0
 _ZN6KGAPI211AccountInfo7setLinkERK7QString@Base 4.80.0
 _ZN6KGAPI211AccountInfo7setNameERK7QString@Base 4.80.0
 _ZN6KGAPI211AccountInfo8fromJSONERK10QByteArray@Base 4.80.0
 _ZN6KGAPI211AccountInfo8setEmailERK7QString@Base 4.80.0
 _ZN6KGAPI211AccountInfo9setGenderERK7QString@Base 4.80.0
 _ZN6KGAPI211AccountInfo9setLocaleERK7QString@Base 4.80.0
 _ZN6KGAPI211AccountInfoC1ERKS0_@Base 4.80.0
 _ZN6KGAPI211AccountInfoC1Ev@Base 4.80.0
 _ZN6KGAPI211AccountInfoC2ERKS0_@Base 4.80.0
 _ZN6KGAPI211AccountInfoC2Ev@Base 4.80.0
 _ZN6KGAPI211AccountInfoD0Ev@Base 4.80.0
 _ZN6KGAPI211AccountInfoD1Ev@Base 4.80.0
 _ZN6KGAPI211AccountInfoD2Ev@Base 4.80.0
 _ZN6KGAPI217NewTokensFetchJob11handleReplyEPK13QNetworkReplyRK10QByteArray@Base 4.80.0
 _ZN6KGAPI217NewTokensFetchJob11qt_metacallEN11QMetaObject4CallEiPPv@Base 4.80.0
 _ZN6KGAPI217NewTokensFetchJob11qt_metacastEPKc@Base 4.80.0
 _ZN6KGAPI217NewTokensFetchJob15dispatchRequestEP21QNetworkAccessManagerRK15QNetworkRequestRK10QByteArrayRK7QString@Base 4.80.0
 _ZN6KGAPI217NewTokensFetchJob16staticMetaObjectE@Base 4.80.0
 _ZN6KGAPI217NewTokensFetchJob5startEv@Base 4.80.0
 _ZN6KGAPI217NewTokensFetchJobC1ERK7QStringS3_S3_P7QObject@Base 4.80.0
 _ZN6KGAPI217NewTokensFetchJobC2ERK7QStringS3_S3_P7QObject@Base 4.80.0
 _ZN6KGAPI217NewTokensFetchJobD0Ev@Base 4.80.0
 _ZN6KGAPI217NewTokensFetchJobD1Ev@Base 4.80.0
 _ZN6KGAPI217NewTokensFetchJobD2Ev@Base 4.80.0
 _ZN6KGAPI219AccountInfoFetchJob11qt_metacallEN11QMetaObject4CallEiPPv@Base 4.80.0
 _ZN6KGAPI219AccountInfoFetchJob11qt_metacastEPKc@Base 4.80.0
 _ZN6KGAPI219AccountInfoFetchJob16staticMetaObjectE@Base 4.80.0
 _ZN6KGAPI219AccountInfoFetchJob20handleReplyWithItemsEPK13QNetworkReplyRK10QByteArray@Base 4.80.0
 _ZN6KGAPI219AccountInfoFetchJob5startEv@Base 4.80.0
 _ZN6KGAPI219AccountInfoFetchJobC1ERK14QSharedPointerINS_7AccountEEP7QObject@Base 4.80.0
 _ZN6KGAPI219AccountInfoFetchJobC2ERK14QSharedPointerINS_7AccountEEP7QObject@Base 4.80.0
 _ZN6KGAPI219AccountInfoFetchJobD0Ev@Base 4.80.0
 _ZN6KGAPI219AccountInfoFetchJobD1Ev@Base 4.80.0
 _ZN6KGAPI219AccountInfoFetchJobD2Ev@Base 4.80.0
 _ZN6KGAPI23Job10setAccountERK14QSharedPointerINS_7AccountEE@Base 4.80.0
 _ZN6KGAPI23Job11qt_metacallEN11QMetaObject4CallEiPPv@Base 4.80.0
 _ZN6KGAPI23Job11qt_metacastEPKc@Base 4.80.0
 _ZN6KGAPI23Job12aboutToStartEv@Base 4.80.0
 _ZN6KGAPI23Job12emitFinishedEv@Base 4.80.0
 _ZN6KGAPI23Job12emitProgressEii@Base 4.80.0
 _ZN6KGAPI23Job13aboutToFinishEv@Base 4.80.0
 _ZN6KGAPI23Job13setMaxTimeoutEi@Base 4.80.0
 _ZN6KGAPI23Job14enqueueRequestERK15QNetworkRequestRK10QByteArrayRK7QString@Base 4.80.0
 _ZN6KGAPI23Job14setErrorStringERK7QString@Base 4.80.0
 _ZN6KGAPI23Job16staticMetaObjectE@Base 4.80.0
 _ZN6KGAPI23Job7restartEv@Base 4.80.0
 _ZN6KGAPI23Job8finishedEPS0_@Base 4.80.0
 _ZN6KGAPI23Job8progressEPS0_ii@Base 4.80.0
 _ZN6KGAPI23Job8setErrorENS_5ErrorE@Base 4.80.0
 _ZN6KGAPI23JobC1EP7QObject@Base 4.80.0
 _ZN6KGAPI23JobC1ERK14QSharedPointerINS_7AccountEEP7QObject@Base 4.80.0
 _ZN6KGAPI23JobC2EP7QObject@Base 4.80.0
 _ZN6KGAPI23JobC2ERK14QSharedPointerINS_7AccountEEP7QObject@Base 4.80.0
 _ZN6KGAPI23JobD0Ev@Base 4.80.0
 _ZN6KGAPI23JobD1Ev@Base 4.80.0
 _ZN6KGAPI23JobD2Ev@Base 4.80.0
 _ZN6KGAPI26Object7setEtagERK7QString@Base 4.80.0
 _ZN6KGAPI26ObjectC1ERKS0_@Base 4.80.0
 _ZN6KGAPI26ObjectC1Ev@Base 4.80.0
 _ZN6KGAPI26ObjectC2ERKS0_@Base 4.80.0
 _ZN6KGAPI26ObjectC2Ev@Base 4.80.0
 _ZN6KGAPI26ObjectD0Ev@Base 4.80.0
 _ZN6KGAPI26ObjectD1Ev@Base 4.80.0
 _ZN6KGAPI26ObjectD2Ev@Base 4.80.0
 _ZN6KGAPI27Account11removeScopeERK4QUrl@Base 4.80.0
 _ZN6KGAPI27Account13tasksScopeUrlEv@Base 4.80.0
 _ZN6KGAPI27Account14setAccessTokenERK7QString@Base 4.80.0
 _ZN6KGAPI27Account14setAccountNameERK7QString@Base 4.80.0
 _ZN6KGAPI27Account15bloggerScopeUrlEv@Base 4.80.0
 _ZN6KGAPI27Account15setRefreshTokenERK7QString@Base 4.80.0
 _ZN6KGAPI27Account16calendarScopeUrlEv@Base 4.80.0
 _ZN6KGAPI27Account16contactsScopeUrlEv@Base 4.80.0
 _ZN6KGAPI27Account16latitudeScopeUrlEv@Base 4.80.0
 _ZN6KGAPI27Account17setExpireDateTimeERK9QDateTime@Base 4.80.0
 _ZN6KGAPI27Account19accountInfoScopeUrlEv@Base 4.80.0
 _ZN6KGAPI27Account24accountInfoEmailScopeUrlEv@Base 4.80.0
 _ZN6KGAPI27Account8addScopeERK4QUrl@Base 4.80.0
 _ZN6KGAPI27Account9setScopesERK5QListI4QUrlE@Base 4.80.0
 _ZN6KGAPI27AccountC1ERK7QStringS3_S3_RK5QListI4QUrlE@Base 4.80.0
 _ZN6KGAPI27AccountC1ERKS0_@Base 4.80.0
 _ZN6KGAPI27AccountC1Ev@Base 4.80.0
 _ZN6KGAPI27AccountC2ERK7QStringS3_S3_RK5QListI4QUrlE@Base 4.80.0
 _ZN6KGAPI27AccountC2ERKS0_@Base 4.80.0
 _ZN6KGAPI27AccountC2Ev@Base 4.80.0
 _ZN6KGAPI27AccountD0Ev@Base 4.80.0
 _ZN6KGAPI27AccountD1Ev@Base 4.80.0
 _ZN6KGAPI27AccountD2Ev@Base 4.80.0
 _ZN6KGAPI27AuthJob11handleReplyEPK13QNetworkReplyRK10QByteArray@Base 4.80.0
 _ZN6KGAPI27AuthJob11qt_metacallEN11QMetaObject4CallEiPPv@Base 4.80.0
 _ZN6KGAPI27AuthJob11qt_metacastEPKc@Base 4.80.0
 _ZN6KGAPI27AuthJob11setPasswordERK7QString@Base 4.80.0
 _ZN6KGAPI27AuthJob11setUsernameERK7QString@Base 4.80.0
 _ZN6KGAPI27AuthJob15dispatchRequestEP21QNetworkAccessManagerRK15QNetworkRequestRK10QByteArrayRK7QString@Base 4.80.0
 _ZN6KGAPI27AuthJob16staticMetaObjectE@Base 4.80.0
 _ZN6KGAPI27AuthJob5startEv@Base 4.80.0
 _ZN6KGAPI27AuthJobC1ERK14QSharedPointerINS_7AccountEERK7QStringS8_P7QObject@Base 4.80.0
 _ZN6KGAPI27AuthJobC1ERK14QSharedPointerINS_7AccountEERK7QStringS8_P7QWidget@Base 4.80.0
 _ZN6KGAPI27AuthJobC2ERK14QSharedPointerINS_7AccountEERK7QStringS8_P7QObject@Base 4.80.0
 _ZN6KGAPI27AuthJobC2ERK14QSharedPointerINS_7AccountEERK7QStringS8_P7QWidget@Base 4.80.0
 _ZN6KGAPI27AuthJobD0Ev@Base 4.80.0
 _ZN6KGAPI27AuthJobD1Ev@Base 4.80.0
 _ZN6KGAPI27AuthJobD2Ev@Base 4.80.0
 _ZN6KGAPI28FetchJob11handleReplyEPK13QNetworkReplyRK10QByteArray@Base 4.80.0
 _ZN6KGAPI28FetchJob11qt_metacallEN11QMetaObject4CallEiPPv@Base 4.80.0
 _ZN6KGAPI28FetchJob11qt_metacastEPKc@Base 4.80.0
 _ZN6KGAPI28FetchJob12aboutToStartEv@Base 4.80.0
 _ZN6KGAPI28FetchJob15dispatchRequestEP21QNetworkAccessManagerRK15QNetworkRequestRK10QByteArrayRK7QString@Base 4.80.0
 _ZN6KGAPI28FetchJob16staticMetaObjectE@Base 4.80.0
 _ZN6KGAPI28FetchJob20handleReplyWithItemsEPK13QNetworkReplyRK10QByteArray@Base 4.80.0
 _ZN6KGAPI28FetchJobC1EP7QObject@Base 4.80.0
 _ZN6KGAPI28FetchJobC1ERK14QSharedPointerINS_7AccountEEP7QObject@Base 4.80.0
 _ZN6KGAPI28FetchJobC2EP7QObject@Base 4.80.0
 _ZN6KGAPI28FetchJobC2ERK14QSharedPointerINS_7AccountEEP7QObject@Base 4.80.0
 _ZN6KGAPI28FetchJobD0Ev@Base 4.80.0
 _ZN6KGAPI28FetchJobD1Ev@Base 4.80.0
 _ZN6KGAPI28FetchJobD2Ev@Base 4.80.0
 _ZN6KGAPI29CreateJob11handleReplyEPK13QNetworkReplyRK10QByteArray@Base 4.80.0
 _ZN6KGAPI29CreateJob11qt_metacallEN11QMetaObject4CallEiPPv@Base 4.80.0
 _ZN6KGAPI29CreateJob11qt_metacastEPKc@Base 4.80.0
 _ZN6KGAPI29CreateJob12aboutToStartEv@Base 4.80.0
 _ZN6KGAPI29CreateJob15dispatchRequestEP21QNetworkAccessManagerRK15QNetworkRequestRK10QByteArrayRK7QString@Base 4.80.0
 _ZN6KGAPI29CreateJob16staticMetaObjectE@Base 4.80.0
 _ZN6KGAPI29CreateJob20handleReplyWithItemsEPK13QNetworkReplyRK10QByteArray@Base 4.80.0
 _ZN6KGAPI29CreateJobC1EP7QObject@Base 4.80.0
 _ZN6KGAPI29CreateJobC1ERK14QSharedPointerINS_7AccountEEP7QObject@Base 4.80.0
 _ZN6KGAPI29CreateJobC2EP7QObject@Base 4.80.0
 _ZN6KGAPI29CreateJobC2ERK14QSharedPointerINS_7AccountEEP7QObject@Base 4.80.0
 _ZN6KGAPI29CreateJobD0Ev@Base 4.80.0
 _ZN6KGAPI29CreateJobD1Ev@Base 4.80.0
 _ZN6KGAPI29CreateJobD2Ev@Base 4.80.0
 _ZN6KGAPI29DeleteJob11handleReplyEPK13QNetworkReplyRK10QByteArray@Base 4.80.0
 _ZN6KGAPI29DeleteJob11qt_metacallEN11QMetaObject4CallEiPPv@Base 4.80.0
 _ZN6KGAPI29DeleteJob11qt_metacastEPKc@Base 4.80.0
 _ZN6KGAPI29DeleteJob15dispatchRequestEP21QNetworkAccessManagerRK15QNetworkRequestRK10QByteArrayRK7QString@Base 4.80.0
 _ZN6KGAPI29DeleteJob16staticMetaObjectE@Base 4.80.0
 _ZN6KGAPI29DeleteJobC1EP7QObject@Base 4.80.0
 _ZN6KGAPI29DeleteJobC1ERK14QSharedPointerINS_7AccountEEP7QObject@Base 4.80.0
 _ZN6KGAPI29DeleteJobC2EP7QObject@Base 4.80.0
 _ZN6KGAPI29DeleteJobC2ERK14QSharedPointerINS_7AccountEEP7QObject@Base 4.80.0
 _ZN6KGAPI29DeleteJobD0Ev@Base 4.80.0
 _ZN6KGAPI29DeleteJobD1Ev@Base 4.80.0
 _ZN6KGAPI29DeleteJobD2Ev@Base 4.80.0
 _ZN6KGAPI29ModifyJob11handleReplyEPK13QNetworkReplyRK10QByteArray@Base 4.80.0
 _ZN6KGAPI29ModifyJob11qt_metacallEN11QMetaObject4CallEiPPv@Base 4.80.0
 _ZN6KGAPI29ModifyJob11qt_metacastEPKc@Base 4.80.0
 _ZN6KGAPI29ModifyJob12aboutToStartEv@Base 4.80.0
 _ZN6KGAPI29ModifyJob15dispatchRequestEP21QNetworkAccessManagerRK15QNetworkRequestRK10QByteArrayRK7QString@Base 4.80.0
 _ZN6KGAPI29ModifyJob16staticMetaObjectE@Base 4.80.0
 _ZN6KGAPI29ModifyJob20handleReplyWithItemsEPK13QNetworkReplyRK10QByteArray@Base 4.80.0
 _ZN6KGAPI29ModifyJob5itemsEv@Base 4.80.0
 _ZN6KGAPI29ModifyJobC1EP7QObject@Base 4.80.0
 _ZN6KGAPI29ModifyJobC1ERK14QSharedPointerINS_7AccountEEP7QObject@Base 4.80.0
 _ZN6KGAPI29ModifyJobC2EP7QObject@Base 4.80.0
 _ZN6KGAPI29ModifyJobC2ERK14QSharedPointerINS_7AccountEEP7QObject@Base 4.80.0
 _ZN6KGAPI29ModifyJobD0Ev@Base 4.80.0
 _ZN6KGAPI29ModifyJobD1Ev@Base 4.80.0
 _ZN6KGAPI29ModifyJobD2Ev@Base 4.80.0
 _ZNK6KGAPI210AuthWidget10metaObjectEv@Base 4.80.0
 _ZNK6KGAPI210AuthWidget11getProgressEv@Base 4.80.0
 _ZNK6KGAPI210AuthWidget18getShowProgressBarEv@Base 4.80.0
 _ZNK6KGAPI211AccountInfo10familyNameEv@Base 4.80.0
 _ZNK6KGAPI211AccountInfo13verifiedEmailEv@Base 4.80.0
 _ZNK6KGAPI211AccountInfo2idEv@Base 4.80.0
 _ZNK6KGAPI211AccountInfo4linkEv@Base 4.80.0
 _ZNK6KGAPI211AccountInfo4nameEv@Base 4.80.0
 _ZNK6KGAPI211AccountInfo5emailEv@Base 4.80.0
 _ZNK6KGAPI211AccountInfo6genderEv@Base 4.80.0
 _ZNK6KGAPI211AccountInfo6localeEv@Base 4.80.0
 _ZNK6KGAPI211AccountInfo8birthdayEv@Base 4.80.0
 _ZNK6KGAPI211AccountInfo8photoUrlEv@Base 4.80.0
 _ZNK6KGAPI211AccountInfo8timezoneEv@Base 4.80.0
 _ZNK6KGAPI211AccountInfo9givenNameEv@Base 4.80.0
 _ZNK6KGAPI217NewTokensFetchJob10metaObjectEv@Base 4.80.0
 _ZNK6KGAPI217NewTokensFetchJob11accessTokenEv@Base 4.80.0
 _ZNK6KGAPI217NewTokensFetchJob12refreshTokenEv@Base 4.80.0
 _ZNK6KGAPI217NewTokensFetchJob9expiresInEv@Base 4.80.0
 _ZNK6KGAPI219AccountInfoFetchJob10metaObjectEv@Base 4.80.0
 _ZNK6KGAPI23Job10maxTimeoutEv@Base 4.80.0
 _ZNK6KGAPI23Job10metaObjectEv@Base 4.80.0
 _ZNK6KGAPI23Job11errorStringEv@Base 4.80.0
 _ZNK6KGAPI23Job5errorEv@Base 4.80.0
 _ZNK6KGAPI23Job7accountEv@Base 4.80.0
 _ZNK6KGAPI23Job9isRunningEv@Base 4.80.0
 _ZNK6KGAPI26Object4etagEv@Base 4.80.0
 _ZNK6KGAPI27Account11accessTokenEv@Base 4.80.0
 _ZNK6KGAPI27Account11accountNameEv@Base 4.80.0
 _ZNK6KGAPI27Account12refreshTokenEv@Base 4.80.0
 _ZNK6KGAPI27Account14expireDateTimeEv@Base 4.80.0
 _ZNK6KGAPI27Account6scopesEv@Base 4.80.0
 _ZNK6KGAPI27AuthJob10metaObjectEv@Base 4.80.0
 _ZNK6KGAPI27AuthJob7accountEv@Base 4.80.0
 _ZNK6KGAPI28FetchJob10metaObjectEv@Base 4.80.0
 _ZNK6KGAPI28FetchJob5itemsEv@Base 4.80.0
 _ZNK6KGAPI29CreateJob10metaObjectEv@Base 4.80.0
 _ZNK6KGAPI29CreateJob5itemsEv@Base 4.80.0
 _ZNK6KGAPI29DeleteJob10metaObjectEv@Base 4.80.0
 _ZNK6KGAPI29ModifyJob10metaObjectEv@Base 4.80.0
 _ZTIN6KGAPI210AuthWidgetE@Base 4.80.0
 _ZTIN6KGAPI211AccountInfoE@Base 4.80.0
 _ZTIN6KGAPI217NewTokensFetchJobE@Base 4.80.0
 _ZTIN6KGAPI219AccountInfoFetchJobE@Base 4.80.0
 _ZTIN6KGAPI23JobE@Base 4.80.0
 _ZTIN6KGAPI26ObjectE@Base 4.80.0
 _ZTIN6KGAPI27AccountE@Base 4.80.0
 _ZTIN6KGAPI27AuthJobE@Base 4.80.0
 _ZTIN6KGAPI28FetchJobE@Base 4.80.0
 _ZTIN6KGAPI29CreateJobE@Base 4.80.0
 _ZTIN6KGAPI29DeleteJobE@Base 4.80.0
 _ZTIN6KGAPI29ModifyJobE@Base 4.80.0
 _ZTSN6KGAPI210AuthWidgetE@Base 4.80.0
 _ZTSN6KGAPI211AccountInfoE@Base 4.80.0
 _ZTSN6KGAPI217NewTokensFetchJobE@Base 4.80.0
 _ZTSN6KGAPI219AccountInfoFetchJobE@Base 4.80.0
 _ZTSN6KGAPI23JobE@Base 4.80.0
 _ZTSN6KGAPI26ObjectE@Base 4.80.0
 _ZTSN6KGAPI27AccountE@Base 4.80.0
 _ZTSN6KGAPI27AuthJobE@Base 4.80.0
 _ZTSN6KGAPI28FetchJobE@Base 4.80.0
 _ZTSN6KGAPI29CreateJobE@Base 4.80.0
 _ZTSN6KGAPI29DeleteJobE@Base 4.80.0
 _ZTSN6KGAPI29ModifyJobE@Base 4.80.0
 _ZTVN6KGAPI210AuthWidgetE@Base 4.80.0
 _ZTVN6KGAPI211AccountInfoE@Base 4.80.0
 _ZTVN6KGAPI217NewTokensFetchJobE@Base 4.80.0
 _ZTVN6KGAPI219AccountInfoFetchJobE@Base 4.80.0
 _ZTVN6KGAPI23JobE@Base 4.80.0
 _ZTVN6KGAPI26ObjectE@Base 4.80.0
 _ZTVN6KGAPI27AccountE@Base 4.80.0
 _ZTVN6KGAPI27AuthJobE@Base 4.80.0
 _ZTVN6KGAPI28FetchJobE@Base 4.80.0
 _ZTVN6KGAPI29CreateJobE@Base 4.80.0
 _ZTVN6KGAPI29DeleteJobE@Base 4.80.0
 _ZTVN6KGAPI29ModifyJobE@Base 4.80.0
 _ZThn16_N6KGAPI210AuthWidgetD0Ev@Base 4.80.0
 _ZThn16_N6KGAPI210AuthWidgetD1Ev@Base 4.80.0
