libKF5FileMetaData.so.3 libkf5filemetadata3 #MINVER#
 _ZN13KFileMetaData12PropertyInfo8fromNameERK7QString@Base 5.0.0
 _ZN13KFileMetaData12PropertyInfoC1ENS_8Property8PropertyE@Base 5.0.0
 _ZN13KFileMetaData12PropertyInfoC1ERKS0_@Base 5.0.0
 _ZN13KFileMetaData12PropertyInfoC2ENS_8Property8PropertyE@Base 5.0.0
 _ZN13KFileMetaData12PropertyInfoC2ERKS0_@Base 5.0.0
 _ZN13KFileMetaData12PropertyInfoD1Ev@Base 5.0.0
 _ZN13KFileMetaData12PropertyInfoD2Ev@Base 5.0.0
 _ZN13KFileMetaData12PropertyInfoaSERKS0_@Base 5.0.2+git20140925
 _ZN13KFileMetaData12UserMetaData12hasAttributeERK7QString@Base 5.1.0.1
 _ZN13KFileMetaData12UserMetaData12setAttributeERK7QStringS3_@Base 5.1.0.1
 _ZN13KFileMetaData12UserMetaData14setUserCommentERK7QString@Base 5.1.0.1
 _ZN13KFileMetaData12UserMetaData7setTagsERK11QStringList@Base 5.1.0.1
 _ZN13KFileMetaData12UserMetaData9attributeERK7QString@Base 5.1.0.1
 _ZN13KFileMetaData12UserMetaData9setRatingEi@Base 5.1.0.1
 _ZN13KFileMetaData12UserMetaDataC1ERK7QString@Base 5.1.0.1
 _ZN13KFileMetaData12UserMetaDataC1ERKS0_@Base 5.1.0.1
 _ZN13KFileMetaData12UserMetaDataC2ERK7QString@Base 5.1.0.1
 _ZN13KFileMetaData12UserMetaDataC2ERKS0_@Base 5.1.0.1
 _ZN13KFileMetaData12UserMetaDataD0Ev@Base 5.1.0.1
 _ZN13KFileMetaData12UserMetaDataD1Ev@Base 5.1.0.1
 _ZN13KFileMetaData12UserMetaDataD2Ev@Base 5.1.0.1
 _ZN13KFileMetaData12UserMetaDataaSERKS0_@Base 5.1.0.1
 _ZN13KFileMetaData15ExtractorPlugin11qt_metacallEN11QMetaObject4CallEiPPv@Base 5.0.0
 _ZN13KFileMetaData15ExtractorPlugin11qt_metacastEPKc@Base 5.0.0
 _ZN13KFileMetaData15ExtractorPlugin16staticMetaObjectE@Base 5.0.0
 _ZN13KFileMetaData15ExtractorPlugin18contactsFromStringERK7QString@Base 5.0.0
 _ZN13KFileMetaData15ExtractorPlugin18dateTimeFromStringERK7QString@Base 5.0.0
 _ZN13KFileMetaData15ExtractorPluginC1EP7QObject@Base 5.0.0
 _ZN13KFileMetaData15ExtractorPluginC2EP7QObject@Base 5.0.0
 _ZN13KFileMetaData15ExtractorPluginD0Ev@Base 5.0.0
 _ZN13KFileMetaData15ExtractorPluginD1Ev@Base 5.0.0
 _ZN13KFileMetaData15ExtractorPluginD2Ev@Base 5.0.0
 _ZN13KFileMetaData16ExtractionResultC1ERK7QStringS3_RK6QFlagsINS0_4FlagEE@Base 5.0.0
 _ZN13KFileMetaData16ExtractionResultC1ERKS0_@Base 5.0.0
 _ZN13KFileMetaData16ExtractionResultC2ERK7QStringS3_RK6QFlagsINS0_4FlagEE@Base 5.0.0
 _ZN13KFileMetaData16ExtractionResultC2ERKS0_@Base 5.0.0
 _ZN13KFileMetaData16ExtractionResultD0Ev@Base 5.0.0
 _ZN13KFileMetaData16ExtractionResultD1Ev@Base 5.0.0
 _ZN13KFileMetaData16ExtractionResultD2Ev@Base 5.0.0
 _ZN13KFileMetaData19ExtractorCollectionC1Ev@Base 5.0.2+git20140925
 _ZN13KFileMetaData19ExtractorCollectionC2Ev@Base 5.0.2+git20140925
 _ZN13KFileMetaData19ExtractorCollectionD0Ev@Base 5.0.2+git20140925
 _ZN13KFileMetaData19ExtractorCollectionD1Ev@Base 5.0.2+git20140925
 _ZN13KFileMetaData19ExtractorCollectionD2Ev@Base 5.0.2+git20140925
 _ZN13KFileMetaData22SimpleExtractionResult3addENS_8Property8PropertyERK8QVariant@Base 5.0.2+git20140925
 _ZN13KFileMetaData22SimpleExtractionResult6appendERK7QString@Base 5.0.2+git20140925
 _ZN13KFileMetaData22SimpleExtractionResult7addTypeENS_4Type4TypeE@Base 5.0.2+git20140925
 _ZN13KFileMetaData22SimpleExtractionResultC1ERK7QStringS3_RK6QFlagsINS_16ExtractionResult4FlagEE@Base 5.0.2+git20140925
 _ZN13KFileMetaData22SimpleExtractionResultC1ERKS0_@Base 5.0.2+git20140925
 _ZN13KFileMetaData22SimpleExtractionResultC2ERK7QStringS3_RK6QFlagsINS_16ExtractionResult4FlagEE@Base 5.0.2+git20140925
 _ZN13KFileMetaData22SimpleExtractionResultC2ERKS0_@Base 5.0.2+git20140925
 _ZN13KFileMetaData22SimpleExtractionResultD0Ev@Base 5.0.2+git20140925
 _ZN13KFileMetaData22SimpleExtractionResultD1Ev@Base 5.0.2+git20140925
 _ZN13KFileMetaData22SimpleExtractionResultD2Ev@Base 5.0.2+git20140925
 _ZN13KFileMetaData22SimpleExtractionResultaSERKS0_@Base 5.0.2+git20140925
 _ZN13KFileMetaData8TypeInfo8fromNameERK7QString@Base 5.9.0
 _ZN13KFileMetaData8TypeInfoC1ENS_4Type4TypeE@Base 5.0.0
 _ZN13KFileMetaData8TypeInfoC1ERKS0_@Base 5.0.0
 _ZN13KFileMetaData8TypeInfoC2ENS_4Type4TypeE@Base 5.0.0
 _ZN13KFileMetaData8TypeInfoC2ERKS0_@Base 5.0.0
 _ZN13KFileMetaData8TypeInfoD1Ev@Base 5.0.0
 _ZN13KFileMetaData8TypeInfoD2Ev@Base 5.0.0
 _ZN13KFileMetaData8TypeInfoaSERKS0_@Base 5.0.2+git20140925
 _ZN13KFileMetaData8TypeInfoeqERKS0_@Base 5.0.2+git20140925
 _ZN13KFileMetaData9Extractor7extractEPNS_16ExtractionResultE@Base 5.0.2+git20140925
 _ZN13KFileMetaData9ExtractorC1Ev@Base 5.0.2+git20140925
 _ZN13KFileMetaData9ExtractorC2Ev@Base 5.0.2+git20140925
 _ZN13KFileMetaData9ExtractorD0Ev@Base 5.0.2+git20140925
 _ZN13KFileMetaData9ExtractorD1Ev@Base 5.0.2+git20140925
 _ZN13KFileMetaData9ExtractorD2Ev@Base 5.0.2+git20140925
 _ZNK13KFileMetaData12PropertyInfo11displayNameEv@Base 5.0.0
 _ZNK13KFileMetaData12PropertyInfo15shouldBeIndexedEv@Base 5.0.0
 _ZNK13KFileMetaData12PropertyInfo4nameEv@Base 5.0.0
 _ZNK13KFileMetaData12PropertyInfo8propertyEv@Base 5.0.0
 _ZNK13KFileMetaData12PropertyInfo9valueTypeEv@Base 5.0.0
 _ZNK13KFileMetaData12PropertyInfoeqERKS0_@Base 5.0.2+git20140925
 _ZNK13KFileMetaData12UserMetaData11isSupportedEv@Base 5.1.0.1
 _ZNK13KFileMetaData12UserMetaData11userCommentEv@Base 5.1.0.1
 _ZNK13KFileMetaData12UserMetaData4tagsEv@Base 5.1.0.1
 _ZNK13KFileMetaData12UserMetaData6ratingEv@Base 5.1.0.1
 _ZNK13KFileMetaData12UserMetaData8filePathEv@Base 5.1.0.1
 _ZNK13KFileMetaData15ExtractorPlugin10metaObjectEv@Base 5.0.0
 _ZNK13KFileMetaData16ExtractionResult10inputFlagsEv@Base 5.0.0
 _ZNK13KFileMetaData16ExtractionResult13inputMimetypeEv@Base 5.0.0
 _ZNK13KFileMetaData16ExtractionResult8inputUrlEv@Base 5.0.0
 _ZNK13KFileMetaData19ExtractorCollection15fetchExtractorsERK7QString@Base 5.0.2+git20140925
 _ZNK13KFileMetaData19ExtractorCollection7Private13allExtractorsEv@Base 5.0.2+git20140925
 _ZNK13KFileMetaData22SimpleExtractionResult10propertiesEv@Base 5.0.2+git20140925
 _ZNK13KFileMetaData22SimpleExtractionResult4textEv@Base 5.0.2+git20140925
 _ZNK13KFileMetaData22SimpleExtractionResult5typesEv@Base 5.0.2+git20140925
 _ZNK13KFileMetaData22SimpleExtractionResulteqERKS0_@Base 5.0.2+git20140925
 _ZNK13KFileMetaData8TypeInfo11displayNameEv@Base 5.0.0
 _ZNK13KFileMetaData8TypeInfo4nameEv@Base 5.0.0
 _ZNK13KFileMetaData8TypeInfo4typeEv@Base 5.0.2+git20140925
 _ZNK13KFileMetaData9Extractor9mimetypesEv@Base 5.0.2+git20140925
 _ZTIN13KFileMetaData12UserMetaDataE@Base 5.1.0.1
 _ZTIN13KFileMetaData15ExtractorPluginE@Base 5.0.0
 _ZTIN13KFileMetaData16ExtractionResultE@Base 5.0.0
 _ZTIN13KFileMetaData19ExtractorCollectionE@Base 5.0.2+git20140925
 _ZTIN13KFileMetaData22SimpleExtractionResultE@Base 5.0.2+git20140925
 _ZTIN13KFileMetaData9ExtractorE@Base 5.0.2+git20140925
 _ZTSN13KFileMetaData12UserMetaDataE@Base 5.1.0.1
 _ZTSN13KFileMetaData15ExtractorPluginE@Base 5.0.0
 _ZTSN13KFileMetaData16ExtractionResultE@Base 5.0.0
 _ZTSN13KFileMetaData19ExtractorCollectionE@Base 5.0.2+git20140925
 _ZTSN13KFileMetaData22SimpleExtractionResultE@Base 5.0.2+git20140925
 _ZTSN13KFileMetaData9ExtractorE@Base 5.0.2+git20140925
 _ZTVN13KFileMetaData12UserMetaDataE@Base 5.1.0.1
 _ZTVN13KFileMetaData15ExtractorPluginE@Base 5.0.0
 _ZTVN13KFileMetaData16ExtractionResultE@Base 5.0.0
 _ZTVN13KFileMetaData19ExtractorCollectionE@Base 5.0.2+git20140925
 _ZTVN13KFileMetaData22SimpleExtractionResultE@Base 5.0.2+git20140925
 _ZTVN13KFileMetaData9ExtractorE@Base 5.0.2+git20140925
