libKF5KIOFileWidgets.so.5 libkf5kiofilewidgets5 #MINVER#
 _ZN11KFileWidget10readConfigER12KConfigGroup@Base 4.96.0
 _ZN11KFileWidget10slotCancelEv@Base 4.96.0
 _ZN11KFileWidget11clearFilterEv@Base 4.96.0
 _ZN11KFileWidget11dirOperatorEv@Base 4.96.0
 _ZN11KFileWidget11eventFilterEP7QObjectP6QEvent@Base 4.96.0
 _ZN11KFileWidget11getStartUrlERK4QUrlR7QString@Base 4.96.0
 _ZN11KFileWidget11getStartUrlERK4QUrlR7QStringS4_@Base 4.96.0
 _ZN11KFileWidget11qt_metacallEN11QMetaObject4CallEiPPv@Base 4.96.0
 _ZN11KFileWidget11qt_metacastEPKc@Base 4.96.0
 _ZN11KFileWidget11resizeEventEP12QResizeEvent@Base 4.96.0
 _ZN11KFileWidget11setStartDirERK4QUrl@Base 4.96.0
 _ZN11KFileWidget11setViewModeEN5KFile8FileViewE@Base 4.99.0
 _ZN11KFileWidget12fileSelectedERK4QUrl@Base 4.96.0
 _ZN11KFileWidget12setSelectionERK7QString@Base 4.96.0
 _ZN11KFileWidget13filterChangedERK7QString@Base 4.96.0
 _ZN11KFileWidget13setMimeFilterERK11QStringListRK7QString@Base 4.96.0
 _ZN11KFileWidget15fileHighlightedERK4QUrl@Base 4.96.0
 _ZN11KFileWidget15setCustomWidgetEP7QWidget@Base 4.96.0
 _ZN11KFileWidget15setCustomWidgetERK7QStringP7QWidget@Base 4.96.0
 _ZN11KFileWidget15setKeepLocationEb@Base 4.96.0
 _ZN11KFileWidget16selectionChangedEv@Base 4.96.0
 _ZN11KFileWidget16setLocationLabelERK7QString@Base 4.96.0
 _ZN11KFileWidget16setOperationModeENS_13OperationModeE@Base 4.96.0
 _ZN11KFileWidget16setPreviewWidgetEP18KPreviewWidgetBase@Base 4.96.0
 _ZN11KFileWidget16staticMetaObjectE@Base 4.96.0
 _ZN11KFileWidget19setConfirmOverwriteEb@Base 4.96.0
 _ZN11KFileWidget21currentFilterMimeTypeEv@Base 4.96.0
 _ZN11KFileWidget21setInlinePreviewShownEb@Base 4.96.0
 _ZN11KFileWidget6acceptEv@Base 4.96.0
 _ZN11KFileWidget6setUrlERK4QUrlb@Base 4.96.0
 _ZN11KFileWidget6slotOkEv@Base 4.96.0
 _ZN11KFileWidget7setModeE6QFlagsIN5KFile4ModeEE@Base 4.96.0
 _ZN11KFileWidget8acceptedEv@Base 4.96.0
 _ZN11KFileWidget9setFilterERK7QString@Base 4.96.0
 _ZN11KFileWidget9showEventEP10QShowEvent@Base 4.96.0
 _ZN11KFileWidgetC1ERK4QUrlP7QWidget@Base 4.96.0
 _ZN11KFileWidgetC2ERK4QUrlP7QWidget@Base 4.96.0
 _ZN11KFileWidgetD0Ev@Base 4.96.0
 _ZN11KFileWidgetD1Ev@Base 4.96.0
 _ZN11KFileWidgetD2Ev@Base 4.96.0
 _ZN11KRecentDirs3addERK7QStringS2_@Base 4.96.0
 _ZN11KRecentDirs3dirERK7QString@Base 4.96.0
 _ZN11KRecentDirs4listERK7QString@Base 4.96.0
 _ZN12KDirOperator10completionERK7QString@Base 4.96.0
 _ZN12KDirOperator10createViewEP7QWidgetN5KFile8FileViewE@Base 4.96.0
 _ZN12KDirOperator10readConfigERK12KConfigGroup@Base 4.96.0
 _ZN12KDirOperator10selectFileERK9KFileItem@Base 4.96.0
 _ZN12KDirOperator10setSortingE6QFlagsIN4QDir8SortFlagEE@Base 4.96.0
 _ZN12KDirOperator10sortByDateEv@Base 4.96.0
 _ZN12KDirOperator10sortByNameEv@Base 4.96.0
 _ZN12KDirOperator10sortBySizeEv@Base 4.96.0
 _ZN12KDirOperator10sortByTypeEv@Base 4.96.0
 _ZN12KDirOperator10urlEnteredERK4QUrl@Base 4.96.0
 _ZN12KDirOperator11changeEventEP6QEvent@Base 4.96.0
 _ZN12KDirOperator11clearFilterEv@Base 4.96.0
 _ZN12KDirOperator11dirOnlyModeEj@Base 4.96.0
 _ZN12KDirOperator11eventFilterEP7QObjectP6QEvent@Base 4.96.0
 _ZN12KDirOperator11pathChangedEv@Base 4.96.0
 _ZN12KDirOperator11qt_metacallEN11QMetaObject4CallEiPPv@Base 4.96.0
 _ZN12KDirOperator11qt_metacastEPKc@Base 4.96.0
 _ZN12KDirOperator11resetCursorEv@Base 4.96.0
 _ZN12KDirOperator11resizeEventEP12QResizeEvent@Base 4.96.0
 _ZN12KDirOperator11setIsSavingEb@Base 4.96.0
 _ZN12KDirOperator11viewChangedEP17QAbstractItemView@Base 4.96.0
 _ZN12KDirOperator11writeConfigER12KConfigGroup@Base 4.96.0
 _ZN12KDirOperator12clearHistoryEv@Base 4.96.0
 _ZN12KDirOperator12dirActivatedERK9KFileItem@Base 4.96.0
 _ZN12KDirOperator12fileSelectedERK9KFileItem@Base 4.96.0
 _ZN12KDirOperator12setDirListerEP10KDirLister@Base 4.96.0
 _ZN12KDirOperator12setIconsZoomEi@Base 4.96.0
 _ZN12KDirOperator12setupActionsEv@Base 4.96.0
 _ZN12KDirOperator12sortReversedEv@Base 4.96.0
 _ZN12KDirOperator13activatedMenuERK9KFileItemRK6QPoint@Base 4.96.0
 _ZN12KDirOperator13highlightFileERK9KFileItem@Base 4.96.0
 _ZN12KDirOperator13keyPressEventEP9QKeyEvent@Base 4.96.0
 _ZN12KDirOperator13setMimeFilterERK11QStringList@Base 4.96.0
 _ZN12KDirOperator13setNameFilterERK7QString@Base 4.96.0
 _ZN12KDirOperator13setViewConfigER12KConfigGroup@Base 4.96.0
 _ZN12KDirOperator13trashSelectedEv@Base 4.96.0
 _ZN12KDirOperator14deleteSelectedEv@Base 4.96.0
 _ZN12KDirOperator14makeCompletionERK7QString@Base 4.96.0
 _ZN12KDirOperator14setAcceptDropsEb@Base 4.96.0
 _ZN12KDirOperator14setCurrentItemERK4QUrl@Base 4.96.0
 _ZN12KDirOperator14setCurrentItemERK9KFileItem@Base 4.96.0
 _ZN12KDirOperator14setDropOptionsEi@Base 4.96.0
 _ZN12KDirOperator15fileHighlightedERK9KFileItem@Base 4.96.0
 _ZN12KDirOperator15finishedLoadingEv@Base 4.96.0
 _ZN12KDirOperator15setCurrentItemsERK13KFileItemList@Base 4.96.0
 _ZN12KDirOperator15setCurrentItemsERK5QListI4QUrlE@Base 4.96.0
 _ZN12KDirOperator15toggleDirsFirstEv@Base 4.96.0
 _ZN12KDirOperator16setPreviewWidgetEP18KPreviewWidgetBase@Base 4.96.0
 _ZN12KDirOperator16staticMetaObjectE@Base 4.96.0
 _ZN12KDirOperator16toggleIgnoreCaseEv@Base 4.96.0
 _ZN12KDirOperator17makeDirCompletionERK7QString@Base 4.96.0
 _ZN12KDirOperator17updateInformationEii@Base 4.96.0
 _ZN12KDirOperator17updateSortActionsEv@Base 4.96.0
 _ZN12KDirOperator17updateViewActionsEv@Base 4.96.0
 _ZN12KDirOperator18setShowHiddenFilesEb@Base 4.96.0
 _ZN12KDirOperator19checkPreviewSupportEv@Base 4.96.0
 _ZN12KDirOperator19slotCompletionMatchERK7QString@Base 4.96.0
 _ZN12KDirOperator21setDecorationPositionEN20QStyleOptionViewItem8PositionE@Base 4.96.0
 _ZN12KDirOperator21setInlinePreviewShownEb@Base 4.96.0
 _ZN12KDirOperator22contextMenuAboutToShowERK9KFileItemP5QMenu@Base 4.96.0
 _ZN12KDirOperator22currentIconSizeChangedEi@Base 4.96.0
 _ZN12KDirOperator24prepareCompletionObjectsEv@Base 4.96.0
 _ZN12KDirOperator24setEnableDirHighlightingEb@Base 4.96.0
 _ZN12KDirOperator30setOnlyDoubleClickSelectsFilesEb@Base 4.96.0
 _ZN12KDirOperator31updateSelectionDependentActionsEv@Base 4.96.0
 _ZN12KDirOperator32setNewFileMenuSupportedMimeTypesERK11QStringList@Base 4.96.0
 _ZN12KDirOperator3delERK13KFileItemListP7QWidgetbb@Base 4.96.0
 _ZN12KDirOperator4backEv@Base 4.96.0
 _ZN12KDirOperator4cdUpEv@Base 4.96.0
 _ZN12KDirOperator4homeEv@Base 4.96.0
 _ZN12KDirOperator5closeEv@Base 4.96.0
 _ZN12KDirOperator5mkdirERK7QStringb@Base 4.96.0
 _ZN12KDirOperator5mkdirEv@Base 4.96.0
 _ZN12KDirOperator5trashERK13KFileItemListP7QWidgetbb@Base 4.96.0
 _ZN12KDirOperator6setUrlERK4QUrlb@Base 4.96.0
 _ZN12KDirOperator7Private10isReadableERK4QUrl@Base 4.96.0
 _ZN12KDirOperator7Private13updateSortingE6QFlagsIN4QDir8SortFlagEE@Base 4.96.0
 _ZN12KDirOperator7Private14_k_showPreviewEv@Base 4.96.0
 _ZN12KDirOperator7Private14_k_slotStartedEv@Base 4.96.0
 _ZN12KDirOperator7Private15_k_slotCanceledEv@Base 4.96.0
 _ZN12KDirOperator7Private15_k_slotProgressEi@Base 4.96.0
 _ZN12KDirOperator7Private15_k_slotTreeViewEv@Base 4.96.0
 _ZN12KDirOperator7Private16_k_slotActivatedERK11QModelIndex@Base 4.96.0
 _ZN12KDirOperator7Private16_k_togglePreviewEb@Base 4.96.0
 _ZN12KDirOperator7Private17_k_slotIOFinishedEv@Base 4.96.0
 _ZN12KDirOperator7Private17_k_slotPropertiesEv@Base 4.96.0
 _ZN12KDirOperator7Private17_k_slotRedirectedERK4QUrl@Base 4.96.0
 _ZN12KDirOperator7Private17_k_slotSimpleViewEv@Base 4.96.0
 _ZN12KDirOperator7Private17_k_slotSortByDateEv@Base 4.96.0
 _ZN12KDirOperator7Private17_k_slotSortByNameEv@Base 4.96.0
 _ZN12KDirOperator7Private17_k_slotSortBySizeEv@Base 4.96.0
 _ZN12KDirOperator7Private17_k_slotSortByTypeEv@Base 4.96.0
 _ZN12KDirOperator7Private17_k_triggerPreviewERK11QModelIndex@Base 4.96.0
 _ZN12KDirOperator7Private18_k_openContextMenuERK6QPoint@Base 4.96.0
 _ZN12KDirOperator7Private18_k_slotExpandToUrlERK11QModelIndex@Base 4.96.0
 _ZN12KDirOperator7Private18updateListViewGridEv@Base 4.96.0
 _ZN12KDirOperator7Private19_k_slotDetailedViewEv@Base 4.96.0
 _ZN12KDirOperator7Private19_k_slotItemsChangedEv@Base 4.96.0
 _ZN12KDirOperator7Private19_k_slotShowProgressEv@Base 4.96.0
 _ZN12KDirOperator7Private19_k_slotSortReversedEb@Base 4.96.0
 _ZN12KDirOperator7Private19_k_slotToggleHiddenEb@Base 4.96.0
 _ZN12KDirOperator7Private20_k_slotSplitterMovedEii@Base 4.96.0
 _ZN12KDirOperator7Private22_k_slotOpenFileManagerEv@Base 4.96.0
 _ZN12KDirOperator7Private22_k_slotToggleDirsFirstEv@Base 4.96.0
 _ZN12KDirOperator7Private23_k_slotDetailedTreeViewEv@Base 4.96.0
 _ZN12KDirOperator7Private23_k_slotDirectoryCreatedERK4QUrl@Base 4.96.0
 _ZN12KDirOperator7Private23_k_slotSelectionChangedEv@Base 4.96.0
 _ZN12KDirOperator7Private23_k_slotToggleIgnoreCaseEv@Base 4.96.0
 _ZN12KDirOperator7Private23_k_toggleInlinePreviewsEb@Base 4.96.0
 _ZN12KDirOperator7Private25_k_assureVisibleSelectionEv@Base 4.96.0
 _ZN12KDirOperator7Private26_k_synchronizeSortingStateEiN2Qt9SortOrderE@Base 4.96.0
 _ZN12KDirOperator7Private31_k_slotChangeDecorationPositionEv@Base 4.96.0
 _ZN12KDirOperator7Private7openUrlERK4QUrl6QFlagsIN14KCoreDirLister11OpenUrlFlagEE@Base 4.96.0
 _ZN12KDirOperator7Private8allViewsEv@Base 4.96.0
 _ZN12KDirOperator7Private9checkPathERK7QStringb@Base 4.96.0
 _ZN12KDirOperator7PrivateC1EPS_@Base 4.96.0
 _ZN12KDirOperator7PrivateC2EPS_@Base 4.96.0
 _ZN12KDirOperator7PrivateD1Ev@Base 4.96.0
 _ZN12KDirOperator7PrivateD2Ev@Base 4.96.0
 _ZN12KDirOperator7droppedERK9KFileItemP10QDropEventRK5QListI4QUrlE@Base 4.96.0
 _ZN12KDirOperator7forwardEv@Base 4.96.0
 _ZN12KDirOperator7setModeE6QFlagsIN5KFile4ModeEE@Base 4.96.0
 _ZN12KDirOperator7setViewEN5KFile8FileViewE@Base 4.96.0
 _ZN12KDirOperator7setViewEP17QAbstractItemView@Base 4.96.0
 _ZN12KDirOperator9rereadDirEv@Base 4.96.0
 _ZN12KDirOperator9selectDirERK9KFileItem@Base 4.96.0
 _ZN12KDirOperator9setupMenuEi@Base 4.96.0
 _ZN12KDirOperator9setupMenuEv@Base 4.96.0
 _ZN12KDirOperator9updateDirEv@Base 4.96.0
 _ZN12KDirOperatorC1ERK4QUrlP7QWidget@Base 4.96.0
 _ZN12KDirOperatorC2ERK4QUrlP7QWidget@Base 4.96.0
 _ZN12KDirOperatorD0Ev@Base 4.96.0
 _ZN12KDirOperatorD1Ev@Base 4.96.0
 _ZN12KDirOperatorD2Ev@Base 4.96.0
 _ZN12KNewFileMenu10slotResultEP4KJob@Base 4.96.0
 _ZN12KNewFileMenu11fileCreatedERK4QUrl@Base 4.96.0
 _ZN12KNewFileMenu11qt_metacallEN11QMetaObject4CallEiPPv@Base 4.96.0
 _ZN12KNewFileMenu11qt_metacastEPKc@Base 4.96.0
 _ZN12KNewFileMenu13checkUpToDateEv@Base 4.96.0
 _ZN12KNewFileMenu13setPopupFilesERK5QListI4QUrlE@Base 4.96.0
 _ZN12KNewFileMenu15createDirectoryEv@Base 4.96.0
 _ZN12KNewFileMenu15setParentWidgetEP7QWidget@Base 4.96.0
 _ZN12KNewFileMenu16directoryCreatedERK4QUrl@Base 4.96.0
 _ZN12KNewFileMenu16staticMetaObjectE@Base 4.96.0
 _ZN12KNewFileMenu21setSupportedMimeTypesERK11QStringList@Base 4.96.0
 _ZN12KNewFileMenu23setViewShowsHiddenFilesEb@Base 4.96.0
 _ZN12KNewFileMenu8setModalEb@Base 4.96.0
 _ZN12KNewFileMenuC1EP17KActionCollectionRK7QStringP7QObject@Base 4.96.0
 _ZN12KNewFileMenuC2EP17KActionCollectionRK7QStringP7QObject@Base 4.96.0
 _ZN12KNewFileMenuD0Ev@Base 4.96.0
 _ZN12KNewFileMenuD1Ev@Base 4.96.0
 _ZN12KNewFileMenuD2Ev@Base 4.96.0
 _ZN13KUrlNavigator10setHomeUrlERK4QUrl@Base 4.96.0
 _ZN13KUrlNavigator10setHomeUrlERK7QString@Base 4.96.0
 _ZN13KUrlNavigator10urlChangedERK4QUrl@Base 4.96.0
 _ZN13KUrlNavigator10wheelEventEP11QWheelEvent@Base 4.96.0
 _ZN13KUrlNavigator11eventFilterEP7QObjectP6QEvent@Base 4.96.0
 _ZN13KUrlNavigator11qt_metacallEN11QMetaObject4CallEiPPv@Base 4.96.0
 _ZN13KUrlNavigator11qt_metacastEPKc@Base 4.96.0
 _ZN13KUrlNavigator11resizeEventEP12QResizeEvent@Base 4.96.0
 _ZN13KUrlNavigator11saveRootUrlERK4QUrl@Base 4.96.0
 _ZN13KUrlNavigator11urlsDroppedERK4QUrlP10QDropEvent@Base 4.96.0
 _ZN13KUrlNavigator12savePositionEii@Base 4.96.0
 _ZN13KUrlNavigator12tabRequestedERK4QUrl@Base 4.96.0
 _ZN13KUrlNavigator13keyPressEventEP9QKeyEvent@Base 4.96.0
 _ZN13KUrlNavigator13returnPressedEv@Base 4.96.0
 _ZN13KUrlNavigator14historyChangedEv@Base 4.96.0
 _ZN13KUrlNavigator14setLocationUrlERK4QUrl@Base 4.96.0
 _ZN13KUrlNavigator14setUrlEditableEb@Base 4.96.0
 _ZN13KUrlNavigator15keyReleaseEventEP9QKeyEvent@Base 4.96.0
 _ZN13KUrlNavigator15setShowFullPathEb@Base 4.96.0
 _ZN13KUrlNavigator16staticMetaObjectE@Base 4.96.0
 _ZN13KUrlNavigator17mouseReleaseEventEP11QMouseEvent@Base 4.96.0
 _ZN13KUrlNavigator17requestActivationEv@Base 4.96.0
 _ZN13KUrlNavigator17saveLocationStateERK10QByteArray@Base 4.96.0
 _ZN13KUrlNavigator18setCustomProtocolsERK11QStringList@Base 4.96.0
 _ZN13KUrlNavigator19urlAboutToBeChangedERK4QUrl@Base 4.96.0
 _ZN13KUrlNavigator20editableStateChangedEb@Base 4.96.0
 _ZN13KUrlNavigator24setPlacesSelectorVisibleEb@Base 4.96.0
 _ZN13KUrlNavigator4goUpEv@Base 4.96.0
 _ZN13KUrlNavigator6goBackEv@Base 4.96.0
 _ZN13KUrlNavigator6goHomeEv@Base 4.96.0
 _ZN13KUrlNavigator6setUrlERK4QUrl@Base 4.96.0
 _ZN13KUrlNavigator7Private10initializeERK4QUrl@Base 4.96.0
 _ZN13KUrlNavigator7Private10switchViewEv@Base 4.96.0
 _ZN13KUrlNavigator7Private12appendWidgetEP7QWidgeti@Base 4.96.0
 _ZN13KUrlNavigator7Private13deleteButtonsEv@Base 4.96.0
 _ZN13KUrlNavigator7Private13updateButtonsEi@Base 4.96.0
 _ZN13KUrlNavigator7Private13updateContentEv@Base 4.96.0
 _ZN13KUrlNavigator7Private15openContextMenuEv@Base 4.96.0
 _ZN13KUrlNavigator7Private17slotReturnPressedEv@Base 4.96.0
 _ZN13KUrlNavigator7Private18slotPathBoxChangedERK7QString@Base 4.96.0
 _ZN13KUrlNavigator7Private19applyUncommittedUrlEv@Base 5.6.0+git20150123.0038+15.04
 _ZN13KUrlNavigator7Private19slotProtocolChangedERK7QString@Base 4.96.0
 _ZN13KUrlNavigator7Private20openPathSelectorMenuEv@Base 4.96.0
 _ZN13KUrlNavigator7Private22switchToBreadcrumbModeEv@Base 4.96.0
 _ZN13KUrlNavigator7Private22updateButtonVisibilityEv@Base 4.96.0
 _ZN13KUrlNavigator7Private26slotNavigatorButtonClickedERK4QUrlN2Qt11MouseButtonE@Base 4.96.0
 _ZN13KUrlNavigator7Private31slotToggleEditableButtonPressedEv@Base 5.6.0+git20150123.0038+15.04
 _ZN13KUrlNavigator7Private8dropUrlsERK4QUrlP10QDropEvent@Base 4.96.0
 _ZN13KUrlNavigator7PrivateC1EPS_P16KFilePlacesModel@Base 4.96.0
 _ZN13KUrlNavigator7PrivateC2EPS_P16KFilePlacesModel@Base 4.96.0
 _ZN13KUrlNavigator8setFocusEv@Base 4.96.0
 _ZN13KUrlNavigator9activatedEv@Base 4.96.0
 _ZN13KUrlNavigator9goForwardEv@Base 4.96.0
 _ZN13KUrlNavigator9setActiveEb@Base 4.96.0
 _ZN13KUrlNavigatorC1EP16KFilePlacesModelRK4QUrlP7QWidget@Base 4.96.0
 _ZN13KUrlNavigatorC1EP7QWidget@Base 4.96.0
 _ZN13KUrlNavigatorC2EP16KFilePlacesModelRK4QUrlP7QWidget@Base 4.96.0
 _ZN13KUrlNavigatorC2EP7QWidget@Base 4.96.0
 _ZN13KUrlNavigatorD0Ev@Base 4.96.0
 _ZN13KUrlNavigatorD1Ev@Base 4.96.0
 _ZN13KUrlNavigatorD2Ev@Base 4.96.0
 _ZN15KFileCopyToMenu11qt_metacallEN11QMetaObject4CallEiPPv@Base 5.6.0+git20150116.0016+15.04
 _ZN15KFileCopyToMenu11qt_metacastEPKc@Base 5.6.0+git20150116.0016+15.04
 _ZN15KFileCopyToMenu11setReadOnlyEb@Base 5.6.0+git20150116.0016+15.04
 _ZN15KFileCopyToMenu16staticMetaObjectE@Base 5.6.0+git20150116.0016+15.04
 _ZN15KFileCopyToMenu27setAutoErrorHandlingEnabledEb@Base 5.6.0+git20150116.0016+15.04
 _ZN15KFileCopyToMenu5errorEiRK7QString@Base 5.6.0+git20150116.0016+15.04
 _ZN15KFileCopyToMenu7setUrlsERK5QListI4QUrlE@Base 5.6.0+git20150116.0016+15.04
 _ZN15KFileCopyToMenuC1EP7QWidget@Base 5.6.0+git20150116.0016+15.04
 _ZN15KFileCopyToMenuC2EP7QWidget@Base 5.6.0+git20150116.0016+15.04
 _ZN15KFileCopyToMenuD0Ev@Base 5.6.0+git20150116.0016+15.04
 _ZN15KFileCopyToMenuD1Ev@Base 5.6.0+git20150116.0016+15.04
 _ZN15KFileCopyToMenuD2Ev@Base 5.6.0+git20150116.0016+15.04
 _ZN15KFilePlacesView10paintEventEP11QPaintEvent@Base 4.96.0
 _ZN15KFilePlacesView10setShowAllEb@Base 4.96.0
 _ZN15KFilePlacesView10urlChangedERK4QUrl@Base 4.96.0
 _ZN15KFilePlacesView11dataChangedERK11QModelIndexS2_RK7QVectorIiE@Base 4.96.0
 _ZN15KFilePlacesView11qt_metacallEN11QMetaObject4CallEiPPv@Base 4.96.0
 _ZN15KFilePlacesView11qt_metacastEPKc@Base 4.96.0
 _ZN15KFilePlacesView11resizeEventEP12QResizeEvent@Base 4.96.0
 _ZN15KFilePlacesView11urlsDroppedERK4QUrlP10QDropEventP7QWidget@Base 4.96.0
 _ZN15KFilePlacesView12rowsInsertedERK11QModelIndexii@Base 4.96.0
 _ZN15KFilePlacesView13dragMoveEventEP14QDragMoveEvent@Base 4.96.0
 _ZN15KFilePlacesView13keyPressEventEP9QKeyEvent@Base 4.96.0
 _ZN15KFilePlacesView14dragEnterEventEP15QDragEnterEvent@Base 4.96.0
 _ZN15KFilePlacesView14dragLeaveEventEP15QDragLeaveEvent@Base 4.96.0
 _ZN15KFilePlacesView16contextMenuEventEP17QContextMenuEvent@Base 4.96.0
 _ZN15KFilePlacesView16staticMetaObjectE@Base 4.96.0
 _ZN15KFilePlacesView21setDropOnPlaceEnabledEb@Base 4.96.0
 _ZN15KFilePlacesView25setAutoResizeItemsEnabledEb@Base 4.96.0
 _ZN15KFilePlacesView6setUrlERK4QUrl@Base 4.96.0
 _ZN15KFilePlacesView7Private12_k_placeLeftERK11QModelIndex@Base 4.96.0
 _ZN15KFilePlacesView7Private13adaptItemSizeEv@Base 4.96.0
 _ZN15KFilePlacesView7Private15_k_placeClickedERK11QModelIndex@Base 4.96.0
 _ZN15KFilePlacesView7Private15_k_placeEnteredERK11QModelIndex@Base 4.96.0
 _ZN15KFilePlacesView7Private15fadeCapacityBarERK11QModelIndexNS0_8FadeTypeE@Base 4.96.0
 _ZN15KFilePlacesView7Private15setCurrentIndexERK11QModelIndex@Base 4.96.0
 _ZN15KFilePlacesView7Private16updateHiddenRowsEv@Base 4.96.0
 _ZN15KFilePlacesView7Private19_k_adaptItemsUpdateEd@Base 4.96.0
 _ZN15KFilePlacesView7Private19_k_itemAppearUpdateEd@Base 4.96.0
 _ZN15KFilePlacesView7Private19_k_storageSetupDoneERK11QModelIndexb@Base 4.96.0
 _ZN15KFilePlacesView7Private22_k_itemDisappearUpdateEd@Base 4.96.0
 _ZN15KFilePlacesView7Private23_k_triggerDevicePollingEv@Base 4.96.0
 _ZN15KFilePlacesView7Private27_k_enableSmoothItemResizingEv@Base 4.96.0
 _ZN15KFilePlacesView7Private30_k_capacityBarFadeValueChangedEv@Base 4.96.0
 _ZN15KFilePlacesView8setModelEP18QAbstractItemModel@Base 4.96.0
 _ZN15KFilePlacesView9dropEventEP10QDropEvent@Base 4.96.0
 _ZN15KFilePlacesView9hideEventEP10QHideEvent@Base 4.96.0
 _ZN15KFilePlacesView9showEventEP10QShowEvent@Base 4.96.0
 _ZN15KFilePlacesViewC1EP7QWidget@Base 4.96.0
 _ZN15KFilePlacesViewC2EP7QWidget@Base 4.96.0
 _ZN15KFilePlacesViewD0Ev@Base 4.96.0
 _ZN15KFilePlacesViewD1Ev@Base 4.96.0
 _ZN15KFilePlacesViewD2Ev@Base 4.96.0
 _ZN16KFileFilterCombo11eventFilterEP7QObjectP6QEvent@Base 4.96.0
 _ZN16KFileFilterCombo11qt_metacallEN11QMetaObject4CallEiPPv@Base 4.96.0
 _ZN16KFileFilterCombo11qt_metacastEPKc@Base 4.96.0
 _ZN16KFileFilterCombo13filterChangedEv@Base 4.96.0
 _ZN16KFileFilterCombo13setMimeFilterERK11QStringListRK7QString@Base 4.96.0
 _ZN16KFileFilterCombo16setCurrentFilterERK7QString@Base 4.96.0
 _ZN16KFileFilterCombo16setDefaultFilterERK7QString@Base 4.96.0
 _ZN16KFileFilterCombo16staticMetaObjectE@Base 4.96.0
 _ZN16KFileFilterCombo7Private20_k_slotFilterChangedEv@Base 4.96.0
 _ZN16KFileFilterCombo9setFilterERK7QString@Base 4.96.0
 _ZN16KFileFilterComboC1EP7QWidget@Base 4.96.0
 _ZN16KFileFilterComboC2EP7QWidget@Base 4.96.0
 _ZN16KFileFilterComboD0Ev@Base 4.96.0
 _ZN16KFileFilterComboD1Ev@Base 4.96.0
 _ZN16KFileFilterComboD2Ev@Base 4.96.0
 _ZN16KFileMetaPreview11qt_metacallEN11QMetaObject4CallEiPPv@Base 4.96.0
 _ZN16KFileMetaPreview11qt_metacastEPKc@Base 4.96.0
 _ZN16KFileMetaPreview11showPreviewERK4QUrl@Base 4.96.0
 _ZN16KFileMetaPreview12clearPreviewEv@Base 4.96.0
 _ZN16KFileMetaPreview16staticMetaObjectE@Base 4.96.0
 _ZN16KFileMetaPreview17s_tryAudioPreviewE@Base 4.96.0
 _ZN16KFileMetaPreview18addPreviewProviderERK7QStringP18KPreviewWidgetBase@Base 4.96.0
 _ZN16KFileMetaPreview18createAudioPreviewEP7QWidget@Base 4.96.0
 _ZN16KFileMetaPreview18previewProviderForERK7QString@Base 4.96.0
 _ZN16KFileMetaPreview20initPreviewProvidersEv@Base 4.96.0
 _ZN16KFileMetaPreview21clearPreviewProvidersEv@Base 4.96.0
 _ZN16KFileMetaPreviewC1EP7QWidget@Base 4.96.0
 _ZN16KFileMetaPreviewC2EP7QWidget@Base 4.96.0
 _ZN16KFileMetaPreviewD0Ev@Base 4.96.0
 _ZN16KFileMetaPreviewD1Ev@Base 4.96.0
 _ZN16KFileMetaPreviewD2Ev@Base 4.96.0
 _ZN16KFilePlacesModel11qt_metacallEN11QMetaObject4CallEiPPv@Base 4.96.0
 _ZN16KFilePlacesModel11qt_metacastEPKc@Base 4.96.0
 _ZN16KFilePlacesModel12dropMimeDataEPK9QMimeDataN2Qt10DropActionEiiRK11QModelIndex@Base 4.96.0
 _ZN16KFilePlacesModel12errorMessageERK7QString@Base 4.96.0
 _ZN16KFilePlacesModel12requestEjectERK11QModelIndex@Base 4.96.0
 _ZN16KFilePlacesModel12requestSetupERK11QModelIndex@Base 4.96.0
 _ZN16KFilePlacesModel14setPlaceHiddenERK11QModelIndexb@Base 4.96.0
 _ZN16KFilePlacesModel15requestTeardownERK11QModelIndex@Base 4.96.0
 _ZN16KFilePlacesModel16staticMetaObjectE@Base 4.96.0
 _ZN16KFilePlacesModel7Private14_k_deviceAddedERK7QString@Base 4.96.0
 _ZN16KFilePlacesModel7Private14_k_itemChangedERK7QString@Base 4.96.0
 _ZN16KFilePlacesModel7Private15reloadAndSignalEv@Base 4.96.0
 _ZN16KFilePlacesModel7Private16_k_deviceRemovedERK7QString@Base 4.96.0
 _ZN16KFilePlacesModel7Private16loadBookmarkListEv@Base 4.96.0
 _ZN16KFilePlacesModel7Private17_k_initDeviceListEv@Base 4.96.0
 _ZN16KFilePlacesModel7Private18_k_reloadBookmarksEv@Base 4.96.0
 _ZN16KFilePlacesModel7Private19_k_storageSetupDoneEN5Solid9ErrorTypeE8QVariant@Base 4.96.0
 _ZN16KFilePlacesModel7Private22_k_storageTeardownDoneEN5Solid9ErrorTypeE8QVariant@Base 4.96.0
 _ZN16KFilePlacesModel8addPlaceERK7QStringRK4QUrlS2_S2_@Base 4.96.0
 _ZN16KFilePlacesModel8addPlaceERK7QStringRK4QUrlS2_S2_RK11QModelIndex@Base 4.96.0
 _ZN16KFilePlacesModel9editPlaceERK11QModelIndexRK7QStringRK4QUrlS5_S5_@Base 4.96.0
 _ZN16KFilePlacesModel9setupDoneERK11QModelIndexb@Base 4.96.0
 _ZN16KFilePlacesModelC1EP7QObject@Base 4.96.0
 _ZN16KFilePlacesModelC2EP7QObject@Base 4.96.0
 _ZN16KFilePlacesModelD0Ev@Base 4.96.0
 _ZN16KFilePlacesModelD1Ev@Base 4.96.0
 _ZN16KFilePlacesModelD2Ev@Base 4.96.0
 _ZN17KImageFilePreview10gotPreviewERK9KFileItemRK7QPixmap@Base 4.96.0
 _ZN17KImageFilePreview11qt_metacallEN11QMetaObject4CallEiPPv@Base 4.96.0
 _ZN17KImageFilePreview11qt_metacastEPKc@Base 4.96.0
 _ZN17KImageFilePreview11resizeEventEP12QResizeEvent@Base 4.96.0
 _ZN17KImageFilePreview11showPreviewERK4QUrl@Base 4.96.0
 _ZN17KImageFilePreview11showPreviewERK4QUrlb@Base 4.96.0
 _ZN17KImageFilePreview11showPreviewEv@Base 4.96.0
 _ZN17KImageFilePreview12clearPreviewEv@Base 4.96.0
 _ZN17KImageFilePreview16staticMetaObjectE@Base 4.96.0
 _ZN17KImageFilePreview24KImageFilePreviewPrivate13_k_slotFailedERK9KFileItem@Base 4.96.0
 _ZN17KImageFilePreview24KImageFilePreviewPrivate13_k_slotResultEP4KJob@Base 4.96.0
 _ZN17KImageFilePreview24KImageFilePreviewPrivate15_k_slotFinishedEv@Base 4.96.0
 _ZN17KImageFilePreview24KImageFilePreviewPrivate20_k_slotStepAnimationEi@Base 4.96.0
 _ZN17KImageFilePreview9createJobERK4QUrlii@Base 4.96.0
 _ZN17KImageFilePreviewC1EP7QWidget@Base 4.96.0
 _ZN17KImageFilePreviewC2EP7QWidget@Base 4.96.0
 _ZN17KImageFilePreviewD0Ev@Base 4.96.0
 _ZN17KImageFilePreviewD1Ev@Base 4.96.0
 _ZN17KImageFilePreviewD2Ev@Base 4.96.0
 _ZN18KPreviewWidgetBase11qt_metacallEN11QMetaObject4CallEiPPv@Base 4.96.0
 _ZN18KPreviewWidgetBase11qt_metacastEPKc@Base 4.96.0
 _ZN18KPreviewWidgetBase16staticMetaObjectE@Base 4.96.0
 _ZN18KPreviewWidgetBase21setSupportedMimeTypesERK11QStringList@Base 4.96.0
 _ZN18KPreviewWidgetBaseC1EP7QWidget@Base 4.96.0
 _ZN18KPreviewWidgetBaseC2EP7QWidget@Base 4.96.0
 _ZN18KPreviewWidgetBaseD0Ev@Base 4.96.0
 _ZN18KPreviewWidgetBaseD1Ev@Base 4.96.0
 _ZN18KPreviewWidgetBaseD2Ev@Base 4.96.0
 _ZN19KEncodingFileDialog21getOpenUrlAndEncodingERK7QStringRK4QUrlS2_P7QWidgetS2_@Base 4.96.0
 _ZN19KEncodingFileDialog21getSaveUrlAndEncodingERK7QStringRK4QUrlS2_P7QWidgetS2_@Base 4.96.0
 _ZN19KEncodingFileDialog22getOpenUrlsAndEncodingERK7QStringRK4QUrlS2_P7QWidgetS2_@Base 4.96.0
 _ZN19KEncodingFileDialog26getOpenFileNameAndEncodingERK7QStringRK4QUrlS2_P7QWidgetS2_@Base 4.96.0
 _ZN19KEncodingFileDialog26getSaveFileNameAndEncodingERK7QStringRK4QUrlS2_P7QWidgetS2_@Base 4.96.0
 _ZN19KEncodingFileDialog27getOpenFileNamesAndEncodingERK7QStringRK4QUrlS2_P7QWidgetS2_@Base 4.96.0
 _ZN21KFilePreviewGenerator11qt_metacallEN11QMetaObject4CallEiPPv@Base 4.96.0
 _ZN21KFilePreviewGenerator11qt_metacastEPKc@Base 4.96.0
 _ZN21KFilePreviewGenerator11updateIconsEv@Base 4.96.0
 _ZN21KFilePreviewGenerator14cancelPreviewsEv@Base 4.96.0
 _ZN21KFilePreviewGenerator14updatePreviewsEv@Base 4.96.0
 _ZN21KFilePreviewGenerator15setPreviewShownEb@Base 4.96.0
 _ZN21KFilePreviewGenerator16staticMetaObjectE@Base 4.96.0
 _ZN21KFilePreviewGenerator17setEnabledPluginsERK11QStringList@Base 4.96.0
 _ZN21KFilePreviewGenerator7Private10orderItemsER13KFileItemList@Base 4.96.0
 _ZN21KFilePreviewGenerator7Private11limitToSizeER7QPixmapRK5QSize@Base 4.96.0
 _ZN21KFilePreviewGenerator7Private11updateIconsERK11QModelIndexS3_@Base 4.96.0
 _ZN21KFilePreviewGenerator7Private11updateIconsERK13KFileItemList@Base 4.96.0
 _ZN21KFilePreviewGenerator7Private14addItemsToListERK11QModelIndexR13KFileItemList@Base 4.96.0
 _ZN21KFilePreviewGenerator7Private14createPreviewsERK13KFileItemList@Base 4.96.0
 _ZN21KFilePreviewGenerator7Private14updateCutItemsEv@Base 4.96.0
 _ZN21KFilePreviewGenerator7Private15applyImageFrameER7QPixmap@Base 4.96.0
 _ZN21KFilePreviewGenerator7Private15killPreviewJobsEv@Base 4.96.0
 _ZN21KFilePreviewGenerator7Private15resolveMimeTypeEv@Base 4.96.0
 _ZN21KFilePreviewGenerator7Private15startPreviewJobERK13KFileItemListii@Base 4.96.0
 _ZN21KFilePreviewGenerator7Private16pauseIconUpdatesEv@Base 4.96.0
 _ZN21KFilePreviewGenerator7Private17addToPreviewQueueERK9KFileItemRK7QPixmap@Base 4.96.0
 _ZN21KFilePreviewGenerator7Private17delayedIconUpdateEv@Base 4.96.0
 _ZN21KFilePreviewGenerator7Private17resumeIconUpdatesEv@Base 4.96.0
 _ZN21KFilePreviewGenerator7Private18applyCutItemEffectERK13KFileItemList@Base 4.96.0
 _ZN21KFilePreviewGenerator7Private18clearCutItemsCacheEv@Base 4.96.0
 _ZN21KFilePreviewGenerator7Private19requestSequenceIconERK11QModelIndexi@Base 4.96.0
 _ZN21KFilePreviewGenerator7Private20rowsAboutToBeRemovedERK11QModelIndexii@Base 4.96.0
 _ZN21KFilePreviewGenerator7Private22slotPreviewJobFinishedEP4KJob@Base 4.96.0
 _ZN21KFilePreviewGenerator7Private22startMimeTypeResolvingEv@Base 4.96.0
 _ZN21KFilePreviewGenerator7Private23dispatchIconUpdateQueueEv@Base 4.96.0
 _ZN21KFilePreviewGenerator7PrivateC1EPS_P20KAbstractViewAdapterP18QAbstractItemModel@Base 4.96.0
 _ZN21KFilePreviewGenerator7PrivateC2EPS_P20KAbstractViewAdapterP18QAbstractItemModel@Base 4.96.0
 _ZN21KFilePreviewGenerator7PrivateD1Ev@Base 4.96.0
 _ZN21KFilePreviewGenerator7PrivateD2Ev@Base 4.96.0
 _ZN21KFilePreviewGeneratorC1EP17QAbstractItemView@Base 4.96.0
 _ZN21KFilePreviewGeneratorC1EP20KAbstractViewAdapterP19QAbstractProxyModel@Base 4.96.0
 _ZN21KFilePreviewGeneratorC2EP17QAbstractItemView@Base 4.96.0
 _ZN21KFilePreviewGeneratorC2EP20KAbstractViewAdapterP19QAbstractProxyModel@Base 4.96.0
 _ZN21KFilePreviewGeneratorD0Ev@Base 4.96.0
 _ZN21KFilePreviewGeneratorD1Ev@Base 4.96.0
 _ZN21KFilePreviewGeneratorD2Ev@Base 4.96.0
 _ZN22KNameAndUrlInputDialog11qt_metacallEN11QMetaObject4CallEiPPv@Base 4.96.0
 _ZN22KNameAndUrlInputDialog11qt_metacastEPKc@Base 4.96.0
 _ZN22KNameAndUrlInputDialog15setSuggestedUrlERK4QUrl@Base 4.96.0
 _ZN22KNameAndUrlInputDialog16setSuggestedNameERK7QString@Base 4.96.0
 _ZN22KNameAndUrlInputDialog16staticMetaObjectE@Base 4.96.0
 _ZN22KNameAndUrlInputDialogC1ERK7QStringS2_RK4QUrlP7QWidget@Base 4.96.0
 _ZN22KNameAndUrlInputDialogC2ERK7QStringS2_RK4QUrlP7QWidget@Base 4.96.0
 _ZN22KNameAndUrlInputDialogD0Ev@Base 4.96.0
 _ZN22KNameAndUrlInputDialogD1Ev@Base 4.96.0
 _ZN22KNameAndUrlInputDialogD2Ev@Base 4.96.0
 _ZN24KDirSortFilterProxyModel11qt_metacallEN11QMetaObject4CallEiPPv@Base 4.96.0
 _ZN24KDirSortFilterProxyModel11qt_metacastEPKc@Base 4.96.0
 _ZN24KDirSortFilterProxyModel16staticMetaObjectE@Base 4.96.0
 _ZN24KDirSortFilterProxyModel19setSortFoldersFirstEb@Base 4.96.0
 _ZN24KDirSortFilterProxyModel20pointsForPermissionsERK9QFileInfo@Base 4.96.0
 _ZN24KDirSortFilterProxyModel31KDirSortFilterProxyModelPrivate25slotNaturalSortingChangedEv@Base 4.96.0
 _ZN24KDirSortFilterProxyModel31KDirSortFilterProxyModelPrivate7compareERK7QStringS3_N2Qt15CaseSensitivityE@Base 4.96.0
 _ZN24KDirSortFilterProxyModel31KDirSortFilterProxyModelPrivateC1Ev@Base 4.96.0
 _ZN24KDirSortFilterProxyModel31KDirSortFilterProxyModelPrivateC2Ev@Base 4.96.0
 _ZN24KDirSortFilterProxyModelC1EP7QObject@Base 4.96.0
 _ZN24KDirSortFilterProxyModelC2EP7QObject@Base 4.96.0
 _ZN24KDirSortFilterProxyModelD0Ev@Base 4.96.0
 _ZN24KDirSortFilterProxyModelD1Ev@Base 4.96.0
 _ZN24KDirSortFilterProxyModelD2Ev@Base 4.96.0
 _ZN26KStatusBarOfflineIndicator11qt_metacallEN11QMetaObject4CallEiPPv@Base 4.96.0
 _ZN26KStatusBarOfflineIndicator11qt_metacastEPKc@Base 4.96.0
 _ZN26KStatusBarOfflineIndicator16staticMetaObjectE@Base 4.96.0
 _ZN26KStatusBarOfflineIndicatorC1EP7QWidget@Base 4.96.0
 _ZN26KStatusBarOfflineIndicatorC2EP7QWidget@Base 4.96.0
 _ZN26KStatusBarOfflineIndicatorD0Ev@Base 4.96.0
 _ZN26KStatusBarOfflineIndicatorD1Ev@Base 4.96.0
 _ZN26KStatusBarOfflineIndicatorD2Ev@Base 4.96.0
 _ZN3KIO18DefaultViewAdapter7connectEN20KAbstractViewAdapter6SignalEP7QObjectPKc@Base 4.96.0
 _ZN3KIO18DefaultViewAdapterC1EP17QAbstractItemViewP7QObject@Base 4.96.0
 _ZN3KIO18DefaultViewAdapterC2EP17QAbstractItemViewP7QObject@Base 4.96.0
 _ZNK11KFileWidget10metaObjectEv@Base 4.96.0
 _ZNK11KFileWidget11selectedUrlEv@Base 4.96.0
 _ZNK11KFileWidget12cancelButtonEv@Base 4.96.0
 _ZNK11KFileWidget12filterWidgetEv@Base 4.96.0
 _ZNK11KFileWidget12locationEditEv@Base 4.96.0
 _ZNK11KFileWidget12selectedFileEv@Base 4.96.0
 _ZNK11KFileWidget12selectedUrlsEv@Base 4.96.0
 _ZNK11KFileWidget13currentFilterEv@Base 4.96.0
 _ZNK11KFileWidget13keepsLocationEv@Base 4.96.0
 _ZNK11KFileWidget13operationModeEv@Base 4.96.0
 _ZNK11KFileWidget13selectedFilesEv@Base 4.96.0
 _ZNK11KFileWidget14dialogSizeHintEv@Base 4.96.0
 _ZNK11KFileWidget16actionCollectionEv@Base 4.96.0
 _ZNK11KFileWidget17currentMimeFilterEv@Base 4.96.0
 _ZNK11KFileWidget4modeEv@Base 4.96.0
 _ZNK11KFileWidget7baseUrlEv@Base 4.96.0
 _ZNK11KFileWidget7toolBarEv@Base 4.96.0
 _ZNK11KFileWidget8okButtonEv@Base 4.96.0
 _ZNK11KFileWidget8sizeHintEv@Base 5.16.0
 _ZNK12KConfigGroup9readEntryIbEET_PKcRKS1_@Base 4.100.0
 _ZNK12KConfigGroup9readEntryIiEET_PKcRKS1_@Base 4.100.0
 _ZNK12KDirOperator10isSelectedERK9KFileItem@Base 4.96.0
 _ZNK12KDirOperator10metaObjectEv@Base 4.96.0
 _ZNK12KDirOperator10mimeFilterEv@Base 4.96.0
 _ZNK12KDirOperator10nameFilterEv@Base 4.96.0
 _ZNK12KDirOperator11dirOnlyModeEv@Base 4.96.0
 _ZNK12KDirOperator11progressBarEv@Base 4.96.0
 _ZNK12KDirOperator13selectedItemsEv@Base 4.96.0
 _ZNK12KDirOperator15dirHighlightingEv@Base 4.96.0
 _ZNK12KDirOperator15showHiddenFilesEv@Base 4.96.0
 _ZNK12KDirOperator15viewConfigGroupEv@Base 4.96.0
 _ZNK12KDirOperator16actionCollectionEv@Base 4.96.0
 _ZNK12KDirOperator16completionObjectEv@Base 4.96.0
 _ZNK12KDirOperator16previewGeneratorEv@Base 4.96.0
 _ZNK12KDirOperator18decorationPositionEv@Base 4.96.0
 _ZNK12KDirOperator19dirCompletionObjectEv@Base 4.96.0
 _ZNK12KDirOperator20isInlinePreviewShownEv@Base 4.96.0
 _ZNK12KDirOperator27onlyDoubleClickSelectsFilesEv@Base 4.96.0
 _ZNK12KDirOperator29newFileMenuSupportedMimeTypesEv@Base 4.96.0
 _ZNK12KDirOperator3urlEv@Base 4.96.0
 _ZNK12KDirOperator4modeEv@Base 4.96.0
 _ZNK12KDirOperator4viewEv@Base 4.96.0
 _ZNK12KDirOperator6isRootEv@Base 4.96.0
 _ZNK12KDirOperator7Private10sortColumnEv@Base 4.96.0
 _ZNK12KDirOperator7Private19iconSizeForViewTypeEP17QAbstractItemView@Base 4.96.0
 _ZNK12KDirOperator7Private20checkPreviewInternalEv@Base 4.96.0
 _ZNK12KDirOperator7Private9sortOrderEv@Base 4.96.0
 _ZNK12KDirOperator7numDirsEv@Base 4.96.0
 _ZNK12KDirOperator7sortingEv@Base 4.96.0
 _ZNK12KDirOperator8isSavingEv@Base 4.96.0
 _ZNK12KDirOperator8numFilesEv@Base 4.96.0
 _ZNK12KDirOperator8viewModeEv@Base 4.99.0
 _ZNK12KDirOperator9dirListerEv@Base 4.96.0
 _ZNK12KDirOperator9iconsZoomEv@Base 4.96.0
 _ZNK12KNewFileMenu10metaObjectEv@Base 4.96.0
 _ZNK12KNewFileMenu10popupFilesEv@Base 4.96.0
 _ZNK12KNewFileMenu18supportedMimeTypesEv@Base 4.96.0
 _ZNK12KNewFileMenu7isModalEv@Base 4.96.0
 _ZNK13KUrlNavigator10historyUrlEi@Base 4.96.0
 _ZNK13KUrlNavigator10metaObjectEv@Base 4.96.0
 _ZNK13KUrlNavigator11historySizeEv@Base 4.96.0
 _ZNK13KUrlNavigator11locationUrlEi@Base 4.96.0
 _ZNK13KUrlNavigator12historyIndexEv@Base 4.96.0
 _ZNK13KUrlNavigator12savedRootUrlEv@Base 4.96.0
 _ZNK13KUrlNavigator12showFullPathEv@Base 4.96.0
 _ZNK13KUrlNavigator13isUrlEditableEv@Base 4.96.0
 _ZNK13KUrlNavigator13locationStateEi@Base 4.96.0
 _ZNK13KUrlNavigator13savedPositionEv@Base 4.96.0
 _ZNK13KUrlNavigator14uncommittedUrlEv@Base 4.96.0
 _ZNK13KUrlNavigator15customProtocolsEv@Base 4.96.0
 _ZNK13KUrlNavigator23isPlacesSelectorVisibleEv@Base 4.96.0
 _ZNK13KUrlNavigator3urlEi@Base 4.96.0
 _ZNK13KUrlNavigator3urlEv@Base 4.96.0
 _ZNK13KUrlNavigator6editorEv@Base 4.96.0
 _ZNK13KUrlNavigator7Private15firstButtonTextEv@Base 4.96.0
 _ZNK13KUrlNavigator7Private16isCompressedPathERK4QUrl@Base 4.96.0
 _ZNK13KUrlNavigator7Private16retrievePlaceUrlEv@Base 5.17.0
 _ZNK13KUrlNavigator7Private19removeTrailingSlashER7QString@Base 4.96.0
 _ZNK13KUrlNavigator7Private20adjustedHistoryIndexEi@Base 4.96.0
 _ZNK13KUrlNavigator7Private9buttonUrlEi@Base 4.96.0
 _ZNK13KUrlNavigator7homeUrlEv@Base 4.96.0
 _ZNK13KUrlNavigator8isActiveEv@Base 4.96.0
 _ZNK15KFileCopyToMenu10metaObjectEv@Base 5.6.0+git20150116.0016+15.04
 _ZNK15KFileCopyToMenu12addActionsToEP5QMenu@Base 5.6.0+git20150116.0016+15.04
 _ZNK15KFilePlacesView10metaObjectEv@Base 4.96.0
 _ZNK15KFilePlacesView20isDropOnPlaceEnabledEv@Base 4.96.0
 _ZNK15KFilePlacesView24isAutoResizeItemsEnabledEv@Base 4.96.0
 _ZNK15KFilePlacesView7Private11insertAboveERK5QRectRK6QPoint@Base 4.96.0
 _ZNK15KFilePlacesView7Private11insertBelowERK5QRectRK6QPoint@Base 4.96.0
 _ZNK15KFilePlacesView7Private21insertIndicatorHeightEi@Base 4.96.0
 _ZNK15KFilePlacesView8sizeHintEv@Base 4.96.0
 _ZNK16KFileFilterCombo10metaObjectEv@Base 4.96.0
 _ZNK16KFileFilterCombo12isMimeFilterEv@Base 4.96.0
 _ZNK16KFileFilterCombo13currentFilterEv@Base 4.96.0
 _ZNK16KFileFilterCombo13defaultFilterEv@Base 4.96.0
 _ZNK16KFileFilterCombo13showsAllTypesEv@Base 4.96.0
 _ZNK16KFileFilterCombo7filtersEv@Base 4.96.0
 _ZNK16KFileMetaPreview10metaObjectEv@Base 4.96.0
 _ZNK16KFileMetaPreview20findExistingProviderERK7QStringRK9QMimeType@Base 4.96.0
 _ZNK16KFilePlacesModel10metaObjectEv@Base 4.96.0
 _ZNK16KFilePlacesModel11closestItemERK4QUrl@Base 4.96.0
 _ZNK16KFilePlacesModel11columnCountERK11QModelIndex@Base 4.96.0
 _ZNK16KFilePlacesModel11hiddenCountEv@Base 4.96.0
 _ZNK16KFilePlacesModel11removePlaceERK11QModelIndex@Base 4.96.0
 _ZNK16KFilePlacesModel11setupNeededERK11QModelIndex@Base 4.96.0
 _ZNK16KFilePlacesModel14deviceForIndexERK11QModelIndex@Base 4.96.0
 _ZNK16KFilePlacesModel16bookmarkForIndexERK11QModelIndex@Base 4.96.0
 _ZNK16KFilePlacesModel19ejectActionForIndexERK11QModelIndex@Base 4.96.0
 _ZNK16KFilePlacesModel20supportedDropActionsEv@Base 4.96.0
 _ZNK16KFilePlacesModel22teardownActionForIndexERK11QModelIndex@Base 4.96.0
 _ZNK16KFilePlacesModel3urlERK11QModelIndex@Base 4.96.0
 _ZNK16KFilePlacesModel4dataERK11QModelIndexi@Base 4.96.0
 _ZNK16KFilePlacesModel4iconERK11QModelIndex@Base 4.96.0
 _ZNK16KFilePlacesModel4textERK11QModelIndex@Base 4.96.0
 _ZNK16KFilePlacesModel5flagsERK11QModelIndex@Base 4.96.0
 _ZNK16KFilePlacesModel5indexEiiRK11QModelIndex@Base 4.96.0
 _ZNK16KFilePlacesModel6parentERK11QModelIndex@Base 4.96.0
 _ZNK16KFilePlacesModel8isDeviceERK11QModelIndex@Base 4.96.0
 _ZNK16KFilePlacesModel8isHiddenERK11QModelIndex@Base 4.96.0
 _ZNK16KFilePlacesModel8mimeDataERK5QListI11QModelIndexE@Base 4.96.0
 _ZNK16KFilePlacesModel8rowCountERK11QModelIndex@Base 4.96.0
 _ZNK16KFilePlacesModel9mimeTypesEv@Base 4.96.0
 _ZNK17KImageFilePreview10metaObjectEv@Base 4.96.0
 _ZNK17KImageFilePreview8sizeHintEv@Base 4.96.0
 _ZNK18KPreviewWidgetBase10metaObjectEv@Base 4.96.0
 _ZNK18KPreviewWidgetBase18supportedMimeTypesEv@Base 4.96.0
 _ZNK21KFilePreviewGenerator10metaObjectEv@Base 4.96.0
 _ZNK21KFilePreviewGenerator14enabledPluginsEv@Base 4.96.0
 _ZNK21KFilePreviewGenerator14isPreviewShownEv@Base 4.96.0
 _ZNK21KFilePreviewGenerator7Private9isCutItemERK9KFileItem@Base 4.96.0
 _ZNK22KNameAndUrlInputDialog10metaObjectEv@Base 4.96.0
 _ZNK22KNameAndUrlInputDialog3urlEv@Base 4.96.0
 _ZNK22KNameAndUrlInputDialog4nameEv@Base 4.96.0
 _ZNK24KDirSortFilterProxyModel10metaObjectEv@Base 4.96.0
 _ZNK24KDirSortFilterProxyModel11hasChildrenERK11QModelIndex@Base 4.96.0
 _ZNK24KDirSortFilterProxyModel12canFetchMoreERK11QModelIndex@Base 4.96.0
 _ZNK24KDirSortFilterProxyModel15subSortLessThanERK11QModelIndexS2_@Base 4.96.0
 _ZNK24KDirSortFilterProxyModel16sortFoldersFirstEv@Base 4.96.0
 _ZNK24KDirSortFilterProxyModel20supportedDragOptionsEv@Base 4.96.0
 _ZNK26KStatusBarOfflineIndicator10metaObjectEv@Base 4.96.0
 _ZNK3KIO18DefaultViewAdapter10visualRectERK11QModelIndex@Base 4.96.0
 _ZNK3KIO18DefaultViewAdapter11visibleAreaEv@Base 4.96.0
 _ZNK3KIO18DefaultViewAdapter5modelEv@Base 4.96.0
 _ZNK3KIO18DefaultViewAdapter7paletteEv@Base 4.96.0
 _ZNK3KIO18DefaultViewAdapter8iconSizeEv@Base 4.96.0
 _ZTI11KFileWidget@Base 4.96.0
 _ZTI12KDirOperator@Base 4.96.0
 _ZTI12KNewFileMenu@Base 4.96.0
 _ZTI13KUrlNavigator@Base 4.96.0
 _ZTI15KFileCopyToMenu@Base 5.6.0+git20150116.0016+15.04
 _ZTI15KFilePlacesView@Base 4.96.0
 _ZTI16KFileFilterCombo@Base 4.96.0
 _ZTI16KFileMetaPreview@Base 4.96.0
 _ZTI16KFilePlacesModel@Base 4.96.0
 _ZTI17KImageFilePreview@Base 4.96.0
 _ZTI18KPreviewWidgetBase@Base 4.96.0
 _ZTI20KAbstractViewAdapter@Base 4.96.0
 _ZTI21KFilePreviewGenerator@Base 4.96.0
 _ZTI22KNameAndUrlInputDialog@Base 4.96.0
 _ZTI24KDirSortFilterProxyModel@Base 4.96.0
 _ZTI26KStatusBarOfflineIndicator@Base 4.96.0
 _ZTIN3KIO18DefaultViewAdapterE@Base 4.96.0
 _ZTS11KFileWidget@Base 4.96.0
 _ZTS12KDirOperator@Base 4.96.0
 _ZTS12KNewFileMenu@Base 4.96.0
 _ZTS13KUrlNavigator@Base 4.96.0
 _ZTS15KFileCopyToMenu@Base 5.6.0+git20150116.0016+15.04
 _ZTS15KFilePlacesView@Base 4.96.0
 _ZTS16KFileFilterCombo@Base 4.96.0
 _ZTS16KFileMetaPreview@Base 4.96.0
 _ZTS16KFilePlacesModel@Base 4.96.0
 _ZTS17KImageFilePreview@Base 4.96.0
 _ZTS18KPreviewWidgetBase@Base 4.96.0
 _ZTS20KAbstractViewAdapter@Base 4.96.0
 _ZTS21KFilePreviewGenerator@Base 4.96.0
 _ZTS22KNameAndUrlInputDialog@Base 4.96.0
 _ZTS24KDirSortFilterProxyModel@Base 4.96.0
 _ZTS26KStatusBarOfflineIndicator@Base 4.96.0
 _ZTSN3KIO18DefaultViewAdapterE@Base 4.96.0
 _ZTV11KFileWidget@Base 4.96.0
 _ZTV12KDirOperator@Base 4.96.0
 _ZTV12KNewFileMenu@Base 4.96.0
 _ZTV13KUrlNavigator@Base 4.96.0
 _ZTV15KFileCopyToMenu@Base 5.6.0+git20150116.0016+15.04
 _ZTV15KFilePlacesView@Base 4.96.0
 _ZTV16KFileFilterCombo@Base 4.96.0
 _ZTV16KFileMetaPreview@Base 4.96.0
 _ZTV16KFilePlacesModel@Base 4.96.0
 _ZTV17KImageFilePreview@Base 4.96.0
 _ZTV18KPreviewWidgetBase@Base 4.96.0
 _ZTV20KAbstractViewAdapter@Base 4.96.0
 _ZTV21KFilePreviewGenerator@Base 4.96.0
 _ZTV22KNameAndUrlInputDialog@Base 4.96.0
 _ZTV24KDirSortFilterProxyModel@Base 4.96.0
 _ZTV26KStatusBarOfflineIndicator@Base 4.96.0
 _ZTVN3KIO18DefaultViewAdapterE@Base 4.96.0
 _ZThn16_N11KFileWidgetD0Ev@Base 4.96.0
 _ZThn16_N11KFileWidgetD1Ev@Base 4.96.0
 _ZThn16_N12KDirOperatorD0Ev@Base 4.96.0
 _ZThn16_N12KDirOperatorD1Ev@Base 4.96.0
 _ZThn16_N13KUrlNavigatorD0Ev@Base 4.96.0
 _ZThn16_N13KUrlNavigatorD1Ev@Base 4.96.0
 _ZThn16_N15KFilePlacesViewD0Ev@Base 4.96.0
 _ZThn16_N15KFilePlacesViewD1Ev@Base 4.96.0
 _ZThn16_N16KFileFilterComboD0Ev@Base 4.96.0
 _ZThn16_N16KFileFilterComboD1Ev@Base 4.96.0
 _ZThn16_N16KFileMetaPreviewD0Ev@Base 4.96.0
 _ZThn16_N16KFileMetaPreviewD1Ev@Base 4.96.0
 _ZThn16_N17KImageFilePreviewD0Ev@Base 4.96.0
 _ZThn16_N17KImageFilePreviewD1Ev@Base 4.96.0
 _ZThn16_N18KPreviewWidgetBaseD0Ev@Base 4.96.0
 _ZThn16_N18KPreviewWidgetBaseD1Ev@Base 4.96.0
 _ZThn16_N22KNameAndUrlInputDialogD0Ev@Base 4.96.0
 _ZThn16_N22KNameAndUrlInputDialogD1Ev@Base 4.96.0
 _ZThn16_N26KStatusBarOfflineIndicatorD0Ev@Base 4.96.0
 _ZThn16_N26KStatusBarOfflineIndicatorD1Ev@Base 4.96.0
 _ZThn48_N16KFileFilterComboD0Ev@Base 4.96.0
 _ZThn48_N16KFileFilterComboD1Ev@Base 4.96.0
