libKF5GAPIContacts.so.5 libkf5gapicontacts5 #MINVER#
 _ZN6KGAPI213ContactsGroup10setContentERK7QString@Base 4.80.0
 _ZN6KGAPI213ContactsGroup10setUpdatedERK9QDateTime@Base 4.80.0
 _ZN6KGAPI213ContactsGroup16setIsSystemGroupEb@Base 4.80.0
 _ZN6KGAPI213ContactsGroup5setIdERK7QString@Base 4.80.0
 _ZN6KGAPI213ContactsGroup8setTitleERK7QString@Base 4.80.0
 _ZN6KGAPI213ContactsGroupC1ERKS0_@Base 4.80.0
 _ZN6KGAPI213ContactsGroupC1Ev@Base 4.80.0
 _ZN6KGAPI213ContactsGroupC2ERKS0_@Base 4.80.0
 _ZN6KGAPI213ContactsGroupC2Ev@Base 4.80.0
 _ZN6KGAPI213ContactsGroupD0Ev@Base 4.80.0
 _ZN6KGAPI213ContactsGroupD1Ev@Base 4.80.0
 _ZN6KGAPI213ContactsGroupD2Ev@Base 4.80.0
 _ZN6KGAPI215ContactFetchJob11qt_metacallEN11QMetaObject4CallEiPPv@Base 4.80.0
 _ZN6KGAPI215ContactFetchJob11qt_metacastEPKc@Base 4.80.0
 _ZN6KGAPI215ContactFetchJob15setFetchDeletedEb@Base 4.80.0
 _ZN6KGAPI215ContactFetchJob16fetchOnlyUpdatedEv@Base 4.80.0
 _ZN6KGAPI215ContactFetchJob16staticMetaObjectE@Base 4.80.0
 _ZN6KGAPI215ContactFetchJob19setFetchOnlyUpdatedEy@Base 4.80.0
 _ZN6KGAPI215ContactFetchJob20handleReplyWithItemsEPK13QNetworkReplyRK10QByteArray@Base 4.80.0
 _ZN6KGAPI215ContactFetchJob5startEv@Base 4.80.0
 _ZN6KGAPI215ContactFetchJob9setFilterERK7QString@Base 4.80.0
 _ZN6KGAPI215ContactFetchJobC1ERK14QSharedPointerINS_7AccountEEP7QObject@Base 4.80.0
 _ZN6KGAPI215ContactFetchJobC1ERK7QStringRK14QSharedPointerINS_7AccountEEP7QObject@Base 4.80.0
 _ZN6KGAPI215ContactFetchJobC2ERK14QSharedPointerINS_7AccountEEP7QObject@Base 4.80.0
 _ZN6KGAPI215ContactFetchJobC2ERK7QStringRK14QSharedPointerINS_7AccountEEP7QObject@Base 4.80.0
 _ZN6KGAPI215ContactFetchJobD0Ev@Base 4.80.0
 _ZN6KGAPI215ContactFetchJobD1Ev@Base 4.80.0
 _ZN6KGAPI215ContactFetchJobD2Ev@Base 4.80.0
 _ZN6KGAPI215ContactsService10APIVersionEv@Base 4.80.0
 _ZN6KGAPI215ContactsService12XMLToContactERK10QByteArray@Base 4.80.0
 _ZN6KGAPI215ContactsService12contactToXMLERK14QSharedPointerINS_7ContactEE@Base 4.80.0
 _ZN6KGAPI215ContactsService13JSONToContactERK10QByteArray@Base 4.80.0
 _ZN6KGAPI215ContactsService13fetchGroupUrlERK7QStringS3_@Base 4.80.0
 _ZN6KGAPI215ContactsService13parseJSONFeedERK10QByteArrayRNS_8FeedDataE@Base 4.80.0
 _ZN6KGAPI215ContactsService14createGroupUrlERK7QString@Base 4.80.0
 _ZN6KGAPI215ContactsService14removeGroupUrlERK7QStringS3_@Base 4.80.0
 _ZN6KGAPI215ContactsService14updateGroupUrlERK7QStringS3_@Base 4.80.0
 _ZN6KGAPI215ContactsService15fetchContactUrlERK7QStringS3_@Base 4.80.0
 _ZN6KGAPI215ContactsService16createContactUrlERK7QString@Base 4.80.0
 _ZN6KGAPI215ContactsService16removeContactUrlERK7QStringS3_@Base 4.80.0
 _ZN6KGAPI215ContactsService16updateContactUrlERK7QStringS3_@Base 4.80.0
 _ZN6KGAPI215ContactsService17fetchAllGroupsUrlERK7QString@Base 4.80.0
 _ZN6KGAPI215ContactsService18XMLToContactsGroupERK10QByteArray@Base 4.80.0
 _ZN6KGAPI215ContactsService18contactsGroupToXMLERK14QSharedPointerINS_13ContactsGroupEE@Base 4.80.0
 _ZN6KGAPI215ContactsService19JSONToContactsGroupERK10QByteArray@Base 4.80.0
 _ZN6KGAPI215ContactsService19fetchAllContactsUrlERK7QStringRKb@Base 4.80.0
 _ZN6KGAPI215ContactsService8photoUrlERK7QStringS3_@Base 4.80.0
 _ZN6KGAPI216ContactCreateJob11qt_metacallEN11QMetaObject4CallEiPPv@Base 4.80.0
 _ZN6KGAPI216ContactCreateJob11qt_metacastEPKc@Base 4.80.0
 _ZN6KGAPI216ContactCreateJob15dispatchRequestEP21QNetworkAccessManagerRK15QNetworkRequestRK10QByteArrayRK7QString@Base 4.80.0
 _ZN6KGAPI216ContactCreateJob16staticMetaObjectE@Base 4.80.0
 _ZN6KGAPI216ContactCreateJob20handleReplyWithItemsEPK13QNetworkReplyRK10QByteArray@Base 4.80.0
 _ZN6KGAPI216ContactCreateJob5startEv@Base 4.80.0
 _ZN6KGAPI216ContactCreateJobC1ERK14QSharedPointerINS_7ContactEERKS1_INS_7AccountEEP7QObject@Base 4.80.0
 _ZN6KGAPI216ContactCreateJobC1ERK5QListI14QSharedPointerINS_7ContactEEERKS2_INS_7AccountEEP7QObject@Base 4.80.0
 _ZN6KGAPI216ContactCreateJobC2ERK14QSharedPointerINS_7ContactEERKS1_INS_7AccountEEP7QObject@Base 4.80.0
 _ZN6KGAPI216ContactCreateJobC2ERK5QListI14QSharedPointerINS_7ContactEEERKS2_INS_7AccountEEP7QObject@Base 4.80.0
 _ZN6KGAPI216ContactCreateJobD0Ev@Base 4.80.0
 _ZN6KGAPI216ContactCreateJobD1Ev@Base 4.80.0
 _ZN6KGAPI216ContactCreateJobD2Ev@Base 4.80.0
 _ZN6KGAPI216ContactDeleteJob11handleReplyEPK13QNetworkReplyRK10QByteArray@Base 4.80.0
 _ZN6KGAPI216ContactDeleteJob11qt_metacallEN11QMetaObject4CallEiPPv@Base 4.80.0
 _ZN6KGAPI216ContactDeleteJob11qt_metacastEPKc@Base 4.80.0
 _ZN6KGAPI216ContactDeleteJob16staticMetaObjectE@Base 4.80.0
 _ZN6KGAPI216ContactDeleteJob5startEv@Base 4.80.0
 _ZN6KGAPI216ContactDeleteJobC1E11QStringListRK14QSharedPointerINS_7AccountEEP7QObject@Base 4.80.0
 _ZN6KGAPI216ContactDeleteJobC1ERK14QSharedPointerINS_7ContactEERKS1_INS_7AccountEEP7QObject@Base 4.80.0
 _ZN6KGAPI216ContactDeleteJobC1ERK5QListI14QSharedPointerINS_7ContactEEERKS2_INS_7AccountEEP7QObject@Base 4.80.0
 _ZN6KGAPI216ContactDeleteJobC1ERK7QStringRK14QSharedPointerINS_7AccountEEP7QObject@Base 4.80.0
 _ZN6KGAPI216ContactDeleteJobC2E11QStringListRK14QSharedPointerINS_7AccountEEP7QObject@Base 4.80.0
 _ZN6KGAPI216ContactDeleteJobC2ERK14QSharedPointerINS_7ContactEERKS1_INS_7AccountEEP7QObject@Base 4.80.0
 _ZN6KGAPI216ContactDeleteJobC2ERK5QListI14QSharedPointerINS_7ContactEEERKS2_INS_7AccountEEP7QObject@Base 4.80.0
 _ZN6KGAPI216ContactDeleteJobC2ERK7QStringRK14QSharedPointerINS_7AccountEEP7QObject@Base 4.80.0
 _ZN6KGAPI216ContactDeleteJobD0Ev@Base 4.80.0
 _ZN6KGAPI216ContactDeleteJobD1Ev@Base 4.80.0
 _ZN6KGAPI216ContactDeleteJobD2Ev@Base 4.80.0
 _ZN6KGAPI216ContactModifyJob11qt_metacallEN11QMetaObject4CallEiPPv@Base 4.80.0
 _ZN6KGAPI216ContactModifyJob11qt_metacastEPKc@Base 4.80.0
 _ZN6KGAPI216ContactModifyJob15dispatchRequestEP21QNetworkAccessManagerRK15QNetworkRequestRK10QByteArrayRK7QString@Base 4.80.0
 _ZN6KGAPI216ContactModifyJob16staticMetaObjectE@Base 4.80.0
 _ZN6KGAPI216ContactModifyJob20handleReplyWithItemsEPK13QNetworkReplyRK10QByteArray@Base 4.80.0
 _ZN6KGAPI216ContactModifyJob5startEv@Base 4.80.0
 _ZN6KGAPI216ContactModifyJobC1ERK14QSharedPointerINS_7ContactEERKS1_INS_7AccountEEP7QObject@Base 4.80.0
 _ZN6KGAPI216ContactModifyJobC1ERK5QListI14QSharedPointerINS_7ContactEEERKS2_INS_7AccountEEP7QObject@Base 4.80.0
 _ZN6KGAPI216ContactModifyJobC2ERK14QSharedPointerINS_7ContactEERKS1_INS_7AccountEEP7QObject@Base 4.80.0
 _ZN6KGAPI216ContactModifyJobC2ERK5QListI14QSharedPointerINS_7ContactEEERKS2_INS_7AccountEEP7QObject@Base 4.80.0
 _ZN6KGAPI216ContactModifyJobD0Ev@Base 4.80.0
 _ZN6KGAPI216ContactModifyJobD1Ev@Base 4.80.0
 _ZN6KGAPI216ContactModifyJobD2Ev@Base 4.80.0
 _ZN6KGAPI220ContactFetchPhotoJob11handleReplyEPK13QNetworkReplyRK10QByteArray@Base 4.80.0
 _ZN6KGAPI220ContactFetchPhotoJob11qt_metacallEN11QMetaObject4CallEiPPv@Base 4.80.0
 _ZN6KGAPI220ContactFetchPhotoJob11qt_metacastEPKc@Base 4.80.0
 _ZN6KGAPI220ContactFetchPhotoJob12photoFetchedEPNS_3JobERK14QSharedPointerINS_7ContactEE@Base 4.80.0
 _ZN6KGAPI220ContactFetchPhotoJob16staticMetaObjectE@Base 4.80.0
 _ZN6KGAPI220ContactFetchPhotoJob5startEv@Base 4.80.0
 _ZN6KGAPI220ContactFetchPhotoJobC1ERK14QSharedPointerINS_7ContactEERKS1_INS_7AccountEEP7QObject@Base 4.80.0
 _ZN6KGAPI220ContactFetchPhotoJobC1ERK5QListI14QSharedPointerINS_7ContactEEERKS2_INS_7AccountEEP7QObject@Base 4.80.0
 _ZN6KGAPI220ContactFetchPhotoJobC2ERK14QSharedPointerINS_7ContactEERKS1_INS_7AccountEEP7QObject@Base 4.80.0
 _ZN6KGAPI220ContactFetchPhotoJobC2ERK5QListI14QSharedPointerINS_7ContactEEERKS2_INS_7AccountEEP7QObject@Base 4.80.0
 _ZN6KGAPI220ContactFetchPhotoJobD0Ev@Base 4.80.0
 _ZN6KGAPI220ContactFetchPhotoJobD1Ev@Base 4.80.0
 _ZN6KGAPI220ContactFetchPhotoJobD2Ev@Base 4.80.0
 _ZN6KGAPI221ContactsGroupFetchJob11qt_metacallEN11QMetaObject4CallEiPPv@Base 4.80.0
 _ZN6KGAPI221ContactsGroupFetchJob11qt_metacastEPKc@Base 4.80.0
 _ZN6KGAPI221ContactsGroupFetchJob16staticMetaObjectE@Base 4.80.0
 _ZN6KGAPI221ContactsGroupFetchJob20handleReplyWithItemsEPK13QNetworkReplyRK10QByteArray@Base 4.80.0
 _ZN6KGAPI221ContactsGroupFetchJob5startEv@Base 4.80.0
 _ZN6KGAPI221ContactsGroupFetchJobC1ERK14QSharedPointerINS_7AccountEEP7QObject@Base 4.80.0
 _ZN6KGAPI221ContactsGroupFetchJobC1ERK7QStringRK14QSharedPointerINS_7AccountEEP7QObject@Base 4.80.0
 _ZN6KGAPI221ContactsGroupFetchJobC2ERK14QSharedPointerINS_7AccountEEP7QObject@Base 4.80.0
 _ZN6KGAPI221ContactsGroupFetchJobC2ERK7QStringRK14QSharedPointerINS_7AccountEEP7QObject@Base 4.80.0
 _ZN6KGAPI221ContactsGroupFetchJobD0Ev@Base 4.80.0
 _ZN6KGAPI221ContactsGroupFetchJobD1Ev@Base 4.80.0
 _ZN6KGAPI221ContactsGroupFetchJobD2Ev@Base 4.80.0
 _ZN6KGAPI222ContactsGroupCreateJob11qt_metacallEN11QMetaObject4CallEiPPv@Base 4.80.0
 _ZN6KGAPI222ContactsGroupCreateJob11qt_metacastEPKc@Base 4.80.0
 _ZN6KGAPI222ContactsGroupCreateJob16staticMetaObjectE@Base 4.80.0
 _ZN6KGAPI222ContactsGroupCreateJob20handleReplyWithItemsEPK13QNetworkReplyRK10QByteArray@Base 4.80.0
 _ZN6KGAPI222ContactsGroupCreateJob5startEv@Base 4.80.0
 _ZN6KGAPI222ContactsGroupCreateJobC1ERK14QSharedPointerINS_13ContactsGroupEERKS1_INS_7AccountEEP7QObject@Base 4.80.0
 _ZN6KGAPI222ContactsGroupCreateJobC1ERK5QListI14QSharedPointerINS_13ContactsGroupEEERKS2_INS_7AccountEEP7QObject@Base 4.80.0
 _ZN6KGAPI222ContactsGroupCreateJobC2ERK14QSharedPointerINS_13ContactsGroupEERKS1_INS_7AccountEEP7QObject@Base 4.80.0
 _ZN6KGAPI222ContactsGroupCreateJobC2ERK5QListI14QSharedPointerINS_13ContactsGroupEEERKS2_INS_7AccountEEP7QObject@Base 4.80.0
 _ZN6KGAPI222ContactsGroupCreateJobD0Ev@Base 4.80.0
 _ZN6KGAPI222ContactsGroupCreateJobD1Ev@Base 4.80.0
 _ZN6KGAPI222ContactsGroupCreateJobD2Ev@Base 4.80.0
 _ZN6KGAPI222ContactsGroupDeleteJob11handleReplyEPK13QNetworkReplyRK10QByteArray@Base 4.80.0
 _ZN6KGAPI222ContactsGroupDeleteJob11qt_metacallEN11QMetaObject4CallEiPPv@Base 4.80.0
 _ZN6KGAPI222ContactsGroupDeleteJob11qt_metacastEPKc@Base 4.80.0
 _ZN6KGAPI222ContactsGroupDeleteJob16staticMetaObjectE@Base 4.80.0
 _ZN6KGAPI222ContactsGroupDeleteJob5startEv@Base 4.80.0
 _ZN6KGAPI222ContactsGroupDeleteJobC1ERK11QStringListRK14QSharedPointerINS_7AccountEEP7QObject@Base 4.80.0
 _ZN6KGAPI222ContactsGroupDeleteJobC1ERK14QSharedPointerINS_13ContactsGroupEERKS1_INS_7AccountEEP7QObject@Base 4.80.0
 _ZN6KGAPI222ContactsGroupDeleteJobC1ERK5QListI14QSharedPointerINS_13ContactsGroupEEERKS2_INS_7AccountEEP7QObject@Base 4.80.0
 _ZN6KGAPI222ContactsGroupDeleteJobC1ERK7QStringRK14QSharedPointerINS_7AccountEEP7QObject@Base 4.80.0
 _ZN6KGAPI222ContactsGroupDeleteJobC2ERK11QStringListRK14QSharedPointerINS_7AccountEEP7QObject@Base 4.80.0
 _ZN6KGAPI222ContactsGroupDeleteJobC2ERK14QSharedPointerINS_13ContactsGroupEERKS1_INS_7AccountEEP7QObject@Base 4.80.0
 _ZN6KGAPI222ContactsGroupDeleteJobC2ERK5QListI14QSharedPointerINS_13ContactsGroupEEERKS2_INS_7AccountEEP7QObject@Base 4.80.0
 _ZN6KGAPI222ContactsGroupDeleteJobC2ERK7QStringRK14QSharedPointerINS_7AccountEEP7QObject@Base 4.80.0
 _ZN6KGAPI222ContactsGroupDeleteJobD0Ev@Base 4.80.0
 _ZN6KGAPI222ContactsGroupDeleteJobD1Ev@Base 4.80.0
 _ZN6KGAPI222ContactsGroupDeleteJobD2Ev@Base 4.80.0
 _ZN6KGAPI222ContactsGroupModifyJob11qt_metacallEN11QMetaObject4CallEiPPv@Base 4.80.0
 _ZN6KGAPI222ContactsGroupModifyJob11qt_metacastEPKc@Base 4.80.0
 _ZN6KGAPI222ContactsGroupModifyJob16staticMetaObjectE@Base 4.80.0
 _ZN6KGAPI222ContactsGroupModifyJob20handleReplyWithItemsEPK13QNetworkReplyRK10QByteArray@Base 4.80.0
 _ZN6KGAPI222ContactsGroupModifyJob5startEv@Base 4.80.0
 _ZN6KGAPI222ContactsGroupModifyJobC1ERK14QSharedPointerINS_13ContactsGroupEERKS1_INS_7AccountEEP7QObject@Base 4.80.0
 _ZN6KGAPI222ContactsGroupModifyJobC1ERK5QListI14QSharedPointerINS_13ContactsGroupEEERKS2_INS_7AccountEEP7QObject@Base 4.80.0
 _ZN6KGAPI222ContactsGroupModifyJobC2ERK14QSharedPointerINS_13ContactsGroupEERKS1_INS_7AccountEEP7QObject@Base 4.80.0
 _ZN6KGAPI222ContactsGroupModifyJobC2ERK5QListI14QSharedPointerINS_13ContactsGroupEEERKS2_INS_7AccountEEP7QObject@Base 4.80.0
 _ZN6KGAPI222ContactsGroupModifyJobD0Ev@Base 4.80.0
 _ZN6KGAPI222ContactsGroupModifyJobD1Ev@Base 4.80.0
 _ZN6KGAPI222ContactsGroupModifyJobD2Ev@Base 4.80.0
 _ZN6KGAPI27Contact10setCreatedERK9QDateTime@Base 4.80.0
 _ZN6KGAPI27Contact10setDeletedEb@Base 4.80.0
 _ZN6KGAPI27Contact10setUpdatedERK9QDateTime@Base 4.80.0
 _ZN6KGAPI27Contact11clearGroupsEv@Base 4.80.0
 _ZN6KGAPI27Contact11removeGroupERK7QString@Base 4.80.0
 _ZN6KGAPI27Contact11setBlogFeedERK7QString@Base 4.80.0
 _ZN6KGAPI27Contact11setPhotoUrlERK4QUrl@Base 4.80.0
 _ZN6KGAPI27Contact11setPhotoUrlERK7QString@Base 4.80.0
 _ZN6KGAPI27Contact13setProfessionERK7QString@Base 4.80.0
 _ZN6KGAPI27Contact14setAnniversaryERK7QString@Base 4.80.0
 _ZN6KGAPI27Contact14setSpousesNameERK7QString@Base 4.80.0
 _ZN6KGAPI27Contact15setManagersNameERK7QString@Base 4.80.0
 _ZN6KGAPI27Contact17phoneSchemeToTypeERK7QString@Base 4.80.0
 _ZN6KGAPI27Contact17phoneTypeToSchemeE6QFlagsIN9KContacts11PhoneNumber8TypeFlagEE@Base 4.80.0
 _ZN6KGAPI27Contact17setAssistantsNameERK7QString@Base 4.80.0
 _ZN6KGAPI27Contact18IMProtocolToSchemeENS0_10IMProtocolE@Base 4.80.0
 _ZN6KGAPI27Contact18IMSchemeToProtocolERK7QString@Base 4.80.0
 _ZN6KGAPI27Contact19addressSchemeToTypeERK7QStringb@Base 4.80.0
 _ZN6KGAPI27Contact19addressTypeToSchemeE6QFlagsIN9KContacts7Address8TypeFlagEEPb@Base 4.80.0
 _ZN6KGAPI27Contact22IMProtocolNameToSchemeERK7QString@Base 4.80.0
 _ZN6KGAPI27Contact22IMSchemeToProtocolNameERK7QString@Base 4.80.0
 _ZN6KGAPI27Contact8addGroupERK7QString@Base 4.80.0
 _ZN6KGAPI27Contact9setGroupsERK11QStringList@Base 4.80.0
 _ZN6KGAPI27Contact9setOfficeERK7QString@Base 4.80.0
 _ZN6KGAPI27ContactC1ERKN9KContacts9AddresseeE@Base 4.80.0
 _ZN6KGAPI27ContactC1ERKS0_@Base 4.80.0
 _ZN6KGAPI27ContactC1Ev@Base 4.80.0
 _ZN6KGAPI27ContactC2ERKN9KContacts9AddresseeE@Base 4.80.0
 _ZN6KGAPI27ContactC2ERKS0_@Base 4.80.0
 _ZN6KGAPI27ContactC2Ev@Base 4.80.0
 _ZN6KGAPI27ContactD0Ev@Base 4.80.0
 _ZN6KGAPI27ContactD1Ev@Base 4.80.0
 _ZN6KGAPI27ContactD2Ev@Base 4.80.0
 _ZNK6KGAPI213ContactsGroup13isSystemGroupEv@Base 4.80.0
 _ZNK6KGAPI213ContactsGroup2idEv@Base 4.80.0
 _ZNK6KGAPI213ContactsGroup5titleEv@Base 4.80.0
 _ZNK6KGAPI213ContactsGroup7contentEv@Base 4.80.0
 _ZNK6KGAPI213ContactsGroup7updatedEv@Base 4.80.0
 _ZNK6KGAPI215ContactFetchJob10metaObjectEv@Base 4.80.0
 _ZNK6KGAPI215ContactFetchJob12fetchDeletedEv@Base 4.80.0
 _ZNK6KGAPI215ContactFetchJob6filterEv@Base 4.80.0
 _ZNK6KGAPI216ContactCreateJob10metaObjectEv@Base 4.80.0
 _ZNK6KGAPI216ContactDeleteJob10metaObjectEv@Base 4.80.0
 _ZNK6KGAPI216ContactModifyJob10metaObjectEv@Base 4.80.0
 _ZNK6KGAPI220ContactFetchPhotoJob10metaObjectEv@Base 4.80.0
 _ZNK6KGAPI221ContactsGroupFetchJob10metaObjectEv@Base 4.80.0
 _ZNK6KGAPI222ContactsGroupCreateJob10metaObjectEv@Base 4.80.0
 _ZNK6KGAPI222ContactsGroupDeleteJob10metaObjectEv@Base 4.80.0
 _ZNK6KGAPI222ContactsGroupModifyJob10metaObjectEv@Base 4.80.0
 _ZNK6KGAPI27Contact10professionEv@Base 4.80.0
 _ZNK6KGAPI27Contact11anniversaryEv@Base 4.80.0
 _ZNK6KGAPI27Contact11spousesNameEv@Base 4.80.0
 _ZNK6KGAPI27Contact12managersNameEv@Base 4.80.0
 _ZNK6KGAPI27Contact14assistantsNameEv@Base 4.80.0
 _ZNK6KGAPI27Contact14groupIsDeletedERK7QString@Base 4.80.0
 _ZNK6KGAPI27Contact6groupsEv@Base 4.80.0
 _ZNK6KGAPI27Contact6officeEv@Base 4.80.0
 _ZNK6KGAPI27Contact7createdEv@Base 4.80.0
 _ZNK6KGAPI27Contact7deletedEv@Base 4.80.0
 _ZNK6KGAPI27Contact7updatedEv@Base 4.80.0
 _ZNK6KGAPI27Contact8blogFeedEv@Base 4.80.0
 _ZNK6KGAPI27Contact8photoUrlEv@Base 4.80.0
 _ZTIN6KGAPI213ContactsGroupE@Base 4.80.0
 _ZTIN6KGAPI215ContactFetchJobE@Base 4.80.0
 _ZTIN6KGAPI216ContactCreateJobE@Base 4.80.0
 _ZTIN6KGAPI216ContactDeleteJobE@Base 4.80.0
 _ZTIN6KGAPI216ContactModifyJobE@Base 4.80.0
 _ZTIN6KGAPI220ContactFetchPhotoJobE@Base 4.80.0
 _ZTIN6KGAPI221ContactsGroupFetchJobE@Base 4.80.0
 _ZTIN6KGAPI222ContactsGroupCreateJobE@Base 4.80.0
 _ZTIN6KGAPI222ContactsGroupDeleteJobE@Base 4.80.0
 _ZTIN6KGAPI222ContactsGroupModifyJobE@Base 4.80.0
 _ZTIN6KGAPI27ContactE@Base 4.80.0
 _ZTIN9KContacts9AddresseeE@Base 4.80.0
 _ZTSN6KGAPI213ContactsGroupE@Base 4.80.0
 _ZTSN6KGAPI215ContactFetchJobE@Base 4.80.0
 _ZTSN6KGAPI216ContactCreateJobE@Base 4.80.0
 _ZTSN6KGAPI216ContactDeleteJobE@Base 4.80.0
 _ZTSN6KGAPI216ContactModifyJobE@Base 4.80.0
 _ZTSN6KGAPI220ContactFetchPhotoJobE@Base 4.80.0
 _ZTSN6KGAPI221ContactsGroupFetchJobE@Base 4.80.0
 _ZTSN6KGAPI222ContactsGroupCreateJobE@Base 4.80.0
 _ZTSN6KGAPI222ContactsGroupDeleteJobE@Base 4.80.0
 _ZTSN6KGAPI222ContactsGroupModifyJobE@Base 4.80.0
 _ZTSN6KGAPI27ContactE@Base 4.80.0
 _ZTSN9KContacts9AddresseeE@Base 4.80.0
 _ZTVN6KGAPI213ContactsGroupE@Base 4.80.0
 _ZTVN6KGAPI215ContactFetchJobE@Base 4.80.0
 _ZTVN6KGAPI216ContactCreateJobE@Base 4.80.0
 _ZTVN6KGAPI216ContactDeleteJobE@Base 4.80.0
 _ZTVN6KGAPI216ContactModifyJobE@Base 4.80.0
 _ZTVN6KGAPI220ContactFetchPhotoJobE@Base 4.80.0
 _ZTVN6KGAPI221ContactsGroupFetchJobE@Base 4.80.0
 _ZTVN6KGAPI222ContactsGroupCreateJobE@Base 4.80.0
 _ZTVN6KGAPI222ContactsGroupDeleteJobE@Base 4.80.0
 _ZTVN6KGAPI222ContactsGroupModifyJobE@Base 4.80.0
 _ZTVN6KGAPI27ContactE@Base 4.80.0
