libKF5PimTextEdit.so.5 libkf5pimtextedit5 #MINVER#
 _ZN12KConfigGroup10writeEntryIdEEvPKcRKT_6QFlagsIN11KConfigBase15WriteConfigFlagEE@Base 15.12.0
 _ZN12KPIMTextEdit10EditorUtil11reverseCaseER11QTextCursor@Base 15.12.0
 _ZN12KPIMTextEdit10EditorUtil12sentenceCaseER11QTextCursor@Base 15.12.0
 _ZN12KPIMTextEdit10EditorUtil9lowerCaseER11QTextCursor@Base 15.12.0
 _ZN12KPIMTextEdit10EditorUtil9upperCaseER11QTextCursor@Base 15.12.0
 _ZN12KPIMTextEdit10EditorUtilC1Ev@Base 15.12.0
 _ZN12KPIMTextEdit10EditorUtilC2Ev@Base 15.12.0
 _ZN12KPIMTextEdit12TextToSpeech11qt_metacallEN11QMetaObject4CallEiPPv@Base 15.12.0
 _ZN12KPIMTextEdit12TextToSpeech11qt_metacastEPKc@Base 15.12.0
 _ZN12KPIMTextEdit12TextToSpeech12stateChangedENS0_5StateE@Base 15.12.0
 _ZN12KPIMTextEdit12TextToSpeech14reloadSettingsEv@Base 15.12.0
 _ZN12KPIMTextEdit12TextToSpeech16slotStateChangedEv@Base 15.12.0
 _ZN12KPIMTextEdit12TextToSpeech16staticMetaObjectE@Base 15.12.0
 _ZN12KPIMTextEdit12TextToSpeech3sayERK7QString@Base 15.12.0
 _ZN12KPIMTextEdit12TextToSpeech4selfEv@Base 15.12.0
 _ZN12KPIMTextEdit12TextToSpeech4stopEv@Base 15.12.0
 _ZN12KPIMTextEdit12TextToSpeech5pauseEv@Base 15.12.0
 _ZN12KPIMTextEdit12TextToSpeech6resumeEv@Base 15.12.0
 _ZN12KPIMTextEdit12TextToSpeech7setRateEd@Base 15.12.0
 _ZN12KPIMTextEdit12TextToSpeech8setPitchEd@Base 15.12.0
 _ZN12KPIMTextEdit12TextToSpeech9setVolumeEi@Base 15.12.0
 _ZN12KPIMTextEdit12TextToSpeechC1EP7QObject@Base 15.12.0
 _ZN12KPIMTextEdit12TextToSpeechC2EP7QObject@Base 15.12.0
 _ZN12KPIMTextEdit12TextToSpeechD0Ev@Base 15.12.0
 _ZN12KPIMTextEdit12TextToSpeechD1Ev@Base 15.12.0
 _ZN12KPIMTextEdit12TextToSpeechD2Ev@Base 15.12.0
 _ZN12KPIMTextEdit14RichTextEditor11qt_metacallEN11QMetaObject4CallEiPPv@Base 15.12.0
 _ZN12KPIMTextEdit14RichTextEditor11qt_metacastEPKc@Base 15.12.0
 _ZN12KPIMTextEdit14RichTextEditor11replaceTextEv@Base 15.12.0
 _ZN12KPIMTextEdit14RichTextEditor11setReadOnlyEb@Base 15.12.0
 _ZN12KPIMTextEdit14RichTextEditor12focusInEventEP11QFocusEvent@Base 15.12.0
 _ZN12KPIMTextEdit14RichTextEditor12slotAllowTabEv@Base 15.12.0
 _ZN12KPIMTextEdit14RichTextEditor13checkSpellingEb@Base 15.12.0
 _ZN12KPIMTextEdit14RichTextEditor13highlightWordEii@Base 15.12.0
 _ZN12KPIMTextEdit14RichTextEditor13keyPressEventEP9QKeyEvent@Base 15.12.0
 _ZN12KPIMTextEdit14RichTextEditor13slotSpeakTextEv@Base 15.12.0
 _ZN12KPIMTextEdit14RichTextEditor13slotZoomResetEv@Base 15.12.0
 _ZN12KPIMTextEdit14RichTextEditor14addIgnoreWordsERK11QStringList@Base 15.12.0
 _ZN12KPIMTextEdit14RichTextEditor14clearDecoratorEv@Base 15.12.0
 _ZN12KPIMTextEdit14RichTextEditor14deleteWordBackEv@Base 15.12.0
 _ZN12KPIMTextEdit14RichTextEditor14handleShortcutEPK9QKeyEvent@Base 15.12.0
 _ZN12KPIMTextEdit14RichTextEditor14mousePopupMenuE6QPoint@Base 15.12.0
 _ZN12KPIMTextEdit14RichTextEditor14setHighlighterEPN6Sonnet11HighlighterE@Base 15.12.0
 _ZN12KPIMTextEdit14RichTextEditor15languageChangedERK7QString@Base 15.12.0
 _ZN12KPIMTextEdit14RichTextEditor16contextMenuEventEP17QContextMenuEvent@Base 15.12.0
 _ZN12KPIMTextEdit14RichTextEditor16overrideShortcutEPK9QKeyEvent@Base 15.12.0
 _ZN12KPIMTextEdit14RichTextEditor16setSearchSupportEb@Base 15.12.0
 _ZN12KPIMTextEdit14RichTextEditor16spellCheckStatusERK7QString@Base 15.12.0
 _ZN12KPIMTextEdit14RichTextEditor16staticMetaObjectE@Base 15.12.0
 _ZN12KPIMTextEdit14RichTextEditor17addExtraMenuEntryEP5QMenu6QPoint@Base 15.12.0
 _ZN12KPIMTextEdit14RichTextEditor17createHighlighterEv@Base 15.12.0
 _ZN12KPIMTextEdit14RichTextEditor17deleteWordForwardEv@Base 15.12.0
 _ZN12KPIMTextEdit14RichTextEditor17slotCheckSpellingEv@Base 15.12.0
 _ZN12KPIMTextEdit14RichTextEditor17slotUndoableClearEv@Base 15.12.0
 _ZN12KPIMTextEdit14RichTextEditor17updateHighLighterEv@Base 15.12.0
 _ZN12KPIMTextEdit14RichTextEditor18forceSpellCheckingEv@Base 15.12.0
 _ZN12KPIMTextEdit14RichTextEditor18setAllowTabSupportEb@Base 15.12.0
 _ZN12KPIMTextEdit14RichTextEditor20checkSpellingChangedEb@Base 15.12.0
 _ZN12KPIMTextEdit14RichTextEditor20slotLanguageSelectedEv@Base 15.12.0
 _ZN12KPIMTextEdit14RichTextEditor21setWebShortcutSupportEb@Base 15.12.0
 _ZN12KPIMTextEdit14RichTextEditor21spellCheckingCanceledEv@Base 15.12.0
 _ZN12KPIMTextEdit14RichTextEditor21spellCheckingFinishedEv@Base 15.12.0
 _ZN12KPIMTextEdit14RichTextEditor22setTextToSpeechSupportEb@Base 15.12.0
 _ZN12KPIMTextEdit14RichTextEditor23setActivateLanguageMenuEb@Base 15.12.0
 _ZN12KPIMTextEdit14RichTextEditor23setCheckSpellingEnabledEb@Base 15.12.0
 _ZN12KPIMTextEdit14RichTextEditor23setSpellCheckingSupportEb@Base 15.12.0
 _ZN12KPIMTextEdit14RichTextEditor23spellCheckerAutoCorrectERK7QStringS3_@Base 15.12.0
 _ZN12KPIMTextEdit14RichTextEditor24setShowAutoCorrectButtonEb@Base 15.12.0
 _ZN12KPIMTextEdit14RichTextEditor24setSpellCheckingLanguageERK7QString@Base 15.12.0
 _ZN12KPIMTextEdit14RichTextEditor24slotSpellCheckerCanceledEv@Base 15.12.0
 _ZN12KPIMTextEdit14RichTextEditor24slotSpellCheckerFinishedEv@Base 15.12.0
 _ZN12KPIMTextEdit14RichTextEditor24slotToggleAutoSpellCheckEv@Base 15.12.0
 _ZN12KPIMTextEdit14RichTextEditor25createSpellCheckDecoratorEv@Base 15.12.0
 _ZN12KPIMTextEdit14RichTextEditor25slotSpellCheckerCorrectedERK7QStringiS3_@Base 15.12.0
 _ZN12KPIMTextEdit14RichTextEditor27addIgnoreWordsToHighLighterEv@Base 15.12.0
 _ZN12KPIMTextEdit14RichTextEditor27slotDisplayMessageIndicatorERK7QString@Base 15.12.0
 _ZN12KPIMTextEdit14RichTextEditor27slotSpellCheckerAutoCorrectERK7QStringS3_@Base 15.12.0
 _ZN12KPIMTextEdit14RichTextEditor27slotSpellCheckerMisspellingERK7QStringi@Base 15.12.0
 _ZN12KPIMTextEdit14RichTextEditor30setSpellCheckingConfigFileNameERK7QString@Base 15.12.0
 _ZN12KPIMTextEdit14RichTextEditor3sayERK7QString@Base 15.12.0
 _ZN12KPIMTextEdit14RichTextEditor5eventEP6QEvent@Base 15.12.0
 _ZN12KPIMTextEdit14RichTextEditor8findTextEv@Base 15.12.0
 _ZN12KPIMTextEdit14RichTextEditorC1EP7QWidget@Base 15.12.0
 _ZN12KPIMTextEdit14RichTextEditorC2EP7QWidget@Base 15.12.0
 _ZN12KPIMTextEdit14RichTextEditorD0Ev@Base 15.12.0
 _ZN12KPIMTextEdit14RichTextEditorD1Ev@Base 15.12.0
 _ZN12KPIMTextEdit14RichTextEditorD2Ev@Base 15.12.0
 _ZN12KPIMTextEdit14SlideContainer10setContentEP7QWidget@Base 15.12.0
 _ZN12KPIMTextEdit14SlideContainer11eventFilterEP7QObjectP6QEvent@Base 15.12.0
 _ZN12KPIMTextEdit14SlideContainer11qt_metacallEN11QMetaObject4CallEiPPv@Base 15.12.0
 _ZN12KPIMTextEdit14SlideContainer11qt_metacastEPKc@Base 15.12.0
 _ZN12KPIMTextEdit14SlideContainer11resizeEventEP12QResizeEvent@Base 15.12.0
 _ZN12KPIMTextEdit14SlideContainer14setSlideHeightEi@Base 15.12.0
 _ZN12KPIMTextEdit14SlideContainer16slotAnimFinishedEv@Base 15.12.0
 _ZN12KPIMTextEdit14SlideContainer16staticMetaObjectE@Base 15.12.0
 _ZN12KPIMTextEdit14SlideContainer21adjustContentGeometryEv@Base 15.12.0
 _ZN12KPIMTextEdit14SlideContainer6animToEi@Base 15.12.0
 _ZN12KPIMTextEdit14SlideContainer7slideInEv@Base 15.12.0
 _ZN12KPIMTextEdit14SlideContainer8slideOutEv@Base 15.12.0
 _ZN12KPIMTextEdit14SlideContainer8slidedInEv@Base 15.12.0
 _ZN12KPIMTextEdit14SlideContainer9slidedOutEv@Base 15.12.0
 _ZN12KPIMTextEdit14SlideContainerC1EP7QWidget@Base 15.12.0
 _ZN12KPIMTextEdit14SlideContainerC2EP7QWidget@Base 15.12.0
 _ZN12KPIMTextEdit15HtmlHighlighter11qt_metacallEN11QMetaObject4CallEiPPv@Base 15.07.90
 _ZN12KPIMTextEdit15HtmlHighlighter11qt_metacastEPKc@Base 15.07.90
 _ZN12KPIMTextEdit15HtmlHighlighter14highlightBlockERK7QString@Base 15.07.90
 _ZN12KPIMTextEdit15HtmlHighlighter16staticMetaObjectE@Base 15.07.90
 _ZN12KPIMTextEdit15HtmlHighlighterC1EP13QTextDocument@Base 15.07.90
 _ZN12KPIMTextEdit15HtmlHighlighterC2EP13QTextDocument@Base 15.07.90
 _ZN12KPIMTextEdit15HtmlHighlighterD0Ev@Base 15.07.90
 _ZN12KPIMTextEdit15HtmlHighlighterD1Ev@Base 15.07.90
 _ZN12KPIMTextEdit15HtmlHighlighterD2Ev@Base 15.07.90
 _ZN12KPIMTextEdit15PlainTextEditor11qt_metacallEN11QMetaObject4CallEiPPv@Base 15.12.0
 _ZN12KPIMTextEdit15PlainTextEditor11qt_metacastEPKc@Base 15.12.0
 _ZN12KPIMTextEdit15PlainTextEditor11replaceTextEv@Base 15.12.0
 _ZN12KPIMTextEdit15PlainTextEditor11setReadOnlyEb@Base 15.12.0
 _ZN12KPIMTextEdit15PlainTextEditor12focusInEventEP11QFocusEvent@Base 15.12.0
 _ZN12KPIMTextEdit15PlainTextEditor13highlightWordEii@Base 15.12.0
 _ZN12KPIMTextEdit15PlainTextEditor13keyPressEventEP9QKeyEvent@Base 15.12.0
 _ZN12KPIMTextEdit15PlainTextEditor13slotSpeakTextEv@Base 15.12.0
 _ZN12KPIMTextEdit15PlainTextEditor13slotZoomResetEv@Base 15.12.0
 _ZN12KPIMTextEdit15PlainTextEditor14addIgnoreWordsERK11QStringList@Base 15.12.0
 _ZN12KPIMTextEdit15PlainTextEditor14clearDecoratorEv@Base 15.12.0
 _ZN12KPIMTextEdit15PlainTextEditor14deleteWordBackEv@Base 15.12.0
 _ZN12KPIMTextEdit15PlainTextEditor14handleShortcutEPK9QKeyEvent@Base 15.12.0
 _ZN12KPIMTextEdit15PlainTextEditor14setHighlighterEPN6Sonnet11HighlighterE@Base 15.12.0
 _ZN12KPIMTextEdit15PlainTextEditor15languageChangedERK7QString@Base 15.12.0
 _ZN12KPIMTextEdit15PlainTextEditor16contextMenuEventEP17QContextMenuEvent@Base 15.12.0
 _ZN12KPIMTextEdit15PlainTextEditor16overrideShortcutEPK9QKeyEvent@Base 15.12.0
 _ZN12KPIMTextEdit15PlainTextEditor16setSearchSupportEb@Base 15.12.0
 _ZN12KPIMTextEdit15PlainTextEditor16spellCheckStatusERK7QString@Base 15.12.0
 _ZN12KPIMTextEdit15PlainTextEditor16staticMetaObjectE@Base 15.12.0
 _ZN12KPIMTextEdit15PlainTextEditor17addExtraMenuEntryEP5QMenu6QPoint@Base 15.12.0
 _ZN12KPIMTextEdit15PlainTextEditor17createHighlighterEv@Base 15.12.0
 _ZN12KPIMTextEdit15PlainTextEditor17deleteWordForwardEv@Base 15.12.0
 _ZN12KPIMTextEdit15PlainTextEditor17slotCheckSpellingEv@Base 15.12.0
 _ZN12KPIMTextEdit15PlainTextEditor17slotUndoableClearEv@Base 15.12.0
 _ZN12KPIMTextEdit15PlainTextEditor17updateHighLighterEv@Base 15.12.0
 _ZN12KPIMTextEdit15PlainTextEditor20checkSpellingChangedEb@Base 15.12.0
 _ZN12KPIMTextEdit15PlainTextEditor20slotLanguageSelectedEv@Base 15.12.0
 _ZN12KPIMTextEdit15PlainTextEditor21setWebShortcutSupportEb@Base 15.12.0
 _ZN12KPIMTextEdit15PlainTextEditor22setTextToSpeechSupportEb@Base 15.12.0
 _ZN12KPIMTextEdit15PlainTextEditor23setActivateLanguageMenuEb@Base 15.12.0
 _ZN12KPIMTextEdit15PlainTextEditor23setCheckSpellingEnabledEb@Base 15.12.0
 _ZN12KPIMTextEdit15PlainTextEditor23setSpellCheckingSupportEb@Base 15.12.0
 _ZN12KPIMTextEdit15PlainTextEditor23spellCheckerAutoCorrectERK7QStringS3_@Base 15.12.0
 _ZN12KPIMTextEdit15PlainTextEditor24setSpellCheckingLanguageERK7QString@Base 15.12.0
 _ZN12KPIMTextEdit15PlainTextEditor24slotSpellCheckerCanceledEv@Base 15.12.0
 _ZN12KPIMTextEdit15PlainTextEditor24slotSpellCheckerFinishedEv@Base 15.12.0
 _ZN12KPIMTextEdit15PlainTextEditor24slotToggleAutoSpellCheckEv@Base 15.12.0
 _ZN12KPIMTextEdit15PlainTextEditor25createSpellCheckDecoratorEv@Base 15.12.0
 _ZN12KPIMTextEdit15PlainTextEditor25slotSpellCheckerCorrectedERK7QStringiS3_@Base 15.12.0
 _ZN12KPIMTextEdit15PlainTextEditor27addIgnoreWordsToHighLighterEv@Base 15.12.0
 _ZN12KPIMTextEdit15PlainTextEditor27slotDisplayMessageIndicatorERK7QString@Base 15.12.0
 _ZN12KPIMTextEdit15PlainTextEditor27slotSpellCheckerAutoCorrectERK7QStringS3_@Base 15.12.0
 _ZN12KPIMTextEdit15PlainTextEditor27slotSpellCheckerMisspellingERK7QStringi@Base 15.12.0
 _ZN12KPIMTextEdit15PlainTextEditor30setSpellCheckingConfigFileNameERK7QString@Base 15.12.0
 _ZN12KPIMTextEdit15PlainTextEditor3sayERK7QString@Base 15.12.0
 _ZN12KPIMTextEdit15PlainTextEditor5eventEP6QEvent@Base 15.12.0
 _ZN12KPIMTextEdit15PlainTextEditor8findTextEv@Base 15.12.0
 _ZN12KPIMTextEdit15PlainTextEditorC1EP7QWidget@Base 15.12.0
 _ZN12KPIMTextEdit15PlainTextEditorC2EP7QWidget@Base 15.12.0
 _ZN12KPIMTextEdit15PlainTextEditorD0Ev@Base 15.12.0
 _ZN12KPIMTextEdit15PlainTextEditorD1Ev@Base 15.12.0
 _ZN12KPIMTextEdit15PlainTextEditorD2Ev@Base 15.12.0
 _ZN12KPIMTextEdit15TableActionMenu11qt_metacallEN11QMetaObject4CallEiPPv@Base 15.07.90
 _ZN12KPIMTextEdit15TableActionMenu11qt_metacastEPKc@Base 15.07.90
 _ZN12KPIMTextEdit15TableActionMenu15setRichTextModeEb@Base 15.07.90
 _ZN12KPIMTextEdit15TableActionMenu16staticMetaObjectE@Base 15.07.90
 _ZN12KPIMTextEdit15TableActionMenuC1EP9QTextEdit@Base 15.07.90
 _ZN12KPIMTextEdit15TableActionMenuC2EP9QTextEdit@Base 15.07.90
 _ZN12KPIMTextEdit15TableActionMenuD0Ev@Base 15.07.90
 _ZN12KPIMTextEdit15TableActionMenuD1Ev@Base 15.07.90
 _ZN12KPIMTextEdit15TableActionMenuD2Ev@Base 15.07.90
 _ZN12KPIMTextEdit16InsertHtmlDialog11qt_metacallEN11QMetaObject4CallEiPPv@Base 15.07.90
 _ZN12KPIMTextEdit16InsertHtmlDialog11qt_metacastEPKc@Base 15.07.90
 _ZN12KPIMTextEdit16InsertHtmlDialog16staticMetaObjectE@Base 15.07.90
 _ZN12KPIMTextEdit16InsertHtmlDialogC1EP7QWidget@Base 15.07.90
 _ZN12KPIMTextEdit16InsertHtmlDialogC2EP7QWidget@Base 15.07.90
 _ZN12KPIMTextEdit16InsertHtmlDialogD0Ev@Base 15.07.90
 _ZN12KPIMTextEdit16InsertHtmlDialogD1Ev@Base 15.07.90
 _ZN12KPIMTextEdit16InsertHtmlDialogD2Ev@Base 15.07.90
 _ZN12KPIMTextEdit16RichTextComposer10smartQuoteERK7QString@Base 15.12.0
 _ZN12KPIMTextEdit16RichTextComposer11qt_metacallEN11QMetaObject4CallEiPPv@Base 15.12.0
 _ZN12KPIMTextEdit16RichTextComposer11qt_metacastEPKc@Base 15.12.0
 _ZN12KPIMTextEdit16RichTextComposer13createActionsEP17KActionCollection@Base 15.12.0
 _ZN12KPIMTextEdit16RichTextComposer13keyPressEventEP9QKeyEvent@Base 15.12.0
 _ZN12KPIMTextEdit16RichTextComposer13setTextOrHtmlERK7QString@Base 15.12.0
 _ZN12KPIMTextEdit16RichTextComposer14clearDecoratorEv@Base 15.12.0
 _ZN12KPIMTextEdit16RichTextComposer14enableWordWrapEi@Base 15.12.0
 _ZN12KPIMTextEdit16RichTextComposer15disableWordWrapEv@Base 15.12.0
 _ZN12KPIMTextEdit16RichTextComposer15processKeyEventEP9QKeyEvent@Base 15.12.0
 _ZN12KPIMTextEdit16RichTextComposer15textModeChangedENS0_4ModeE@Base 15.12.0
 _ZN12KPIMTextEdit16RichTextComposer16activateRichTextEv@Base 15.12.0
 _ZN12KPIMTextEdit16RichTextComposer16staticMetaObjectE@Base 15.12.0
 _ZN12KPIMTextEdit16RichTextComposer17createHighlighterEv@Base 15.12.0
 _ZN12KPIMTextEdit16RichTextComposer17insertModeChangedEv@Base 15.12.0
 _ZN12KPIMTextEdit16RichTextComposer17mouseReleaseEventEP11QMouseEvent@Base 15.12.0
 _ZN12KPIMTextEdit16RichTextComposer17switchToPlainTextEv@Base 15.12.0
 _ZN12KPIMTextEdit16RichTextComposer17updateHighLighterEv@Base 15.12.0
 _ZN12KPIMTextEdit16RichTextComposer18insertFromMimeDataEPK9QMimeData@Base 15.12.0
 _ZN12KPIMTextEdit16RichTextComposer18killExternalEditorEv@Base 15.12.0
 _ZN12KPIMTextEdit16RichTextComposer18setQuotePrefixNameERK7QString@Base 15.12.0
 _ZN12KPIMTextEdit16RichTextComposer19evaluateListSupportEP9QKeyEvent@Base 15.12.0
 _ZN12KPIMTextEdit16RichTextComposer19slotTextModeChangedENS0_4ModeE@Base 15.12.0
 _ZN12KPIMTextEdit16RichTextComposer20externalEditorClosedEv@Base 15.12.0
 _ZN12KPIMTextEdit16RichTextComposer20forcePlainTextMarkupEb@Base 15.12.0
 _ZN12KPIMTextEdit16RichTextComposer20setHighlighterColorsEPNS_37RichTextComposerEmailQuoteHighlighterE@Base 15.12.0
 _ZN12KPIMTextEdit16RichTextComposer20setUseExternalEditorEb@Base 15.12.0
 _ZN12KPIMTextEdit16RichTextComposer20slotChangeInsertModeEv@Base 15.12.0
 _ZN12KPIMTextEdit16RichTextComposer21externalEditorStartedEv@Base 15.12.0
 _ZN12KPIMTextEdit16RichTextComposer21processAutoCorrectionEP9QKeyEvent@Base 15.12.0
 _ZN12KPIMTextEdit16RichTextComposer21setExternalEditorPathERK7QString@Base 15.12.0
 _ZN12KPIMTextEdit16RichTextComposer24evaluateReturnKeySupportEP9QKeyEvent@Base 15.12.0
 _ZN12KPIMTextEdit16RichTextComposer25createSpellCheckDecoratorEv@Base 15.12.0
 _ZN12KPIMTextEdit16RichTextComposer26setCursorPositionFromStartEj@Base 15.12.0
 _ZN12KPIMTextEdit16RichTextComposer27checkExternalEditorFinishedEv@Base 15.12.0
 _ZN12KPIMTextEdit16RichTextComposer29insertPlainTextImplementationEv@Base 15.12.0
 _ZN12KPIMTextEdit16RichTextComposer7focusUpEv@Base 15.12.0
 _ZN12KPIMTextEdit16RichTextComposerC1EP7QWidget@Base 15.12.0
 _ZN12KPIMTextEdit16RichTextComposerC2EP7QWidget@Base 15.12.0
 _ZN12KPIMTextEdit16RichTextComposerD0Ev@Base 15.12.0
 _ZN12KPIMTextEdit16RichTextComposerD1Ev@Base 15.12.0
 _ZN12KPIMTextEdit16RichTextComposerD2Ev@Base 15.12.0
 _ZN12KPIMTextEdit17InsertImageDialog11qt_metacallEN11QMetaObject4CallEiPPv@Base 15.07.90
 _ZN12KPIMTextEdit17InsertImageDialog11qt_metacastEPKc@Base 15.07.90
 _ZN12KPIMTextEdit17InsertImageDialog11setImageUrlERK4QUrl@Base 15.07.90
 _ZN12KPIMTextEdit17InsertImageDialog13setImageWidthEi@Base 15.07.90
 _ZN12KPIMTextEdit17InsertImageDialog14setImageHeightEi@Base 15.07.90
 _ZN12KPIMTextEdit17InsertImageDialog16staticMetaObjectE@Base 15.07.90
 _ZN12KPIMTextEdit17InsertImageDialogC1EP7QWidget@Base 15.07.90
 _ZN12KPIMTextEdit17InsertImageDialogC2EP7QWidget@Base 15.07.90
 _ZN12KPIMTextEdit17InsertImageDialogD0Ev@Base 15.07.90
 _ZN12KPIMTextEdit17InsertImageDialogD1Ev@Base 15.07.90
 _ZN12KPIMTextEdit17InsertImageDialogD2Ev@Base 15.07.90
 _ZN12KPIMTextEdit17InsertImageWidget11qt_metacallEN11QMetaObject4CallEiPPv@Base 15.07.90
 _ZN12KPIMTextEdit17InsertImageWidget11qt_metacastEPKc@Base 15.07.90
 _ZN12KPIMTextEdit17InsertImageWidget11setImageUrlERK4QUrl@Base 15.07.90
 _ZN12KPIMTextEdit17InsertImageWidget13setImageWidthEi@Base 15.07.90
 _ZN12KPIMTextEdit17InsertImageWidget14enableButtonOkEb@Base 15.07.90
 _ZN12KPIMTextEdit17InsertImageWidget14setImageHeightEi@Base 15.07.90
 _ZN12KPIMTextEdit17InsertImageWidget16staticMetaObjectE@Base 15.07.90
 _ZN12KPIMTextEdit17InsertImageWidgetC1EP7QWidget@Base 15.07.90
 _ZN12KPIMTextEdit17InsertImageWidgetC2EP7QWidget@Base 15.07.90
 _ZN12KPIMTextEdit17InsertImageWidgetD0Ev@Base 15.07.90
 _ZN12KPIMTextEdit17InsertImageWidgetD1Ev@Base 15.07.90
 _ZN12KPIMTextEdit17InsertImageWidgetD2Ev@Base 15.07.90
 _ZN12KPIMTextEdit17InsertTableDialog10setColumnsEi@Base 15.07.90
 _ZN12KPIMTextEdit17InsertTableDialog15setTypeOfLengthEN11QTextLength4TypeE@Base 15.07.90
 _ZN12KPIMTextEdit17InsertTableDialog7setRowsEi@Base 15.07.90
 _ZN12KPIMTextEdit17InsertTableDialog9setBorderEi@Base 15.07.90
 _ZN12KPIMTextEdit17InsertTableDialog9setLengthEi@Base 15.07.90
 _ZN12KPIMTextEdit17InsertTableDialogC1EP7QWidget@Base 15.07.90
 _ZN12KPIMTextEdit17InsertTableDialogC2EP7QWidget@Base 15.07.90
 _ZN12KPIMTextEdit17InsertTableDialogD0Ev@Base 15.07.90
 _ZN12KPIMTextEdit17InsertTableDialogD1Ev@Base 15.07.90
 _ZN12KPIMTextEdit17InsertTableDialogD2Ev@Base 15.07.90
 _ZN12KPIMTextEdit17InsertTableWidget10setColumnsEi@Base 15.07.90
 _ZN12KPIMTextEdit17InsertTableWidget11qt_metacallEN11QMetaObject4CallEiPPv@Base 15.07.90
 _ZN12KPIMTextEdit17InsertTableWidget11qt_metacastEPKc@Base 15.07.90
 _ZN12KPIMTextEdit17InsertTableWidget15setTypeOfLengthEN11QTextLength4TypeE@Base 15.07.90
 _ZN12KPIMTextEdit17InsertTableWidget16staticMetaObjectE@Base 15.07.90
 _ZN12KPIMTextEdit17InsertTableWidget23slotTypeOfLengthChangedEi@Base 15.07.90
 _ZN12KPIMTextEdit17InsertTableWidget7setRowsEi@Base 15.07.90
 _ZN12KPIMTextEdit17InsertTableWidget9setBorderEi@Base 15.07.90
 _ZN12KPIMTextEdit17InsertTableWidget9setLengthEi@Base 15.07.90
 _ZN12KPIMTextEdit17InsertTableWidgetC1EP7QWidget@Base 15.07.90
 _ZN12KPIMTextEdit17InsertTableWidgetC2EP7QWidget@Base 15.07.90
 _ZN12KPIMTextEdit17InsertTableWidgetD0Ev@Base 15.07.90
 _ZN12KPIMTextEdit17InsertTableWidgetD1Ev@Base 15.07.90
 _ZN12KPIMTextEdit17InsertTableWidgetD2Ev@Base 15.07.90
 _ZN12KPIMTextEdit17TableFormatDialog10setColumnsEi@Base 15.07.90
 _ZN12KPIMTextEdit17TableFormatDialog10setPaddingEi@Base 15.07.90
 _ZN12KPIMTextEdit17TableFormatDialog10setSpacingEi@Base 15.07.90
 _ZN12KPIMTextEdit17TableFormatDialog12setAlignmentE6QFlagsIN2Qt13AlignmentFlagEE@Base 15.07.90
 _ZN12KPIMTextEdit17TableFormatDialog15setTypeOfLengthEN11QTextLength4TypeE@Base 15.07.90
 _ZN12KPIMTextEdit17TableFormatDialog23setTableBackgroundColorERK6QColor@Base 15.07.90
 _ZN12KPIMTextEdit17TableFormatDialog7setRowsEi@Base 15.07.90
 _ZN12KPIMTextEdit17TableFormatDialog9setBorderEi@Base 15.07.90
 _ZN12KPIMTextEdit17TableFormatDialog9setLengthEi@Base 15.07.90
 _ZN12KPIMTextEdit17TableFormatDialogC1EP7QWidget@Base 15.07.90
 _ZN12KPIMTextEdit17TableFormatDialogC2EP7QWidget@Base 15.07.90
 _ZN12KPIMTextEdit17TableFormatDialogD0Ev@Base 15.07.90
 _ZN12KPIMTextEdit17TableFormatDialogD1Ev@Base 15.07.90
 _ZN12KPIMTextEdit17TableFormatDialogD2Ev@Base 15.07.90
 _ZN12KPIMTextEdit18TextGoToLineWidget10moveToLineEi@Base 15.12.0
 _ZN12KPIMTextEdit18TextGoToLineWidget11qt_metacallEN11QMetaObject4CallEiPPv@Base 15.12.0
 _ZN12KPIMTextEdit18TextGoToLineWidget11qt_metacastEPKc@Base 15.12.0
 _ZN12KPIMTextEdit18TextGoToLineWidget12slotCloseBarEv@Base 15.12.0
 _ZN12KPIMTextEdit18TextGoToLineWidget12slotGoToLineEv@Base 15.12.0
 _ZN12KPIMTextEdit18TextGoToLineWidget16staticMetaObjectE@Base 15.12.0
 _ZN12KPIMTextEdit18TextGoToLineWidget19setMaximumLineCountEi@Base 15.12.0
 _ZN12KPIMTextEdit18TextGoToLineWidget5eventEP6QEvent@Base 15.12.0
 _ZN12KPIMTextEdit18TextGoToLineWidget8goToLineEv@Base 15.12.0
 _ZN12KPIMTextEdit18TextGoToLineWidget9showEventEP10QShowEvent@Base 15.12.0
 _ZN12KPIMTextEdit18TextGoToLineWidgetC1EP7QWidget@Base 15.12.0
 _ZN12KPIMTextEdit18TextGoToLineWidgetC2EP7QWidget@Base 15.12.0
 _ZN12KPIMTextEdit18TextGoToLineWidgetD0Ev@Base 15.12.0
 _ZN12KPIMTextEdit18TextGoToLineWidgetD1Ev@Base 15.12.0
 _ZN12KPIMTextEdit18TextGoToLineWidgetD2Ev@Base 15.12.0
 _ZN12KPIMTextEdit18TextToSpeechWidget11qt_metacallEN11QMetaObject4CallEiPPv@Base 15.12.0
 _ZN12KPIMTextEdit18TextToSpeechWidget11qt_metacastEPKc@Base 15.12.0
 _ZN12KPIMTextEdit18TextToSpeechWidget12stateChangedENS0_5StateE@Base 15.12.0
 _ZN12KPIMTextEdit18TextToSpeechWidget13slotConfigureEv@Base 15.12.0
 _ZN12KPIMTextEdit18TextToSpeechWidget16slotStateChangedENS_12TextToSpeech5StateE@Base 15.12.0
 _ZN12KPIMTextEdit18TextToSpeechWidget16staticMetaObjectE@Base 15.12.0
 _ZN12KPIMTextEdit18TextToSpeechWidget17slotVolumeChangedEi@Base 15.12.0
 _ZN12KPIMTextEdit18TextToSpeechWidget24setTextToSpeechInterfaceEPNS_29AbstractTextToSpeechInterfaceE@Base 15.12.0
 _ZN12KPIMTextEdit18TextToSpeechWidget3sayERK7QString@Base 15.12.0
 _ZN12KPIMTextEdit18TextToSpeechWidget8setStateENS0_5StateE@Base 15.12.0
 _ZN12KPIMTextEdit18TextToSpeechWidgetC1EP7QWidget@Base 15.12.0
 _ZN12KPIMTextEdit18TextToSpeechWidgetC2EP7QWidget@Base 15.12.0
 _ZN12KPIMTextEdit18TextToSpeechWidgetD0Ev@Base 15.12.0
 _ZN12KPIMTextEdit18TextToSpeechWidgetD1Ev@Base 15.12.0
 _ZN12KPIMTextEdit18TextToSpeechWidgetD2Ev@Base 15.12.0
 _ZN12KPIMTextEdit19RichTextEditFindBar11qt_metacallEN11QMetaObject4CallEiPPv@Base 15.12.0
 _ZN12KPIMTextEdit19RichTextEditFindBar11qt_metacastEPKc@Base 15.12.0
 _ZN12KPIMTextEdit19RichTextEditFindBar14slotSearchTextEbb@Base 15.12.0
 _ZN12KPIMTextEdit19RichTextEditFindBar15slotReplaceTextEv@Base 15.12.0
 _ZN12KPIMTextEdit19RichTextEditFindBar16searchInDocumentERK7QString6QFlagsIN13QTextDocument8FindFlagEE@Base 15.12.0
 _ZN12KPIMTextEdit19RichTextEditFindBar16staticMetaObjectE@Base 15.12.0
 _ZN12KPIMTextEdit19RichTextEditFindBar18slotReplaceAllTextEv@Base 15.12.0
 _ZN12KPIMTextEdit19RichTextEditFindBar20autoSearchMoveCursorEv@Base 15.12.0
 _ZN12KPIMTextEdit19RichTextEditFindBarC1EP9QTextEditP7QWidget@Base 15.12.0
 _ZN12KPIMTextEdit19RichTextEditFindBarC2EP9QTextEditP7QWidget@Base 15.12.0
 _ZN12KPIMTextEdit19RichTextEditFindBarD0Ev@Base 15.12.0
 _ZN12KPIMTextEdit19RichTextEditFindBarD1Ev@Base 15.12.0
 _ZN12KPIMTextEdit19RichTextEditFindBarD2Ev@Base 15.12.0
 _ZN12KPIMTextEdit19TextEditFindBarBase10autoSearchERK7QString@Base 15.12.0
 _ZN12KPIMTextEdit19TextEditFindBarBase10searchTextEbb@Base 15.12.0
 _ZN12KPIMTextEdit19TextEditFindBarBase11hideFindBarEv@Base 15.12.0
 _ZN12KPIMTextEdit19TextEditFindBarBase11messageInfoEbbb@Base 15.12.0
 _ZN12KPIMTextEdit19TextEditFindBarBase11qt_metacallEN11QMetaObject4CallEiPPv@Base 15.12.0
 _ZN12KPIMTextEdit19TextEditFindBarBase11qt_metacastEPKc@Base 15.12.0
 _ZN12KPIMTextEdit19TextEditFindBarBase11showReplaceEv@Base 15.12.0
 _ZN12KPIMTextEdit19TextEditFindBarBase15clearSelectionsEv@Base 15.12.0
 _ZN12KPIMTextEdit19TextEditFindBarBase15slotClearSearchEv@Base 15.12.0
 _ZN12KPIMTextEdit19TextEditFindBarBase16setHideWhenCloseEb@Base 15.12.0
 _ZN12KPIMTextEdit19TextEditFindBarBase16staticMetaObjectE@Base 15.12.0
 _ZN12KPIMTextEdit19TextEditFindBarBase17focusAndSetCursorEv@Base 15.12.0
 _ZN12KPIMTextEdit19TextEditFindBarBase23displayMessageIndicatorERK7QString@Base 15.12.0
 _ZN12KPIMTextEdit19TextEditFindBarBase23slotUpdateSearchOptionsEv@Base 15.12.0
 _ZN12KPIMTextEdit19TextEditFindBarBase5eventEP6QEvent@Base 15.12.0
 _ZN12KPIMTextEdit19TextEditFindBarBase7setTextERK7QString@Base 15.12.0
 _ZN12KPIMTextEdit19TextEditFindBarBase8closeBarEv@Base 15.12.0
 _ZN12KPIMTextEdit19TextEditFindBarBase8findNextEv@Base 15.12.0
 _ZN12KPIMTextEdit19TextEditFindBarBase8findPrevEv@Base 15.12.0
 _ZN12KPIMTextEdit19TextEditFindBarBase8showFindEv@Base 15.12.0
 _ZN12KPIMTextEdit19TextEditFindBarBaseC1EP7QWidget@Base 15.12.0
 _ZN12KPIMTextEdit19TextEditFindBarBaseC2EP7QWidget@Base 15.12.0
 _ZN12KPIMTextEdit19TextEditFindBarBaseD0Ev@Base 15.12.0
 _ZN12KPIMTextEdit19TextEditFindBarBaseD1Ev@Base 15.12.0
 _ZN12KPIMTextEdit19TextEditFindBarBaseD2Ev@Base 15.12.0
 _ZN12KPIMTextEdit19TextEditorCompleter11qt_metacallEN11QMetaObject4CallEiPPv@Base 15.07.90
 _ZN12KPIMTextEdit19TextEditorCompleter11qt_metacastEPKc@Base 15.07.90
 _ZN12KPIMTextEdit19TextEditorCompleter12completeTextEv@Base 15.07.90
 _ZN12KPIMTextEdit19TextEditorCompleter14slotCompletionERK7QString@Base 15.07.90
 _ZN12KPIMTextEdit19TextEditorCompleter16staticMetaObjectE@Base 15.07.90
 _ZN12KPIMTextEdit19TextEditorCompleter22setCompleterStringListERK11QStringList@Base 15.07.90
 _ZN12KPIMTextEdit19TextEditorCompleter22setExcludeOfCharactersERK7QString@Base 15.07.90
 _ZN12KPIMTextEdit19TextEditorCompleter26TextEditorCompleterPrivate12completeTextEv@Base 15.07.90
 _ZN12KPIMTextEdit19TextEditorCompleter26TextEditorCompleterPrivate13setCompletionERK7QString@Base 15.07.90
 _ZN12KPIMTextEdit19TextEditorCompleter26TextEditorCompleterPrivate15createCompleterEv@Base 15.07.90
 _ZN12KPIMTextEdit19TextEditorCompleterC1EP14QPlainTextEditP7QObject@Base 15.07.90
 _ZN12KPIMTextEdit19TextEditorCompleterC1EP9QTextEditP7QObject@Base 15.07.90
 _ZN12KPIMTextEdit19TextEditorCompleterC2EP14QPlainTextEditP7QObject@Base 15.07.90
 _ZN12KPIMTextEdit19TextEditorCompleterC2EP9QTextEditP7QObject@Base 15.07.90
 _ZN12KPIMTextEdit19TextEditorCompleterD0Ev@Base 15.07.90
 _ZN12KPIMTextEdit19TextEditorCompleterD1Ev@Base 15.07.90
 _ZN12KPIMTextEdit19TextEditorCompleterD2Ev@Base 15.07.90
 _ZN12KPIMTextEdit19TextToSpeechActions11qt_metacallEN11QMetaObject4CallEiPPv@Base 15.12.1
 _ZN12KPIMTextEdit19TextToSpeechActions11qt_metacastEPKc@Base 15.12.0
 _ZN12KPIMTextEdit19TextToSpeechActions12stateChangedENS_18TextToSpeechWidget5StateE@Base 15.12.0
 _ZN12KPIMTextEdit19TextToSpeechActions13slotPlayPauseEv@Base 15.12.0
 _ZN12KPIMTextEdit19TextToSpeechActions16staticMetaObjectE@Base 15.12.0
 _ZN12KPIMTextEdit19TextToSpeechActions8setStateENS_18TextToSpeechWidget5StateE@Base 15.12.0
 _ZN12KPIMTextEdit19TextToSpeechActions8slotStopEv@Base 15.12.0
 _ZN12KPIMTextEdit19TextToSpeechActionsC1EP7QObject@Base 15.12.0
 _ZN12KPIMTextEdit19TextToSpeechActionsC2EP7QObject@Base 15.12.0
 _ZN12KPIMTextEdit19TextToSpeechActionsD0Ev@Base 15.12.0
 _ZN12KPIMTextEdit19TextToSpeechActionsD1Ev@Base 15.12.0
 _ZN12KPIMTextEdit19TextToSpeechActionsD2Ev@Base 15.12.0
 _ZN12KPIMTextEdit20PlainTextEditFindBar11qt_metacallEN11QMetaObject4CallEiPPv@Base 15.12.0
 _ZN12KPIMTextEdit20PlainTextEditFindBar11qt_metacastEPKc@Base 15.12.0
 _ZN12KPIMTextEdit20PlainTextEditFindBar14slotSearchTextEbb@Base 15.12.0
 _ZN12KPIMTextEdit20PlainTextEditFindBar15slotReplaceTextEv@Base 15.12.0
 _ZN12KPIMTextEdit20PlainTextEditFindBar16searchInDocumentERK7QString6QFlagsIN13QTextDocument8FindFlagEE@Base 15.12.0
 _ZN12KPIMTextEdit20PlainTextEditFindBar16staticMetaObjectE@Base 15.12.0
 _ZN12KPIMTextEdit20PlainTextEditFindBar18slotReplaceAllTextEv@Base 15.12.0
 _ZN12KPIMTextEdit20PlainTextEditFindBar20autoSearchMoveCursorEv@Base 15.12.0
 _ZN12KPIMTextEdit20PlainTextEditFindBarC1EP14QPlainTextEditP7QWidget@Base 15.12.0
 _ZN12KPIMTextEdit20PlainTextEditFindBarC2EP14QPlainTextEditP7QWidget@Base 15.12.0
 _ZN12KPIMTextEdit20PlainTextEditFindBarD0Ev@Base 15.12.0
 _ZN12KPIMTextEdit20PlainTextEditFindBarD1Ev@Base 15.12.0
 _ZN12KPIMTextEdit20PlainTextEditFindBarD2Ev@Base 15.12.0
 _ZN12KPIMTextEdit20RichTextEditorWidget11qt_metacallEN11QMetaObject4CallEiPPv@Base 15.12.0
 _ZN12KPIMTextEdit20RichTextEditorWidget11qt_metacastEPKc@Base 15.12.0
 _ZN12KPIMTextEdit20RichTextEditorWidget11setReadOnlyEb@Base 15.12.0
 _ZN12KPIMTextEdit20RichTextEditorWidget11slotReplaceEv@Base 15.12.0
 _ZN12KPIMTextEdit20RichTextEditorWidget12setPlainTextERK7QString@Base 15.12.0
 _ZN12KPIMTextEdit20RichTextEditorWidget12slotFindNextEv@Base 15.12.0
 _ZN12KPIMTextEdit20RichTextEditorWidget16staticMetaObjectE@Base 15.12.0
 _ZN12KPIMTextEdit20RichTextEditorWidget17setAcceptRichTextEb@Base 15.12.0
 _ZN12KPIMTextEdit20RichTextEditorWidget30setSpellCheckingConfigFileNameERK7QString@Base 15.12.0
 _ZN12KPIMTextEdit20RichTextEditorWidget4initEPNS_14RichTextEditorE@Base 15.12.0
 _ZN12KPIMTextEdit20RichTextEditorWidget5clearEv@Base 15.12.0
 _ZN12KPIMTextEdit20RichTextEditorWidget7setHtmlERK7QString@Base 15.12.0
 _ZN12KPIMTextEdit20RichTextEditorWidget8slotFindEv@Base 15.12.0
 _ZN12KPIMTextEdit20RichTextEditorWidgetC1EP7QWidget@Base 15.12.0
 _ZN12KPIMTextEdit20RichTextEditorWidgetC1EPNS_14RichTextEditorEP7QWidget@Base 15.12.0
 _ZN12KPIMTextEdit20RichTextEditorWidgetC2EP7QWidget@Base 15.12.0
 _ZN12KPIMTextEdit20RichTextEditorWidgetC2EPNS_14RichTextEditorEP7QWidget@Base 15.12.0
 _ZN12KPIMTextEdit20RichTextEditorWidgetD0Ev@Base 15.12.0
 _ZN12KPIMTextEdit20RichTextEditorWidgetD1Ev@Base 15.12.0
 _ZN12KPIMTextEdit20RichTextEditorWidgetD2Ev@Base 15.12.0
 _ZN12KPIMTextEdit21PlainTextEditorWidget11qt_metacallEN11QMetaObject4CallEiPPv@Base 15.12.0
 _ZN12KPIMTextEdit21PlainTextEditorWidget11qt_metacastEPKc@Base 15.12.0
 _ZN12KPIMTextEdit21PlainTextEditorWidget11setReadOnlyEb@Base 15.12.0
 _ZN12KPIMTextEdit21PlainTextEditorWidget11slotReplaceEv@Base 15.12.0
 _ZN12KPIMTextEdit21PlainTextEditorWidget12setPlainTextERK7QString@Base 15.12.0
 _ZN12KPIMTextEdit21PlainTextEditorWidget16staticMetaObjectE@Base 15.12.0
 _ZN12KPIMTextEdit21PlainTextEditorWidget30setSpellCheckingConfigFileNameERK7QString@Base 15.12.0
 _ZN12KPIMTextEdit21PlainTextEditorWidget4initEPNS_15PlainTextEditorE@Base 15.12.0
 _ZN12KPIMTextEdit21PlainTextEditorWidget5clearEv@Base 15.12.0
 _ZN12KPIMTextEdit21PlainTextEditorWidget8slotFindEv@Base 15.12.0
 _ZN12KPIMTextEdit21PlainTextEditorWidgetC1EP7QWidget@Base 15.12.0
 _ZN12KPIMTextEdit21PlainTextEditorWidgetC1EPNS_15PlainTextEditorEP7QWidget@Base 15.12.0
 _ZN12KPIMTextEdit21PlainTextEditorWidgetC2EP7QWidget@Base 15.12.0
 _ZN12KPIMTextEdit21PlainTextEditorWidgetC2EPNS_15PlainTextEditorEP7QWidget@Base 15.12.0
 _ZN12KPIMTextEdit21PlainTextEditorWidgetD0Ev@Base 15.12.0
 _ZN12KPIMTextEdit21PlainTextEditorWidgetD1Ev@Base 15.12.0
 _ZN12KPIMTextEdit21PlainTextEditorWidgetD2Ev@Base 15.12.0
 _ZN12KPIMTextEdit21SyntaxHighlighterBase11qt_metacallEN11QMetaObject4CallEiPPv@Base 15.07.90
 _ZN12KPIMTextEdit21SyntaxHighlighterBase11qt_metacastEPKc@Base 15.07.90
 _ZN12KPIMTextEdit21SyntaxHighlighterBase14highlightBlockERK7QString@Base 15.07.90
 _ZN12KPIMTextEdit21SyntaxHighlighterBase16staticMetaObjectE@Base 15.07.90
 _ZN12KPIMTextEdit21SyntaxHighlighterBaseC1EP13QTextDocument@Base 15.07.90
 _ZN12KPIMTextEdit21SyntaxHighlighterBaseC2EP13QTextDocument@Base 15.07.90
 _ZN12KPIMTextEdit21SyntaxHighlighterBaseD0Ev@Base 15.07.90
 _ZN12KPIMTextEdit21SyntaxHighlighterBaseD1Ev@Base 15.07.90
 _ZN12KPIMTextEdit21SyntaxHighlighterBaseD2Ev@Base 15.07.90
 _ZN12KPIMTextEdit21TableCellFormatDialog20setVerticalAlignmentEN15QTextCharFormat17VerticalAlignmentE@Base 15.07.90
 _ZN12KPIMTextEdit21TableCellFormatDialog27setTableCellBackgroundColorERK6QColor@Base 15.07.90
 _ZN12KPIMTextEdit21TableCellFormatDialogC1EP7QWidget@Base 15.07.90
 _ZN12KPIMTextEdit21TableCellFormatDialogC2EP7QWidget@Base 15.07.90
 _ZN12KPIMTextEdit21TableCellFormatDialogD0Ev@Base 15.07.90
 _ZN12KPIMTextEdit21TableCellFormatDialogD1Ev@Base 15.07.90
 _ZN12KPIMTextEdit21TableCellFormatDialogD2Ev@Base 15.07.90
 _ZN12KPIMTextEdit21TextToSpeechInterface11qt_metacallEN11QMetaObject4CallEiPPv@Base 15.12.0
 _ZN12KPIMTextEdit21TextToSpeechInterface11qt_metacastEPKc@Base 15.12.0
 _ZN12KPIMTextEdit21TextToSpeechInterface12stateChangedENS_18TextToSpeechWidget5StateE@Base 15.12.0
 _ZN12KPIMTextEdit21TextToSpeechInterface14reloadSettingsEv@Base 15.12.0
 _ZN12KPIMTextEdit21TextToSpeechInterface16staticMetaObjectE@Base 15.12.0
 _ZN12KPIMTextEdit21TextToSpeechInterface3sayERK7QString@Base 15.12.0
 _ZN12KPIMTextEdit21TextToSpeechInterface9setVolumeEi@Base 15.12.0
 _ZN12KPIMTextEdit21TextToSpeechInterfaceC1EPNS_18TextToSpeechWidgetEP7QObject@Base 15.12.0
 _ZN12KPIMTextEdit21TextToSpeechInterfaceC2EPNS_18TextToSpeechWidgetEP7QObject@Base 15.12.0
 _ZN12KPIMTextEdit21TextToSpeechInterfaceD0Ev@Base 15.12.0
 _ZN12KPIMTextEdit21TextToSpeechInterfaceD1Ev@Base 15.12.0
 _ZN12KPIMTextEdit21TextToSpeechInterfaceD2Ev@Base 15.12.0
 _ZN12KPIMTextEdit22EmoticonTextEditAction11qt_metacallEN11QMetaObject4CallEiPPv@Base 15.07.90
 _ZN12KPIMTextEdit22EmoticonTextEditAction11qt_metacastEPKc@Base 15.07.90
 _ZN12KPIMTextEdit22EmoticonTextEditAction16staticMetaObjectE@Base 15.07.90
 _ZN12KPIMTextEdit22EmoticonTextEditAction17emoticonActivatedERK7QString@Base 15.07.90
 _ZN12KPIMTextEdit22EmoticonTextEditActionC1EP7QObject@Base 15.07.90
 _ZN12KPIMTextEdit22EmoticonTextEditActionC2EP7QObject@Base 15.07.90
 _ZN12KPIMTextEdit22EmoticonTextEditActionD0Ev@Base 15.07.90
 _ZN12KPIMTextEdit22EmoticonTextEditActionD1Ev@Base 15.07.90
 _ZN12KPIMTextEdit22EmoticonTextEditActionD2Ev@Base 15.07.90
 _ZN12KPIMTextEdit22RichTextComposerImages11insertImageERK6QImageRK9QFileInfo@Base 15.12.0
 _ZN12KPIMTextEdit22RichTextComposerImages11qt_metacallEN11QMetaObject4CallEiPPv@Base 15.12.0
 _ZN12KPIMTextEdit22RichTextComposerImages11qt_metacastEPKc@Base 15.12.0
 _ZN12KPIMTextEdit22RichTextComposerImages14addImageHelperERK4QUrlii@Base 15.12.0
 _ZN12KPIMTextEdit22RichTextComposerImages14addImageHelperERK7QStringRK6QImageii@Base 15.12.0
 _ZN12KPIMTextEdit22RichTextComposerImages16staticMetaObjectE@Base 15.12.0
 _ZN12KPIMTextEdit22RichTextComposerImages22imageNamesToContentIdsERK10QByteArrayRK5QListI14QSharedPointerINS_13EmbeddedImageEEE@Base 15.12.0
 _ZN12KPIMTextEdit22RichTextComposerImages8addImageERK4QUrlii@Base 15.12.0
 _ZN12KPIMTextEdit22RichTextComposerImages9loadImageERK6QImageRK7QStringS6_@Base 15.12.0
 _ZN12KPIMTextEdit22RichTextComposerImagesC1EPNS_16RichTextComposerEP7QObject@Base 15.12.0
 _ZN12KPIMTextEdit22RichTextComposerImagesC2EPNS_16RichTextComposerEP7QObject@Base 15.12.0
 _ZN12KPIMTextEdit22RichTextComposerImagesD0Ev@Base 15.12.0
 _ZN12KPIMTextEdit22RichTextComposerImagesD1Ev@Base 15.12.0
 _ZN12KPIMTextEdit22RichTextComposerImagesD2Ev@Base 15.12.0
 _ZN12KPIMTextEdit23RichTextComposerActions11qt_metacallEN11QMetaObject4CallEiPPv@Base 15.12.0
 _ZN12KPIMTextEdit23RichTextComposerActions11qt_metacastEPKc@Base 15.12.0
 _ZN12KPIMTextEdit23RichTextComposerActions12setListStyleEi@Base 15.12.0
 _ZN12KPIMTextEdit23RichTextComposerActions13createActionsEP17KActionCollection@Base 15.12.0
 _ZN12KPIMTextEdit23RichTextComposerActions15textModeChangedENS_16RichTextComposer4ModeE@Base 15.12.0
 _ZN12KPIMTextEdit23RichTextComposerActions16staticMetaObjectE@Base 15.12.0
 _ZN12KPIMTextEdit23RichTextComposerActions17setActionsEnabledEb@Base 15.12.0
 _ZN12KPIMTextEdit23RichTextComposerActions18updateActionStatesEv@Base 15.12.0
 _ZN12KPIMTextEdit23RichTextComposerActions21slotUpdateMiscActionsEv@Base 15.12.0
 _ZN12KPIMTextEdit23RichTextComposerActions26uncheckActionFormatPainterEv@Base 15.12.0
 _ZN12KPIMTextEdit23RichTextComposerActions27slotUpdateCharFormatActionsERK15QTextCharFormat@Base 15.12.0
 _ZN12KPIMTextEdit23RichTextComposerActionsC1EPNS_25RichTextComposerControlerEP7QObject@Base 15.12.0
 _ZN12KPIMTextEdit23RichTextComposerActionsC2EPNS_25RichTextComposerControlerEP7QObject@Base 15.12.0
 _ZN12KPIMTextEdit23RichTextComposerActionsD0Ev@Base 15.12.0
 _ZN12KPIMTextEdit23RichTextComposerActionsD1Ev@Base 15.12.0
 _ZN12KPIMTextEdit23RichTextComposerActionsD2Ev@Base 15.12.0
 _ZN12KPIMTextEdit23SelectSpecialCharDialog11qt_metacallEN11QMetaObject4CallEiPPv@Base 15.07.90
 _ZN12KPIMTextEdit23SelectSpecialCharDialog11qt_metacastEPKc@Base 15.07.90
 _ZN12KPIMTextEdit23SelectSpecialCharDialog12charSelectedE5QChar@Base 15.12.0
 _ZN12KPIMTextEdit23SelectSpecialCharDialog14autoInsertCharEv@Base 15.07.90
 _ZN12KPIMTextEdit23SelectSpecialCharDialog14setCurrentCharE5QChar@Base 15.12.0
 _ZN12KPIMTextEdit23SelectSpecialCharDialog15setOkButtonTextERK7QString@Base 15.07.90
 _ZN12KPIMTextEdit23SelectSpecialCharDialog16showSelectButtonEb@Base 15.07.90
 _ZN12KPIMTextEdit23SelectSpecialCharDialog16staticMetaObjectE@Base 15.07.90
 _ZN12KPIMTextEdit23SelectSpecialCharDialogC1EP7QWidget@Base 15.07.90
 _ZN12KPIMTextEdit23SelectSpecialCharDialogC2EP7QWidget@Base 15.07.90
 _ZN12KPIMTextEdit23SelectSpecialCharDialogD0Ev@Base 15.07.90
 _ZN12KPIMTextEdit23SelectSpecialCharDialogD1Ev@Base 15.07.90
 _ZN12KPIMTextEdit23SelectSpecialCharDialogD2Ev@Base 15.07.90
 _ZN12KPIMTextEdit24RichTextExternalComposer11qt_metacallEN11QMetaObject4CallEiPPv@Base 15.12.0
 _ZN12KPIMTextEdit24RichTextExternalComposer11qt_metacastEPKc@Base 15.12.0
 _ZN12KPIMTextEdit24RichTextExternalComposer16staticMetaObjectE@Base 15.12.0
 _ZN12KPIMTextEdit24RichTextExternalComposer18killExternalEditorEv@Base 15.12.0
 _ZN12KPIMTextEdit24RichTextExternalComposer18slotEditorFinishedEiN8QProcess10ExitStatusE@Base 15.12.0
 _ZN12KPIMTextEdit24RichTextExternalComposer19startExternalEditorEv@Base 15.12.0
 _ZN12KPIMTextEdit24RichTextExternalComposer20externalEditorClosedEv@Base 15.12.0
 _ZN12KPIMTextEdit24RichTextExternalComposer20setUseExternalEditorEb@Base 15.12.0
 _ZN12KPIMTextEdit24RichTextExternalComposer21externalEditorStartedEv@Base 15.12.0
 _ZN12KPIMTextEdit24RichTextExternalComposer21setExternalEditorPathERK7QString@Base 15.12.0
 _ZN12KPIMTextEdit24RichTextExternalComposer27checkExternalEditorFinishedEv@Base 15.12.0
 _ZN12KPIMTextEdit24RichTextExternalComposerC1EPNS_16RichTextComposerEP7QObject@Base 15.12.0
 _ZN12KPIMTextEdit24RichTextExternalComposerC2EPNS_16RichTextComposerEP7QObject@Base 15.12.0
 _ZN12KPIMTextEdit24RichTextExternalComposerD0Ev@Base 15.12.0
 _ZN12KPIMTextEdit24RichTextExternalComposerD1Ev@Base 15.12.0
 _ZN12KPIMTextEdit24RichTextExternalComposerD2Ev@Base 15.12.0
 _ZN12KPIMTextEdit24TextToSpeechConfigDialog10readConfigEv@Base 15.12.0
 _ZN12KPIMTextEdit24TextToSpeechConfigDialog11qt_metacallEN11QMetaObject4CallEiPPv@Base 15.12.0
 _ZN12KPIMTextEdit24TextToSpeechConfigDialog11qt_metacastEPKc@Base 15.12.0
 _ZN12KPIMTextEdit24TextToSpeechConfigDialog11writeConfigEv@Base 15.12.0
 _ZN12KPIMTextEdit24TextToSpeechConfigDialog12slotAcceptedEv@Base 15.12.0
 _ZN12KPIMTextEdit24TextToSpeechConfigDialog16staticMetaObjectE@Base 15.12.0
 _ZN12KPIMTextEdit24TextToSpeechConfigDialogC1EP7QWidget@Base 15.12.0
 _ZN12KPIMTextEdit24TextToSpeechConfigDialogC2EP7QWidget@Base 15.12.0
 _ZN12KPIMTextEdit24TextToSpeechConfigDialogD0Ev@Base 15.12.0
 _ZN12KPIMTextEdit24TextToSpeechConfigDialogD1Ev@Base 15.12.0
 _ZN12KPIMTextEdit24TextToSpeechConfigDialogD2Ev@Base 15.12.0
 _ZN12KPIMTextEdit24TextToSpeechConfigWidget10readConfigEv@Base 15.12.0
 _ZN12KPIMTextEdit24TextToSpeechConfigWidget11qt_metacallEN11QMetaObject4CallEiPPv@Base 15.12.0
 _ZN12KPIMTextEdit24TextToSpeechConfigWidget11qt_metacastEPKc@Base 15.12.0
 _ZN12KPIMTextEdit24TextToSpeechConfigWidget11updateVoiceEv@Base 15.12.0
 _ZN12KPIMTextEdit24TextToSpeechConfigWidget11writeConfigEv@Base 15.12.0
 _ZN12KPIMTextEdit24TextToSpeechConfigWidget12updateEngineEv@Base 15.12.0
 _ZN12KPIMTextEdit24TextToSpeechConfigWidget12updateLocaleEv@Base 15.12.0
 _ZN12KPIMTextEdit24TextToSpeechConfigWidget12valueChangedEv@Base 15.12.0
 _ZN12KPIMTextEdit24TextToSpeechConfigWidget13configChangedEb@Base 15.12.0
 _ZN12KPIMTextEdit24TextToSpeechConfigWidget16staticMetaObjectE@Base 15.12.0
 _ZN12KPIMTextEdit24TextToSpeechConfigWidget17slotEngineChangedEv@Base 15.12.0
 _ZN12KPIMTextEdit24TextToSpeechConfigWidget18slotUpdateSettingsEv@Base 15.12.0
 _ZN12KPIMTextEdit24TextToSpeechConfigWidget19slotLanguageChangedEv@Base 15.12.0
 _ZN12KPIMTextEdit24TextToSpeechConfigWidget21updateAvailableEngineEv@Base 15.12.0
 _ZN12KPIMTextEdit24TextToSpeechConfigWidget21updateAvailableVoicesEv@Base 15.12.0
 _ZN12KPIMTextEdit24TextToSpeechConfigWidget22updateAvailableLocalesEv@Base 15.12.0
 _ZN12KPIMTextEdit24TextToSpeechConfigWidget30setTextToSpeechConfigInterfaceEPNS_35AbstractTextToSpeechConfigInterfaceE@Base 15.12.0
 _ZN12KPIMTextEdit24TextToSpeechConfigWidgetC1EP7QWidget@Base 15.12.0
 _ZN12KPIMTextEdit24TextToSpeechConfigWidgetC2EP7QWidget@Base 15.12.0
 _ZN12KPIMTextEdit24TextToSpeechConfigWidgetD0Ev@Base 15.12.0
 _ZN12KPIMTextEdit24TextToSpeechConfigWidgetD1Ev@Base 15.12.0
 _ZN12KPIMTextEdit24TextToSpeechConfigWidgetD2Ev@Base 15.12.0
 _ZN12KPIMTextEdit25RichTextComposerControler10alignRightEv@Base 15.12.0
 _ZN12KPIMTextEdit25RichTextComposerControler10insertLinkERK7QString@Base 15.12.0
 _ZN12KPIMTextEdit25RichTextComposerControler10manageLinkEv@Base 15.12.0
 _ZN12KPIMTextEdit25RichTextComposerControler10updateLinkERK7QStringS3_@Base 15.12.0
 _ZN12KPIMTextEdit25RichTextComposerControler11alignCenterEv@Base 15.12.0
 _ZN12KPIMTextEdit25RichTextComposerControler11qt_metacallEN11QMetaObject4CallEiPPv@Base 15.12.0
 _ZN12KPIMTextEdit25RichTextComposerControler11qt_metacastEPKc@Base 15.12.0
 _ZN12KPIMTextEdit25RichTextComposerControler11setFontSizeEi@Base 15.12.0
 _ZN12KPIMTextEdit25RichTextComposerControler11setTextBoldEb@Base 15.12.0
 _ZN12KPIMTextEdit25RichTextComposerControler12alignJustifyEv@Base 15.12.0
 _ZN12KPIMTextEdit25RichTextComposerControler12setListStyleEi@Base 15.12.0
 _ZN12KPIMTextEdit25RichTextComposerControler12slotAddImageEv@Base 15.12.0
 _ZN12KPIMTextEdit25RichTextComposerControler13setFontFamilyERK7QString@Base 15.12.0
 _ZN12KPIMTextEdit25RichTextComposerControler13setTextItalicEb@Base 15.12.0
 _ZN12KPIMTextEdit25RichTextComposerControler13slotAddQuotesEv@Base 15.12.0
 _ZN12KPIMTextEdit25RichTextComposerControler14disablePainterEv@Base 15.12.0
 _ZN12KPIMTextEdit25RichTextComposerControler14indentListLessEv@Base 15.12.0
 _ZN12KPIMTextEdit25RichTextComposerControler14indentListMoreEv@Base 15.12.0
 _ZN12KPIMTextEdit25RichTextComposerControler14slotDeleteLineEv@Base 15.12.0
 _ZN12KPIMTextEdit25RichTextComposerControler14slotInsertHtmlEv@Base 15.12.0
 _ZN12KPIMTextEdit25RichTextComposerControler15insertShareLinkERK7QString@Base 15.12.0
 _ZN12KPIMTextEdit25RichTextComposerControler15makeLeftToRightEv@Base 15.12.0
 _ZN12KPIMTextEdit25RichTextComposerControler15makeRightToLeftEv@Base 15.12.0
 _ZN12KPIMTextEdit25RichTextComposerControler15slotAddEmoticonERK7QString@Base 15.12.0
 _ZN12KPIMTextEdit25RichTextComposerControler15slotFormatResetEv@Base 15.12.0
 _ZN12KPIMTextEdit25RichTextComposerControler15textModeChangedENS_16RichTextComposer4ModeE@Base 15.12.0
 _ZN12KPIMTextEdit25RichTextComposerControler16setTextStrikeOutEb@Base 15.12.0
 _ZN12KPIMTextEdit25RichTextComposerControler16setTextSubScriptEb@Base 15.12.0
 _ZN12KPIMTextEdit25RichTextComposerControler16setTextUnderlineEb@Base 15.12.0
 _ZN12KPIMTextEdit25RichTextComposerControler16slotRemoveQuotesEv@Base 15.12.0
 _ZN12KPIMTextEdit25RichTextComposerControler16staticMetaObjectE@Base 15.12.0
 _ZN12KPIMTextEdit25RichTextComposerControler17slotFormatPainterEb@Base 15.12.0
 _ZN12KPIMTextEdit25RichTextComposerControler18setTextSuperScriptEb@Base 15.12.0
 _ZN12KPIMTextEdit25RichTextComposerControler19ensureCursorVisibleEv@Base 15.12.0
 _ZN12KPIMTextEdit25RichTextComposerControler19setFontForWholeTextERK5QFont@Base 15.12.0
 _ZN12KPIMTextEdit25RichTextComposerControler20insertHorizontalRuleEv@Base 15.12.0
 _ZN12KPIMTextEdit25RichTextComposerControler20slotPasteAsQuotationEv@Base 15.12.0
 _ZN12KPIMTextEdit25RichTextComposerControler22setTextBackgroundColorERK6QColor@Base 15.12.0
 _ZN12KPIMTextEdit25RichTextComposerControler22setTextForegroundColorERK6QColor@Base 15.12.0
 _ZN12KPIMTextEdit25RichTextComposerControler26ensureCursorVisibleDelayedEv@Base 15.12.0
 _ZN12KPIMTextEdit25RichTextComposerControler26setCursorPositionFromStartEj@Base 15.12.0
 _ZN12KPIMTextEdit25RichTextComposerControler26slotPasteWithoutFormattingEv@Base 15.12.0
 _ZN12KPIMTextEdit25RichTextComposerControler28setChangeTextBackgroundColorEv@Base 15.12.0
 _ZN12KPIMTextEdit25RichTextComposerControler28setChangeTextForegroundColorEv@Base 15.12.0
 _ZN12KPIMTextEdit25RichTextComposerControler7setFontERK5QFont@Base 15.12.0
 _ZN12KPIMTextEdit25RichTextComposerControler9alignLeftEv@Base 15.12.0
 _ZN12KPIMTextEdit25RichTextComposerControlerC1EPNS_16RichTextComposerEP7QObject@Base 15.12.0
 _ZN12KPIMTextEdit25RichTextComposerControlerC2EPNS_16RichTextComposerEP7QObject@Base 15.12.0
 _ZN12KPIMTextEdit25RichTextComposerControlerD0Ev@Base 15.12.0
 _ZN12KPIMTextEdit25RichTextComposerControlerD1Ev@Base 15.12.0
 _ZN12KPIMTextEdit25RichTextComposerControlerD2Ev@Base 15.12.0
 _ZN12KPIMTextEdit27TextToSpeechConfigInterface11qt_metacallEN11QMetaObject4CallEiPPv@Base 15.12.0
 _ZN12KPIMTextEdit27TextToSpeechConfigInterface11qt_metacastEPKc@Base 15.12.0
 _ZN12KPIMTextEdit27TextToSpeechConfigInterface16staticMetaObjectE@Base 15.12.0
 _ZN12KPIMTextEdit27TextToSpeechConfigInterface9setEngineERK7QString@Base 15.12.0
 _ZN12KPIMTextEdit27TextToSpeechConfigInterfaceC1EP7QObject@Base 15.12.0
 _ZN12KPIMTextEdit27TextToSpeechConfigInterfaceC2EP7QObject@Base 15.12.0
 _ZN12KPIMTextEdit27TextToSpeechConfigInterfaceD0Ev@Base 15.12.0
 _ZN12KPIMTextEdit27TextToSpeechConfigInterfaceD1Ev@Base 15.12.0
 _ZN12KPIMTextEdit27TextToSpeechConfigInterfaceD2Ev@Base 15.12.0
 _ZN12KPIMTextEdit29AbstractTextToSpeechInterface11qt_metacallEN11QMetaObject4CallEiPPv@Base 15.12.0
 _ZN12KPIMTextEdit29AbstractTextToSpeechInterface11qt_metacastEPKc@Base 15.12.0
 _ZN12KPIMTextEdit29AbstractTextToSpeechInterface14reloadSettingsEv@Base 15.12.0
 _ZN12KPIMTextEdit29AbstractTextToSpeechInterface16staticMetaObjectE@Base 15.12.0
 _ZN12KPIMTextEdit29AbstractTextToSpeechInterface3sayERK7QString@Base 15.12.0
 _ZN12KPIMTextEdit29AbstractTextToSpeechInterface9setVolumeEi@Base 15.12.0
 _ZN12KPIMTextEdit29AbstractTextToSpeechInterfaceC1EP7QObject@Base 15.12.0
 _ZN12KPIMTextEdit29AbstractTextToSpeechInterfaceC2EP7QObject@Base 15.12.0
 _ZN12KPIMTextEdit29AbstractTextToSpeechInterfaceD0Ev@Base 15.12.0
 _ZN12KPIMTextEdit29AbstractTextToSpeechInterfaceD1Ev@Base 15.12.0
 _ZN12KPIMTextEdit29AbstractTextToSpeechInterfaceD2Ev@Base 15.12.0
 _ZN12KPIMTextEdit35AbstractTextToSpeechConfigInterface11qt_metacallEN11QMetaObject4CallEiPPv@Base 15.12.0
 _ZN12KPIMTextEdit35AbstractTextToSpeechConfigInterface11qt_metacastEPKc@Base 15.12.0
 _ZN12KPIMTextEdit35AbstractTextToSpeechConfigInterface16staticMetaObjectE@Base 15.12.0
 _ZN12KPIMTextEdit35AbstractTextToSpeechConfigInterface9setEngineERK7QString@Base 15.12.0
 _ZN12KPIMTextEdit35AbstractTextToSpeechConfigInterface9setLocaleERK7QLocale@Base 15.12.0
 _ZN12KPIMTextEdit35AbstractTextToSpeechConfigInterfaceC1EP7QObject@Base 15.12.0
 _ZN12KPIMTextEdit35AbstractTextToSpeechConfigInterfaceC2EP7QObject@Base 15.12.0
 _ZN12KPIMTextEdit35AbstractTextToSpeechConfigInterfaceD0Ev@Base 15.12.0
 _ZN12KPIMTextEdit35AbstractTextToSpeechConfigInterfaceD1Ev@Base 15.12.0
 _ZN12KPIMTextEdit35AbstractTextToSpeechConfigInterfaceD2Ev@Base 15.12.0
 _ZN12KPIMTextEdit35RichTextComposerEmailQuoteDecoratorC1EPNS_16RichTextComposerE@Base 15.12.0
 _ZN12KPIMTextEdit35RichTextComposerEmailQuoteDecoratorC2EPNS_16RichTextComposerE@Base 15.12.0
 _ZN12KPIMTextEdit35RichTextComposerEmailQuoteDecoratorD0Ev@Base 15.12.0
 _ZN12KPIMTextEdit35RichTextComposerEmailQuoteDecoratorD1Ev@Base 15.12.0
 _ZN12KPIMTextEdit35RichTextComposerEmailQuoteDecoratorD2Ev@Base 15.12.0
 _ZN12KPIMTextEdit37RichTextComposerEmailQuoteHighlighter13setMisspelledEii@Base 15.12.0
 _ZN12KPIMTextEdit37RichTextComposerEmailQuoteHighlighter13setQuoteColorERK6QColorS3_S3_S3_S3_@Base 15.12.0
 _ZN12KPIMTextEdit37RichTextComposerEmailQuoteHighlighter14highlightBlockERK7QString@Base 15.12.0
 _ZN12KPIMTextEdit37RichTextComposerEmailQuoteHighlighter15unsetMisspelledEii@Base 15.12.0
 _ZN12KPIMTextEdit37RichTextComposerEmailQuoteHighlighter23toggleSpellHighlightingEb@Base 15.12.0
 _ZN12KPIMTextEdit37RichTextComposerEmailQuoteHighlighterC1EPNS_16RichTextComposerERK6QColorS5_S5_S5_S5_@Base 15.12.0
 _ZN12KPIMTextEdit37RichTextComposerEmailQuoteHighlighterC2EPNS_16RichTextComposerERK6QColorS5_S5_S5_S5_@Base 15.12.0
 _ZN12KPIMTextEdit37RichTextComposerEmailQuoteHighlighterD0Ev@Base 15.12.0
 _ZN12KPIMTextEdit37RichTextComposerEmailQuoteHighlighterD1Ev@Base 15.12.0
 _ZN12KPIMTextEdit37RichTextComposerEmailQuoteHighlighterD2Ev@Base 15.12.0
 _ZN12KPIMTextEdit39PlainTextSyntaxSpellCheckingHighlighter13setMisspelledEii@Base 15.12.0
 _ZN12KPIMTextEdit39PlainTextSyntaxSpellCheckingHighlighter14highlightBlockERK7QString@Base 15.12.0
 _ZN12KPIMTextEdit39PlainTextSyntaxSpellCheckingHighlighter15spellCheckBlockERK7QString@Base 15.12.0
 _ZN12KPIMTextEdit39PlainTextSyntaxSpellCheckingHighlighter15unsetMisspelledEii@Base 15.12.0
 _ZN12KPIMTextEdit39PlainTextSyntaxSpellCheckingHighlighter23toggleSpellHighlightingEb@Base 15.12.0
 _ZN12KPIMTextEdit39PlainTextSyntaxSpellCheckingHighlighter25setSyntaxHighlighterRulesERK7QVectorINS_4RuleEE@Base 15.12.0
 _ZN12KPIMTextEdit39PlainTextSyntaxSpellCheckingHighlighterC1EPNS_15PlainTextEditorERK6QColor@Base 15.12.0
 _ZN12KPIMTextEdit39PlainTextSyntaxSpellCheckingHighlighterC2EPNS_15PlainTextEditorERK6QColor@Base 15.12.0
 _ZN12KPIMTextEdit39PlainTextSyntaxSpellCheckingHighlighterD0Ev@Base 15.12.0
 _ZN12KPIMTextEdit39PlainTextSyntaxSpellCheckingHighlighterD1Ev@Base 15.12.0
 _ZN12KPIMTextEdit39PlainTextSyntaxSpellCheckingHighlighterD2Ev@Base 15.12.0
 _ZN12KPIMTextEdit9TextUtils18containsFormattingEPK13QTextDocument@Base 15.07.90
 _ZN12KPIMTextEdit9TextUtils8flowTextER7QStringRKS1_i@Base 15.07.90
 _ZNK12KConfigGroup9readEntryI5QSizeEET_PKcRKS2_@Base 15.12.0
 _ZNK12KConfigGroup9readEntryIbEET_PKcRKS1_@Base 15.12.0
 _ZNK12KConfigGroup9readEntryIiEET_PKcRKS1_@Base 15.12.0
 _ZNK12KPIMTextEdit12TextToSpeech10metaObjectEv@Base 15.12.0
 _ZNK12KPIMTextEdit12TextToSpeech15availableVoicesEv@Base 15.12.0
 _ZNK12KPIMTextEdit12TextToSpeech16availableEnginesEv@Base 15.12.0
 _ZNK12KPIMTextEdit12TextToSpeech16availableLocalesEv@Base 15.12.0
 _ZNK12KPIMTextEdit12TextToSpeech6localeEv@Base 15.12.0
 _ZNK12KPIMTextEdit12TextToSpeech6volumeEv@Base 15.12.0
 _ZNK12KPIMTextEdit12TextToSpeech7isReadyEv@Base 15.12.0
 _ZNK12KPIMTextEdit12TextToSpeech9setLocaleERK7QLocale@Base 15.12.0
 _ZNK12KPIMTextEdit14RichTextEditor10metaObjectEv@Base 15.12.0
 _ZNK12KPIMTextEdit14RichTextEditor11highlighterEv@Base 15.12.0
 _ZNK12KPIMTextEdit14RichTextEditor13searchSupportEv@Base 15.12.0
 _ZNK12KPIMTextEdit14RichTextEditor15allowTabSupportEv@Base 15.12.0
 _ZNK12KPIMTextEdit14RichTextEditor18webShortcutSupportEv@Base 15.12.0
 _ZNK12KPIMTextEdit14RichTextEditor19textToSpeechSupportEv@Base 15.12.0
 _ZNK12KPIMTextEdit14RichTextEditor20activateLanguageMenuEv@Base 15.12.0
 _ZNK12KPIMTextEdit14RichTextEditor20checkSpellingEnabledEv@Base 15.12.0
 _ZNK12KPIMTextEdit14RichTextEditor20spellCheckingSupportEv@Base 15.12.0
 _ZNK12KPIMTextEdit14RichTextEditor21showAutoCorrectButtonEv@Base 15.12.0
 _ZNK12KPIMTextEdit14RichTextEditor21spellCheckingLanguageEv@Base 15.12.0
 _ZNK12KPIMTextEdit14RichTextEditor27spellCheckingConfigFileNameEv@Base 15.12.0
 _ZNK12KPIMTextEdit14SlideContainer10metaObjectEv@Base 15.12.0
 _ZNK12KPIMTextEdit14SlideContainer11slideHeightEv@Base 15.12.0
 _ZNK12KPIMTextEdit14SlideContainer15minimumSizeHintEv@Base 15.12.0
 _ZNK12KPIMTextEdit14SlideContainer7contentEv@Base 15.12.0
 _ZNK12KPIMTextEdit14SlideContainer8sizeHintEv@Base 15.12.0
 _ZNK12KPIMTextEdit15HtmlHighlighter10metaObjectEv@Base 15.07.90
 _ZNK12KPIMTextEdit15PlainTextEditor10metaObjectEv@Base 15.12.0
 _ZNK12KPIMTextEdit15PlainTextEditor11highlighterEv@Base 15.12.0
 _ZNK12KPIMTextEdit15PlainTextEditor13searchSupportEv@Base 15.12.0
 _ZNK12KPIMTextEdit15PlainTextEditor18webShortcutSupportEv@Base 15.12.0
 _ZNK12KPIMTextEdit15PlainTextEditor19textToSpeechSupportEv@Base 15.12.0
 _ZNK12KPIMTextEdit15PlainTextEditor20activateLanguageMenuEv@Base 15.12.0
 _ZNK12KPIMTextEdit15PlainTextEditor20checkSpellingEnabledEv@Base 15.12.0
 _ZNK12KPIMTextEdit15PlainTextEditor20spellCheckingSupportEv@Base 15.12.0
 _ZNK12KPIMTextEdit15PlainTextEditor21spellCheckingLanguageEv@Base 15.12.0
 _ZNK12KPIMTextEdit15PlainTextEditor27spellCheckingConfigFileNameEv@Base 15.12.0
 _ZNK12KPIMTextEdit15TableActionMenu10metaObjectEv@Base 15.07.90
 _ZNK12KPIMTextEdit16InsertHtmlDialog10metaObjectEv@Base 15.07.90
 _ZNK12KPIMTextEdit16InsertHtmlDialog4htmlEv@Base 15.07.90
 _ZNK12KPIMTextEdit16RichTextComposer10metaObjectEv@Base 15.12.0
 _ZNK12KPIMTextEdit16RichTextComposer10textOrHtmlEv@Base 15.12.0
 _ZNK12KPIMTextEdit16RichTextComposer11quoteLengthERK7QString@Base 15.12.0
 _ZNK12KPIMTextEdit16RichTextComposer12columnNumberEv@Base 15.12.0
 _ZNK12KPIMTextEdit16RichTextComposer12isLineQuotedERK7QString@Base 15.12.0
 _ZNK12KPIMTextEdit16RichTextComposer12linePositionEv@Base 15.12.0
 _ZNK12KPIMTextEdit16RichTextComposer15composerActionsEv@Base 15.12.0
 _ZNK12KPIMTextEdit16RichTextComposer15quotePrefixNameEv@Base 15.12.0
 _ZNK12KPIMTextEdit16RichTextComposer16defaultQuoteSignEv@Base 15.12.0
 _ZNK12KPIMTextEdit16RichTextComposer16externalComposerEv@Base 15.12.0
 _ZNK12KPIMTextEdit16RichTextComposer17composerControlerEv@Base 15.12.0
 _ZNK12KPIMTextEdit16RichTextComposer18richTextActionListEv@Base 15.12.0
 _ZNK12KPIMTextEdit16RichTextComposer21canInsertFromMimeDataEPK9QMimeData@Base 15.12.0
 _ZNK12KPIMTextEdit16RichTextComposer8textModeEv@Base 15.12.0
 _ZNK12KPIMTextEdit17InsertImageDialog10imageWidthEv@Base 15.07.90
 _ZNK12KPIMTextEdit17InsertImageDialog10metaObjectEv@Base 15.07.90
 _ZNK12KPIMTextEdit17InsertImageDialog11imageHeightEv@Base 15.07.90
 _ZNK12KPIMTextEdit17InsertImageDialog16keepOriginalSizeEv@Base 15.07.90
 _ZNK12KPIMTextEdit17InsertImageDialog8imageUrlEv@Base 15.07.90
 _ZNK12KPIMTextEdit17InsertImageWidget10imageWidthEv@Base 15.07.90
 _ZNK12KPIMTextEdit17InsertImageWidget10metaObjectEv@Base 15.07.90
 _ZNK12KPIMTextEdit17InsertImageWidget11imageHeightEv@Base 15.07.90
 _ZNK12KPIMTextEdit17InsertImageWidget16keepOriginalSizeEv@Base 15.07.90
 _ZNK12KPIMTextEdit17InsertImageWidget8imageUrlEv@Base 15.07.90
 _ZNK12KPIMTextEdit17InsertTableDialog12typeOfLengthEv@Base 15.07.90
 _ZNK12KPIMTextEdit17InsertTableDialog4rowsEv@Base 15.07.90
 _ZNK12KPIMTextEdit17InsertTableDialog6borderEv@Base 15.07.90
 _ZNK12KPIMTextEdit17InsertTableDialog6lengthEv@Base 15.07.90
 _ZNK12KPIMTextEdit17InsertTableDialog7columnsEv@Base 15.07.90
 _ZNK12KPIMTextEdit17InsertTableWidget10metaObjectEv@Base 15.07.90
 _ZNK12KPIMTextEdit17InsertTableWidget12typeOfLengthEv@Base 15.07.90
 _ZNK12KPIMTextEdit17InsertTableWidget4rowsEv@Base 15.07.90
 _ZNK12KPIMTextEdit17InsertTableWidget6borderEv@Base 15.07.90
 _ZNK12KPIMTextEdit17InsertTableWidget6lengthEv@Base 15.07.90
 _ZNK12KPIMTextEdit17InsertTableWidget7columnsEv@Base 15.07.90
 _ZNK12KPIMTextEdit17TableFormatDialog12typeOfLengthEv@Base 15.07.90
 _ZNK12KPIMTextEdit17TableFormatDialog18useBackgroundColorEv@Base 15.07.90
 _ZNK12KPIMTextEdit17TableFormatDialog20tableBackgroundColorEv@Base 15.07.90
 _ZNK12KPIMTextEdit17TableFormatDialog4rowsEv@Base 15.07.90
 _ZNK12KPIMTextEdit17TableFormatDialog6borderEv@Base 15.07.90
 _ZNK12KPIMTextEdit17TableFormatDialog6lengthEv@Base 15.07.90
 _ZNK12KPIMTextEdit17TableFormatDialog7columnsEv@Base 15.07.90
 _ZNK12KPIMTextEdit17TableFormatDialog7paddingEv@Base 15.07.90
 _ZNK12KPIMTextEdit17TableFormatDialog7spacingEv@Base 15.07.90
 _ZNK12KPIMTextEdit17TableFormatDialog9alignmentEv@Base 15.07.90
 _ZNK12KPIMTextEdit18TextGoToLineWidget10metaObjectEv@Base 15.12.0
 _ZNK12KPIMTextEdit18TextToSpeechWidget10metaObjectEv@Base 15.12.0
 _ZNK12KPIMTextEdit18TextToSpeechWidget5stateEv@Base 15.12.0
 _ZNK12KPIMTextEdit18TextToSpeechWidget7isReadyEv@Base 15.12.0
 _ZNK12KPIMTextEdit19RichTextEditFindBar10metaObjectEv@Base 15.12.0
 _ZNK12KPIMTextEdit19RichTextEditFindBar14viewIsReadOnlyEv@Base 15.12.0
 _ZNK12KPIMTextEdit19RichTextEditFindBar15documentIsEmptyEv@Base 15.12.0
 _ZNK12KPIMTextEdit19TextEditFindBarBase10metaObjectEv@Base 15.12.0
 _ZNK12KPIMTextEdit19TextEditFindBarBase4textEv@Base 15.12.0
 _ZNK12KPIMTextEdit19TextEditorCompleter10metaObjectEv@Base 15.07.90
 _ZNK12KPIMTextEdit19TextEditorCompleter26TextEditorCompleterPrivate15wordUnderCursorEv@Base 15.07.90
 _ZNK12KPIMTextEdit19TextEditorCompleter9completerEv@Base 15.07.90
 _ZNK12KPIMTextEdit19TextToSpeechActions10metaObjectEv@Base 15.12.0
 _ZNK12KPIMTextEdit19TextToSpeechActions10stopActionEv@Base 15.12.0
 _ZNK12KPIMTextEdit19TextToSpeechActions15playPauseActionEv@Base 15.12.0
 _ZNK12KPIMTextEdit19TextToSpeechActions5stateEv@Base 15.12.0
 _ZNK12KPIMTextEdit20PlainTextEditFindBar10metaObjectEv@Base 15.12.0
 _ZNK12KPIMTextEdit20PlainTextEditFindBar14viewIsReadOnlyEv@Base 15.12.0
 _ZNK12KPIMTextEdit20PlainTextEditFindBar15documentIsEmptyEv@Base 15.12.0
 _ZNK12KPIMTextEdit20RichTextEditorWidget10isReadOnlyEv@Base 15.12.0
 _ZNK12KPIMTextEdit20RichTextEditorWidget10metaObjectEv@Base 15.12.0
 _ZNK12KPIMTextEdit20RichTextEditorWidget11toPlainTextEv@Base 15.12.0
 _ZNK12KPIMTextEdit20RichTextEditorWidget14acceptRichTextEv@Base 15.12.0
 _ZNK12KPIMTextEdit20RichTextEditorWidget6editorEv@Base 15.12.0
 _ZNK12KPIMTextEdit20RichTextEditorWidget6toHtmlEv@Base 15.12.0
 _ZNK12KPIMTextEdit21PlainTextEditorWidget10isReadOnlyEv@Base 15.12.0
 _ZNK12KPIMTextEdit21PlainTextEditorWidget10metaObjectEv@Base 15.12.0
 _ZNK12KPIMTextEdit21PlainTextEditorWidget11toPlainTextEv@Base 15.12.0
 _ZNK12KPIMTextEdit21PlainTextEditorWidget6editorEv@Base 15.12.0
 _ZNK12KPIMTextEdit21SyntaxHighlighterBase10metaObjectEv@Base 15.07.90
 _ZNK12KPIMTextEdit21TableCellFormatDialog17verticalAlignmentEv@Base 15.07.90
 _ZNK12KPIMTextEdit21TableCellFormatDialog18useBackgroundColorEv@Base 15.07.90
 _ZNK12KPIMTextEdit21TableCellFormatDialog24tableCellBackgroundColorEv@Base 15.07.90
 _ZNK12KPIMTextEdit21TextToSpeechInterface10metaObjectEv@Base 15.12.0
 _ZNK12KPIMTextEdit21TextToSpeechInterface6volumeEv@Base 15.12.0
 _ZNK12KPIMTextEdit21TextToSpeechInterface7isReadyEv@Base 15.12.0
 _ZNK12KPIMTextEdit22EmoticonTextEditAction10metaObjectEv@Base 15.07.90
 _ZNK12KPIMTextEdit22RichTextComposerImages10metaObjectEv@Base 15.12.0
 _ZNK12KPIMTextEdit22RichTextComposerImages14embeddedImagesEv@Base 15.12.0
 _ZNK12KPIMTextEdit22RichTextComposerImages14imagesWithNameEv@Base 15.12.0
 _ZNK12KPIMTextEdit22RichTextComposerImages20embeddedImageFormatsEv@Base 15.12.0
 _ZNK12KPIMTextEdit23RichTextComposerActions10metaObjectEv@Base 15.12.0
 _ZNK12KPIMTextEdit23RichTextComposerActions15numberOfActionsEv@Base 15.12.0
 _ZNK12KPIMTextEdit23RichTextComposerActions18richTextActionListEv@Base 15.12.0
 _ZNK12KPIMTextEdit23SelectSpecialCharDialog10metaObjectEv@Base 15.07.90
 _ZNK12KPIMTextEdit23SelectSpecialCharDialog11currentCharEv@Base 15.07.90
 _ZNK12KPIMTextEdit24RichTextExternalComposer10metaObjectEv@Base 15.12.0
 _ZNK12KPIMTextEdit24RichTextExternalComposer12isInProgressEv@Base 15.12.0
 _ZNK12KPIMTextEdit24RichTextExternalComposer17useExternalEditorEv@Base 15.12.0
 _ZNK12KPIMTextEdit24RichTextExternalComposer18externalEditorPathEv@Base 15.12.0
 _ZNK12KPIMTextEdit24TextToSpeechConfigDialog10metaObjectEv@Base 15.12.0
 _ZNK12KPIMTextEdit24TextToSpeechConfigWidget10metaObjectEv@Base 15.12.0
 _ZNK12KPIMTextEdit25RichTextComposerControler10metaObjectEv@Base 15.12.0
 _ZNK12KPIMTextEdit25RichTextComposerControler11toCleanHtmlEv@Base 15.12.0
 _ZNK12KPIMTextEdit25RichTextComposerControler13canDedentListEv@Base 15.12.0
 _ZNK12KPIMTextEdit25RichTextComposerControler13canIndentListEv@Base 15.12.0
 _ZNK12KPIMTextEdit25RichTextComposerControler13painterActiveEv@Base 15.12.0
 _ZNK12KPIMTextEdit25RichTextComposerControler14composerImagesEv@Base 15.12.0
 _ZNK12KPIMTextEdit25RichTextComposerControler14currentLinkUrlEv@Base 15.12.0
 _ZNK12KPIMTextEdit25RichTextComposerControler14selectLinkTextEv@Base 15.12.0
 _ZNK12KPIMTextEdit25RichTextComposerControler15currentLinkTextEv@Base 15.12.0
 _ZNK12KPIMTextEdit25RichTextComposerControler16isFormattingUsedEv@Base 15.12.0
 _ZNK12KPIMTextEdit25RichTextComposerControler16nestedListHelperEv@Base 15.12.0
 _ZNK12KPIMTextEdit25RichTextComposerControler16richTextComposerEv@Base 15.12.0
 _ZNK12KPIMTextEdit25RichTextComposerControler16toCleanPlainTextERK7QString@Base 15.12.0
 _ZNK12KPIMTextEdit25RichTextComposerControler18toWrappedPlainTextEP13QTextDocument@Base 15.12.0
 _ZNK12KPIMTextEdit25RichTextComposerControler18toWrappedPlainTextEv@Base 15.12.0
 _ZNK12KPIMTextEdit27TextToSpeechConfigInterface10metaObjectEv@Base 15.12.0
 _ZNK12KPIMTextEdit27TextToSpeechConfigInterface15availableVoicesEv@Base 15.12.0
 _ZNK12KPIMTextEdit27TextToSpeechConfigInterface16availableEnginesEv@Base 15.12.0
 _ZNK12KPIMTextEdit27TextToSpeechConfigInterface16availableLocalesEv@Base 15.12.0
 _ZNK12KPIMTextEdit27TextToSpeechConfigInterface6localeEv@Base 15.12.0
 _ZNK12KPIMTextEdit29AbstractTextToSpeechInterface10metaObjectEv@Base 15.12.0
 _ZNK12KPIMTextEdit29AbstractTextToSpeechInterface6volumeEv@Base 15.12.0
 _ZNK12KPIMTextEdit29AbstractTextToSpeechInterface7isReadyEv@Base 15.12.0
 _ZNK12KPIMTextEdit35AbstractTextToSpeechConfigInterface10metaObjectEv@Base 15.12.0
 _ZNK12KPIMTextEdit35AbstractTextToSpeechConfigInterface15availableVoicesEv@Base 15.12.0
 _ZNK12KPIMTextEdit35AbstractTextToSpeechConfigInterface16availableEnginesEv@Base 15.12.0
 _ZNK12KPIMTextEdit35AbstractTextToSpeechConfigInterface16availableLocalesEv@Base 15.12.0
 _ZNK12KPIMTextEdit35AbstractTextToSpeechConfigInterface6localeEv@Base 15.12.0
 _ZNK12KPIMTextEdit35RichTextComposerEmailQuoteDecorator30isSpellCheckingEnabledForBlockERK7QString@Base 15.12.0
 _ZTIN12KPIMTextEdit12TextToSpeechE@Base 15.12.0
 _ZTIN12KPIMTextEdit14RichTextEditorE@Base 15.12.0
 _ZTIN12KPIMTextEdit14SlideContainerE@Base 15.12.0
 _ZTIN12KPIMTextEdit15HtmlHighlighterE@Base 15.07.90
 _ZTIN12KPIMTextEdit15PlainTextEditorE@Base 15.12.0
 _ZTIN12KPIMTextEdit15TableActionMenuE@Base 15.07.90
 _ZTIN12KPIMTextEdit16InsertHtmlDialogE@Base 15.07.90
 _ZTIN12KPIMTextEdit16RichTextComposerE@Base 15.12.0
 _ZTIN12KPIMTextEdit17InsertImageDialogE@Base 15.07.90
 _ZTIN12KPIMTextEdit17InsertImageWidgetE@Base 15.07.90
 _ZTIN12KPIMTextEdit17InsertTableDialogE@Base 15.07.90
 _ZTIN12KPIMTextEdit17InsertTableWidgetE@Base 15.07.90
 _ZTIN12KPIMTextEdit17TableFormatDialogE@Base 15.07.90
 _ZTIN12KPIMTextEdit18TextGoToLineWidgetE@Base 15.12.0
 _ZTIN12KPIMTextEdit18TextToSpeechWidgetE@Base 15.12.0
 _ZTIN12KPIMTextEdit19RichTextEditFindBarE@Base 15.12.0
 _ZTIN12KPIMTextEdit19TextEditFindBarBaseE@Base 15.12.0
 _ZTIN12KPIMTextEdit19TextEditorCompleterE@Base 15.07.90
 _ZTIN12KPIMTextEdit19TextToSpeechActionsE@Base 15.12.0
 _ZTIN12KPIMTextEdit20PlainTextEditFindBarE@Base 15.12.0
 _ZTIN12KPIMTextEdit20RichTextEditorWidgetE@Base 15.12.0
 _ZTIN12KPIMTextEdit21PlainTextEditorWidgetE@Base 15.12.0
 _ZTIN12KPIMTextEdit21SyntaxHighlighterBaseE@Base 15.07.90
 _ZTIN12KPIMTextEdit21TableCellFormatDialogE@Base 15.07.90
 _ZTIN12KPIMTextEdit21TextToSpeechInterfaceE@Base 15.12.0
 _ZTIN12KPIMTextEdit22EmoticonTextEditActionE@Base 15.07.90
 _ZTIN12KPIMTextEdit22RichTextComposerImagesE@Base 15.12.0
 _ZTIN12KPIMTextEdit23RichTextComposerActionsE@Base 15.12.0
 _ZTIN12KPIMTextEdit23SelectSpecialCharDialogE@Base 15.07.90
 _ZTIN12KPIMTextEdit24RichTextExternalComposerE@Base 15.12.0
 _ZTIN12KPIMTextEdit24TextToSpeechConfigDialogE@Base 15.12.0
 _ZTIN12KPIMTextEdit24TextToSpeechConfigWidgetE@Base 15.12.0
 _ZTIN12KPIMTextEdit25RichTextComposerControlerE@Base 15.12.0
 _ZTIN12KPIMTextEdit27TextToSpeechConfigInterfaceE@Base 15.12.0
 _ZTIN12KPIMTextEdit29AbstractTextToSpeechInterfaceE@Base 15.12.0
 _ZTIN12KPIMTextEdit35AbstractTextToSpeechConfigInterfaceE@Base 15.12.0
 _ZTIN12KPIMTextEdit35RichTextComposerEmailQuoteDecoratorE@Base 15.12.0
 _ZTIN12KPIMTextEdit37RichTextComposerEmailQuoteHighlighterE@Base 15.12.0
 _ZTIN12KPIMTextEdit39PlainTextSyntaxSpellCheckingHighlighterE@Base 15.12.0
 _ZTSN12KPIMTextEdit12TextToSpeechE@Base 15.12.0
 _ZTSN12KPIMTextEdit14RichTextEditorE@Base 15.12.0
 _ZTSN12KPIMTextEdit14SlideContainerE@Base 15.12.0
 _ZTSN12KPIMTextEdit15HtmlHighlighterE@Base 15.07.90
 _ZTSN12KPIMTextEdit15PlainTextEditorE@Base 15.12.0
 _ZTSN12KPIMTextEdit15TableActionMenuE@Base 15.07.90
 _ZTSN12KPIMTextEdit16InsertHtmlDialogE@Base 15.07.90
 _ZTSN12KPIMTextEdit16RichTextComposerE@Base 15.12.0
 _ZTSN12KPIMTextEdit17InsertImageDialogE@Base 15.07.90
 _ZTSN12KPIMTextEdit17InsertImageWidgetE@Base 15.07.90
 _ZTSN12KPIMTextEdit17InsertTableDialogE@Base 15.07.90
 _ZTSN12KPIMTextEdit17InsertTableWidgetE@Base 15.07.90
 _ZTSN12KPIMTextEdit17TableFormatDialogE@Base 15.07.90
 _ZTSN12KPIMTextEdit18TextGoToLineWidgetE@Base 15.12.0
 _ZTSN12KPIMTextEdit18TextToSpeechWidgetE@Base 15.12.0
 _ZTSN12KPIMTextEdit19RichTextEditFindBarE@Base 15.12.0
 _ZTSN12KPIMTextEdit19TextEditFindBarBaseE@Base 15.12.0
 _ZTSN12KPIMTextEdit19TextEditorCompleterE@Base 15.07.90
 _ZTSN12KPIMTextEdit19TextToSpeechActionsE@Base 15.12.0
 _ZTSN12KPIMTextEdit20PlainTextEditFindBarE@Base 15.12.0
 _ZTSN12KPIMTextEdit20RichTextEditorWidgetE@Base 15.12.0
 _ZTSN12KPIMTextEdit21PlainTextEditorWidgetE@Base 15.12.0
 _ZTSN12KPIMTextEdit21SyntaxHighlighterBaseE@Base 15.07.90
 _ZTSN12KPIMTextEdit21TableCellFormatDialogE@Base 15.07.90
 _ZTSN12KPIMTextEdit21TextToSpeechInterfaceE@Base 15.12.0
 _ZTSN12KPIMTextEdit22EmoticonTextEditActionE@Base 15.07.90
 _ZTSN12KPIMTextEdit22RichTextComposerImagesE@Base 15.12.0
 _ZTSN12KPIMTextEdit23RichTextComposerActionsE@Base 15.12.0
 _ZTSN12KPIMTextEdit23SelectSpecialCharDialogE@Base 15.07.90
 _ZTSN12KPIMTextEdit24RichTextExternalComposerE@Base 15.12.0
 _ZTSN12KPIMTextEdit24TextToSpeechConfigDialogE@Base 15.12.0
 _ZTSN12KPIMTextEdit24TextToSpeechConfigWidgetE@Base 15.12.0
 _ZTSN12KPIMTextEdit25RichTextComposerControlerE@Base 15.12.0
 _ZTSN12KPIMTextEdit27TextToSpeechConfigInterfaceE@Base 15.12.0
 _ZTSN12KPIMTextEdit29AbstractTextToSpeechInterfaceE@Base 15.12.0
 _ZTSN12KPIMTextEdit35AbstractTextToSpeechConfigInterfaceE@Base 15.12.0
 _ZTSN12KPIMTextEdit35RichTextComposerEmailQuoteDecoratorE@Base 15.12.0
 _ZTSN12KPIMTextEdit37RichTextComposerEmailQuoteHighlighterE@Base 15.12.0
 _ZTSN12KPIMTextEdit39PlainTextSyntaxSpellCheckingHighlighterE@Base 15.12.0
 _ZTVN12KPIMTextEdit12TextToSpeechE@Base 15.12.0
 _ZTVN12KPIMTextEdit14RichTextEditorE@Base 15.12.0
 _ZTVN12KPIMTextEdit14SlideContainerE@Base 15.12.0
 _ZTVN12KPIMTextEdit15HtmlHighlighterE@Base 15.07.90
 _ZTVN12KPIMTextEdit15PlainTextEditorE@Base 15.12.0
 _ZTVN12KPIMTextEdit15TableActionMenuE@Base 15.07.90
 _ZTVN12KPIMTextEdit16InsertHtmlDialogE@Base 15.07.90
 _ZTVN12KPIMTextEdit16RichTextComposerE@Base 15.12.0
 _ZTVN12KPIMTextEdit17InsertImageDialogE@Base 15.07.90
 _ZTVN12KPIMTextEdit17InsertImageWidgetE@Base 15.07.90
 _ZTVN12KPIMTextEdit17InsertTableDialogE@Base 15.07.90
 _ZTVN12KPIMTextEdit17InsertTableWidgetE@Base 15.07.90
 _ZTVN12KPIMTextEdit17TableFormatDialogE@Base 15.07.90
 _ZTVN12KPIMTextEdit18TextGoToLineWidgetE@Base 15.12.0
 _ZTVN12KPIMTextEdit18TextToSpeechWidgetE@Base 15.12.0
 _ZTVN12KPIMTextEdit19RichTextEditFindBarE@Base 15.12.0
 _ZTVN12KPIMTextEdit19TextEditFindBarBaseE@Base 15.12.0
 _ZTVN12KPIMTextEdit19TextEditorCompleterE@Base 15.07.90
 _ZTVN12KPIMTextEdit19TextToSpeechActionsE@Base 15.12.0
 _ZTVN12KPIMTextEdit20PlainTextEditFindBarE@Base 15.12.0
 _ZTVN12KPIMTextEdit20RichTextEditorWidgetE@Base 15.12.0
 _ZTVN12KPIMTextEdit21PlainTextEditorWidgetE@Base 15.12.0
 _ZTVN12KPIMTextEdit21SyntaxHighlighterBaseE@Base 15.07.90
 _ZTVN12KPIMTextEdit21TableCellFormatDialogE@Base 15.07.90
 _ZTVN12KPIMTextEdit21TextToSpeechInterfaceE@Base 15.12.0
 _ZTVN12KPIMTextEdit22EmoticonTextEditActionE@Base 15.07.90
 _ZTVN12KPIMTextEdit22RichTextComposerImagesE@Base 15.12.0
 _ZTVN12KPIMTextEdit23RichTextComposerActionsE@Base 15.12.0
 _ZTVN12KPIMTextEdit23SelectSpecialCharDialogE@Base 15.07.90
 _ZTVN12KPIMTextEdit24RichTextExternalComposerE@Base 15.12.0
 _ZTVN12KPIMTextEdit24TextToSpeechConfigDialogE@Base 15.12.0
 _ZTVN12KPIMTextEdit24TextToSpeechConfigWidgetE@Base 15.12.0
 _ZTVN12KPIMTextEdit25RichTextComposerControlerE@Base 15.12.0
 _ZTVN12KPIMTextEdit27TextToSpeechConfigInterfaceE@Base 15.12.0
 _ZTVN12KPIMTextEdit29AbstractTextToSpeechInterfaceE@Base 15.12.0
 _ZTVN12KPIMTextEdit35AbstractTextToSpeechConfigInterfaceE@Base 15.12.0
 _ZTVN12KPIMTextEdit35RichTextComposerEmailQuoteDecoratorE@Base 15.12.0
 _ZTVN12KPIMTextEdit37RichTextComposerEmailQuoteHighlighterE@Base 15.12.0
 _ZTVN12KPIMTextEdit39PlainTextSyntaxSpellCheckingHighlighterE@Base 15.12.0
 _ZThn16_N12KPIMTextEdit14RichTextEditorD0Ev@Base 15.12.0
 _ZThn16_N12KPIMTextEdit14RichTextEditorD1Ev@Base 15.12.0
 _ZThn16_N12KPIMTextEdit15PlainTextEditorD0Ev@Base 15.12.0
 _ZThn16_N12KPIMTextEdit15PlainTextEditorD1Ev@Base 15.12.0
 _ZThn16_N12KPIMTextEdit16InsertHtmlDialogD0Ev@Base 15.07.90
 _ZThn16_N12KPIMTextEdit16InsertHtmlDialogD1Ev@Base 15.07.90
 _ZThn16_N12KPIMTextEdit16RichTextComposerD0Ev@Base 15.12.0
 _ZThn16_N12KPIMTextEdit16RichTextComposerD1Ev@Base 15.12.0
 _ZThn16_N12KPIMTextEdit17InsertImageDialogD0Ev@Base 15.07.90
 _ZThn16_N12KPIMTextEdit17InsertImageDialogD1Ev@Base 15.07.90
 _ZThn16_N12KPIMTextEdit17InsertImageWidgetD0Ev@Base 15.07.90
 _ZThn16_N12KPIMTextEdit17InsertImageWidgetD1Ev@Base 15.07.90
 _ZThn16_N12KPIMTextEdit17InsertTableDialogD0Ev@Base 15.07.90
 _ZThn16_N12KPIMTextEdit17InsertTableDialogD1Ev@Base 15.07.90
 _ZThn16_N12KPIMTextEdit17InsertTableWidgetD0Ev@Base 15.07.90
 _ZThn16_N12KPIMTextEdit17InsertTableWidgetD1Ev@Base 15.07.90
 _ZThn16_N12KPIMTextEdit17TableFormatDialogD0Ev@Base 15.07.90
 _ZThn16_N12KPIMTextEdit17TableFormatDialogD1Ev@Base 15.07.90
 _ZThn16_N12KPIMTextEdit18TextGoToLineWidgetD0Ev@Base 15.12.0
 _ZThn16_N12KPIMTextEdit18TextGoToLineWidgetD1Ev@Base 15.12.0
 _ZThn16_N12KPIMTextEdit18TextToSpeechWidgetD0Ev@Base 15.12.0
 _ZThn16_N12KPIMTextEdit18TextToSpeechWidgetD1Ev@Base 15.12.0
 _ZThn16_N12KPIMTextEdit19RichTextEditFindBarD0Ev@Base 15.12.0
 _ZThn16_N12KPIMTextEdit19RichTextEditFindBarD1Ev@Base 15.12.0
 _ZThn16_N12KPIMTextEdit19TextEditFindBarBaseD0Ev@Base 15.12.0
 _ZThn16_N12KPIMTextEdit19TextEditFindBarBaseD1Ev@Base 15.12.0
 _ZThn16_N12KPIMTextEdit20PlainTextEditFindBarD0Ev@Base 15.12.0
 _ZThn16_N12KPIMTextEdit20PlainTextEditFindBarD1Ev@Base 15.12.0
 _ZThn16_N12KPIMTextEdit20RichTextEditorWidgetD0Ev@Base 15.12.0
 _ZThn16_N12KPIMTextEdit20RichTextEditorWidgetD1Ev@Base 15.12.0
 _ZThn16_N12KPIMTextEdit21PlainTextEditorWidgetD0Ev@Base 15.12.0
 _ZThn16_N12KPIMTextEdit21PlainTextEditorWidgetD1Ev@Base 15.12.0
 _ZThn16_N12KPIMTextEdit21TableCellFormatDialogD0Ev@Base 15.07.90
 _ZThn16_N12KPIMTextEdit21TableCellFormatDialogD1Ev@Base 15.07.90
 _ZThn16_N12KPIMTextEdit23SelectSpecialCharDialogD0Ev@Base 15.07.90
 _ZThn16_N12KPIMTextEdit23SelectSpecialCharDialogD1Ev@Base 15.07.90
 _ZThn16_N12KPIMTextEdit24TextToSpeechConfigDialogD0Ev@Base 15.12.0
 _ZThn16_N12KPIMTextEdit24TextToSpeechConfigDialogD1Ev@Base 15.12.0
 _ZThn16_N12KPIMTextEdit24TextToSpeechConfigWidgetD0Ev@Base 15.12.0
 _ZThn16_N12KPIMTextEdit24TextToSpeechConfigWidgetD1Ev@Base 15.12.0
