libKF5Completion.so.5 libkf5completion5 #MINVER#
 _ZN11KCompletion10allMatchesERK7QString@Base 4.97.0
 _ZN11KCompletion10allMatchesEv@Base 4.97.0
 _ZN11KCompletion10removeItemERK7QString@Base 4.97.0
 _ZN11KCompletion11insertItemsERK11QStringList@Base 4.97.0
 _ZN11KCompletion11qt_metacallEN11QMetaObject4CallEiPPv@Base 4.97.0
 _ZN11KCompletion11qt_metacastEPKc@Base 4.97.0
 _ZN11KCompletion13previousMatchEv@Base 4.97.0
 _ZN11KCompletion13setIgnoreCaseEb@Base 4.97.0
 _ZN11KCompletion14makeCompletionERK7QString@Base 4.97.0
 _ZN11KCompletion15multipleMatchesEv@Base 4.97.0
 _ZN11KCompletion16setSoundsEnabledEb@Base 4.97.0
 _ZN11KCompletion16staticMetaObjectE@Base 4.97.0
 _ZN11KCompletion17setCompletionModeENS_14CompletionModeE@Base 4.97.0
 _ZN11KCompletion18allWeightedMatchesERK7QString@Base 4.97.0
 _ZN11KCompletion18allWeightedMatchesEv@Base 4.97.0
 _ZN11KCompletion5clearEv@Base 4.97.0
 _ZN11KCompletion5matchERK7QString@Base 4.97.0
 _ZN11KCompletion7addItemERK7QString@Base 4.97.0
 _ZN11KCompletion7addItemERK7QStringj@Base 4.97.0
 _ZN11KCompletion7matchesERK11QStringList@Base 4.97.0
 _ZN11KCompletion8setItemsERK11QStringList@Base 4.97.0
 _ZN11KCompletion8setOrderENS_9CompOrderE@Base 4.97.0
 _ZN11KCompletion9nextMatchEv@Base 4.97.0
 _ZN11KCompletionC1Ev@Base 4.97.0
 _ZN11KCompletionC2Ev@Base 4.97.0
 _ZN11KCompletionD0Ev@Base 4.97.0
 _ZN11KCompletionD1Ev@Base 4.97.0
 _ZN11KCompletionD2Ev@Base 4.97.0
 _ZN13KCompTreeNode6insertERK5QCharb@Base 4.97.0
 _ZN13KCompTreeNode6removeERK7QString@Base 4.97.0
 _ZN13KCompTreeNode7m_allocE@Base 4.98.0
 _ZN13KCompTreeNodeD1Ev@Base 4.97.0
 _ZN13KCompTreeNodeD2Ev@Base 4.97.0
 _ZN14KCompletionBox10setVisibleEb@Base 4.97.0
 _ZN14KCompletionBox11eventFilterEP7QObjectP6QEvent@Base 4.97.0
 _ZN14KCompletionBox11insertItemsERK11QStringListi@Base 4.97.0
 _ZN14KCompletionBox11qt_metacallEN11QMetaObject4CallEiPPv@Base 4.97.0
 _ZN14KCompletionBox11qt_metacastEPKc@Base 4.97.0
 _ZN14KCompletionBox13slotActivatedEP15QListWidgetItem@Base 4.97.0
 _ZN14KCompletionBox13userCancelledERK7QString@Base 4.97.0
 _ZN14KCompletionBox14setTabHandlingEb@Base 4.97.0
 _ZN14KCompletionBox16setCancelledTextERK7QString@Base 4.97.0
 _ZN14KCompletionBox16staticMetaObjectE@Base 4.97.0
 _ZN14KCompletionBox19resizeAndRepositionEv@Base 4.98.0
 _ZN14KCompletionBox19setActivateOnSelectEb@Base 4.97.0
 _ZN14KCompletionBox2upEv@Base 4.97.0
 _ZN14KCompletionBox3endEv@Base 4.97.0
 _ZN14KCompletionBox4downEv@Base 4.97.0
 _ZN14KCompletionBox4homeEv@Base 4.97.0
 _ZN14KCompletionBox5popupEv@Base 4.97.0
 _ZN14KCompletionBox6pageUpEv@Base 4.97.0
 _ZN14KCompletionBox8pageDownEv@Base 4.97.0
 _ZN14KCompletionBox8setItemsERK11QStringList@Base 4.97.0
 _ZN14KCompletionBox9activatedERK7QString@Base 4.97.0
 _ZN14KCompletionBoxC1EP7QWidget@Base 4.97.0
 _ZN14KCompletionBoxC2EP7QWidget@Base 4.97.0
 _ZN14KCompletionBoxD0Ev@Base 4.97.0
 _ZN14KCompletionBoxD1Ev@Base 4.97.0
 _ZN14KCompletionBoxD2Ev@Base 4.97.0
 _ZN15KCompletionBase11setDelegateEPS_@Base 4.97.0
 _ZN15KCompletionBase12virtual_hookEiPv@Base 4.97.0
 _ZN15KCompletionBase13setKeyBindingENS_14KeyBindingTypeERK5QListI12QKeySequenceE@Base 4.97.0
 _ZN15KCompletionBase14setEmitSignalsEb@Base 4.97.0
 _ZN15KCompletionBase16completionObjectEb@Base 4.97.0
 _ZN15KCompletionBase16setEnableSignalsEb@Base 4.97.0
 _ZN15KCompletionBase16setHandleSignalsEb@Base 4.97.0
 _ZN15KCompletionBase16setKeyBindingMapE4QMapINS_14KeyBindingTypeE5QListI12QKeySequenceEE@Base 4.97.0
 _ZN15KCompletionBase17setCompletionModeEN11KCompletion14CompletionModeE@Base 4.97.0
 _ZN15KCompletionBase19setCompletionObjectEP11KCompletionb@Base 4.97.0
 _ZN15KCompletionBase20useGlobalKeyBindingsEv@Base 4.97.0
 _ZN15KCompletionBase29setAutoDeleteCompletionObjectEb@Base 4.97.0
 _ZN15KCompletionBaseC1Ev@Base 4.97.0
 _ZN15KCompletionBaseC2Ev@Base 4.97.0
 _ZN15KCompletionBaseD0Ev@Base 4.97.0
 _ZN15KCompletionBaseD1Ev@Base 4.97.0
 _ZN15KCompletionBaseD2Ev@Base 4.97.0
 _ZN15KPixmapProvider12virtual_hookEiPv@Base 4.97.0
 _ZN15KPixmapProviderD0Ev@Base 4.97.0
 _ZN15KPixmapProviderD1Ev@Base 4.97.0
 _ZN15KPixmapProviderD2Ev@Base 4.97.0
 _ZN16KHistoryComboBox10wheelEventEP11QWheelEvent@Base 4.97.0
 _ZN16KHistoryComboBox11insertItemsERK11QStringList@Base 4.97.0
 _ZN16KHistoryComboBox11qt_metacallEN11QMetaObject4CallEiPPv@Base 4.97.0
 _ZN16KHistoryComboBox11qt_metacastEPKc@Base 4.97.0
 _ZN16KHistoryComboBox12addToHistoryERK7QString@Base 4.97.0
 _ZN16KHistoryComboBox12clearHistoryEv@Base 4.97.0
 _ZN16KHistoryComboBox13keyPressEventEP9QKeyEvent@Base 4.97.0
 _ZN16KHistoryComboBox15setHistoryItemsERK11QStringList@Base 4.97.0
 _ZN16KHistoryComboBox15setHistoryItemsERK11QStringListb@Base 4.97.0
 _ZN16KHistoryComboBox16staticMetaObjectE@Base 4.97.0
 _ZN16KHistoryComboBox17removeFromHistoryERK7QString@Base 4.97.0
 _ZN16KHistoryComboBox17setPixmapProviderEP15KPixmapProvider@Base 4.97.0
 _ZN16KHistoryComboBox5resetEv@Base 4.97.0
 _ZN16KHistoryComboBox7clearedEv@Base 4.97.0
 _ZN16KHistoryComboBoxC1EP7QWidget@Base 4.97.0
 _ZN16KHistoryComboBoxC1EbP7QWidget@Base 4.97.0
 _ZN16KHistoryComboBoxC2EP7QWidget@Base 4.97.0
 _ZN16KHistoryComboBoxC2EbP7QWidget@Base 4.97.0
 _ZN16KHistoryComboBoxD0Ev@Base 4.97.0
 _ZN16KHistoryComboBoxD1Ev@Base 4.97.0
 _ZN16KHistoryComboBoxD2Ev@Base 4.97.0
 _ZN17KCompTreeNodeList6appendEP13KCompTreeNode@Base 4.97.0
 _ZN17KCompTreeNodeList6insertEP13KCompTreeNodeS1_@Base 4.97.0
 _ZN17KCompTreeNodeList6removeEP13KCompTreeNode@Base 4.97.0
 _ZN17KCompTreeNodeList7prependEP13KCompTreeNode@Base 4.97.0
 _ZN18KCompletionMatches16removeDuplicatesEv@Base 4.97.0
 _ZN18KCompletionMatchesC1ERK25KCompletionMatchesWrapper@Base 4.97.0
 _ZN18KCompletionMatchesC1ERKS_@Base 4.97.0
 _ZN18KCompletionMatchesC1Eb@Base 4.97.0
 _ZN18KCompletionMatchesC2ERK25KCompletionMatchesWrapper@Base 4.97.0
 _ZN18KCompletionMatchesC2ERKS_@Base 4.97.0
 _ZN18KCompletionMatchesC2Eb@Base 4.97.0
 _ZN18KCompletionMatchesD1Ev@Base 4.97.0
 _ZN18KCompletionMatchesD2Ev@Base 4.97.0
 _ZN18KCompletionMatchesaSERKS_@Base 4.97.0
 _ZN25KCompletionMatchesWrapper18findAllCompletionsEPK13KCompTreeNodeRK7QStringbRb@Base 4.99.0
 _ZN25KCompletionMatchesWrapper22extractStringsFromNodeEPK13KCompTreeNodeRK7QStringb@Base 4.99.0
 _ZN25KCompletionMatchesWrapper24extractStringsFromNodeCIEPK13KCompTreeNodeRK7QStringS5_@Base 4.99.0
 _ZN9KComboBox10completionERK7QString@Base 4.97.0
 _ZN9KComboBox10rotateTextEN15KCompletionBase14KeyBindingTypeE@Base 4.97.0
 _ZN9KComboBox10setEditUrlERK4QUrl@Base 4.97.0
 _ZN9KComboBox11qt_metacallEN11QMetaObject4CallEiPPv@Base 4.97.0
 _ZN9KComboBox11qt_metacastEPKc@Base 4.97.0
 _ZN9KComboBox11setEditableEb@Base 4.97.0
 _ZN9KComboBox11setLineEditEP9QLineEdit@Base 4.97.0
 _ZN9KComboBox12textRotationEN15KCompletionBase14KeyBindingTypeE@Base 4.97.0
 _ZN9KComboBox13completionBoxEb@Base 4.97.0
 _ZN9KComboBox13returnPressedERK7QString@Base 4.97.0
 _ZN9KComboBox13returnPressedEv@Base 4.97.0
 _ZN9KComboBox14makeCompletionERK7QString@Base 4.97.0
 _ZN9KComboBox14setCurrentItemERK7QStringbi@Base 4.97.0
 _ZN9KComboBox16setCompletedTextERK7QString@Base 4.97.0
 _ZN9KComboBox16setCompletedTextERK7QStringb@Base 4.97.0
 _ZN9KComboBox16setTrapReturnKeyEb@Base 4.97.0
 _ZN9KComboBox16staticMetaObjectE@Base 4.97.0
 _ZN9KComboBox17setAutoCompletionEb@Base 4.97.0
 _ZN9KComboBox17setCompletedItemsERK11QStringListb@Base 4.97.0
 _ZN9KComboBox18setUrlDropsEnabledEb@Base 4.97.0
 _ZN9KComboBox19substringCompletionERK7QString@Base 4.97.0
 _ZN9KComboBox21completionModeChangedEN11KCompletion14CompletionModeE@Base 4.97.0
 _ZN9KComboBox21setContextMenuEnabledEb@Base 4.97.0
 _ZN9KComboBox22aboutToShowContextMenuEP5QMenu@Base 4.97.0
 _ZN9KComboBox6addUrlERK4QUrl@Base 4.97.0
 _ZN9KComboBox6addUrlERK5QIconRK4QUrl@Base 4.97.0
 _ZN9KComboBox9changeUrlEiRK4QUrl@Base 4.97.0
 _ZN9KComboBox9changeUrlEiRK5QIconRK4QUrl@Base 4.97.0
 _ZN9KComboBox9insertUrlEiRK4QUrl@Base 4.97.0
 _ZN9KComboBox9insertUrlEiRK5QIconRK4QUrl@Base 4.97.0
 _ZN9KComboBoxC1EP7QWidget@Base 4.97.0
 _ZN9KComboBoxC1EbP7QWidget@Base 4.97.0
 _ZN9KComboBoxC2EP7QWidget@Base 4.97.0
 _ZN9KComboBoxC2EbP7QWidget@Base 4.97.0
 _ZN9KComboBoxD0Ev@Base 4.97.0
 _ZN9KComboBoxD1Ev@Base 4.97.0
 _ZN9KComboBoxD2Ev@Base 4.97.0
 _ZN9KLineEdit10completionERK7QString@Base 4.97.0
 _ZN9KLineEdit10paintEventEP11QPaintEvent@Base 4.97.0
 _ZN9KLineEdit10rotateTextEN15KCompletionBase14KeyBindingTypeE@Base 4.97.0
 _ZN9KLineEdit11qt_metacallEN11QMetaObject4CallEiPPv@Base 4.97.0
 _ZN9KLineEdit11qt_metacastEPKc@Base 4.97.0
 _ZN9KLineEdit11resizeEventEP12QResizeEvent@Base 4.97.0
 _ZN9KLineEdit11setReadOnlyEb@Base 4.97.0
 _ZN9KLineEdit12doCompletionERK7QString@Base 4.97.0
 _ZN9KLineEdit12textRotationEN15KCompletionBase14KeyBindingTypeE@Base 4.97.0
 _ZN9KLineEdit13completionBoxEb@Base 4.97.0
 _ZN9KLineEdit13keyPressEventEP9QKeyEvent@Base 4.97.0
 _ZN9KLineEdit13returnPressedERK7QString@Base 4.97.0
 _ZN9KLineEdit13userCancelledERK7QString@Base 4.97.0
 _ZN9KLineEdit14makeCompletionERK7QString@Base 4.97.0
 _ZN9KLineEdit15mousePressEventEP11QMouseEvent@Base 4.97.0
 _ZN9KLineEdit15setClickMessageERK7QString@Base 4.97.0
 _ZN9KLineEdit15setPasswordModeEb@Base 4.97.0
 _ZN9KLineEdit15setSqueezedTextERK7QString@Base 4.97.0
 _ZN9KLineEdit15userTextChangedERK7QString@Base 4.97.0
 _ZN9KLineEdit16contextMenuEventEP17QContextMenuEvent@Base 4.97.0
 _ZN9KLineEdit16setCompletedTextERK7QString@Base 4.97.0
 _ZN9KLineEdit16setCompletedTextERK7QStringb@Base 4.97.0
 _ZN9KLineEdit16setCompletionBoxEP14KCompletionBox@Base 4.97.0
 _ZN9KLineEdit16setTrapReturnKeyEb@Base 4.97.0
 _ZN9KLineEdit16setUserSelectionEb@Base 4.97.0
 _ZN9KLineEdit16staticMetaObjectE@Base 4.97.0
 _ZN9KLineEdit17mouseReleaseEventEP11QMouseEvent@Base 4.97.0
 _ZN9KLineEdit17setCompletedItemsERK11QStringListb@Base 4.97.0
 _ZN9KLineEdit17setCompletionModeEN11KCompletion14CompletionModeE@Base 4.97.0
 _ZN9KLineEdit18clearButtonClickedEv@Base 4.97.0
 _ZN9KLineEdit18setUrlDropsEnabledEb@Base 4.97.0
 _ZN9KLineEdit19setClearButtonShownEb@Base 4.97.0
 _ZN9KLineEdit19setCompletionObjectEP11KCompletionb@Base 4.97.0
 _ZN9KLineEdit19substringCompletionERK7QString@Base 4.97.0
 _ZN9KLineEdit21completionModeChangedEN11KCompletion14CompletionModeE@Base 4.97.0
 _ZN9KLineEdit21mouseDoubleClickEventEP11QMouseEvent@Base 4.97.0
 _ZN9KLineEdit21setContextMenuEnabledEb@Base 4.97.0
 _ZN9KLineEdit22aboutToShowContextMenuEP5QMenu@Base 4.97.0
 _ZN9KLineEdit22completionBoxActivatedERK7QString@Base 4.97.0
 _ZN9KLineEdit22setSqueezedTextEnabledEb@Base 4.97.0
 _ZN9KLineEdit25createStandardContextMenuEv@Base 4.97.0
 _ZN9KLineEdit25setCompletionModeDisabledEN11KCompletion14CompletionModeEb@Base 4.97.0
 _ZN9KLineEdit5eventEP6QEvent@Base 4.97.0
 _ZN9KLineEdit6setUrlERK4QUrl@Base 4.97.0
 _ZN9KLineEdit7setTextERK7QString@Base 4.97.0
 _ZN9KLineEditC1EP7QWidget@Base 4.97.0
 _ZN9KLineEditC1ERK7QStringP7QWidget@Base 4.97.0
 _ZN9KLineEditC2EP7QWidget@Base 4.97.0
 _ZN9KLineEditC2ERK7QStringP7QWidget@Base 4.97.0
 _ZN9KLineEditD0Ev@Base 4.97.0
 _ZN9KLineEditD1Ev@Base 4.97.0
 _ZN9KLineEditD2Ev@Base 4.97.0
 _ZNK11KCompletion10ignoreCaseEv@Base 4.97.0
 _ZNK11KCompletion10metaObjectEv@Base 4.97.0
 _ZNK11KCompletion13soundsEnabledEv@Base 4.97.0
 _ZNK11KCompletion14completionModeEv@Base 4.97.0
 _ZNK11KCompletion16postProcessMatchEP7QString@Base 4.97.0
 _ZNK11KCompletion18hasMultipleMatchesEv@Base 4.97.0
 _ZNK11KCompletion18postProcessMatchesEP11QStringList@Base 4.97.0
 _ZNK11KCompletion18postProcessMatchesEP18KCompletionMatches@Base 4.97.0
 _ZNK11KCompletion19substringCompletionERK7QString@Base 4.97.0
 _ZNK11KCompletion5itemsEv@Base 4.97.0
 _ZNK11KCompletion5orderEv@Base 4.97.0
 _ZNK11KCompletion7isEmptyEv@Base 4.97.0
 _ZNK11KCompletion9lastMatchEv@Base 4.97.0
 _ZNK14KCompletionBox10metaObjectEv@Base 4.97.0
 _ZNK14KCompletionBox13cancelledTextEv@Base 4.97.0
 _ZNK14KCompletionBox13isTabHandlingEv@Base 4.97.0
 _ZNK14KCompletionBox16activateOnSelectEv@Base 4.97.0
 _ZNK14KCompletionBox17calculateGeometryEv@Base 4.97.0
 _ZNK14KCompletionBox18globalPositionHintEv@Base 4.97.0
 _ZNK14KCompletionBox5itemsEv@Base 4.97.0
 _ZNK14KCompletionBox8sizeHintEv@Base 4.97.0
 _ZNK15KCompletionBase10keyBindingENS_14KeyBindingTypeE@Base 4.98.0
 _ZNK15KCompletionBase11emitSignalsEv@Base 4.97.0
 _ZNK15KCompletionBase13handleSignalsEv@Base 4.97.0
 _ZNK15KCompletionBase13keyBindingMapEv@Base 4.98.0
 _ZNK15KCompletionBase14completionModeEv@Base 4.97.0
 _ZNK15KCompletionBase29isCompletionObjectAutoDeletedEv@Base 4.97.0
 _ZNK15KCompletionBase7compObjEv@Base 4.97.0
 _ZNK15KCompletionBase8delegateEv@Base 4.97.0
 _ZNK16KHistoryComboBox10metaObjectEv@Base 4.97.0
 _ZNK16KHistoryComboBox12historyItemsEv@Base 4.97.0
 _ZNK16KHistoryComboBox13useCompletionEv@Base 4.97.0
 _ZNK16KHistoryComboBox14pixmapProviderEv@Base 4.97.0
 _ZNK17KCompTreeNodeList2atEj@Base 4.97.0
 _ZNK18KCompletionMatches4listEb@Base 4.97.0
 _ZNK18KCompletionMatches7sortingEv@Base 4.97.0
 _ZNK25KCompletionMatchesWrapper4listEv@Base 4.97.0
 _ZNK9KComboBox10metaObjectEv@Base 4.97.0
 _ZNK9KComboBox13trapReturnKeyEv@Base 4.97.0
 _ZNK9KComboBox14autoCompletionEv@Base 4.97.0
 _ZNK9KComboBox14cursorPositionEv@Base 4.97.0
 _ZNK9KComboBox15minimumSizeHintEv@Base 4.97.0
 _ZNK9KComboBox15urlDropsEnabledEv@Base 4.97.0
 _ZNK9KComboBox8containsERK7QString@Base 4.97.0
 _ZNK9KLineEdit10metaObjectEv@Base 4.97.0
 _ZNK9KLineEdit11autoSuggestEv@Base 4.97.0
 _ZNK9KLineEdit12clickMessageEv@Base 4.97.0
 _ZNK9KLineEdit12originalTextEv@Base 4.97.0
 _ZNK9KLineEdit12passwordModeEv@Base 4.97.0
 _ZNK9KLineEdit13trapReturnKeyEv@Base 4.97.0
 _ZNK9KLineEdit15urlDropsEnabledEv@Base 4.97.0
 _ZNK9KLineEdit18isClearButtonShownEv@Base 4.97.0
 _ZNK9KLineEdit19clearButtonUsedSizeEv@Base 4.97.0
 _ZNK9KLineEdit20isContextMenuEnabledEv@Base 4.97.0
 _ZNK9KLineEdit21isSqueezedTextEnabledEv@Base 4.97.0
 _ZNK9KLineEdit4copyEv@Base 4.97.0
 _ZNK9KLineEdit8userTextEv@Base 4.97.0
 _ZTI11KCompletion@Base 4.97.0
 _ZTI14KCompletionBox@Base 4.97.0
 _ZTI15KCompletionBase@Base 4.97.0
 _ZTI15KPixmapProvider@Base 4.97.0
 _ZTI16KHistoryComboBox@Base 4.97.0
 _ZTI9KComboBox@Base 4.97.0
 _ZTI9KLineEdit@Base 4.97.0
 _ZTS11KCompletion@Base 4.97.0
 _ZTS14KCompletionBox@Base 4.97.0
 _ZTS15KCompletionBase@Base 4.97.0
 _ZTS15KPixmapProvider@Base 4.97.0
 _ZTS16KHistoryComboBox@Base 4.97.0
 _ZTS9KComboBox@Base 4.97.0
 _ZTS9KLineEdit@Base 4.97.0
 _ZTV11KCompletion@Base 4.97.0
 _ZTV14KCompletionBox@Base 4.97.0
 _ZTV15KCompletionBase@Base 4.97.0
 _ZTV15KPixmapProvider@Base 4.97.0
 _ZTV16KHistoryComboBox@Base 4.97.0
 _ZTV9KComboBox@Base 4.97.0
 _ZTV9KLineEdit@Base 4.97.0
 _ZThn16_N14KCompletionBoxD0Ev@Base 4.97.0
 _ZThn16_N14KCompletionBoxD1Ev@Base 4.97.0
 _ZThn16_N16KHistoryComboBoxD0Ev@Base 4.97.0
 _ZThn16_N16KHistoryComboBoxD1Ev@Base 4.97.0
 _ZThn16_N9KComboBoxD0Ev@Base 4.97.0
 _ZThn16_N9KComboBoxD1Ev@Base 4.97.0
 _ZThn16_N9KLineEditD0Ev@Base 4.97.0
 _ZThn16_N9KLineEditD1Ev@Base 4.97.0
 _ZThn48_N16KHistoryComboBoxD0Ev@Base 4.97.0
 _ZThn48_N16KHistoryComboBoxD1Ev@Base 4.97.0
 _ZThn48_N9KComboBox16setCompletedTextERK7QString@Base 4.97.0
 _ZThn48_N9KComboBox17setCompletedItemsERK11QStringListb@Base 4.97.0
 _ZThn48_N9KComboBoxD0Ev@Base 4.97.0
 _ZThn48_N9KComboBoxD1Ev@Base 4.97.0
 _ZThn48_N9KLineEdit16setCompletedTextERK7QString@Base 4.97.0
 _ZThn48_N9KLineEdit17setCompletedItemsERK11QStringListb@Base 4.97.0
 _ZThn48_N9KLineEdit17setCompletionModeEN11KCompletion14CompletionModeE@Base 4.97.0
 _ZThn48_N9KLineEdit19setCompletionObjectEP11KCompletionb@Base 4.97.0
 _ZThn48_N9KLineEditD0Ev@Base 4.97.0
 _ZThn48_N9KLineEditD1Ev@Base 4.97.0
