libKF5JobWidgets.so.5 libkf5jobwidgets5 #MINVER#
 _ZN11KJobWidgets13userTimestampEP4KJob@Base 4.96.0
 _ZN11KJobWidgets19updateUserTimestampEP4KJobm@Base 4.96.0
 _ZN11KJobWidgets6windowEP4KJob@Base 4.96.0
 _ZN11KJobWidgets9setWindowEP4KJobP7QWidget@Base 4.96.0
 _ZN17KWidgetJobTracker11descriptionEP4KJobRK7QStringRK5QPairIS2_S2_ES8_@Base 4.96.0
 _ZN17KWidgetJobTracker11infoMessageEP4KJobRK7QStringS4_@Base 4.96.0
 _ZN17KWidgetJobTracker11qt_metacallEN11QMetaObject4CallEiPPv@Base 4.96.0
 _ZN17KWidgetJobTracker11qt_metacastEPKc@Base 4.96.0
 _ZN17KWidgetJobTracker11registerJobEP4KJob@Base 4.96.0
 _ZN17KWidgetJobTracker11totalAmountEP4KJobNS0_4UnitEy@Base 4.96.0
 _ZN17KWidgetJobTracker13unregisterJobEP4KJob@Base 4.96.0
 _ZN17KWidgetJobTracker15processedAmountEP4KJobNS0_4UnitEy@Base 4.96.0
 _ZN17KWidgetJobTracker16staticMetaObjectE@Base 4.96.0
 _ZN17KWidgetJobTracker5speedEP4KJobm@Base 4.96.0
 _ZN17KWidgetJobTracker6widgetEP4KJob@Base 4.96.0
 _ZN17KWidgetJobTracker7Private13setAutoDeleteEP4KJobb@Base 4.96.0
 _ZN17KWidgetJobTracker7Private14ProgressWidget10closeEventEP11QCloseEvent@Base 4.96.0
 _ZN17KWidgetJobTracker7Private14ProgressWidget10showTotalsEv@Base 4.96.0
 _ZN17KWidgetJobTracker7Private14ProgressWidget11_k_openFileEv@Base 4.96.0
 _ZN17KWidgetJobTracker7Private14ProgressWidget11descriptionERK7QStringRK5QPairIS2_S2_ES8_@Base 4.96.0
 _ZN17KWidgetJobTracker7Private14ProgressWidget11eventFilterEP7QObjectP6QEvent@Base 4.96.0
 _ZN17KWidgetJobTracker7Private14ProgressWidget11infoMessageERK7QStringS4_@Base 4.96.0
 _ZN17KWidgetJobTracker7Private14ProgressWidget11qt_metacallEN11QMetaObject4CallEiPPv@Base 4.96.0
 _ZN17KWidgetJobTracker7Private14ProgressWidget11qt_metacastEPKc@Base 4.96.0
 _ZN17KWidgetJobTracker7Private14ProgressWidget11totalAmountEN4KJob4UnitEy@Base 4.96.0
 _ZN17KWidgetJobTracker7Private14ProgressWidget14setDestVisibleEb@Base 4.96.0
 _ZN17KWidgetJobTracker7Private14ProgressWidget15_k_arrowToggledEv@Base 4.96.0
 _ZN17KWidgetJobTracker7Private14ProgressWidget15_k_openLocationEv@Base 4.96.0
 _ZN17KWidgetJobTracker7Private14ProgressWidget15processedAmountEN4KJob4UnitEy@Base 4.96.0
 _ZN17KWidgetJobTracker7Private14ProgressWidget16checkDestinationERK4QUrl@Base 4.96.0
 _ZN17KWidgetJobTracker7Private14ProgressWidget16staticMetaObjectE@Base 4.96.0
 _ZN17KWidgetJobTracker7Private14ProgressWidget18_k_keepOpenToggledEb@Base 4.96.0
 _ZN17KWidgetJobTracker7Private14ProgressWidget21_k_pauseResumeClickedEv@Base 4.96.0
 _ZN17KWidgetJobTracker7Private14ProgressWidget3refEv@Base 4.96.0
 _ZN17KWidgetJobTracker7Private14ProgressWidget4initEv@Base 4.96.0
 _ZN17KWidgetJobTracker7Private14ProgressWidget5derefEv@Base 4.96.0
 _ZN17KWidgetJobTracker7Private14ProgressWidget5speedEm@Base 4.96.0
 _ZN17KWidgetJobTracker7Private14ProgressWidget7_k_stopEv@Base 4.96.0
 _ZN17KWidgetJobTracker7Private14ProgressWidget7percentEm@Base 4.96.0
 _ZN17KWidgetJobTracker7Private14ProgressWidget7resumedEv@Base 4.96.0
 _ZN17KWidgetJobTracker7Private14ProgressWidget8closeNowEv@Base 4.96.0
 _ZN17KWidgetJobTracker7Private14ProgressWidget9slotCleanEv@Base 4.96.0
 _ZN17KWidgetJobTracker7Private14ProgressWidget9suspendedEv@Base 4.96.0
 _ZN17KWidgetJobTracker7Private14setStopOnCloseEP4KJobb@Base 4.96.0
 _ZN17KWidgetJobTracker7Private21_k_showProgressWidgetEv@Base 4.96.0
 _ZN17KWidgetJobTracker7percentEP4KJobm@Base 4.96.0
 _ZN17KWidgetJobTracker7resumedEP4KJob@Base 4.96.0
 _ZN17KWidgetJobTracker9slotCleanEP4KJob@Base 4.96.0
 _ZN17KWidgetJobTracker9suspendedEP4KJob@Base 4.96.0
 _ZN17KWidgetJobTrackerC1EP7QWidget@Base 4.96.0
 _ZN17KWidgetJobTrackerC2EP7QWidget@Base 4.96.0
 _ZN17KWidgetJobTrackerD0Ev@Base 4.96.0
 _ZN17KWidgetJobTrackerD1Ev@Base 4.96.0
 _ZN17KWidgetJobTrackerD2Ev@Base 4.96.0
 _ZN19KUiServerJobTracker11descriptionEP4KJobRK7QStringRK5QPairIS2_S2_ES8_@Base 4.96.0
 _ZN19KUiServerJobTracker11infoMessageEP4KJobRK7QStringS4_@Base 4.96.0
 _ZN19KUiServerJobTracker11qt_metacallEN11QMetaObject4CallEiPPv@Base 4.96.0
 _ZN19KUiServerJobTracker11qt_metacastEPKc@Base 4.96.0
 _ZN19KUiServerJobTracker11registerJobEP4KJob@Base 4.96.0
 _ZN19KUiServerJobTracker11totalAmountEP4KJobNS0_4UnitEy@Base 4.96.0
 _ZN19KUiServerJobTracker13unregisterJobEP4KJob@Base 4.96.0
 _ZN19KUiServerJobTracker15processedAmountEP4KJobNS0_4UnitEy@Base 4.96.0
 _ZN19KUiServerJobTracker16staticMetaObjectE@Base 4.96.0
 _ZN19KUiServerJobTracker5speedEP4KJobm@Base 4.96.0
 _ZN19KUiServerJobTracker7Private10_k_killJobEv@Base 4.96.0
 _ZN19KUiServerJobTracker7percentEP4KJobm@Base 4.96.0
 _ZN19KUiServerJobTracker7resumedEP4KJob@Base 4.96.0
 _ZN19KUiServerJobTracker8finishedEP4KJob@Base 4.96.0
 _ZN19KUiServerJobTracker9suspendedEP4KJob@Base 4.96.0
 _ZN19KUiServerJobTrackerC1EP7QObject@Base 4.96.0
 _ZN19KUiServerJobTrackerC2EP7QObject@Base 4.96.0
 _ZN19KUiServerJobTrackerD0Ev@Base 4.96.0
 _ZN19KUiServerJobTrackerD1Ev@Base 4.96.0
 _ZN19KUiServerJobTrackerD2Ev@Base 4.96.0
 _ZN20KDialogJobUiDelegate11qt_metacallEN11QMetaObject4CallEiPPv@Base 4.96.0
 _ZN20KDialogJobUiDelegate11qt_metacastEPKc@Base 4.96.0
 _ZN20KDialogJobUiDelegate11slotWarningEP4KJobRK7QStringS4_@Base 4.96.0
 _ZN20KDialogJobUiDelegate16showErrorMessageEv@Base 4.96.0
 _ZN20KDialogJobUiDelegate16staticMetaObjectE@Base 4.96.0
 _ZN20KDialogJobUiDelegate19updateUserTimestampEm@Base 4.96.0
 _ZN20KDialogJobUiDelegate6setJobEP4KJob@Base 4.96.0
 _ZN20KDialogJobUiDelegate7Private11qt_metacallEN11QMetaObject4CallEiPPv@Base 4.96.0
 _ZN20KDialogJobUiDelegate7Private11qt_metacastEPKc@Base 4.96.0
 _ZN20KDialogJobUiDelegate7Private16queuedMessageBoxEP7QWidgetN11KMessageBox10DialogTypeERK7QString@Base 4.96.0
 _ZN20KDialogJobUiDelegate7Private16staticMetaObjectE@Base 4.96.0
 _ZN20KDialogJobUiDelegate7Private4nextEv@Base 4.96.0
 _ZN20KDialogJobUiDelegate7PrivateC1EP7QObject@Base 4.96.0
 _ZN20KDialogJobUiDelegate7PrivateC2EP7QObject@Base 4.96.0
 _ZN20KDialogJobUiDelegate7PrivateD0Ev@Base 4.96.0
 _ZN20KDialogJobUiDelegate7PrivateD1Ev@Base 4.96.0
 _ZN20KDialogJobUiDelegate7PrivateD2Ev@Base 4.96.0
 _ZN20KDialogJobUiDelegate9setWindowEP7QWidget@Base 4.96.0
 _ZN20KDialogJobUiDelegateC1Ev@Base 4.96.0
 _ZN20KDialogJobUiDelegateC2Ev@Base 4.96.0
 _ZN20KDialogJobUiDelegateD0Ev@Base 4.96.0
 _ZN20KDialogJobUiDelegateD1Ev@Base 4.96.0
 _ZN20KDialogJobUiDelegateD2Ev@Base 4.96.0
 _ZN20KStatusBarJobTracker11descriptionEP4KJobRK7QStringRK5QPairIS2_S2_ES8_@Base 4.96.0
 _ZN20KStatusBarJobTracker11qt_metacallEN11QMetaObject4CallEiPPv@Base 4.96.0
 _ZN20KStatusBarJobTracker11qt_metacastEPKc@Base 4.96.0
 _ZN20KStatusBarJobTracker11registerJobEP4KJob@Base 4.96.0
 _ZN20KStatusBarJobTracker11totalAmountEP4KJobNS0_4UnitEy@Base 4.96.0
 _ZN20KStatusBarJobTracker13unregisterJobEP4KJob@Base 4.96.0
 _ZN20KStatusBarJobTracker16setStatusBarModeE6QFlagsINS_13StatusBarModeEE@Base 4.96.0
 _ZN20KStatusBarJobTracker16staticMetaObjectE@Base 4.96.0
 _ZN20KStatusBarJobTracker5speedEP4KJobm@Base 4.96.0
 _ZN20KStatusBarJobTracker6widgetEP4KJob@Base 4.96.0
 _ZN20KStatusBarJobTracker7Private14ProgressWidget11descriptionERK7QStringRK5QPairIS2_S2_ES8_@Base 4.96.0
 _ZN20KStatusBarJobTracker7Private14ProgressWidget11eventFilterEP7QObjectP6QEvent@Base 4.96.0
 _ZN20KStatusBarJobTracker7Private14ProgressWidget11qt_metacallEN11QMetaObject4CallEiPPv@Base 4.96.0
 _ZN20KStatusBarJobTracker7Private14ProgressWidget11qt_metacastEPKc@Base 4.96.0
 _ZN20KStatusBarJobTracker7Private14ProgressWidget11totalAmountEN4KJob4UnitEy@Base 4.96.0
 _ZN20KStatusBarJobTracker7Private14ProgressWidget16staticMetaObjectE@Base 4.96.0
 _ZN20KStatusBarJobTracker7Private14ProgressWidget4initEP4KJobP7QWidget@Base 4.96.0
 _ZN20KStatusBarJobTracker7Private14ProgressWidget5speedEm@Base 4.96.0
 _ZN20KStatusBarJobTracker7Private14ProgressWidget7killJobEv@Base 4.96.0
 _ZN20KStatusBarJobTracker7Private14ProgressWidget7percentEm@Base 4.96.0
 _ZN20KStatusBarJobTracker7Private14ProgressWidget7setModeE6QFlagsINS_13StatusBarModeEE@Base 4.96.0
 _ZN20KStatusBarJobTracker7Private14ProgressWidget9slotCleanEv@Base 4.96.0
 _ZN20KStatusBarJobTracker7percentEP4KJobm@Base 4.96.0
 _ZN20KStatusBarJobTracker9slotCleanEP4KJob@Base 4.96.0
 _ZN20KStatusBarJobTrackerC1EP7QWidgetb@Base 4.96.0
 _ZN20KStatusBarJobTrackerC2EP7QWidgetb@Base 4.96.0
 _ZN20KStatusBarJobTrackerD0Ev@Base 4.96.0
 _ZN20KStatusBarJobTrackerD1Ev@Base 4.96.0
 _ZN20KStatusBarJobTrackerD2Ev@Base 4.96.0
 _ZN25KAbstractWidgetJobTracker10slotResumeEP4KJob@Base 4.96.0
 _ZN25KAbstractWidgetJobTracker11qt_metacallEN11QMetaObject4CallEiPPv@Base 4.96.0
 _ZN25KAbstractWidgetJobTracker11qt_metacastEPKc@Base 4.96.0
 _ZN25KAbstractWidgetJobTracker11registerJobEP4KJob@Base 4.96.0
 _ZN25KAbstractWidgetJobTracker11slotSuspendEP4KJob@Base 4.96.0
 _ZN25KAbstractWidgetJobTracker13setAutoDeleteEP4KJobb@Base 4.96.0
 _ZN25KAbstractWidgetJobTracker13unregisterJobEP4KJob@Base 4.96.0
 _ZN25KAbstractWidgetJobTracker14setStopOnCloseEP4KJobb@Base 4.96.0
 _ZN25KAbstractWidgetJobTracker16staticMetaObjectE@Base 4.96.0
 _ZN25KAbstractWidgetJobTracker6resumeEP4KJob@Base 4.96.0
 _ZN25KAbstractWidgetJobTracker7stoppedEP4KJob@Base 4.96.0
 _ZN25KAbstractWidgetJobTracker7suspendEP4KJob@Base 4.96.0
 _ZN25KAbstractWidgetJobTracker8finishedEP4KJob@Base 4.96.0
 _ZN25KAbstractWidgetJobTracker8slotStopEP4KJob@Base 4.96.0
 _ZN25KAbstractWidgetJobTracker9slotCleanEP4KJob@Base 4.96.0
 _ZN25KAbstractWidgetJobTrackerC1EP7QWidget@Base 4.96.0
 _ZN25KAbstractWidgetJobTrackerC2EP7QWidget@Base 4.96.0
 _ZN25KAbstractWidgetJobTrackerD0Ev@Base 4.96.0
 _ZN25KAbstractWidgetJobTrackerD1Ev@Base 4.96.0
 _ZN25KAbstractWidgetJobTrackerD2Ev@Base 4.96.0
 _ZNK17KWidgetJobTracker10metaObjectEv@Base 4.96.0
 _ZNK17KWidgetJobTracker7Private10autoDeleteEP4KJob@Base 4.96.0
 _ZNK17KWidgetJobTracker7Private11stopOnCloseEP4KJob@Base 4.96.0
 _ZNK17KWidgetJobTracker7Private14ProgressWidget10metaObjectEv@Base 4.96.0
 _ZNK17KWidgetJobTracker8keepOpenEP4KJob@Base 4.96.0
 _ZNK19KUiServerJobTracker10metaObjectEv@Base 4.96.0
 _ZNK20KDialogJobUiDelegate10metaObjectEv@Base 4.96.0
 _ZNK20KDialogJobUiDelegate13userTimestampEv@Base 4.96.0
 _ZNK20KDialogJobUiDelegate6windowEv@Base 4.96.0
 _ZNK20KDialogJobUiDelegate7Private10metaObjectEv@Base 4.96.0
 _ZNK20KStatusBarJobTracker10metaObjectEv@Base 4.96.0
 _ZNK20KStatusBarJobTracker7Private14ProgressWidget10metaObjectEv@Base 4.96.0
 _ZNK25KAbstractWidgetJobTracker10autoDeleteEP4KJob@Base 4.96.0
 _ZNK25KAbstractWidgetJobTracker10metaObjectEv@Base 4.96.0
 _ZNK25KAbstractWidgetJobTracker11stopOnCloseEP4KJob@Base 4.96.0
 _ZTI17KWidgetJobTracker@Base 4.96.0
 _ZTI19KUiServerJobTracker@Base 4.96.0
 _ZTI20KDialogJobUiDelegate@Base 4.96.0
 _ZTI20KStatusBarJobTracker@Base 4.96.0
 _ZTI25KAbstractWidgetJobTracker@Base 4.96.0
 _ZTIN17KWidgetJobTracker7Private14ProgressWidgetE@Base 4.96.0
 _ZTIN17KWidgetJobTracker7PrivateE@Base 4.96.0
 _ZTIN20KDialogJobUiDelegate7PrivateE@Base 4.96.0
 _ZTIN20KStatusBarJobTracker7Private14ProgressWidgetE@Base 4.96.0
 _ZTIN25KAbstractWidgetJobTracker7PrivateE@Base 4.96.0
 _ZTS17KWidgetJobTracker@Base 4.96.0
 _ZTS19KUiServerJobTracker@Base 4.96.0
 _ZTS20KDialogJobUiDelegate@Base 4.96.0
 _ZTS20KStatusBarJobTracker@Base 4.96.0
 _ZTS25KAbstractWidgetJobTracker@Base 4.96.0
 _ZTSN17KWidgetJobTracker7Private14ProgressWidgetE@Base 4.96.0
 _ZTSN17KWidgetJobTracker7PrivateE@Base 4.96.0
 _ZTSN20KDialogJobUiDelegate7PrivateE@Base 4.96.0
 _ZTSN20KStatusBarJobTracker7Private14ProgressWidgetE@Base 4.96.0
 _ZTSN25KAbstractWidgetJobTracker7PrivateE@Base 4.96.0
 _ZTV17KWidgetJobTracker@Base 4.96.0
 _ZTV19KUiServerJobTracker@Base 4.96.0
 _ZTV20KDialogJobUiDelegate@Base 4.96.0
 _ZTV20KStatusBarJobTracker@Base 4.96.0
 _ZTV25KAbstractWidgetJobTracker@Base 4.96.0
 _ZTVN17KWidgetJobTracker7Private14ProgressWidgetE@Base 4.96.0
 _ZTVN17KWidgetJobTracker7PrivateE@Base 4.96.0
 _ZTVN20KDialogJobUiDelegate7PrivateE@Base 4.96.0
 _ZTVN20KStatusBarJobTracker7Private14ProgressWidgetE@Base 4.96.0
 _ZTVN25KAbstractWidgetJobTracker7PrivateE@Base 4.96.0
