libkolab.so.1 libkolab1 #MINVER#
 _ZGVZN5Kolab12ErrorHandler8instanceEvE4inst@Base 1.0.0
 _ZN5Kolab10Conversion10toKCalCoreERKNS_4TodoE@Base 1.0.0
 _ZN5Kolab10Conversion10toKCalCoreERKNS_5EventE@Base 1.0.0
 _ZN5Kolab10Conversion10toKCalCoreERKNS_7JournalE@Base 1.0.0
 _ZN5Kolab10Conversion12fromKCalCoreERKN8KCalCore4TodoE@Base 1.0.0
 _ZN5Kolab10Conversion12fromKCalCoreERKN8KCalCore5EventE@Base 1.0.0
 _ZN5Kolab10Conversion12fromKCalCoreERKN8KCalCore7JournalE@Base 1.0.0
 _ZN5Kolab10Conversion6toDateERKNS_9cDateTimeE@Base 1.0.0
 _ZN5Kolab10Conversion6toKABCERKNS_7ContactE@Base 1.0.0
 _ZN5Kolab10Conversion6toKABCERKNS_8DistListE@Base 1.0.0
 _ZN5Kolab10Conversion6toNoteERKNS_4NoteE@Base 1.0.0
 _ZN5Kolab10Conversion8fromDateERK9KDateTime@Base 1.0.0
 _ZN5Kolab10Conversion8fromKABCERKN9KContacts12ContactGroupE@Base 1.0.0
 _ZN5Kolab10Conversion8fromKABCERKN9KContacts9AddresseeE@Base 1.0.0
 _ZN5Kolab10Conversion8fromNoteERK14QSharedPointerIN5KMime7MessageEE@Base 1.0.2
 _ZN5Kolab10MIMEObject10setVersionENS_7VersionE@Base 1.0.0
 _ZN5Kolab10MIMEObject10writeEventERKNS_5EventENS_7VersionERKNSt7__cxx1112basic_stringIcSt11char_traitsIcESaIcEEE@Base 1.0.0
 _ZN5Kolab10MIMEObject11readContactERKNSt7__cxx1112basic_stringIcSt11char_traitsIcESaIcEEE@Base 1.0.0
 _ZN5Kolab10MIMEObject11readJournalERKNSt7__cxx1112basic_stringIcSt11char_traitsIcESaIcEEE@Base 1.0.0
 _ZN5Kolab10MIMEObject12parseMessageERKNSt7__cxx1112basic_stringIcSt11char_traitsIcESaIcEEE@Base 1.0.0
 _ZN5Kolab10MIMEObject12readDistlistERKNSt7__cxx1112basic_stringIcSt11char_traitsIcESaIcEEE@Base 1.0.0
 _ZN5Kolab10MIMEObject12readFreebusyERKNSt7__cxx1112basic_stringIcSt11char_traitsIcESaIcEEE@Base 1.0.0
 _ZN5Kolab10MIMEObject12writeContactERKNS_7ContactENS_7VersionERKNSt7__cxx1112basic_stringIcSt11char_traitsIcESaIcEEE@Base 1.0.0
 _ZN5Kolab10MIMEObject12writeJournalERKNS_7JournalENS_7VersionERKNSt7__cxx1112basic_stringIcSt11char_traitsIcESaIcEEE@Base 1.0.0
 _ZN5Kolab10MIMEObject13setObjectTypeENS_10ObjectTypeE@Base 1.0.0
 _ZN5Kolab10MIMEObject13writeDistlistERKNS_8DistListENS_7VersionERKNSt7__cxx1112basic_stringIcSt11char_traitsIcESaIcEEE@Base 1.0.0
 _ZN5Kolab10MIMEObject13writeFreebusyERKNS_8FreebusyENS_7VersionERKNSt7__cxx1112basic_stringIcSt11char_traitsIcESaIcEEE@Base 1.0.0
 _ZN5Kolab10MIMEObject17readConfigurationERKNSt7__cxx1112basic_stringIcSt11char_traitsIcESaIcEEE@Base 1.0.0
 _ZN5Kolab10MIMEObject18writeConfigurationERKNS_13ConfigurationENS_7VersionERKNSt7__cxx1112basic_stringIcSt11char_traitsIcESaIcEEE@Base 1.0.0
 _ZN5Kolab10MIMEObject7Private11readKolabV2ERK14QSharedPointerIN5KMime7MessageEENS_10ObjectTypeE@Base 1.0.2
 _ZN5Kolab10MIMEObject7Private11readKolabV3ERK14QSharedPointerIN5KMime7MessageEENS_10ObjectTypeE@Base 1.0.2
 _ZN5Kolab10MIMEObject7Private16parseMimeMessageERK14QSharedPointerIN5KMime7MessageEE@Base 1.0.2
 _ZN5Kolab10MIMEObject7Private16parseMimeMessageERKNSt7__cxx1112basic_stringIcSt11char_traitsIcESaIcEEE@Base 1.0.0
 _ZN5Kolab10MIMEObject8readNoteERKNSt7__cxx1112basic_stringIcSt11char_traitsIcESaIcEEE@Base 1.0.0
 _ZN5Kolab10MIMEObject8readTodoERKNSt7__cxx1112basic_stringIcSt11char_traitsIcESaIcEEE@Base 1.0.0
 _ZN5Kolab10MIMEObject9readEventERKNSt7__cxx1112basic_stringIcSt11char_traitsIcESaIcEEE@Base 1.0.0
 _ZN5Kolab10MIMEObject9writeNoteERKNS_4NoteENS_7VersionERKNSt7__cxx1112basic_stringIcSt11char_traitsIcESaIcEEE@Base 1.0.0
 _ZN5Kolab10MIMEObject9writeTodoERKNS_4TodoENS_7VersionERKNSt7__cxx1112basic_stringIcSt11char_traitsIcESaIcEEE@Base 1.0.0
 _ZN5Kolab10MIMEObjectC1Ev@Base 1.0.0
 _ZN5Kolab10MIMEObjectC2Ev@Base 1.0.0
 _ZN5Kolab11Calendaring14timeInIntervalERKNS_5EventERKNS_9cDateTimeES6_@Base 1.0.0
 _ZN5Kolab11Calendaring18getConflictingSetsERKSt6vectorINS_5EventESaIS2_EES6_@Base 1.0.0
 _ZN5Kolab11Calendaring5Event11getAttendeeERKNS_16ContactReferenceE@Base 1.0.0
 _ZN5Kolab11Calendaring5Event11getAttendeeERKNSt7__cxx1112basic_stringIcSt11char_traitsIcESaIcEEE@Base 1.0.0
 _ZN5Kolab11Calendaring5Event16getNextOccurenceERKNS_9cDateTimeE@Base 1.0.0
 _ZN5Kolab11Calendaring5Event19getOccurenceEndDateERKNS_9cDateTimeE@Base 1.0.0
 _ZN5Kolab11Calendaring5Event4readERKNSt7__cxx1112basic_stringIcSt11char_traitsIcESaIcEEE@Base 1.0.0
 _ZN5Kolab11Calendaring5Event8delegateERKSt6vectorINS_8AttendeeESaIS3_EES7_@Base 1.0.0
 _ZN5Kolab11Calendaring5Event8fromICalERKNSt7__cxx1112basic_stringIcSt11char_traitsIcESaIcEEE@Base 1.0.0
 _ZN5Kolab11Calendaring5Event8fromIMipERKNSt7__cxx1112basic_stringIcSt11char_traitsIcESaIcEEE@Base 1.0.0
 _ZN5Kolab11Calendaring5Event8fromMimeERKNSt7__cxx1112basic_stringIcSt11char_traitsIcESaIcEEE@Base 1.0.0
 _ZN5Kolab11Calendaring5EventC1ERKNS_5EventE@Base 1.0.0
 _ZN5Kolab11Calendaring5EventC1Ev@Base 1.0.0
 _ZN5Kolab11Calendaring5EventC2ERKNS_5EventE@Base 1.0.0
 _ZN5Kolab11Calendaring5EventC2Ev@Base 1.0.0
 _ZN5Kolab11Calendaring5EventD1Ev@Base 1.0.0
 _ZN5Kolab11Calendaring5EventD2Ev@Base 1.0.0
 _ZN5Kolab11Calendaring8Calendar8addEventERKNS_5EventE@Base 1.0.0
 _ZN5Kolab11Calendaring8Calendar9getEventsERKNS_9cDateTimeES4_b@Base 1.0.0
 _ZN5Kolab11Calendaring8CalendarC1Ev@Base 1.0.0
 _ZN5Kolab11Calendaring8CalendarC2Ev@Base 1.0.0
 _ZN5Kolab11Calendaring9conflictsERKNS_5EventES3_@Base 1.0.0
 _ZN5Kolab11ITipHandler8fromIMipERKNSt7__cxx1112basic_stringIcSt11char_traitsIcESaIcEEE@Base 1.0.0
 _ZN5Kolab11ITipHandler8fromITipERKNSt7__cxx1112basic_stringIcSt11char_traitsIcESaIcEEE@Base 1.0.0
 _ZN5Kolab11ITipHandlerC1Ev@Base 1.0.0
 _ZN5Kolab11ITipHandlerC2Ev@Base 1.0.0
 _ZN5Kolab12ErrorHandler11debugStreamENS0_8SeverityEiPKc@Base 1.0.0
 _ZN5Kolab12ErrorHandler23handleLibkolabxmlErrorsEv@Base 1.0.0
 _ZN5Kolab12ErrorHandler5clearEv@Base 1.0.0
 _ZN5Kolab12ErrorHandler8addErrorENS0_8SeverityERK7QStringS4_@Base 1.0.0
 _ZN5Kolab12ErrorHandlerC1Ev@Base 1.0.0
 _ZN5Kolab12ErrorHandlerC2Ev@Base 1.0.0
 _ZN5Kolab13DateTimeUtils16getLocalTimezoneB5cxx11Ev@Base 1.0.0
 _ZN5Kolab13FreebusyUtils16generateFreeBusyERK5QListI14QSharedPointerIN8KCalCore5EventEEERK9KDateTimeSB_RKS2_INS3_6PersonEE@Base 1.0.0
 _ZN5Kolab13FreebusyUtils17aggregateFreeBusyERKSt6vectorINS_8FreebusyESaIS2_EERKNSt7__cxx1112basic_stringIcSt11char_traitsIcESaIcEEESE_b@Base 1.0.0
 _ZN5Kolab13FreebusyUtils5toIFBB5cxx11ERKNS_8FreebusyE@Base 1.0.0
 _ZN5Kolab14fromICalEventsERKNSt7__cxx1112basic_stringIcSt11char_traitsIcESaIcEEE@Base 1.0.0
 _ZN5Kolab14parseMemberUrlERK7QString@Base 1.0.0
 _ZN5Kolab14readV2EventXMLERK10QByteArrayR11QStringList@Base 1.0.0
 _ZN5Kolab16folderAnnotationB5cxx11ENS_10FolderTypeEb@Base 1.0.0
 _ZN5Kolab17KolabObjectReader10setVersionENS_7VersionE@Base 1.0.0
 _ZN5Kolab17KolabObjectReader13setObjectTypeENS_10ObjectTypeE@Base 1.0.0
 _ZN5Kolab17KolabObjectReader16parseMimeMessageERK14QSharedPointerIN5KMime7MessageEE@Base 1.0.2
 _ZN5Kolab17KolabObjectReaderC1ERK14QSharedPointerIN5KMime7MessageEE@Base 1.0.2
 _ZN5Kolab17KolabObjectReaderC1Ev@Base 1.0.0
 _ZN5Kolab17KolabObjectReaderC2ERK14QSharedPointerIN5KMime7MessageEE@Base 1.0.2
 _ZN5Kolab17KolabObjectReaderC2Ev@Base 1.0.0
 _ZN5Kolab17KolabObjectReaderD1Ev@Base 1.0.0
 _ZN5Kolab17KolabObjectReaderD2Ev@Base 1.0.0
 _ZN5Kolab17KolabObjectWriter10writeEventERK14QSharedPointerIN8KCalCore5EventEENS_7VersionERK7QStringSA_@Base 1.0.0
 _ZN5Kolab17KolabObjectWriter12writeContactERKN9KContacts9AddresseeENS_7VersionERK7QString@Base 1.0.0
 _ZN5Kolab17KolabObjectWriter12writeJournalERK14QSharedPointerIN8KCalCore7JournalEENS_7VersionERK7QStringSA_@Base 1.0.0
 _ZN5Kolab17KolabObjectWriter13writeDistlistERKN9KContacts12ContactGroupENS_7VersionERK7QString@Base 1.0.0
 _ZN5Kolab17KolabObjectWriter13writeFreebusyERKNS_8FreebusyENS_7VersionERK7QString@Base 1.0.0
 _ZN5Kolab17KolabObjectWriter13writeRelationERKN7Akonadi8RelationERK11QStringListNS_7VersionERK7QString@Base 1.0.0
 _ZN5Kolab17KolabObjectWriter14writeIncidenceERK14QSharedPointerIN8KCalCore9IncidenceEENS_7VersionERK7QStringSA_@Base 1.0.0
 _ZN5Kolab17KolabObjectWriter15writeDictionaryERK11QStringListRK7QStringNS_7VersionES6_@Base 1.0.0
 _ZN5Kolab17KolabObjectWriter8writeTagERKN7Akonadi3TagERK11QStringListNS_7VersionERK7QString@Base 1.0.0
 _ZN5Kolab17KolabObjectWriter9writeNoteERK14QSharedPointerIN5KMime7MessageEENS_7VersionERK7QString@Base 1.0.2
 _ZN5Kolab17KolabObjectWriter9writeTodoERK14QSharedPointerIN8KCalCore4TodoEENS_7VersionERK7QStringSA_@Base 1.0.0
 _ZN5Kolab17generateMemberUrlERKNS_14RelationMemberE@Base 1.0.0
 _ZN5Kolab17nameForFolderTypeB5cxx11ENS_10FolderTypeE@Base 1.0.0
 _ZN5Kolab20folderTypeFromStringERKNSt7__cxx1112basic_stringIcSt11char_traitsIcESaIcEEE@Base 1.0.0
 _ZN5Kolab23guessFolderTypeFromNameERKNSt7__cxx1112basic_stringIcSt11char_traitsIcESaIcEEE@Base 1.0.0
 _ZN5Kolab6toICalB5cxx11ERKSt6vectorINS_5EventESaIS1_EE@Base 1.0.0
 _ZN5Kolab9XMLObject10writeEventERKNS_5EventENS_7VersionERKNSt7__cxx1112basic_stringIcSt11char_traitsIcESaIcEEE@Base 1.0.0
 _ZN5Kolab9XMLObject11readContactERKNSt7__cxx1112basic_stringIcSt11char_traitsIcESaIcEEENS_7VersionE@Base 1.0.0
 _ZN5Kolab9XMLObject11readJournalERKNSt7__cxx1112basic_stringIcSt11char_traitsIcESaIcEEENS_7VersionE@Base 1.0.0
 _ZN5Kolab9XMLObject12readDistlistERKNSt7__cxx1112basic_stringIcSt11char_traitsIcESaIcEEENS_7VersionE@Base 1.0.0
 _ZN5Kolab9XMLObject12readFreebusyERKNSt7__cxx1112basic_stringIcSt11char_traitsIcESaIcEEENS_7VersionE@Base 1.0.0
 _ZN5Kolab9XMLObject12writeContactERKNS_7ContactENS_7VersionERKNSt7__cxx1112basic_stringIcSt11char_traitsIcESaIcEEE@Base 1.0.0
 _ZN5Kolab9XMLObject12writeJournalERKNS_7JournalENS_7VersionERKNSt7__cxx1112basic_stringIcSt11char_traitsIcESaIcEEE@Base 1.0.0
 _ZN5Kolab9XMLObject13writeDistlistERKNS_8DistListENS_7VersionERKNSt7__cxx1112basic_stringIcSt11char_traitsIcESaIcEEE@Base 1.0.0
 _ZN5Kolab9XMLObject13writeFreebusyERKNS_8FreebusyENS_7VersionERKNSt7__cxx1112basic_stringIcSt11char_traitsIcESaIcEEE@Base 1.0.0
 _ZN5Kolab9XMLObject17readConfigurationERKNSt7__cxx1112basic_stringIcSt11char_traitsIcESaIcEEENS_7VersionE@Base 1.0.0
 _ZN5Kolab9XMLObject18writeConfigurationERKNS_13ConfigurationENS_7VersionERKNSt7__cxx1112basic_stringIcSt11char_traitsIcESaIcEEE@Base 1.0.0
 _ZN5Kolab9XMLObject8readFileERKNSt7__cxx1112basic_stringIcSt11char_traitsIcESaIcEEENS_7VersionE@Base 1.0.0
 _ZN5Kolab9XMLObject8readNoteERKNSt7__cxx1112basic_stringIcSt11char_traitsIcESaIcEEENS_7VersionE@Base 1.0.0
 _ZN5Kolab9XMLObject8readTodoERKNSt7__cxx1112basic_stringIcSt11char_traitsIcESaIcEEENS_7VersionE@Base 1.0.0
 _ZN5Kolab9XMLObject9readEventERKNSt7__cxx1112basic_stringIcSt11char_traitsIcESaIcEEENS_7VersionE@Base 1.0.0
 _ZN5Kolab9XMLObject9writeFileERKNS_4FileENS_7VersionERKNSt7__cxx1112basic_stringIcSt11char_traitsIcESaIcEEE@Base 1.0.0
 _ZN5Kolab9XMLObject9writeNoteERKNS_4NoteENS_7VersionERKNSt7__cxx1112basic_stringIcSt11char_traitsIcESaIcEEE@Base 1.0.0
 _ZN5Kolab9XMLObject9writeTodoERKNS_4TodoENS_7VersionERKNSt7__cxx1112basic_stringIcSt11char_traitsIcESaIcEEE@Base 1.0.0
 _ZN5Kolab9XMLObjectC1Ev@Base 1.0.0
 _ZN5Kolab9XMLObjectC2Ev@Base 1.0.0
 _ZNK5Kolab10MIMEObject10getContactEv@Base 1.0.0
 _ZNK5Kolab10MIMEObject10getJournalEv@Base 1.0.0
 _ZNK5Kolab10MIMEObject10getVersionEv@Base 1.0.0
 _ZNK5Kolab10MIMEObject11getDistlistEv@Base 1.0.0
 _ZNK5Kolab10MIMEObject11getFreebusyEv@Base 1.0.0
 _ZNK5Kolab10MIMEObject16getConfigurationEv@Base 1.0.0
 _ZNK5Kolab10MIMEObject7getNoteEv@Base 1.0.0
 _ZNK5Kolab10MIMEObject7getTodoEv@Base 1.0.0
 _ZNK5Kolab10MIMEObject7getTypeEv@Base 1.0.0
 _ZNK5Kolab10MIMEObject8getEventEv@Base 1.0.0
 _ZNK5Kolab11Calendaring5Event17getLastOccurrenceEv@Base 1.0.0
 _ZNK5Kolab11Calendaring5Event19getSchedulingMethodEv@Base 1.0.0
 _ZNK5Kolab11Calendaring5Event5writeB5cxx11Ev@Base 1.0.0
 _ZNK5Kolab11Calendaring5Event6toICalB5cxx11Ev@Base 1.0.0
 _ZNK5Kolab11Calendaring5Event6toIMipB5cxx11ENS1_10ITipMethodE@Base 1.0.0
 _ZNK5Kolab11Calendaring5Event6toMimeB5cxx11Ev@Base 1.0.0
 _ZNK5Kolab11ITipHandler6methodEv@Base 1.0.0
 _ZNK5Kolab11ITipHandler6toIMipERKNS_5EventENS0_10ITipMethodENSt7__cxx1112basic_stringIcSt11char_traitsIcESaIcEEEb@Base 1.0.0
 _ZNK5Kolab11ITipHandler6toITipB5cxx11ERKNS_5EventENS0_10ITipMethodE@Base 1.0.0
 _ZNK5Kolab12ErrorHandler12errorMessageEv@Base 1.0.0
 _ZNK5Kolab12ErrorHandler5errorEv@Base 1.0.0
 _ZNK5Kolab12ErrorHandler9getErrorsEv@Base 1.0.0
 _ZNK5Kolab17KolabObjectReader10getContactEv@Base 1.0.0
 _ZNK5Kolab17KolabObjectReader10getJournalEv@Base 1.0.0
 _ZNK5Kolab17KolabObjectReader10getVersionEv@Base 1.0.0
 _ZNK5Kolab17KolabObjectReader10isRelationEv@Base 1.0.0
 _ZNK5Kolab17KolabObjectReader11getDistlistEv@Base 1.0.0
 _ZNK5Kolab17KolabObjectReader11getFreebusyEv@Base 1.0.0
 _ZNK5Kolab17KolabObjectReader11getRelationEv@Base 1.0.0
 _ZNK5Kolab17KolabObjectReader12getIncidenceEv@Base 1.0.0
 _ZNK5Kolab17KolabObjectReader13getDictionaryER7QString@Base 1.0.0
 _ZNK5Kolab17KolabObjectReader13getTagMembersEv@Base 1.0.0
 _ZNK5Kolab17KolabObjectReader5isTagEv@Base 1.0.0
 _ZNK5Kolab17KolabObjectReader6getTagEv@Base 1.0.0
 _ZNK5Kolab17KolabObjectReader7getNoteEv@Base 1.0.0
 _ZNK5Kolab17KolabObjectReader7getTodoEv@Base 1.0.0
 _ZNK5Kolab17KolabObjectReader7getTypeEv@Base 1.0.0
 _ZNK5Kolab17KolabObjectReader8getEventEv@Base 1.0.0
 _ZNK5Kolab9XMLObject14getAttachmentsB5cxx11Ev@Base 1.0.0
 _ZNK5Kolab9XMLObject16getSerializedUIDB5cxx11Ev@Base 1.0.0
 _ZNK5Kolab9XMLObject18logoAttachmentNameB5cxx11Ev@Base 1.0.0
 _ZNK5Kolab9XMLObject19soundAttachmentNameB5cxx11Ev@Base 1.0.0
 _ZNK5Kolab9XMLObject21pictureAttachmentNameB5cxx11Ev@Base 1.0.0
 _ZNSt6vectorINSt7__cxx1112basic_stringIcSt11char_traitsIcESaIcEEESaIS5_EE12emplace_backIIS5_EEEvDpOT_@Base 1.0.0
 _ZNSt6vectorINSt7__cxx1112basic_stringIcSt11char_traitsIcESaIcEEESaIS5_EE12emplace_backIJS5_EEEvDpOT_@Base 1.0.0
 _ZNSt6vectorINSt7__cxx1112basic_stringIcSt11char_traitsIcESaIcEEESaIS5_EE19_M_emplace_back_auxIIRKS5_EEEvDpOT_@Base 1.0.0
 _ZNSt6vectorINSt7__cxx1112basic_stringIcSt11char_traitsIcESaIcEEESaIS5_EE19_M_emplace_back_auxIIS5_EEEvDpOT_@Base 1.0.0
 _ZNSt6vectorINSt7__cxx1112basic_stringIcSt11char_traitsIcESaIcEEESaIS5_EE19_M_emplace_back_auxIJRKS5_EEEvDpOT_@Base 1.0.0
 _ZNSt6vectorINSt7__cxx1112basic_stringIcSt11char_traitsIcESaIcEEESaIS5_EE19_M_emplace_back_auxIJS5_EEEvDpOT_@Base 1.0.0
 _ZNSt6vectorINSt7__cxx1112basic_stringIcSt11char_traitsIcESaIcEEESaIS5_EE7reserveEm@Base 1.0.0
 _ZNSt6vectorINSt7__cxx1112basic_stringIcSt11char_traitsIcESaIcEEESaIS5_EEC1ERKS7_@Base 1.0.0
 _ZNSt6vectorINSt7__cxx1112basic_stringIcSt11char_traitsIcESaIcEEESaIS5_EEC2ERKS7_@Base 1.0.0
 _ZNSt6vectorINSt7__cxx1112basic_stringIcSt11char_traitsIcESaIcEEESaIS5_EED1Ev@Base 1.0.0
 _ZNSt6vectorINSt7__cxx1112basic_stringIcSt11char_traitsIcESaIcEEESaIS5_EED2Ev@Base 1.0.0
 _ZNSt6vectorINSt7__cxx1112basic_stringIcSt11char_traitsIcESaIcEEESaIS5_EEaSERKS7_@Base 1.0.0
 _ZNSt6vectorIiSaIiEEC1IPivEET_S4_RKS0_@Base 1.0.0
 _ZNSt6vectorIiSaIiEEC2IPivEET_S4_RKS0_@Base 1.0.0
 _ZSteqIcEN9__gnu_cxx11__enable_ifIXsrSt9__is_charIT_E7__valueEbE6__typeERKNSt7__cxx1112basic_stringIS3_St11char_traitsIS3_ESaIS3_EEESE_@Base 1.0.0
 _ZZN5Kolab12ErrorHandler8instanceEvE4inst@Base 1.0.0
