libKF5AkonadiMime.so.5 libkf5akonadimime5 #MINVER#
 _ZN7Akonadi11CommandBase10emitResultENS0_6ResultE@Base 4:15.12.0
 _ZN7Akonadi11CommandBase11qt_metacallEN11QMetaObject4CallEiPPv@Base 4:15.12.0
 _ZN7Akonadi11CommandBase11qt_metacastEPKc@Base 4:15.12.0
 _ZN7Akonadi11CommandBase16staticMetaObjectE@Base 4:15.12.0
 _ZN7Akonadi11CommandBase6resultENS0_6ResultE@Base 4:15.12.0
 _ZN7Akonadi11CommandBaseC1EP7QObject@Base 4:15.12.0
 _ZN7Akonadi11CommandBaseC2EP7QObject@Base 4:15.12.0
 _ZN7Akonadi11MessagePart4BodyE@Base 15.07.90
 _ZN7Akonadi11MessagePart6HeaderE@Base 15.07.90
 _ZN7Akonadi11MessagePart8EnvelopeE@Base 15.07.90
 _ZN7Akonadi11MoveCommand11qt_metacallEN11QMetaObject4CallEiPPv@Base 4:15.12.0
 _ZN7Akonadi11MoveCommand11qt_metacastEPKc@Base 4:15.12.0
 _ZN7Akonadi11MoveCommand14slotMoveResultEP4KJob@Base 4:15.12.0
 _ZN7Akonadi11MoveCommand16staticMetaObjectE@Base 4:15.12.0
 _ZN7Akonadi11MoveCommand7executeEv@Base 4:15.12.0
 _ZN7Akonadi11MoveCommandC1ERKNS_10CollectionERK7QVectorINS_4ItemEEP7QObject@Base 4:15.12.0
 _ZN7Akonadi11MoveCommandC2ERKNS_10CollectionERK7QVectorINS_4ItemEEP7QObject@Base 4:15.12.0
 _ZN7Akonadi11MoveCommandD0Ev@Base 4:15.12.0
 _ZN7Akonadi11MoveCommandD1Ev@Base 4:15.12.0
 _ZN7Akonadi11MoveCommandD2Ev@Base 4:15.12.0
 _ZN7Akonadi12MessageFlags13HasAttachmentE@Base 15.07.90
 _ZN7Akonadi12MessageFlags13HasInvitationE@Base 15.07.90
 _ZN7Akonadi12MessageFlags16copyMessageFlagsERN5KMime7MessageERNS_4ItemE@Base 15.07.90
 _ZN7Akonadi12MessageFlags3HamE@Base 15.07.90
 _ZN7Akonadi12MessageFlags4SeenE@Base 15.07.90
 _ZN7Akonadi12MessageFlags4SentE@Base 15.07.90
 _ZN7Akonadi12MessageFlags4SpamE@Base 15.07.90
 _ZN7Akonadi12MessageFlags5ToActE@Base 15.07.90
 _ZN7Akonadi12MessageFlags6QueuedE@Base 15.07.90
 _ZN7Akonadi12MessageFlags6SignedE@Base 15.07.90
 _ZN7Akonadi12MessageFlags7DeletedE@Base 15.07.90
 _ZN7Akonadi12MessageFlags7FlaggedE@Base 15.07.90
 _ZN7Akonadi12MessageFlags7IgnoredE@Base 15.07.90
 _ZN7Akonadi12MessageFlags7RepliedE@Base 15.07.90
 _ZN7Akonadi12MessageFlags7WatchedE@Base 15.07.90
 _ZN7Akonadi12MessageFlags8AnsweredE@Base 15.07.90
 _ZN7Akonadi12MessageFlags8HasErrorE@Base 15.07.90
 _ZN7Akonadi12MessageFlags9EncryptedE@Base 15.07.90
 _ZN7Akonadi12MessageFlags9ForwardedE@Base 15.07.90
 _ZN7Akonadi12MessageModel11qt_metacallEN11QMetaObject4CallEiPPv@Base 15.07.90
 _ZN7Akonadi12MessageModel11qt_metacastEPKc@Base 15.07.90
 _ZN7Akonadi12MessageModel16staticMetaObjectE@Base 15.07.90
 _ZN7Akonadi12MessageModelC1EP7QObject@Base 15.07.90
 _ZN7Akonadi12MessageModelC2EP7QObject@Base 15.07.90
 _ZN7Akonadi12MessageModelD0Ev@Base 15.07.90
 _ZN7Akonadi12MessageModelD1Ev@Base 15.07.90
 _ZN7Akonadi12MessageModelD2Ev@Base 15.07.90
 _ZN7Akonadi13MarkAsCommand11qt_metacallEN11QMetaObject4CallEiPPv@Base 4:15.12.0
 _ZN7Akonadi13MarkAsCommand11qt_metacastEPKc@Base 4:15.12.0
 _ZN7Akonadi13MarkAsCommand12markMessagesEv@Base 4:15.12.0
 _ZN7Akonadi13MarkAsCommand13slotFetchDoneEP4KJob@Base 4:15.12.0
 _ZN7Akonadi13MarkAsCommand16staticMetaObjectE@Base 4:15.12.0
 _ZN7Akonadi13MarkAsCommand18slotModifyItemDoneEP4KJob@Base 4:15.12.0
 _ZN7Akonadi13MarkAsCommand7executeEv@Base 4:15.12.0
 _ZN7Akonadi13MarkAsCommandC1ERKNS_13MessageStatusERK7QVectorINS_10CollectionEEbP7QObject@Base 4:15.12.0
 _ZN7Akonadi13MarkAsCommandC1ERKNS_13MessageStatusERK7QVectorINS_4ItemEEbP7QObject@Base 4:15.12.0
 _ZN7Akonadi13MarkAsCommandC2ERKNS_13MessageStatusERK7QVectorINS_10CollectionEEbP7QObject@Base 4:15.12.0
 _ZN7Akonadi13MarkAsCommandC2ERKNS_13MessageStatusERK7QVectorINS_4ItemEEbP7QObject@Base 4:15.12.0
 _ZN7Akonadi13MarkAsCommandD0Ev@Base 4:15.12.0
 _ZN7Akonadi13MarkAsCommandD1Ev@Base 4:15.12.0
 _ZN7Akonadi13MarkAsCommandD2Ev@Base 4:15.12.0
 _ZN7Akonadi13MessageStatus10fromQInt32Ei@Base 15.07.90
 _ZN7Akonadi13MessageStatus10setDeletedEb@Base 15.07.90
 _ZN7Akonadi13MessageStatus10setIgnoredEb@Base 15.07.90
 _ZN7Akonadi13MessageStatus10setRepliedEb@Base 15.07.90
 _ZN7Akonadi13MessageStatus10setWatchedEb@Base 15.07.90
 _ZN7Akonadi13MessageStatus10statusReadEv@Base 15.07.90
 _ZN7Akonadi13MessageStatus10statusSentEv@Base 15.07.90
 _ZN7Akonadi13MessageStatus10statusSpamEv@Base 15.07.90
 _ZN7Akonadi13MessageStatus11setHasErrorEb@Base 15.07.90
 _ZN7Akonadi13MessageStatus11statusToActEv@Base 15.07.90
 _ZN7Akonadi13MessageStatus12setEncryptedEb@Base 15.07.90
 _ZN7Akonadi13MessageStatus12setForwardedEb@Base 15.07.90
 _ZN7Akonadi13MessageStatus12setImportantEb@Base 15.07.90
 _ZN7Akonadi13MessageStatus12statusQueuedEv@Base 15.07.90
 _ZN7Akonadi13MessageStatus12statusSignedEv@Base 15.07.90
 _ZN7Akonadi13MessageStatus12statusUnreadEv@Base 15.07.90
 _ZN7Akonadi13MessageStatus13statusDeletedEv@Base 15.07.90
 _ZN7Akonadi13MessageStatus13statusIgnoredEv@Base 15.07.90
 _ZN7Akonadi13MessageStatus13statusRepliedEv@Base 15.07.90
 _ZN7Akonadi13MessageStatus13statusWatchedEv@Base 15.07.90
 _ZN7Akonadi13MessageStatus14statusHasErrorEv@Base 15.07.90
 _ZN7Akonadi13MessageStatus15statusEncryptedEv@Base 15.07.90
 _ZN7Akonadi13MessageStatus15statusForwardedEv@Base 15.07.90
 _ZN7Akonadi13MessageStatus15statusImportantEv@Base 15.07.90
 _ZN7Akonadi13MessageStatus16setHasAttachmentEb@Base 15.07.90
 _ZN7Akonadi13MessageStatus16setHasInvitationEb@Base 15.07.90
 _ZN7Akonadi13MessageStatus16setStatusFromStrERK7QString@Base 15.07.90
 _ZN7Akonadi13MessageStatus18setStatusFromFlagsERK4QSetI10QByteArrayE@Base 15.07.90
 _ZN7Akonadi13MessageStatus19statusHasAttachmentEv@Base 15.07.90
 _ZN7Akonadi13MessageStatus19statusHasInvitationEv@Base 15.07.90
 _ZN7Akonadi13MessageStatus3setERKS0_@Base 15.07.90
 _ZN7Akonadi13MessageStatus5clearEv@Base 15.07.90
 _ZN7Akonadi13MessageStatus6setHamEb@Base 15.07.90
 _ZN7Akonadi13MessageStatus6toggleERKS0_@Base 15.07.90
 _ZN7Akonadi13MessageStatus7setReadEb@Base 15.07.90
 _ZN7Akonadi13MessageStatus7setSentEb@Base 15.07.90
 _ZN7Akonadi13MessageStatus7setSpamEb@Base 15.07.90
 _ZN7Akonadi13MessageStatus8setToActEb@Base 15.07.90
 _ZN7Akonadi13MessageStatus9setQueuedEb@Base 15.07.90
 _ZN7Akonadi13MessageStatus9setSignedEb@Base 15.07.90
 _ZN7Akonadi13MessageStatus9statusHamEv@Base 15.07.90
 _ZN7Akonadi13MessageStatusC1Ev@Base 15.07.90
 _ZN7Akonadi13MessageStatusC2Ev@Base 15.07.90
 _ZN7Akonadi16AddressAttribute11deserializeERK10QByteArray@Base 15.07.90
 _ZN7Akonadi16AddressAttribute5setCcERK11QStringList@Base 15.07.90
 _ZN7Akonadi16AddressAttribute5setToERK11QStringList@Base 15.07.90
 _ZN7Akonadi16AddressAttribute6setBccERK11QStringList@Base 15.07.90
 _ZN7Akonadi16AddressAttribute7setFromERK7QString@Base 15.07.90
 _ZN7Akonadi16AddressAttributeC1ERK7QStringRK11QStringListS6_S6_@Base 15.07.90
 _ZN7Akonadi16AddressAttributeC2ERK7QStringRK11QStringListS6_S6_@Base 15.07.90
 _ZN7Akonadi16AddressAttributeD0Ev@Base 15.07.90
 _ZN7Akonadi16AddressAttributeD1Ev@Base 15.07.90
 _ZN7Akonadi16AddressAttributeD2Ev@Base 15.07.90
 _ZN7Akonadi16AttributeFactory17registerAttributeINS_16AddressAttributeEEEvv@Base 15.07.90
 _ZN7Akonadi19RemoveDuplicatesJob11qt_metacallEN11QMetaObject4CallEiPPv@Base 15.07.90
 _ZN7Akonadi19RemoveDuplicatesJob11qt_metacastEPKc@Base 15.07.90
 _ZN7Akonadi19RemoveDuplicatesJob16staticMetaObjectE@Base 15.07.90
 _ZN7Akonadi19RemoveDuplicatesJob6doKillEv@Base 15.07.90
 _ZN7Akonadi19RemoveDuplicatesJob7doStartEv@Base 15.07.90
 _ZN7Akonadi19RemoveDuplicatesJobC1ERK7QVectorINS_10CollectionEEP7QObject@Base 15.07.90
 _ZN7Akonadi19RemoveDuplicatesJobC1ERKNS_10CollectionEP7QObject@Base 15.07.90
 _ZN7Akonadi19RemoveDuplicatesJobC2ERK7QVectorINS_10CollectionEEP7QObject@Base 15.07.90
 _ZN7Akonadi19RemoveDuplicatesJobC2ERKNS_10CollectionEP7QObject@Base 15.07.90
 _ZN7Akonadi19RemoveDuplicatesJobD0Ev@Base 15.07.90
 _ZN7Akonadi19RemoveDuplicatesJobD1Ev@Base 15.07.90
 _ZN7Akonadi19RemoveDuplicatesJobD2Ev@Base 15.07.90
 _ZN7Akonadi22MessageFolderAttribute11deserializeERK10QByteArray@Base 15.07.90
 _ZN7Akonadi22MessageFolderAttribute17setOutboundFolderEb@Base 15.07.90
 _ZN7Akonadi22MessageFolderAttributeC1ERKS0_@Base 15.07.90
 _ZN7Akonadi22MessageFolderAttributeC1Ev@Base 15.07.90
 _ZN7Akonadi22MessageFolderAttributeC2ERKS0_@Base 15.07.90
 _ZN7Akonadi22MessageFolderAttributeC2Ev@Base 15.07.90
 _ZN7Akonadi22MessageFolderAttributeD0Ev@Base 15.07.90
 _ZN7Akonadi22MessageFolderAttributeD1Ev@Base 15.07.90
 _ZN7Akonadi22MessageFolderAttributeD2Ev@Base 15.07.90
 _ZN7Akonadi22SpecialMailCollections11qt_metacallEN11QMetaObject4CallEiPPv@Base 15.07.90
 _ZN7Akonadi22SpecialMailCollections11qt_metacastEPKc@Base 15.07.90
 _ZN7Akonadi22SpecialMailCollections16staticMetaObjectE@Base 15.07.90
 _ZN7Akonadi22SpecialMailCollections18registerCollectionENS0_4TypeERKNS_10CollectionE@Base 15.07.90
 _ZN7Akonadi22SpecialMailCollections20unregisterCollectionERKNS_10CollectionE@Base 15.07.90
 _ZN7Akonadi22SpecialMailCollections21specialCollectionTypeERKNS_10CollectionE@Base 15.07.90
 _ZN7Akonadi22SpecialMailCollections22slotCollectionModifiedEP4KJob@Base 15.07.90
 _ZN7Akonadi22SpecialMailCollections27verifyI18nDefaultCollectionENS0_4TypeE@Base 15.07.90
 _ZN7Akonadi22SpecialMailCollections4selfEv@Base 15.07.90
 _ZN7Akonadi22SpecialMailCollectionsC1EPNS_29SpecialMailCollectionsPrivateE@Base 15.07.90
 _ZN7Akonadi22SpecialMailCollectionsC2EPNS_29SpecialMailCollectionsPrivateE@Base 15.07.90
 _ZN7Akonadi25StandardMailActionManager11qt_metacallEN11QMetaObject4CallEiPPv@Base 15.07.90
 _ZN7Akonadi25StandardMailActionManager11qt_metacastEPKc@Base 15.07.90
 _ZN7Akonadi25StandardMailActionManager12createActionENS0_4TypeE@Base 15.07.90
 _ZN7Akonadi25StandardMailActionManager12createActionENS_21StandardActionManager4TypeE@Base 15.07.90
 _ZN7Akonadi25StandardMailActionManager13setActionTextENS_21StandardActionManager4TypeERK16KLocalizedString@Base 15.07.90
 _ZN7Akonadi25StandardMailActionManager15interceptActionENS0_4TypeEb@Base 15.07.90
 _ZN7Akonadi25StandardMailActionManager15interceptActionENS_21StandardActionManager4TypeEb@Base 15.07.90
 _ZN7Akonadi25StandardMailActionManager16createAllActionsEv@Base 15.07.90
 _ZN7Akonadi25StandardMailActionManager16staticMetaObjectE@Base 15.07.90
 _ZN7Akonadi25StandardMailActionManager18actionStateUpdatedEv@Base 15.07.90
 _ZN7Akonadi25StandardMailActionManager21setItemSelectionModelEP19QItemSelectionModel@Base 15.07.90
 _ZN7Akonadi25StandardMailActionManager25setFavoriteSelectionModelEP19QItemSelectionModel@Base 15.07.90
 _ZN7Akonadi25StandardMailActionManager27setCollectionSelectionModelEP19QItemSelectionModel@Base 15.07.90
 _ZN7Akonadi25StandardMailActionManager27setFavoriteCollectionsModelEPNS_24FavoriteCollectionsModelE@Base 15.07.90
 _ZN7Akonadi25StandardMailActionManager32setCollectionPropertiesPageNamesERK11QStringList@Base 15.07.90
 _ZN7Akonadi25StandardMailActionManagerC1EP17KActionCollectionP7QWidget@Base 15.07.90
 _ZN7Akonadi25StandardMailActionManagerC2EP17KActionCollectionP7QWidget@Base 15.07.90
 _ZN7Akonadi25StandardMailActionManagerD0Ev@Base 15.07.90
 _ZN7Akonadi25StandardMailActionManagerD1Ev@Base 15.07.90
 _ZN7Akonadi25StandardMailActionManagerD2Ev@Base 15.07.90
 _ZN7Akonadi32SpecialMailCollectionsRequestJob11qt_metacallEN11QMetaObject4CallEiPPv@Base 15.07.90
 _ZN7Akonadi32SpecialMailCollectionsRequestJob11qt_metacastEPKc@Base 15.07.90
 _ZN7Akonadi32SpecialMailCollectionsRequestJob16staticMetaObjectE@Base 15.07.90
 _ZN7Akonadi32SpecialMailCollectionsRequestJob17requestCollectionENS_22SpecialMailCollections4TypeERKNS_13AgentInstanceE@Base 15.07.90
 _ZN7Akonadi32SpecialMailCollectionsRequestJob24requestDefaultCollectionENS_22SpecialMailCollections4TypeE@Base 15.07.90
 _ZN7Akonadi32SpecialMailCollectionsRequestJobC1EP7QObject@Base 15.07.90
 _ZN7Akonadi32SpecialMailCollectionsRequestJobC2EP7QObject@Base 15.07.90
 _ZN7Akonadi32SpecialMailCollectionsRequestJobD0Ev@Base 15.07.90
 _ZN7Akonadi32SpecialMailCollectionsRequestJobD1Ev@Base 15.07.90
 _ZN7Akonadi32SpecialMailCollectionsRequestJobD2Ev@Base 15.07.90
 _ZN7Akonadi34SpecialMailCollectionsDiscoveryJob11qt_metacallEN11QMetaObject4CallEiPPv@Base 15.07.90
 _ZN7Akonadi34SpecialMailCollectionsDiscoveryJob11qt_metacastEPKc@Base 15.07.90
 _ZN7Akonadi34SpecialMailCollectionsDiscoveryJob16staticMetaObjectE@Base 15.07.90
 _ZN7Akonadi34SpecialMailCollectionsDiscoveryJobC1EP7QObject@Base 15.07.90
 _ZN7Akonadi34SpecialMailCollectionsDiscoveryJobC2EP7QObject@Base 15.07.90
 _ZNK7Akonadi11CommandBase10metaObjectEv@Base 4:15.12.0
 _ZNK7Akonadi11MoveCommand10metaObjectEv@Base 4:15.12.0
 _ZNK7Akonadi12MessageModel10headerDataEiN2Qt11OrientationEi@Base 15.07.90
 _ZNK7Akonadi12MessageModel10metaObjectEv@Base 15.07.90
 _ZNK7Akonadi12MessageModel11columnCountERK11QModelIndex@Base 15.07.90
 _ZNK7Akonadi12MessageModel4dataERK11QModelIndexi@Base 15.07.90
 _ZNK7Akonadi12MessageModel8rowCountERK11QModelIndex@Base 15.07.90
 _ZNK7Akonadi12MessageModel9mimeTypesEv@Base 15.07.90
 _ZNK7Akonadi13MarkAsCommand10metaObjectEv@Base 4:15.12.0
 _ZNK7Akonadi13MessageStatus11isEncryptedEv@Base 15.07.90
 _ZNK7Akonadi13MessageStatus11isForwardedEv@Base 15.07.90
 _ZNK7Akonadi13MessageStatus11isImportantEv@Base 15.07.90
 _ZNK7Akonadi13MessageStatus11statusFlagsEv@Base 15.07.90
 _ZNK7Akonadi13MessageStatus13hasAttachmentEv@Base 15.07.90
 _ZNK7Akonadi13MessageStatus13hasInvitationEv@Base 15.07.90
 _ZNK7Akonadi13MessageStatus17isOfUnknownStatusEv@Base 15.07.90
 _ZNK7Akonadi13MessageStatus5isHamEv@Base 15.07.90
 _ZNK7Akonadi13MessageStatus6isReadEv@Base 15.07.90
 _ZNK7Akonadi13MessageStatus6isSentEv@Base 15.07.90
 _ZNK7Akonadi13MessageStatus6isSpamEv@Base 15.07.90
 _ZNK7Akonadi13MessageStatus7isToActEv@Base 15.07.90
 _ZNK7Akonadi13MessageStatus8hasErrorEv@Base 15.07.90
 _ZNK7Akonadi13MessageStatus8isQueuedEv@Base 15.07.90
 _ZNK7Akonadi13MessageStatus8isSignedEv@Base 15.07.90
 _ZNK7Akonadi13MessageStatus8toQInt32Ev@Base 15.07.90
 _ZNK7Akonadi13MessageStatus9isDeletedEv@Base 15.07.90
 _ZNK7Akonadi13MessageStatus9isIgnoredEv@Base 15.07.90
 _ZNK7Akonadi13MessageStatus9isRepliedEv@Base 15.07.90
 _ZNK7Akonadi13MessageStatus9isWatchedEv@Base 15.07.90
 _ZNK7Akonadi13MessageStatus9statusStrEv@Base 15.07.90
 _ZNK7Akonadi13MessageStatusanERKS0_@Base 15.07.90
 _ZNK7Akonadi13MessageStatuseqERKS0_@Base 15.07.90
 _ZNK7Akonadi13MessageStatusneERKS0_@Base 15.07.90
 _ZNK7Akonadi16AddressAttribute10serializedEv@Base 15.07.90
 _ZNK7Akonadi16AddressAttribute2ccEv@Base 15.07.90
 _ZNK7Akonadi16AddressAttribute2toEv@Base 15.07.90
 _ZNK7Akonadi16AddressAttribute3bccEv@Base 15.07.90
 _ZNK7Akonadi16AddressAttribute4fromEv@Base 15.07.90
 _ZNK7Akonadi16AddressAttribute4typeEv@Base 15.07.90
 _ZNK7Akonadi16AddressAttribute5cloneEv@Base 15.07.90
 _ZNK7Akonadi19RemoveDuplicatesJob10metaObjectEv@Base 15.07.90
 _ZNK7Akonadi22MessageFolderAttribute10serializedEv@Base 15.07.90
 _ZNK7Akonadi22MessageFolderAttribute16isOutboundFolderEv@Base 15.07.90
 _ZNK7Akonadi22MessageFolderAttribute4typeEv@Base 15.07.90
 _ZNK7Akonadi22MessageFolderAttribute5cloneEv@Base 15.07.90
 _ZNK7Akonadi22SpecialMailCollections10collectionENS0_4TypeERKNS_13AgentInstanceE@Base 15.07.90
 _ZNK7Akonadi22SpecialMailCollections10metaObjectEv@Base 15.07.90
 _ZNK7Akonadi22SpecialMailCollections13hasCollectionENS0_4TypeERKNS_13AgentInstanceE@Base 15.07.90
 _ZNK7Akonadi22SpecialMailCollections17defaultCollectionENS0_4TypeE@Base 15.07.90
 _ZNK7Akonadi22SpecialMailCollections20hasDefaultCollectionENS0_4TypeE@Base 15.07.90
 _ZNK7Akonadi25StandardMailActionManager10metaObjectEv@Base 15.07.90
 _ZNK7Akonadi25StandardMailActionManager13selectedItemsEv@Base 15.07.90
 _ZNK7Akonadi25StandardMailActionManager19selectedCollectionsEv@Base 15.07.90
 _ZNK7Akonadi25StandardMailActionManager21standardActionManagerEv@Base 15.07.90
 _ZNK7Akonadi25StandardMailActionManager6actionENS0_4TypeE@Base 15.07.90
 _ZNK7Akonadi25StandardMailActionManager6actionENS_21StandardActionManager4TypeE@Base 15.07.90
 _ZNK7Akonadi32SpecialMailCollectionsRequestJob10metaObjectEv@Base 15.07.90
 _ZNK7Akonadi34SpecialMailCollectionsDiscoveryJob10metaObjectEv@Base 15.07.90
 _ZNK7Akonadi4Item10hasPayloadI14QSharedPointerIN5KMime7MessageEEEEbv@Base 4:15.12.0
 _ZNK7Akonadi4Item11payloadImplI14QSharedPointerIN5KMime7MessageEEEENSt9enable_ifIXntsrNS_8Internal12PayloadTraitIT_EE13isPolymorphicES9_E4typeEv@Base 4:15.12.0
 _ZNK7Akonadi4Item14tryToCloneImplI14QSharedPointerIN5KMime7MessageEESt10shared_ptrIS4_EEENSt9enable_ifIXntsrSt7is_sameIT_T0_E5valueEbE4typeEPSA_PKi@Base 4:15.12.0
 _ZNK7Akonadi4Item7payloadI14QSharedPointerIN5KMime7MessageEEEET_v@Base 4:15.12.0
 _ZTIN7Akonadi11CommandBaseE@Base 4:15.12.0
 _ZTIN7Akonadi11MoveCommandE@Base 4:15.12.0
 _ZTIN7Akonadi12MessageModelE@Base 15.07.90
 _ZTIN7Akonadi13MarkAsCommandE@Base 4:15.12.0
 _ZTIN7Akonadi16AddressAttributeE@Base 15.07.90
 _ZTIN7Akonadi19RemoveDuplicatesJobE@Base 15.07.90
 _ZTIN7Akonadi22MessageFolderAttributeE@Base 15.07.90
 _ZTIN7Akonadi22SpecialMailCollectionsE@Base 15.07.90
 _ZTIN7Akonadi25StandardMailActionManagerE@Base 15.07.90
 _ZTIN7Akonadi32SpecialMailCollectionsRequestJobE@Base 15.07.90
 _ZTIN7Akonadi34SpecialMailCollectionsDiscoveryJobE@Base 15.07.90
 _ZTSN7Akonadi11CommandBaseE@Base 4:15.12.0
 _ZTSN7Akonadi11MoveCommandE@Base 4:15.12.0
 _ZTSN7Akonadi12MessageModelE@Base 15.07.90
 _ZTSN7Akonadi13MarkAsCommandE@Base 4:15.12.0
 _ZTSN7Akonadi16AddressAttributeE@Base 15.07.90
 _ZTSN7Akonadi19RemoveDuplicatesJobE@Base 15.07.90
 _ZTSN7Akonadi22MessageFolderAttributeE@Base 15.07.90
 _ZTSN7Akonadi22SpecialMailCollectionsE@Base 15.07.90
 _ZTSN7Akonadi25StandardMailActionManagerE@Base 15.07.90
 _ZTSN7Akonadi32SpecialMailCollectionsRequestJobE@Base 15.07.90
 _ZTSN7Akonadi34SpecialMailCollectionsDiscoveryJobE@Base 15.07.90
 _ZTVN7Akonadi11CommandBaseE@Base 4:15.12.0
 _ZTVN7Akonadi11MoveCommandE@Base 4:15.12.0
 _ZTVN7Akonadi12MessageModelE@Base 15.07.90
 _ZTVN7Akonadi13MarkAsCommandE@Base 4:15.12.0
 _ZTVN7Akonadi16AddressAttributeE@Base 15.07.90
 _ZTVN7Akonadi19RemoveDuplicatesJobE@Base 15.07.90
 _ZTVN7Akonadi22MessageFolderAttributeE@Base 15.07.90
 _ZTVN7Akonadi22SpecialMailCollectionsE@Base 15.07.90
 _ZTVN7Akonadi25StandardMailActionManagerE@Base 15.07.90
 _ZTVN7Akonadi32SpecialMailCollectionsRequestJobE@Base 15.07.90
 _ZTVN7Akonadi34SpecialMailCollectionsDiscoveryJobE@Base 15.07.90
