libKF5KIOWidgets.so.5 libkf5kiowidgets5 #MINVER#
 _ZN10KAutoMount11qt_metacallEN11QMetaObject4CallEiPPv@Base 4.96.0
 _ZN10KAutoMount11qt_metacastEPKc@Base 4.96.0
 _ZN10KAutoMount16staticMetaObjectE@Base 4.96.0
 _ZN10KAutoMount5errorEv@Base 4.96.0
 _ZN10KAutoMount8finishedEv@Base 4.96.0
 _ZN10KAutoMountC1EbRK10QByteArrayRK7QStringS5_S5_b@Base 4.96.0
 _ZN10KAutoMountC2EbRK10QByteArrayRK7QStringS5_S5_b@Base 4.96.0
 _ZN10KAutoMountD0Ev@Base 4.96.0
 _ZN10KAutoMountD1Ev@Base 4.96.0
 _ZN10KAutoMountD2Ev@Base 4.96.0
 _ZN10KDirLister10jobStartedEPN3KIO7ListJobE@Base 4.96.0
 _ZN10KDirLister10mainWindowEv@Base 4.96.0
 _ZN10KDirLister11handleErrorEPN3KIO3JobE@Base 4.96.0
 _ZN10KDirLister11qt_metacallEN11QMetaObject4CallEiPPv@Base 4.96.0
 _ZN10KDirLister11qt_metacastEPKc@Base 4.96.0
 _ZN10KDirLister13setMainWindowEP7QWidget@Base 4.96.0
 _ZN10KDirLister16staticMetaObjectE@Base 4.96.0
 _ZN10KDirLister18handleErrorMessageERK7QString@Base 4.96.0
 _ZN10KDirLister27setAutoErrorHandlingEnabledEbP7QWidget@Base 4.96.0
 _ZN10KDirListerC1EP7QObject@Base 4.96.0
 _ZN10KDirListerC2EP7QObject@Base 4.96.0
 _ZN10KDirListerD0Ev@Base 4.96.0
 _ZN10KDirListerD1Ev@Base 4.96.0
 _ZN10KDirListerD2Ev@Base 4.96.0
 _ZN10KUriFilter11filteredUriERK4QUrlRK11QStringList@Base 4.96.0
 _ZN10KUriFilter11filteredUriERK7QStringRK11QStringList@Base 4.96.0
 _ZN10KUriFilter11loadPluginsEv@Base 4.96.0
 _ZN10KUriFilter15filterSearchUriER14KUriFilterData6QFlagsINS_16SearchFilterTypeEE@Base 4.96.0
 _ZN10KUriFilter15filterSearchUriER14KUriFilterData@Base 4.96.0
 _ZN10KUriFilter4selfEv@Base 4.96.0
 _ZN10KUriFilter9filterUriER14KUriFilterDataRK11QStringList@Base 4.96.0
 _ZN10KUriFilter9filterUriER4QUrlRK11QStringList@Base 4.96.0
 _ZN10KUriFilter9filterUriER7QStringRK11QStringList@Base 4.96.0
 _ZN10KUriFilterC1Ev@Base 4.96.0
 _ZN10KUriFilterC2Ev@Base 4.96.0
 _ZN10KUriFilterD1Ev@Base 4.96.0
 _ZN10KUriFilterD2Ev@Base 4.96.0
 _ZN12KAutoUnmount11qt_metacallEN11QMetaObject4CallEiPPv@Base 4.96.0
 _ZN12KAutoUnmount11qt_metacastEPKc@Base 4.96.0
 _ZN12KAutoUnmount16staticMetaObjectE@Base 4.96.0
 _ZN12KAutoUnmount5errorEv@Base 4.96.0
 _ZN12KAutoUnmount8finishedEv@Base 4.96.0
 _ZN12KAutoUnmountC1ERK7QStringS2_@Base 4.96.0
 _ZN12KAutoUnmountC2ERK7QStringS2_@Base 4.96.0
 _ZN12KAutoUnmountD0Ev@Base 4.96.0
 _ZN12KAutoUnmountD1Ev@Base 4.96.0
 _ZN12KAutoUnmountD2Ev@Base 4.96.0
 _ZN12KConfigGroup10writeEntryIbEEvPKcRKT_6QFlagsIN11KConfigBase15WriteConfigFlagEE@Base 4.100.0
 _ZN12KUrlComboBox11qt_metacallEN11QMetaObject4CallEiPPv@Base 4.96.0
 _ZN12KUrlComboBox11qt_metacastEPKc@Base 4.96.0
 _ZN12KUrlComboBox11setDefaultsEv@Base 4.96.0
 _ZN12KUrlComboBox11setMaxItemsEi@Base 4.96.0
 _ZN12KUrlComboBox12urlActivatedERK4QUrl@Base 4.96.0
 _ZN12KUrlComboBox13addDefaultUrlERK4QUrlRK5QIconRK7QString@Base 4.96.0
 _ZN12KUrlComboBox13addDefaultUrlERK4QUrlRK7QString@Base 4.96.0
 _ZN12KUrlComboBox14mouseMoveEventEP11QMouseEvent@Base 4.96.0
 _ZN12KUrlComboBox15mousePressEventEP11QMouseEvent@Base 4.96.0
 _ZN12KUrlComboBox16staticMetaObjectE@Base 4.96.0
 _ZN12KUrlComboBox19setCompletionObjectEP11KCompletionb@Base 4.96.0
 _ZN12KUrlComboBox6setUrlERK4QUrl@Base 4.96.0
 _ZN12KUrlComboBox7setUrlsERK11QStringList@Base 4.96.0
 _ZN12KUrlComboBox7setUrlsERK11QStringListNS_17OverLoadResolvingE@Base 4.96.0
 _ZN12KUrlComboBox9removeUrlERK4QUrlb@Base 4.96.0
 _ZN12KUrlComboBoxC1ENS_4ModeEP7QWidget@Base 4.96.0
 _ZN12KUrlComboBoxC1ENS_4ModeEbP7QWidget@Base 4.96.0
 _ZN12KUrlComboBoxC2ENS_4ModeEP7QWidget@Base 4.96.0
 _ZN12KUrlComboBoxC2ENS_4ModeEbP7QWidget@Base 4.96.0
 _ZN12KUrlComboBoxD0Ev@Base 4.96.0
 _ZN12KUrlComboBoxD1Ev@Base 4.96.0
 _ZN12KUrlComboBoxD2Ev@Base 4.96.0
 _ZN12ThumbCreator18writeConfigurationEPK7QWidget@Base 4.99.0
 _ZN12ThumbCreator25createConfigurationWidgetEv@Base 4.99.0
 _ZN12ThumbCreatorD0Ev@Base 4.96.0
 _ZN12ThumbCreatorD1Ev@Base 4.96.0
 _ZN12ThumbCreatorD2Ev@Base 4.96.0
 _ZN13KUrlRequester11changeEventEP6QEvent@Base 4.96.0
 _ZN13KUrlRequester11eventFilterEP7QObjectP6QEvent@Base 4.96.0
 _ZN13KUrlRequester11qt_metacallEN11QMetaObject4CallEiPPv@Base 4.96.0
 _ZN13KUrlRequester11qt_metacastEPKc@Base 4.96.0
 _ZN13KUrlRequester11setStartDirERK4QUrl@Base 4.96.0
 _ZN13KUrlRequester11textChangedERK7QString@Base 4.96.0
 _ZN13KUrlRequester11urlSelectedERK4QUrl@Base 4.96.0
 _ZN13KUrlRequester12customEditorEv@Base 4.96.0
 _ZN13KUrlRequester13returnPressedERK7QString@Base 4.96.0
 _ZN13KUrlRequester13returnPressedEv@Base 4.96.0
 _ZN13KUrlRequester14openFileDialogEPS_@Base 4.96.0
 _ZN13KUrlRequester15setClickMessageERK7QString@Base 4.96.0
 _ZN13KUrlRequester16staticMetaObjectE@Base 4.96.0
 _ZN13KUrlRequester18setPlaceholderTextERK7QString@Base 4.96.0
 _ZN13KUrlRequester20KUrlRequesterPrivate16_k_slotUpdateUrlEv@Base 4.96.0
 _ZN13KUrlRequester20KUrlRequesterPrivate17_k_slotOpenDialogEv@Base 4.96.0
 _ZN13KUrlRequester20KUrlRequesterPrivate25_k_slotFileDialogAcceptedEv@Base 5.0.0
 _ZN13KUrlRequester20KUrlRequesterPrivate4initEv@Base 4.96.0
 _ZN13KUrlRequester21setFileDialogModalityEN2Qt14WindowModalityE@Base 4.96.0
 _ZN13KUrlRequester5clearEv@Base 4.96.0
 _ZN13KUrlRequester6setUrlERK4QUrl@Base 4.96.0
 _ZN13KUrlRequester7setModeE6QFlagsIN5KFile4ModeEE@Base 4.96.0
 _ZN13KUrlRequester7setPathERK7QString@Base 4.96.0
 _ZN13KUrlRequester7setTextERK7QString@Base 4.96.0
 _ZN13KUrlRequester9setFilterERK7QString@Base 4.96.0
 _ZN13KUrlRequesterC1EP7QWidget@Base 4.96.0
 _ZN13KUrlRequesterC1EP7QWidgetS1_@Base 4.96.0
 _ZN13KUrlRequesterC1ERK4QUrlP7QWidget@Base 4.96.0
 _ZN13KUrlRequesterC2EP7QWidget@Base 4.96.0
 _ZN13KUrlRequesterC2EP7QWidgetS1_@Base 4.96.0
 _ZN13KUrlRequesterC2ERK4QUrlP7QWidget@Base 4.96.0
 _ZN13KUrlRequesterD0Ev@Base 4.96.0
 _ZN13KUrlRequesterD1Ev@Base 4.96.0
 _ZN13KUrlRequesterD2Ev@Base 4.96.0
 _ZN14KSslInfoDialog10setSslInfoERK5QListI15QSslCertificateERK7QStringS7_S7_S7_iiRKS0_IS0_IN9KSslError5ErrorEEE@Base 4.96.0
 _ZN14KSslInfoDialog11qt_metacallEN11QMetaObject4CallEiPPv@Base 4.96.0
 _ZN14KSslInfoDialog11qt_metacastEPKc@Base 4.96.0
 _ZN14KSslInfoDialog16displayFromChainEi@Base 4.96.0
 _ZN14KSslInfoDialog16errorsFromStringERK7QString@Base 4.96.0
 _ZN14KSslInfoDialog16staticMetaObjectE@Base 4.96.0
 _ZN14KSslInfoDialog20setMainPartEncryptedEb@Base 4.96.0
 _ZN14KSslInfoDialog25updateWhichPartsEncryptedEv@Base 4.96.0
 _ZN14KSslInfoDialog26setAuxiliaryPartsEncryptedEb@Base 4.96.0
 _ZN14KSslInfoDialogC1EP7QWidget@Base 4.96.0
 _ZN14KSslInfoDialogC2EP7QWidget@Base 4.96.0
 _ZN14KSslInfoDialogD0Ev@Base 4.96.0
 _ZN14KSslInfoDialogD1Ev@Base 4.96.0
 _ZN14KSslInfoDialogD2Ev@Base 4.96.0
 _ZN14KUriFilterData15setAbsolutePathERK7QString@Base 4.96.0
 _ZN14KUriFilterData19setDefaultUrlSchemeERK7QString@Base 4.96.0
 _ZN14KUriFilterData22setCheckForExecutablesEb@Base 4.96.0
 _ZN14KUriFilterData25setSearchFilteringOptionsE6QFlagsINS_18SearchFilterOptionEE@Base 4.96.0
 _ZN14KUriFilterData27setAlternateSearchProvidersERK11QStringList@Base 4.96.0
 _ZN14KUriFilterData33setAlternateDefaultSearchProviderERK7QString@Base 4.96.0
 _ZN14KUriFilterData7setDataERK4QUrl@Base 4.96.0
 _ZN14KUriFilterData7setDataERK7QString@Base 4.96.0
 _ZN14KUriFilterData8iconNameEv@Base 4.96.0
 _ZN14KUriFilterDataC1ERK4QUrl@Base 4.96.0
 _ZN14KUriFilterDataC1ERK7QString@Base 4.96.0
 _ZN14KUriFilterDataC1ERKS_@Base 4.96.0
 _ZN14KUriFilterDataC1Ev@Base 4.96.0
 _ZN14KUriFilterDataC2ERK4QUrl@Base 4.96.0
 _ZN14KUriFilterDataC2ERK7QString@Base 4.96.0
 _ZN14KUriFilterDataC2ERKS_@Base 4.96.0
 _ZN14KUriFilterDataC2Ev@Base 4.96.0
 _ZN14KUriFilterDataD1Ev@Base 4.96.0
 _ZN14KUriFilterDataD2Ev@Base 4.96.0
 _ZN14KUriFilterDataaSERK4QUrl@Base 4.96.0
 _ZN14KUriFilterDataaSERK7QString@Base 4.96.0
 _ZN14KUrlCompletion11customEventEP6QEvent@Base 4.96.0
 _ZN14KUrlCompletion11qt_metacallEN11QMetaObject4CallEiPPv@Base 4.96.0
 _ZN14KUrlCompletion11qt_metacastEPKc@Base 4.96.0
 _ZN14KUrlCompletion12replacedPathERK7QStringbb@Base 4.96.0
 _ZN14KUrlCompletion13setReplaceEnvEb@Base 4.96.0
 _ZN14KUrlCompletion14makeCompletionERK7QString@Base 4.96.0
 _ZN14KUrlCompletion14setReplaceHomeEb@Base 4.96.0
 _ZN14KUrlCompletion16staticMetaObjectE@Base 4.96.0
 _ZN14KUrlCompletion4stopEv@Base 4.96.0
 _ZN14KUrlCompletion6setDirERK4QUrl@Base 4.96.0
 _ZN14KUrlCompletion7setModeENS_4ModeE@Base 4.96.0
 _ZN14KUrlCompletionC1ENS_4ModeE@Base 4.96.0
 _ZN14KUrlCompletionC1Ev@Base 4.96.0
 _ZN14KUrlCompletionC2ENS_4ModeE@Base 4.96.0
 _ZN14KUrlCompletionC2Ev@Base 4.96.0
 _ZN14KUrlCompletionD0Ev@Base 4.96.0
 _ZN14KUrlCompletionD1Ev@Base 4.96.0
 _ZN14KUrlCompletionD2Ev@Base 4.96.0
 _ZN14ThumbCreatorV2D0Ev@Base 4.96.0
 _ZN14ThumbCreatorV2D1Ev@Base 4.96.0
 _ZN14ThumbCreatorV2D2Ev@Base 4.96.0
 _ZN15KOpenWithDialog11qt_metacallEN11QMetaObject4CallEiPPv@Base 4.96.0
 _ZN15KOpenWithDialog11qt_metacastEPKc@Base 4.96.0
 _ZN15KOpenWithDialog12slotSelectedERK7QStringS2_@Base 4.96.0
 _ZN15KOpenWithDialog15slotHighlightedERK7QStringS2_@Base 4.96.0
 _ZN15KOpenWithDialog15slotTextChangedEv@Base 4.96.0
 _ZN15KOpenWithDialog16staticMetaObjectE@Base 4.96.0
 _ZN15KOpenWithDialog17hideNoCloseOnExitEv@Base 4.96.0
 _ZN15KOpenWithDialog17hideRunInTerminalEv@Base 4.96.0
 _ZN15KOpenWithDialog19slotTerminalToggledEb@Base 4.96.0
 _ZN15KOpenWithDialog22setSaveNewApplicationsEb@Base 4.96.0
 _ZN15KOpenWithDialog6acceptEv@Base 4.96.0
 _ZN15KOpenWithDialogC1EP7QWidget@Base 4.96.0
 _ZN15KOpenWithDialogC1ERK5QListI4QUrlEP7QWidget@Base 4.96.0
 _ZN15KOpenWithDialogC1ERK5QListI4QUrlERK7QStringS7_P7QWidget@Base 4.96.0
 _ZN15KOpenWithDialogC1ERK7QStringS2_P7QWidget@Base 4.96.0
 _ZN15KOpenWithDialogC2EP7QWidget@Base 4.96.0
 _ZN15KOpenWithDialogC2ERK5QListI4QUrlEP7QWidget@Base 4.96.0
 _ZN15KOpenWithDialogC2ERK5QListI4QUrlERK7QStringS7_P7QWidget@Base 4.96.0
 _ZN15KOpenWithDialogC2ERK7QStringS2_P7QWidget@Base 4.96.0
 _ZN15KOpenWithDialogD0Ev@Base 4.96.0
 _ZN15KOpenWithDialogD1Ev@Base 4.96.0
 _ZN15KOpenWithDialogD2Ev@Base 4.96.0
 _ZN16KFileItemActions11qt_metacallEN11QMetaObject4CallEiPPv@Base 4.96.0
 _ZN16KFileItemActions11qt_metacastEPKc@Base 4.96.0
 _ZN16KFileItemActions15setParentWidgetEP7QWidget@Base 4.96.0
 _ZN16KFileItemActions16staticMetaObjectE@Base 4.96.0
 _ZN16KFileItemActions19addServiceActionsToEP5QMenu@Base 4.96.0
 _ZN16KFileItemActions20addOpenWithActionsToEP5QMenuRK7QString@Base 4.96.0
 _ZN16KFileItemActions21setItemListPropertiesERK23KFileItemListProperties@Base 4.96.0
 _ZN16KFileItemActions22associatedApplicationsERK11QStringListRK7QString@Base 4.96.0
 _ZN16KFileItemActions23preferredOpenWithActionERK7QString@Base 4.96.0
 _ZN16KFileItemActions24runPreferredApplicationsERK13KFileItemListRK7QString@Base 4.96.0
 _ZN16KFileItemActions28openWithDialogAboutToBeShownEv@Base 4.96.0
 _ZN16KFileItemActionsC1EP7QObject@Base 4.96.0
 _ZN16KFileItemActionsC2EP7QObject@Base 4.96.0
 _ZN16KFileItemActionsD0Ev@Base 4.96.0
 _ZN16KFileItemActionsD1Ev@Base 4.96.0
 _ZN16KFileItemActionsD2Ev@Base 4.96.0
 _ZN16KShellCompletion11qt_metacallEN11QMetaObject4CallEiPPv@Base 4.96.0
 _ZN16KShellCompletion11qt_metacastEPKc@Base 4.96.0
 _ZN16KShellCompletion14makeCompletionERK7QString@Base 4.96.0
 _ZN16KShellCompletion16staticMetaObjectE@Base 4.96.0
 _ZN16KShellCompletionC1Ev@Base 4.96.0
 _ZN16KShellCompletionC2Ev@Base 4.96.0
 _ZN16KShellCompletionD0Ev@Base 4.96.0
 _ZN16KShellCompletionD1Ev@Base 4.96.0
 _ZN16KShellCompletionD2Ev@Base 4.96.0
 _ZN16KUriFilterPlugin11qt_metacallEN11QMetaObject4CallEiPPv@Base 4.96.0
 _ZN16KUriFilterPlugin11qt_metacastEPKc@Base 4.96.0
 _ZN16KUriFilterPlugin16staticMetaObjectE@Base 4.96.0
 _ZN16KUriFilterPluginC1ERK7QStringP7QObject@Base 4.96.0
 _ZN16KUriFilterPluginC2ERK7QStringP7QObject@Base 4.96.0
 _ZN17KFileItemDelegate11editorEventEP6QEventP18QAbstractItemModelRK20QStyleOptionViewItemRK11QModelIndex@Base 4.96.0
 _ZN17KFileItemDelegate11eventFilterEP7QObjectP6QEvent@Base 4.96.0
 _ZN17KFileItemDelegate11qt_metacallEN11QMetaObject4CallEiPPv@Base 4.96.0
 _ZN17KFileItemDelegate11qt_metacastEPKc@Base 4.96.0
 _ZN17KFileItemDelegate11setWrapModeEN11QTextOption8WrapModeE@Base 4.96.0
 _ZN17KFileItemDelegate13setShadowBlurEd@Base 4.96.0
 _ZN17KFileItemDelegate14setMaximumSizeERK5QSize@Base 4.96.0
 _ZN17KFileItemDelegate14setShadowColorERK6QColor@Base 4.96.0
 _ZN17KFileItemDelegate15setShadowOffsetERK7QPointF@Base 4.96.0
 _ZN17KFileItemDelegate16staticMetaObjectE@Base 4.96.0
 _ZN17KFileItemDelegate18setShowInformationENS_11InformationE@Base 4.96.0
 _ZN17KFileItemDelegate18setShowInformationERK5QListINS_11InformationEE@Base 4.96.0
 _ZN17KFileItemDelegate22setJobTransfersVisibleEb@Base 4.96.0
 _ZN17KFileItemDelegate24setShowToolTipWhenElidedEb@Base 4.96.0
 _ZN17KFileItemDelegate5shapeERK20QStyleOptionViewItemRK11QModelIndex@Base 4.96.0
 _ZN17KFileItemDelegate7Private10gotNewIconERK11QModelIndex@Base 4.96.0
 _ZN17KFileItemDelegate7Private16restartAnimationEPN3KIO14AnimationStateE@Base 4.96.0
 _ZN17KFileItemDelegate7Private17paintJobTransfersEP8QPainterRKdRK6QPointRK20QStyleOptionViewItem@Base 4.96.0
 _ZN17KFileItemDelegate7Private17setVerticalMarginENS0_10MarginTypeEiiii@Base 4.96.0
 _ZN17KFileItemDelegate7Private19setHorizontalMarginENS0_10MarginTypeEiiii@Base 4.96.0
 _ZN17KFileItemDelegate7PrivateC1EPS_@Base 4.96.0
 _ZN17KFileItemDelegate7PrivateC2EPS_@Base 4.96.0
 _ZN17KFileItemDelegate9helpEventEP10QHelpEventP17QAbstractItemViewRK20QStyleOptionViewItemRK11QModelIndex@Base 4.96.0
 _ZN17KFileItemDelegateC1EP7QObject@Base 4.96.0
 _ZN17KFileItemDelegateC2EP7QObject@Base 4.96.0
 _ZN17KFileItemDelegateD0Ev@Base 4.96.0
 _ZN17KFileItemDelegateD1Ev@Base 4.96.0
 _ZN17KFileItemDelegateD2Ev@Base 4.96.0
 _ZN17KPropertiesDialog10canDisplayERK13KFileItemList@Base 4.96.0
 _ZN17KPropertiesDialog10showDialogERK13KFileItemListP7QWidgetb@Base 4.96.0
 _ZN17KPropertiesDialog10showDialogERK4QUrlP7QWidgetb@Base 4.96.0
 _ZN17KPropertiesDialog10showDialogERK5QListI4QUrlEP7QWidgetb@Base 5.10.0
 _ZN17KPropertiesDialog10showDialogERK9KFileItemP7QWidgetb@Base 4.96.0
 _ZN17KPropertiesDialog10slotCancelEv@Base 4.96.0
 _ZN17KPropertiesDialog11qt_metacallEN11QMetaObject4CallEiPPv@Base 4.96.0
 _ZN17KPropertiesDialog11qt_metacastEPKc@Base 4.96.0
 _ZN17KPropertiesDialog12insertPluginEP23KPropertiesDialogPlugin@Base 4.96.0
 _ZN17KPropertiesDialog13abortApplyingEv@Base 4.96.0
 _ZN17KPropertiesDialog13leaveModalityEv@Base 4.96.0
 _ZN17KPropertiesDialog16propertiesClosedEv@Base 4.96.0
 _ZN17KPropertiesDialog16staticMetaObjectE@Base 4.96.0
 _ZN17KPropertiesDialog18setFileSharingPageEP7QWidget@Base 4.96.0
 _ZN17KPropertiesDialog19setFileNameReadOnlyEb@Base 4.96.0
 _ZN17KPropertiesDialog19showFileSharingPageEv@Base 4.96.0
 _ZN17KPropertiesDialog24KPropertiesDialogPrivate11insertPagesEv@Base 4.96.0
 _ZN17KPropertiesDialog24KPropertiesDialogPrivate4initEv@Base 4.96.0
 _ZN17KPropertiesDialog4itemEv@Base 4.96.0
 _ZN17KPropertiesDialog6renameERK7QString@Base 4.96.0
 _ZN17KPropertiesDialog6saveAsERK4QUrlRS0_@Base 4.96.0
 _ZN17KPropertiesDialog6slotOkEv@Base 4.96.0
 _ZN17KPropertiesDialog7appliedEv@Base 4.96.0
 _ZN17KPropertiesDialog8canceledEv@Base 4.96.0
 _ZN17KPropertiesDialog9updateUrlERK4QUrl@Base 4.96.0
 _ZN17KPropertiesDialogC1ERK13KFileItemListP7QWidget@Base 4.96.0
 _ZN17KPropertiesDialogC1ERK4QUrlP7QWidget@Base 4.96.0
 _ZN17KPropertiesDialogC1ERK4QUrlS2_RK7QStringP7QWidget@Base 4.96.0
 _ZN17KPropertiesDialogC1ERK5QListI4QUrlEP7QWidget@Base 5.10.0
 _ZN17KPropertiesDialogC1ERK7QStringP7QWidget@Base 4.96.0
 _ZN17KPropertiesDialogC1ERK9KFileItemP7QWidget@Base 4.96.0
 _ZN17KPropertiesDialogC2ERK13KFileItemListP7QWidget@Base 4.96.0
 _ZN17KPropertiesDialogC2ERK4QUrlP7QWidget@Base 4.96.0
 _ZN17KPropertiesDialogC2ERK4QUrlS2_RK7QStringP7QWidget@Base 4.96.0
 _ZN17KPropertiesDialogC2ERK5QListI4QUrlEP7QWidget@Base 5.10.0
 _ZN17KPropertiesDialogC2ERK7QStringP7QWidget@Base 4.96.0
 _ZN17KPropertiesDialogC2ERK9KFileItemP7QWidget@Base 4.96.0
 _ZN17KPropertiesDialogD0Ev@Base 4.96.0
 _ZN17KPropertiesDialogD1Ev@Base 4.96.0
 _ZN17KPropertiesDialogD2Ev@Base 4.96.0
 _ZN18KOverlayIconPlugin11qt_metacallEN11QMetaObject4CallEiPPv@Base 5.16.0
 _ZN18KOverlayIconPlugin11qt_metacastEPKc@Base 5.16.0
 _ZN18KOverlayIconPlugin15overlaysChangedERK4QUrlRK11QStringList@Base 5.16.0
 _ZN18KOverlayIconPlugin16staticMetaObjectE@Base 5.16.0
 _ZN18KOverlayIconPluginC1EP7QObject@Base 5.16.0
 _ZN18KOverlayIconPluginC2EP7QObject@Base 5.16.0
 _ZN18KOverlayIconPluginD0Ev@Base 5.16.0
 _ZN18KOverlayIconPluginD1Ev@Base 5.16.0
 _ZN18KOverlayIconPluginD2Ev@Base 5.16.0
 _ZN18KSslCertificateBox11qt_metacallEN11QMetaObject4CallEiPPv@Base 4.96.0
 _ZN18KSslCertificateBox11qt_metacastEPKc@Base 4.96.0
 _ZN18KSslCertificateBox14setCertificateERK15QSslCertificateNS_16CertificatePartyE@Base 4.96.0
 _ZN18KSslCertificateBox16staticMetaObjectE@Base 4.96.0
 _ZN18KSslCertificateBox5clearEv@Base 4.96.0
 _ZN18KSslCertificateBoxC1EP7QWidget@Base 4.96.0
 _ZN18KSslCertificateBoxC2EP7QWidget@Base 4.96.0
 _ZN18KSslCertificateBoxD0Ev@Base 4.96.0
 _ZN18KSslCertificateBoxD1Ev@Base 4.96.0
 _ZN18KSslCertificateBoxD2Ev@Base 4.96.0
 _ZN18KUrlComboRequester11qt_metacallEN11QMetaObject4CallEiPPv@Base 4.96.0
 _ZN18KUrlComboRequester11qt_metacastEPKc@Base 4.96.0
 _ZN18KUrlComboRequester16staticMetaObjectE@Base 4.96.0
 _ZN18KUrlComboRequesterC1EP7QWidget@Base 4.96.0
 _ZN18KUrlComboRequesterC2EP7QWidget@Base 4.96.0
 _ZN18KUrlPixmapProvider12virtual_hookEiPv@Base 4.96.0
 _ZN18KUrlPixmapProvider9pixmapForERK7QStringi@Base 4.96.0
 _ZN18KUrlPixmapProviderC1Ev@Base 4.96.0
 _ZN18KUrlPixmapProviderC2Ev@Base 4.96.0
 _ZN18KUrlPixmapProviderD0Ev@Base 4.96.0
 _ZN18KUrlPixmapProviderD1Ev@Base 4.96.0
 _ZN18KUrlPixmapProviderD2Ev@Base 4.96.0
 _ZN19KDesktopFileActions14executeServiceERK5QListI4QUrlERK14KServiceAction@Base 4.96.0
 _ZN19KDesktopFileActions14runWithStartupERK4QUrlbRK10QByteArray@Base 5.4.0+git20141203.0249+15.04
 _ZN19KDesktopFileActions15builtinServicesERK4QUrl@Base 4.96.0
 _ZN19KDesktopFileActions19userDefinedServicesERK7QStringRK12KDesktopFilebRK5QListI4QUrlE@Base 4.96.0
 _ZN19KDesktopFileActions19userDefinedServicesERK7QStringb@Base 4.96.0
 _ZN19KDesktopFileActions19userDefinedServicesERK8KServicebRK5QListI4QUrlE@Base 4.96.0
 _ZN19KDesktopFileActions3runERK4QUrlb@Base 4.96.0
 _ZN19KUrlRequesterDialog10fileDialogEv@Base 4.96.0
 _ZN19KUrlRequesterDialog11qt_metacallEN11QMetaObject4CallEiPPv@Base 4.96.0
 _ZN19KUrlRequesterDialog11qt_metacastEPKc@Base 4.96.0
 _ZN19KUrlRequesterDialog12urlRequesterEv@Base 4.96.0
 _ZN19KUrlRequesterDialog16staticMetaObjectE@Base 4.96.0
 _ZN19KUrlRequesterDialog6getUrlERK4QUrlP7QWidgetRK7QString@Base 4.96.0
 _ZN19KUrlRequesterDialogC1ERK4QUrlP7QWidget@Base 4.96.0
 _ZN19KUrlRequesterDialogC1ERK4QUrlRK7QStringP7QWidget@Base 4.96.0
 _ZN19KUrlRequesterDialogC2ERK4QUrlP7QWidget@Base 4.96.0
 _ZN19KUrlRequesterDialogC2ERK4QUrlRK7QStringP7QWidget@Base 4.96.0
 _ZN19KUrlRequesterDialogD0Ev@Base 4.96.0
 _ZN19KUrlRequesterDialogD1Ev@Base 4.96.0
 _ZN19KUrlRequesterDialogD2Ev@Base 4.96.0
 _ZN20ThumbSequenceCreator16setSequenceIndexEf@Base 4.96.0
 _ZN20ThumbSequenceCreatorC1Ev@Base 4.96.0
 _ZN20ThumbSequenceCreatorC2Ev@Base 4.96.0
 _ZN20ThumbSequenceCreatorD0Ev@Base 4.96.0
 _ZN20ThumbSequenceCreatorD1Ev@Base 4.96.0
 _ZN20ThumbSequenceCreatorD2Ev@Base 4.96.0
 _ZN23KPropertiesDialogPlugin11qt_metacallEN11QMetaObject4CallEiPPv@Base 4.96.0
 _ZN23KPropertiesDialogPlugin11qt_metacastEPKc@Base 4.96.0
 _ZN23KPropertiesDialogPlugin12applyChangesEv@Base 4.96.0
 _ZN23KPropertiesDialogPlugin13isDesktopFileERK9KFileItem@Base 4.96.0
 _ZN23KPropertiesDialogPlugin16staticMetaObjectE@Base 4.96.0
 _ZN23KPropertiesDialogPlugin7changedEv@Base 4.96.0
 _ZN23KPropertiesDialogPlugin8setDirtyEb@Base 4.96.0
 _ZN23KPropertiesDialogPlugin8setDirtyEv@Base 4.96.0
 _ZN23KPropertiesDialogPluginC1EP17KPropertiesDialog@Base 4.96.0
 _ZN23KPropertiesDialogPluginC2EP17KPropertiesDialog@Base 4.96.0
 _ZN23KPropertiesDialogPluginD0Ev@Base 4.96.0
 _ZN23KPropertiesDialogPluginD1Ev@Base 4.96.0
 _ZN23KPropertiesDialogPluginD2Ev@Base 4.96.0
 _ZN24KUriFilterSearchProvider11setIconNameERK7QString@Base 4.96.0
 _ZN24KUriFilterSearchProvider19setDesktopEntryNameERK7QString@Base 4.96.0
 _ZN24KUriFilterSearchProvider7setKeysERK11QStringList@Base 4.96.0
 _ZN24KUriFilterSearchProvider7setNameERK7QString@Base 4.96.0
 _ZN24KUriFilterSearchProviderC1ERKS_@Base 4.96.0
 _ZN24KUriFilterSearchProviderC1Ev@Base 4.96.0
 _ZN24KUriFilterSearchProviderC2ERKS_@Base 4.96.0
 _ZN24KUriFilterSearchProviderC2Ev@Base 4.96.0
 _ZN24KUriFilterSearchProviderD0Ev@Base 4.96.0
 _ZN24KUriFilterSearchProviderD1Ev@Base 4.96.0
 _ZN24KUriFilterSearchProviderD2Ev@Base 4.96.0
 _ZN24KUriFilterSearchProvideraSERKS_@Base 4.96.0
 _ZN26KBuildSycocaProgressDialog11qt_metacallEN11QMetaObject4CallEiPPv@Base 4.96.0
 _ZN26KBuildSycocaProgressDialog11qt_metacastEPKc@Base 4.96.0
 _ZN26KBuildSycocaProgressDialog14rebuildKSycocaEP7QWidget@Base 4.96.0
 _ZN26KBuildSycocaProgressDialog16staticMetaObjectE@Base 4.96.0
 _ZN26KBuildSycocaProgressDialogC1EP7QWidgetRK7QStringS4_@Base 4.96.0
 _ZN26KBuildSycocaProgressDialogC2EP7QWidgetRK7QStringS4_@Base 4.96.0
 _ZN26KBuildSycocaProgressDialogD0Ev@Base 4.96.0
 _ZN26KBuildSycocaProgressDialogD1Ev@Base 4.96.0
 _ZN26KBuildSycocaProgressDialogD2Ev@Base 4.96.0
 _ZN29KAbstractFileItemActionPlugin11qt_metacallEN11QMetaObject4CallEiPPv@Base 4.96.0
 _ZN29KAbstractFileItemActionPlugin11qt_metacastEPKc@Base 4.96.0
 _ZN29KAbstractFileItemActionPlugin16staticMetaObjectE@Base 4.96.0
 _ZN29KAbstractFileItemActionPluginC1EP7QObject@Base 4.96.0
 _ZN29KAbstractFileItemActionPluginC2EP7QObject@Base 4.96.0
 _ZN29KAbstractFileItemActionPluginD0Ev@Base 4.96.0
 _ZN29KAbstractFileItemActionPluginD1Ev@Base 4.96.0
 _ZN29KAbstractFileItemActionPluginD2Ev@Base 4.96.0
 _ZN3KIO10PreviewJob10gotPreviewERK9KFileItemRK7QPixmap@Base 4.96.0
 _ZN3KIO10PreviewJob10removeItemERK4QUrl@Base 4.96.0
 _ZN3KIO10PreviewJob10slotResultEP4KJob@Base 4.96.0
 _ZN3KIO10PreviewJob11qt_metacallEN11QMetaObject4CallEiPPv@Base 4.96.0
 _ZN3KIO10PreviewJob11qt_metacastEPKc@Base 4.96.0
 _ZN3KIO10PreviewJob12setScaleTypeENS0_9ScaleTypeE@Base 4.96.0
 _ZN3KIO10PreviewJob15maximumFileSizeEv@Base 4.96.0
 _ZN3KIO10PreviewJob16availablePluginsEv@Base 4.96.0
 _ZN3KIO10PreviewJob16setSequenceIndexEi@Base 4.96.0
 _ZN3KIO10PreviewJob16staticMetaObjectE@Base 4.96.0
 _ZN3KIO10PreviewJob18setOverlayIconSizeEi@Base 4.96.0
 _ZN3KIO10PreviewJob18supportedMimeTypesEv@Base 4.96.0
 _ZN3KIO10PreviewJob19setOverlayIconAlphaEi@Base 4.96.0
 _ZN3KIO10PreviewJob20setIgnoreMaximumSizeEb@Base 4.96.0
 _ZN3KIO10PreviewJob6failedERK9KFileItem@Base 4.96.0
 _ZN3KIO10PreviewJobC1ERK13KFileItemListRK5QSizePK11QStringList@Base 4.96.0
 _ZN3KIO10PreviewJobC1ERK13KFileItemListiiiibbPK11QStringList@Base 4.96.0
 _ZN3KIO10PreviewJobC2ERK13KFileItemListRK5QSizePK11QStringList@Base 4.96.0
 _ZN3KIO10PreviewJobC2ERK13KFileItemListiiiibbPK11QStringList@Base 4.96.0
 _ZN3KIO10PreviewJobD0Ev@Base 4.96.0
 _ZN3KIO10PreviewJobD1Ev@Base 4.96.0
 _ZN3KIO10PreviewJobD2Ev@Base 4.96.0
 _ZN3KIO10SkipDialog11qt_metacallEN11QMetaObject4CallEiPPv@Base 4.96.0
 _ZN3KIO10SkipDialog11qt_metacastEPKc@Base 4.96.0
 _ZN3KIO10SkipDialog11skipPressedEv@Base 4.96.0
 _ZN3KIO10SkipDialog12retryPressedEv@Base 4.96.0
 _ZN3KIO10SkipDialog13cancelPressedEv@Base 4.96.0
 _ZN3KIO10SkipDialog15autoSkipPressedEv@Base 4.96.0
 _ZN3KIO10SkipDialog16staticMetaObjectE@Base 4.96.0
 _ZN3KIO10SkipDialog6resultEPS0_i@Base 4.96.0
 _ZN3KIO10SkipDialogC1EP7QWidget6QFlagsINS_17SkipDialog_OptionEERK7QString@Base 4.96.0
 _ZN3KIO10SkipDialogC2EP7QWidget6QFlagsINS_17SkipDialog_OptionEERK7QString@Base 4.96.0
 _ZN3KIO10SkipDialogD0Ev@Base 4.96.0
 _ZN3KIO10SkipDialogD1Ev@Base 4.96.0
 _ZN3KIO10SkipDialogD2Ev@Base 4.96.0
 _ZN3KIO11ImageFilter10shadowBlurER6QImagefRK6QColor@Base 4.96.0
 _ZN3KIO11Integration21sslConfigFromMetaDataERKNS_8MetaDataER17QSslConfiguration@Base 4.96.0
 _ZN3KIO11Integration9CookieJar11qt_metacallEN11QMetaObject4CallEiPPv@Base 4.96.0
 _ZN3KIO11Integration9CookieJar11qt_metacastEPKc@Base 4.96.0
 _ZN3KIO11Integration9CookieJar11setWindowIdEy@Base 4.96.0
 _ZN3KIO11Integration9CookieJar16staticMetaObjectE@Base 4.96.0
 _ZN3KIO11Integration9CookieJar17setCookiesFromUrlERK5QListI14QNetworkCookieERK4QUrl@Base 4.96.0
 _ZN3KIO11Integration9CookieJar20reparseConfigurationEv@Base 4.96.0
 _ZN3KIO11Integration9CookieJar23setDisableCookieStorageEb@Base 4.96.0
 _ZN3KIO11Integration9CookieJarC1EP7QObject@Base 4.96.0
 _ZN3KIO11Integration9CookieJarC2EP7QObject@Base 4.96.0
 _ZN3KIO11Integration9CookieJarD0Ev@Base 4.96.0
 _ZN3KIO11Integration9CookieJarD1Ev@Base 4.96.0
 _ZN3KIO11Integration9CookieJarD2Ev@Base 4.96.0
 _ZN3KIO11filePreviewERK13KFileItemListRK5QSizePK11QStringList@Base 4.96.0
 _ZN3KIO11filePreviewERK13KFileItemListiiiibbPK11QStringList@Base 4.96.0
 _ZN3KIO11filePreviewERK5QListI4QUrlEiiiibbPK11QStringList@Base 4.96.0
 _ZN3KIO12RenameDialog10newDestUrlEv@Base 4.96.0
 _ZN3KIO12RenameDialog11createLabelEP7QWidgetRK7QStringb@Base 4.96.0
 _ZN3KIO12RenameDialog11qt_metacallEN11QMetaObject4CallEiPPv@Base 4.96.0
 _ZN3KIO12RenameDialog11qt_metacastEPKc@Base 4.96.0
 _ZN3KIO12RenameDialog11showSrcIconERK9KFileItem@Base 4.96.0
 _ZN3KIO12RenameDialog11skipPressedEv@Base 4.96.0
 _ZN3KIO12RenameDialog11suggestNameERK4QUrlRK7QString@Base 4.96.0
 _ZN3KIO12RenameDialog12resizePanelsEv@Base 4.96.0
 _ZN3KIO12RenameDialog12showDestIconERK9KFileItem@Base 4.96.0
 _ZN3KIO12RenameDialog13cancelPressedEv@Base 4.96.0
 _ZN3KIO12RenameDialog13renamePressedEv@Base 4.96.0
 _ZN3KIO12RenameDialog13resumePressedEv@Base 4.96.0
 _ZN3KIO12RenameDialog14showSrcPreviewERK9KFileItemRK7QPixmap@Base 4.96.0
 _ZN3KIO12RenameDialog15applyAllPressedEv@Base 4.96.0
 _ZN3KIO12RenameDialog15autoSkipPressedEv@Base 4.96.0
 _ZN3KIO12RenameDialog15showDestPreviewERK9KFileItemRK7QPixmap@Base 4.96.0
 _ZN3KIO12RenameDialog16overwritePressedEv@Base 4.96.0
 _ZN3KIO12RenameDialog16resumeAllPressedEv@Base 4.96.0
 _ZN3KIO12RenameDialog16staticMetaObjectE@Base 4.96.0
 _ZN3KIO12RenameDialog18enableRenameButtonERK7QString@Base 4.96.0
 _ZN3KIO12RenameDialog19createSqueezedLabelEP7QWidgetRK7QString@Base 4.96.0
 _ZN3KIO12RenameDialog19overwriteAllPressedEv@Base 4.96.0
 _ZN3KIO12RenameDialog21createContainerLayoutEP7QWidgetRK9KFileItemP6QLabel@Base 4.96.0
 _ZN3KIO12RenameDialog21suggestNewNamePressedEv@Base 4.96.0
 _ZN3KIO12RenameDialogC1EP7QWidgetRK7QStringRK4QUrlS8_6QFlagsINS_19RenameDialog_OptionEEyyRK9QDateTimeSE_SE_SE_@Base 4.96.0
 _ZN3KIO12RenameDialogC2EP7QWidgetRK7QStringRK4QUrlS8_6QFlagsINS_19RenameDialog_OptionEEyyRK9QDateTimeSE_SE_SE_@Base 4.96.0
 _ZN3KIO12RenameDialogD0Ev@Base 4.96.0
 _ZN3KIO12RenameDialogD1Ev@Base 4.96.0
 _ZN3KIO12RenameDialogD2Ev@Base 4.96.0
 _ZN3KIO12pixmapForUrlERK4QUrliN11KIconLoader5GroupEiiP7QString@Base 4.96.0
 _ZN3KIO13AccessManager11qt_metacallEN11QMetaObject4CallEiPPv@Base 4.96.0
 _ZN3KIO13AccessManager11qt_metacastEPKc@Base 4.96.0
 _ZN3KIO13AccessManager13createRequestEN21QNetworkAccessManager9OperationERK15QNetworkRequestP9QIODevice@Base 4.96.0
 _ZN3KIO13AccessManager14putReplyOnHoldEP13QNetworkReply@Base 4.96.0
 _ZN3KIO13AccessManager15requestMetaDataEv@Base 4.96.0
 _ZN3KIO13AccessManager15sessionMetaDataEv@Base 4.96.0
 _ZN3KIO13AccessManager16staticMetaObjectE@Base 4.96.0
 _ZN3KIO13AccessManager20AccessManagerPrivate21setMetaDataForRequestE15QNetworkRequestRNS_8MetaDataE@Base 4.96.0
 _ZN3KIO13AccessManager20setCookieJarWindowIdEy@Base 4.96.0
 _ZN3KIO13AccessManager25setExternalContentAllowedEb@Base 4.96.0
 _ZN3KIO13AccessManager32setEmitReadyReadOnMetaDataChangeEb@Base 4.96.0
 _ZN3KIO13AccessManager9setWindowEP7QWidget@Base 4.96.0
 _ZN3KIO13AccessManagerC1EP7QObject@Base 4.96.0
 _ZN3KIO13AccessManagerC2EP7QObject@Base 4.96.0
 _ZN3KIO13AccessManagerD0Ev@Base 4.96.0
 _ZN3KIO13AccessManagerD1Ev@Base 4.96.0
 _ZN3KIO13AccessManagerD2Ev@Base 4.96.0
 _ZN3KIO13JobUiDelegate11qt_metacallEN11QMetaObject4CallEiPPv@Base 4.96.0
 _ZN3KIO13JobUiDelegate11qt_metacastEPKc@Base 4.96.0
 _ZN3KIO13JobUiDelegate13askFileRenameEP4KJobRK7QStringRK4QUrlS8_6QFlagsINS_19RenameDialog_OptionEERS3_yyRK9QDateTimeSF_SF_SF_@Base 4.96.0
 _ZN3KIO13JobUiDelegate16staticMetaObjectE@Base 4.96.0
 _ZN3KIO13JobUiDelegate16unregisterWindowEP7QWidget@Base 5.2.0
 _ZN3KIO13JobUiDelegate17requestMessageBoxENS_22JobUiDelegateExtension14MessageBoxTypeERK7QStringS5_S5_S5_S5_S5_S5_RKNS_8MetaDataE@Base 4.96.0
 _ZN3KIO13JobUiDelegate20updateUrlInClipboardERK4QUrlS3_@Base 4.96.0
 _ZN3KIO13JobUiDelegate21askDeleteConfirmationERK5QListI4QUrlENS_22JobUiDelegateExtension12DeletionTypeENS6_16ConfirmationTypeE@Base 4.96.0
 _ZN3KIO13JobUiDelegate22createClipboardUpdaterEPNS_3JobENS_22JobUiDelegateExtension20ClipboardUpdaterModeE@Base 4.96.0
 _ZN3KIO13JobUiDelegate7askSkipEP4KJob6QFlagsINS_17SkipDialog_OptionEERK7QString@Base 4.96.0
 _ZN3KIO13JobUiDelegate9setWindowEP7QWidget@Base 4.96.0
 _ZN3KIO13JobUiDelegateC1Ev@Base 4.96.0
 _ZN3KIO13JobUiDelegateC2Ev@Base 4.96.0
 _ZN3KIO13JobUiDelegateD0Ev@Base 4.96.0
 _ZN3KIO13JobUiDelegateD1Ev@Base 4.96.0
 _ZN3KIO13JobUiDelegateD2Ev@Base 4.96.0
 _ZN3KIO13pasteMimeDataEPK9QMimeDataRK4QUrlRK7QStringP7QWidget@Base 4.96.0
 _ZN3KIO14pasteClipboardERK4QUrlP7QWidgetb@Base 4.96.0
 _ZN3KIO15FileUndoManager11UiInterface12virtual_hookEiPv@Base 4.96.0
 _ZN3KIO15FileUndoManager11UiInterface15confirmDeletionERK5QListI4QUrlE@Base 4.96.0
 _ZN3KIO15FileUndoManager11UiInterface15setParentWidgetEP7QWidget@Base 4.96.0
 _ZN3KIO15FileUndoManager11UiInterface19setShowProgressInfoEb@Base 4.96.0
 _ZN3KIO15FileUndoManager11UiInterface21copiedFileWasModifiedERK4QUrlS4_RK9QDateTimeS7_@Base 4.96.0
 _ZN3KIO15FileUndoManager11UiInterface8jobErrorEPNS_3JobE@Base 4.96.0
 _ZN3KIO15FileUndoManager11UiInterfaceC1Ev@Base 4.96.0
 _ZN3KIO15FileUndoManager11UiInterfaceC2Ev@Base 4.96.0
 _ZN3KIO15FileUndoManager11UiInterfaceD0Ev@Base 4.96.0
 _ZN3KIO15FileUndoManager11UiInterfaceD1Ev@Base 4.96.0
 _ZN3KIO15FileUndoManager11UiInterfaceD2Ev@Base 4.96.0
 _ZN3KIO15FileUndoManager11qt_metacallEN11QMetaObject4CallEiPPv@Base 4.96.0
 _ZN3KIO15FileUndoManager11qt_metacastEPKc@Base 4.96.0
 _ZN3KIO15FileUndoManager13recordCopyJobEPNS_7CopyJobE@Base 4.96.0
 _ZN3KIO15FileUndoManager13undoAvailableEb@Base 4.96.0
 _ZN3KIO15FileUndoManager14setUiInterfaceEPNS0_11UiInterfaceE@Base 4.96.0
 _ZN3KIO15FileUndoManager15undoJobFinishedEv@Base 4.96.0
 _ZN3KIO15FileUndoManager15undoTextChangedERK7QString@Base 4.96.0
 _ZN3KIO15FileUndoManager16staticMetaObjectE@Base 4.96.0
 _ZN3KIO15FileUndoManager19jobRecordingStartedENS0_11CommandTypeE@Base 4.96.0
 _ZN3KIO15FileUndoManager20jobRecordingFinishedENS0_11CommandTypeE@Base 4.96.0
 _ZN3KIO15FileUndoManager22newCommandSerialNumberEv@Base 4.96.0
 _ZN3KIO15FileUndoManager4selfEv@Base 4.96.0
 _ZN3KIO15FileUndoManager4undoEv@Base 4.96.0
 _ZN3KIO15FileUndoManager9recordJobENS0_11CommandTypeERK5QListI4QUrlERKS3_PNS_3JobE@Base 4.96.0
 _ZN3KIO15FileUndoManagerC1Ev@Base 4.96.0
 _ZN3KIO15FileUndoManagerC2Ev@Base 4.96.0
 _ZN3KIO15FileUndoManagerD0Ev@Base 4.96.0
 _ZN3KIO15FileUndoManagerD1Ev@Base 4.96.0
 _ZN3KIO15FileUndoManagerD2Ev@Base 4.96.0
 _ZN3KIO15pasteActionTextEPK9QMimeDataPbRK9KFileItem@Base 5.3.0+git20141027.0924
 _ZN3KIO15pasteActionTextEv@Base 4.96.0
 _ZN3KIO16canPasteMimeDataEPK9QMimeData@Base 4.96.0
 _ZN3KIO18DndPopupMenuPlugin11qt_metacallEN11QMetaObject4CallEiPPv@Base 5.5.0+git20141226.0011+15.04
 _ZN3KIO18DndPopupMenuPlugin11qt_metacastEPKc@Base 5.5.0+git20141226.0011+15.04
 _ZN3KIO18DndPopupMenuPlugin16staticMetaObjectE@Base 5.5.0+git20141226.0011+15.04
 _ZN3KIO18DndPopupMenuPluginC1EP7QObject@Base 5.5.0+git20141226.0011+15.04
 _ZN3KIO18DndPopupMenuPluginC2EP7QObject@Base 5.5.0+git20141226.0011+15.04
 _ZN3KIO18DndPopupMenuPluginD0Ev@Base 5.5.0+git20141226.0011+15.04
 _ZN3KIO18DndPopupMenuPluginD1Ev@Base 5.5.0+git20141226.0011+15.04
 _ZN3KIO18DndPopupMenuPluginD2Ev@Base 5.5.0+git20141226.0011+15.04
 _ZN3KIO18isClipboardDataCutEPK9QMimeData@Base 5.2.0
 _ZN3KIO19setClipboardDataCutEP9QMimeDatab@Base 5.2.0
 _ZN3KIO31KUriFilterSearchProviderActions11qt_metacallEN11QMetaObject4CallEiPPv@Base 5.16.0
 _ZN3KIO31KUriFilterSearchProviderActions11qt_metacastEPKc@Base 5.16.0
 _ZN3KIO31KUriFilterSearchProviderActions15setSelectedTextERK7QString@Base 5.16.0
 _ZN3KIO31KUriFilterSearchProviderActions16staticMetaObjectE@Base 5.16.0
 _ZN3KIO31KUriFilterSearchProviderActions21addWebShortcutsToMenuEP5QMenu@Base 5.16.0
 _ZN3KIO31KUriFilterSearchProviderActions25slotConfigureWebShortcutsEv@Base 5.16.0
 _ZN3KIO31KUriFilterSearchProviderActions27slotHandleWebShortcutActionEP7QAction@Base 5.16.0
 _ZN3KIO31KUriFilterSearchProviderActionsC1EP7QObject@Base 5.16.0
 _ZN3KIO31KUriFilterSearchProviderActionsC2EP7QObject@Base 5.16.0
 _ZN3KIO31KUriFilterSearchProviderActionsD0Ev@Base 5.16.0
 _ZN3KIO31KUriFilterSearchProviderActionsD1Ev@Base 5.16.0
 _ZN3KIO31KUriFilterSearchProviderActionsD2Ev@Base 5.16.0
 _ZN3KIO4dropEPK10QDropEventRK4QUrl6QFlagsINS_7JobFlagEE@Base 5.5.0+git20141226.0011+15.04
 _ZN3KIO5SslUi18askIgnoreSslErrorsEPK10KTcpSocketNS0_12RulesStorageE@Base 4.96.0
 _ZN3KIO5SslUi18askIgnoreSslErrorsERK15KSslErrorUiDataNS0_12RulesStorageE@Base 4.96.0
 _ZN3KIO5pasteEPK9QMimeDataRK4QUrl6QFlagsINS_7JobFlagEE@Base 5.3.0+git20141101.0339
 _ZN3KIO7DropJob10slotResultEP4KJob@Base 5.5.0+git20141226.0011+15.04
 _ZN3KIO7DropJob11itemCreatedERK4QUrl@Base 5.5.0+git20141226.0011+15.04
 _ZN3KIO7DropJob11qt_metacallEN11QMetaObject4CallEiPPv@Base 5.5.0+git20141226.0011+15.04
 _ZN3KIO7DropJob11qt_metacastEPKc@Base 5.5.0+git20141226.0011+15.04
 _ZN3KIO7DropJob16staticMetaObjectE@Base 5.5.0+git20141226.0011+15.04
 _ZN3KIO7DropJob20popupMenuAboutToShowERK23KFileItemListProperties@Base 5.5.0+git20141226.0011+15.04
 _ZN3KIO7DropJob21setApplicationActionsERK5QListIP7QActionE@Base 5.5.0+git20141226.0011+15.04
 _ZN3KIO7DropJobC1ERNS_14DropJobPrivateE@Base 5.5.0+git20141226.0011+15.04
 _ZN3KIO7DropJobC2ERNS_14DropJobPrivateE@Base 5.5.0+git20141226.0011+15.04
 _ZN3KIO7DropJobD0Ev@Base 5.5.0+git20141226.0011+15.04
 _ZN3KIO7DropJobD1Ev@Base 5.5.0+git20141226.0011+15.04
 _ZN3KIO7DropJobD2Ev@Base 5.5.0+git20141226.0011+15.04
 _ZN3KIO8PasteJob10slotResultEP4KJob@Base 5.3.0+git20141101.0339
 _ZN3KIO8PasteJob11itemCreatedERK4QUrl@Base 5.3.0+git20141101.0339
 _ZN3KIO8PasteJob11qt_metacallEN11QMetaObject4CallEiPPv@Base 5.3.0+git20141101.0339
 _ZN3KIO8PasteJob11qt_metacastEPKc@Base 5.3.0+git20141101.0339
 _ZN3KIO8PasteJob16staticMetaObjectE@Base 5.3.0+git20141101.0339
 _ZN3KIO8PasteJobC1ERNS_15PasteJobPrivateE@Base 5.3.0+git20141101.0339
 _ZN3KIO8PasteJobC2ERNS_15PasteJobPrivateE@Base 5.3.0+git20141101.0339
 _ZN3KIO8PasteJobD0Ev@Base 5.3.0+git20141101.0339
 _ZN3KIO8PasteJobD1Ev@Base 5.3.0+git20141101.0339
 _ZN3KIO8PasteJobD2Ev@Base 5.3.0+git20141101.0339
 _ZN4KRun10binaryNameERK7QStringb@Base 4.96.0
 _ZN4KRun10runCommandERK7QStringP7QWidgetS2_@Base 4.96.0
 _ZN4KRun10runCommandERK7QStringS2_S2_P7QWidgetRK10QByteArray@Base 4.96.0
 _ZN4KRun10runCommandERK7QStringS2_S2_P7QWidgetRK10QByteArrayS2_@Base 4.96.0
 _ZN4KRun10runServiceERK8KServiceRK5QListI4QUrlEP7QWidgetbRK7QStringRK10QByteArray@Base 5.5.0+git20150101.0309+15.04
 _ZN4KRun10shellQuoteER7QString@Base 4.96.0
 _ZN4KRun11KRunPrivate10showPromptEv@Base 5.3.0+git20141029.0314
 _ZN4KRun11KRunPrivate10startTimerEv@Base 4.96.0
 _ZN4KRun11KRunPrivate13runExecutableERK7QString@Base 4.96.0
 _ZN4KRun11KRunPrivate14isPromptNeededEv@Base 5.3.0+git20141029.0314
 _ZN4KRun11KRunPrivate16onDialogFinishedEib@Base 5.3.0+git20141029.0314
 _ZN4KRun11KRunPrivate4initERK4QUrlP7QWidgetbRK10QByteArray@Base 4.96.0
 _ZN4KRun11KRunPrivateC1EPS_@Base 4.96.0
 _ZN4KRun11KRunPrivateC2EPS_@Base 4.96.0
 _ZN4KRun11handleErrorEP4KJob@Base 4.96.0
 _ZN4KRun11qt_metacallEN11QMetaObject4CallEiPPv@Base 4.96.0
 _ZN4KRun11qt_metacastEPKc@Base 4.96.0
 _ZN4KRun11setFinishedEb@Base 4.96.0
 _ZN4KRun11slotTimeoutEv@Base 4.96.0
 _ZN4KRun12isExecutableERK7QString@Base 4.96.0
 _ZN4KRun13foundMimeTypeERK7QString@Base 4.96.0
 _ZN4KRun13setAutoDeleteEb@Base 4.96.0
 _ZN4KRun13setDoScanFileEb@Base 4.96.0
 _ZN4KRun13setIsDirecoryEb@Base 4.96.0
 _ZN4KRun14slotStatResultEP4KJob@Base 4.96.0
 _ZN4KRun15handleInitErrorEiRK7QString@Base 4.96.0
 _ZN4KRun15setProgressInfoEb@Base 4.96.0
 _ZN4KRun16isExecutableFileERK4QUrlRK7QString@Base 4.96.0
 _ZN4KRun16slotScanFinishedEP4KJob@Base 4.96.0
 _ZN4KRun16slotScanMimeTypeEPN3KIO3JobERK7QString@Base 4.96.0
 _ZN4KRun16staticMetaObjectE@Base 4.96.0
 _ZN4KRun17setRunExecutablesEb@Base 4.96.0
 _ZN4KRun18checkStartupNotifyERK7QStringPK8KServicePbP10QByteArray@Base 4.96.0
 _ZN4KRun18mimeTypeDeterminedERK7QString@Base 4.96.0
 _ZN4KRun18processDesktopExecERK8KServiceRK5QListI4QUrlEbRK7QString@Base 4.96.0
 _ZN4KRun19setPreferredServiceERK7QString@Base 4.96.0
 _ZN4KRun20setSuggestedFileNameERK7QString@Base 4.96.0
 _ZN4KRun21displayOpenWithDialogERK5QListI4QUrlEP7QWidgetbRK7QStringRK10QByteArray@Base 4.96.0
 _ZN4KRun23setInitializeNextActionEb@Base 4.96.0
 _ZN4KRun24setEnableExternalBrowserEb@Base 4.96.0
 _ZN4KRun28setShowScriptExecutionPromptEb@Base 5.3.0+git20141031.0315
 _ZN4KRun3jobEv@Base 4.96.0
 _ZN4KRun3runERK7QStringRK5QListI4QUrlEP7QWidgetS2_S2_RK10QByteArray@Base 4.96.0
 _ZN4KRun3runERK8KServiceRK5QListI4QUrlEP7QWidgetbRK7QStringRK10QByteArray@Base 4.96.0
 _ZN4KRun4initEv@Base 4.96.0
 _ZN4KRun5abortEv@Base 4.96.0
 _ZN4KRun5errorEv@Base 4.96.0
 _ZN4KRun5timerEv@Base 4.96.0
 _ZN4KRun6runUrlERK4QUrlRK7QStringP7QWidgetbbS5_RK10QByteArray@Base 4.96.0
 _ZN4KRun6setJobEPN3KIO3JobE@Base 4.96.0
 _ZN4KRun6setUrlERK4QUrl@Base 4.96.0
 _ZN4KRun7killJobEv@Base 4.96.0
 _ZN4KRun8finishedEv@Base 4.96.0
 _ZN4KRun8scanFileEv@Base 4.96.0
 _ZN4KRun8setErrorEb@Base 4.96.0
 _ZN4KRunC1ERK4QUrlP7QWidgetbRK10QByteArray@Base 4.96.0
 _ZN4KRunC2ERK4QUrlP7QWidgetbRK10QByteArray@Base 4.96.0
 _ZN4KRunD0Ev@Base 4.96.0
 _ZN4KRunD1Ev@Base 4.96.0
 _ZN4KRunD2Ev@Base 4.96.0
 _ZN5KFile10isTreeViewERKNS_8FileViewE@Base 4.96.0
 _ZN5KFile12isDetailViewERKNS_8FileViewE@Base 4.96.0
 _ZN5KFile12isSimpleViewERKNS_8FileViewE@Base 4.96.0
 _ZN5KFile12isSortByDateERK6QFlagsIN4QDir8SortFlagEE@Base 4.96.0
 _ZN5KFile12isSortByNameERK6QFlagsIN4QDir8SortFlagEE@Base 4.96.0
 _ZN5KFile12isSortBySizeERK6QFlagsIN4QDir8SortFlagEE@Base 4.96.0
 _ZN5KFile12isSortByTypeERK6QFlagsIN4QDir8SortFlagEE@Base 4.96.0
 _ZN5KFile13isDefaultViewERKNS_8FileViewE@Base 4.96.0
 _ZN5KFile13isPreviewInfoERKNS_8FileViewE@Base 4.96.0
 _ZN5KFile14isSeparateDirsERKNS_8FileViewE@Base 4.96.0
 _ZN5KFile15isSortDirsFirstERK6QFlagsIN4QDir8SortFlagEE@Base 4.96.0
 _ZN5KFile16isDetailTreeViewERKNS_8FileViewE@Base 4.96.0
 _ZN5KFile16staticMetaObjectE@Base 4.96.0
 _ZN5KFile17isPreviewContentsERKNS_8FileViewE@Base 4.96.0
 _ZN5KFile21isSortCaseInsensitiveERK6QFlagsIN4QDir8SortFlagEE@Base 4.96.0
 _ZN9KDirModel10insertRowsEiiRK11QModelIndex@Base 4.96.0
 _ZN9KDirModel10removeRowsEiiRK11QModelIndex@Base 4.96.0
 _ZN9KDirModel11expandToUrlERK4QUrl@Base 4.96.0
 _ZN9KDirModel11itemChangedERK11QModelIndex@Base 4.96.0
 _ZN9KDirModel11qt_metacallEN11QMetaObject4CallEiPPv@Base 4.96.0
 _ZN9KDirModel11qt_metacastEPKc@Base 4.96.0
 _ZN9KDirModel12dropMimeDataEPK9QMimeDataN2Qt10DropActionEiiRK11QModelIndex@Base 4.96.0
 _ZN9KDirModel12setDirListerEP10KDirLister@Base 4.96.0
 _ZN9KDirModel13insertColumnsEiiRK11QModelIndex@Base 4.96.0
 _ZN9KDirModel13removeColumnsEiiRK11QModelIndex@Base 4.96.0
 _ZN9KDirModel15setDropsAllowedE6QFlagsINS_16DropsAllowedFlagEE@Base 4.96.0
 _ZN9KDirModel16needSequenceIconERK11QModelIndexi@Base 4.96.0
 _ZN9KDirModel16staticMetaObjectE@Base 4.96.0
 _ZN9KDirModel17simplifiedUrlListERK5QListI4QUrlE@Base 4.96.0
 _ZN9KDirModel19requestSequenceIconERK11QModelIndexi@Base 4.96.0
 _ZN9KDirModel22setJobTransfersVisibleEb@Base 4.96.0
 _ZN9KDirModel4sortEiN2Qt9SortOrderE@Base 4.96.0
 _ZN9KDirModel6expandERK11QModelIndex@Base 4.96.0
 _ZN9KDirModel7setDataERK11QModelIndexRK8QVarianti@Base 4.96.0
 _ZN9KDirModel9fetchMoreERK11QModelIndex@Base 4.96.0
 _ZN9KDirModelC1EP7QObject@Base 4.96.0
 _ZN9KDirModelC2EP7QObject@Base 4.96.0
 _ZN9KDirModelD0Ev@Base 4.96.0
 _ZN9KDirModelD1Ev@Base 4.96.0
 _ZN9KDirModelD2Ev@Base 4.96.0
 _ZNK10KAutoMount10metaObjectEv@Base 4.96.0
 _ZNK10KDirLister10metaObjectEv@Base 4.96.0
 _ZNK10KDirLister24autoErrorHandlingEnabledEv@Base 4.96.0
 _ZNK10KUriFilter11pluginNamesEv@Base 4.96.0
 _ZNK12KAutoUnmount10metaObjectEv@Base 4.96.0
 _ZNK12KConfigGroup9readEntryIbEET_PKcRKS1_@Base 4.100.0
 _ZNK12KConfigGroup9readEntryIiEET_PKcRKS1_@Base 4.100.0
 _ZNK12KConfigGroup9readEntryIxEET_PKcRKS1_@Base 4.100.0
 _ZNK12KUrlComboBox10metaObjectEv@Base 4.96.0
 _ZNK12KUrlComboBox4urlsEv@Base 4.96.0
 _ZNK12KUrlComboBox8maxItemsEv@Base 4.96.0
 _ZNK12ThumbCreator5flagsEv@Base 4.96.0
 _ZNK13KUrlRequester10fileDialogEv@Base 4.96.0
 _ZNK13KUrlRequester10metaObjectEv@Base 4.96.0
 _ZNK13KUrlRequester12clickMessageEv@Base 4.96.0
 _ZNK13KUrlRequester15placeholderTextEv@Base 4.96.0
 _ZNK13KUrlRequester16completionObjectEv@Base 4.96.0
 _ZNK13KUrlRequester18fileDialogModalityEv@Base 4.96.0
 _ZNK13KUrlRequester3urlEv@Base 4.96.0
 _ZNK13KUrlRequester4modeEv@Base 4.96.0
 _ZNK13KUrlRequester4textEv@Base 4.96.0
 _ZNK13KUrlRequester6buttonEv@Base 4.96.0
 _ZNK13KUrlRequester6filterEv@Base 4.96.0
 _ZNK13KUrlRequester8comboBoxEv@Base 4.96.0
 _ZNK13KUrlRequester8lineEditEv@Base 4.96.0
 _ZNK13KUrlRequester8startDirEv@Base 4.96.0
 _ZNK14KSslInfoDialog10metaObjectEv@Base 4.96.0
 _ZNK14KUriFilterData10searchTermEv@Base 4.96.0
 _ZNK14KUriFilterData11typedStringEv@Base 4.96.0
 _ZNK14KUriFilterData12absolutePathEv@Base 4.96.0
 _ZNK14KUriFilterData14argsAndOptionsEv@Base 4.96.0
 _ZNK14KUriFilterData14searchProviderEv@Base 4.96.0
 _ZNK14KUriFilterData15hasAbsolutePathEv@Base 4.96.0
 _ZNK14KUriFilterData16defaultUrlSchemeEv@Base 4.96.0
 _ZNK14KUriFilterData17hasArgsAndOptionsEv@Base 4.96.0
 _ZNK14KUriFilterData19checkForExecutablesEv@Base 4.96.0
 _ZNK14KUriFilterData19searchTermSeparatorEv@Base 4.96.0
 _ZNK14KUriFilterData22queryForSearchProviderERK7QString@Base 4.96.0
 _ZNK14KUriFilterData22searchFilteringOptionsEv@Base 4.96.0
 _ZNK14KUriFilterData24alternateSearchProvidersEv@Base 4.96.0
 _ZNK14KUriFilterData24preferredSearchProvidersEv@Base 4.96.0
 _ZNK14KUriFilterData27allQueriesForSearchProviderERK7QString@Base 4.96.0
 _ZNK14KUriFilterData30alternateDefaultSearchProviderEv@Base 4.96.0
 _ZNK14KUriFilterData31queryForPreferredSearchProviderERK7QString@Base 4.96.0
 _ZNK14KUriFilterData34iconNameForPreferredSearchProviderERK7QString@Base 4.96.0
 _ZNK14KUriFilterData3uriEv@Base 4.96.0
 _ZNK14KUriFilterData7uriTypeEv@Base 4.96.0
 _ZNK14KUriFilterData8errorMsgEv@Base 4.96.0
 _ZNK14KUrlCompletion10metaObjectEv@Base 4.96.0
 _ZNK14KUrlCompletion10replaceEnvEv@Base 4.96.0
 _ZNK14KUrlCompletion11replaceHomeEv@Base 4.96.0
 _ZNK14KUrlCompletion12replacedPathERK7QString@Base 4.96.0
 _ZNK14KUrlCompletion16postProcessMatchEP7QString@Base 4.96.0
 _ZNK14KUrlCompletion18postProcessMatchesEP11QStringList@Base 4.96.0
 _ZNK14KUrlCompletion18postProcessMatchesEP18KCompletionMatches@Base 4.96.0
 _ZNK14KUrlCompletion3dirEv@Base 4.96.0
 _ZNK14KUrlCompletion4modeEv@Base 4.96.0
 _ZNK14KUrlCompletion9isRunningEv@Base 4.96.0
 _ZNK15KOpenWithDialog10metaObjectEv@Base 4.96.0
 _ZNK15KOpenWithDialog4textEv@Base 4.96.0
 _ZNK15KOpenWithDialog7serviceEv@Base 4.96.0
 _ZNK16KFileItemActions10metaObjectEv@Base 4.96.0
 _ZNK16KShellCompletion10metaObjectEv@Base 4.96.0
 _ZNK16KShellCompletion16postProcessMatchEP7QString@Base 4.96.0
 _ZNK16KShellCompletion18postProcessMatchesEP11QStringList@Base 4.96.0
 _ZNK16KShellCompletion18postProcessMatchesEP18KCompletionMatches@Base 4.96.0
 _ZNK16KUriFilterPlugin10configNameEv@Base 4.96.0
 _ZNK16KUriFilterPlugin10metaObjectEv@Base 4.96.0
 _ZNK16KUriFilterPlugin10setUriTypeER14KUriFilterDataNS0_8UriTypesE@Base 4.96.0
 _ZNK16KUriFilterPlugin11iconNameForERK4QUrlN14KUriFilterData8UriTypesE@Base 4.96.0
 _ZNK16KUriFilterPlugin11resolveNameERK7QStringm@Base 4.96.0
 _ZNK16KUriFilterPlugin11setErrorMsgER14KUriFilterDataRK7QString@Base 4.96.0
 _ZNK16KUriFilterPlugin12configModuleEP7QWidgetPKc@Base 4.96.0
 _ZNK16KUriFilterPlugin12setArgumentsER14KUriFilterDataRK7QString@Base 4.96.0
 _ZNK16KUriFilterPlugin14setFilteredUriER14KUriFilterDataRK4QUrl@Base 4.96.0
 _ZNK16KUriFilterPlugin17setSearchProviderER14KUriFilterDataRK7QStringS4_RK5QChar@Base 4.96.0
 _ZNK16KUriFilterPlugin18setSearchProvidersER14KUriFilterDataRK5QListIP24KUriFilterSearchProviderE@Base 4.96.0
 _ZNK17KFileItemDelegate10metaObjectEv@Base 4.96.0
 _ZNK17KFileItemDelegate10shadowBlurEv@Base 4.96.0
 _ZNK17KFileItemDelegate11maximumSizeEv@Base 4.96.0
 _ZNK17KFileItemDelegate11shadowColorEv@Base 4.96.0
 _ZNK17KFileItemDelegate12createEditorEP7QWidgetRK20QStyleOptionViewItemRK11QModelIndex@Base 4.96.0
 _ZNK17KFileItemDelegate12setModelDataEP7QWidgetP18QAbstractItemModelRK11QModelIndex@Base 4.96.0
 _ZNK17KFileItemDelegate12shadowOffsetEv@Base 4.96.0
 _ZNK17KFileItemDelegate13setEditorDataEP7QWidgetRK11QModelIndex@Base 4.96.0
 _ZNK17KFileItemDelegate15showInformationEv@Base 4.96.0
 _ZNK17KFileItemDelegate19jobTransfersVisibleEv@Base 4.96.0
 _ZNK17KFileItemDelegate20updateEditorGeometryEP7QWidgetRK20QStyleOptionViewItemRK11QModelIndex@Base 4.96.0
 _ZNK17KFileItemDelegate21showToolTipWhenElidedEv@Base 4.96.0
 _ZNK17KFileItemDelegate5paintEP8QPainterRK20QStyleOptionViewItemRK11QModelIndex@Base 4.96.0
 _ZNK17KFileItemDelegate7Private10decorationERK20QStyleOptionViewItemRK11QModelIndex@Base 4.96.0
 _ZNK17KFileItemDelegate7Private10elidedTextER11QTextLayoutRK20QStyleOptionViewItemRK5QSize@Base 4.96.0
 _ZNK17KFileItemDelegate7Private10isListViewERK20QStyleOptionViewItem@Base 4.96.0
 _ZNK17KFileItemDelegate7Private10layoutTextER11QTextLayoutRK20QStyleOptionViewItemRK7QStringRK5QSize@Base 4.96.0
 _ZNK17KFileItemDelegate7Private10layoutTextER11QTextLayoutRK7QStringi@Base 4.96.0
 _ZNK17KFileItemDelegate7Private10transitionERK7QPixmapS3_d@Base 4.96.0
 _ZNK17KFileItemDelegate7Private11informationERK20QStyleOptionViewItemRK11QModelIndexRK9KFileItem@Base 4.96.0
 _ZNK17KFileItemDelegate7Private12iconPositionERK20QStyleOptionViewItem@Base 4.96.0
 _ZNK17KFileItemDelegate7Private13drawFocusRectEP8QPainterRK20QStyleOptionViewItemRK5QRect@Base 4.96.0
 _ZNK17KFileItemDelegate7Private13drawTextItemsEP8QPainterRK11QTextLayoutS5_RK5QRect@Base 4.96.0
 _ZNK17KFileItemDelegate7Private14animationStateERK20QStyleOptionViewItemRK11QModelIndexPK17QAbstractItemView@Base 4.96.0
 _ZNK17KFileItemDelegate7Private14labelRectangleERK20QStyleOptionViewItem@Base 4.96.0
 _ZNK17KFileItemDelegate7Private15displaySizeHintERK20QStyleOptionViewItemRK11QModelIndex@Base 4.96.0
 _ZNK17KFileItemDelegate7Private15foregroundBrushERK20QStyleOptionViewItemRK11QModelIndex@Base 4.96.0
 _ZNK17KFileItemDelegate7Private15initStyleOptionEP20QStyleOptionViewItemRK11QModelIndex@Base 4.96.0
 _ZNK17KFileItemDelegate7Private15layoutTextItemsERK20QStyleOptionViewItemRK11QModelIndexP11QTextLayoutS8_P5QRect@Base 4.96.0
 _ZNK17KFileItemDelegate7Private15replaceNewlinesERK7QString@Base 4.96.0
 _ZNK17KFileItemDelegate7Private16applyHoverEffectERK7QPixmap@Base 4.96.0
 _ZNK17KFileItemDelegate7Private18decorationSizeHintERK20QStyleOptionViewItemRK11QModelIndex@Base 4.96.0
 _ZNK17KFileItemDelegate7Private7displayERK11QModelIndex@Base 4.96.0
 _ZNK17KFileItemDelegate7Private8itemSizeERK11QModelIndexRK9KFileItem@Base 4.96.0
 _ZNK17KFileItemDelegate8iconRectERK20QStyleOptionViewItemRK11QModelIndex@Base 4.96.0
 _ZNK17KFileItemDelegate8sizeHintERK20QStyleOptionViewItemRK11QModelIndex@Base 4.96.0
 _ZNK17KFileItemDelegate8wrapModeEv@Base 4.96.0
 _ZNK17KPropertiesDialog10currentDirEv@Base 4.96.0
 _ZNK17KPropertiesDialog10metaObjectEv@Base 4.96.0
 _ZNK17KPropertiesDialog11defaultNameEv@Base 4.96.0
 _ZNK17KPropertiesDialog3urlEv@Base 4.96.0
 _ZNK17KPropertiesDialog5itemsEv@Base 4.96.0
 _ZNK18KOverlayIconPlugin10metaObjectEv@Base 5.16.0
 _ZNK18KSslCertificateBox10metaObjectEv@Base 4.96.0
 _ZNK18KUrlComboRequester10metaObjectEv@Base 4.96.0
 _ZNK19KUrlRequesterDialog10metaObjectEv@Base 4.96.0
 _ZNK19KUrlRequesterDialog11selectedUrlEv@Base 4.96.0
 _ZNK20ThumbSequenceCreator13sequenceIndexEv@Base 4.96.0
 _ZNK23KPropertiesDialogPlugin10fontHeightEv@Base 4.96.0
 _ZNK23KPropertiesDialogPlugin10metaObjectEv@Base 4.96.0
 _ZNK23KPropertiesDialogPlugin7isDirtyEv@Base 4.96.0
 _ZNK24KUriFilterSearchProvider10defaultKeyEv@Base 4.96.0
 _ZNK24KUriFilterSearchProvider16desktopEntryNameEv@Base 4.96.0
 _ZNK24KUriFilterSearchProvider4keysEv@Base 4.96.0
 _ZNK24KUriFilterSearchProvider4nameEv@Base 4.96.0
 _ZNK24KUriFilterSearchProvider8iconNameEv@Base 4.96.0
 _ZNK26KBuildSycocaProgressDialog10metaObjectEv@Base 4.96.0
 _ZNK29KAbstractFileItemActionPlugin10metaObjectEv@Base 4.96.0
 _ZNK3KIO10PreviewJob10metaObjectEv@Base 4.96.0
 _ZNK3KIO10PreviewJob13sequenceIndexEv@Base 4.96.0
 _ZNK3KIO10PreviewJob15overlayIconSizeEv@Base 4.96.0
 _ZNK3KIO10PreviewJob16overlayIconAlphaEv@Base 4.96.0
 _ZNK3KIO10PreviewJob9scaleTypeEv@Base 4.96.0
 _ZNK3KIO10SkipDialog10metaObjectEv@Base 4.96.0
 _ZNK3KIO11Integration9CookieJar10metaObjectEv@Base 4.96.0
 _ZNK3KIO11Integration9CookieJar13cookiesForUrlERK4QUrl@Base 4.96.0
 _ZNK3KIO11Integration9CookieJar23isCookieStorageDisabledEv@Base 4.96.0
 _ZNK3KIO11Integration9CookieJar8windowIdEv@Base 4.96.0
 _ZNK3KIO12RenameDialog10metaObjectEv@Base 4.96.0
 _ZNK3KIO12RenameDialog11autoDestUrlEv@Base 4.96.0
 _ZNK3KIO13AccessManager10metaObjectEv@Base 4.96.0
 _ZNK3KIO13AccessManager17cookieJarWindowidEv@Base 4.96.0
 _ZNK3KIO13AccessManager24isExternalContentAllowedEv@Base 4.96.0
 _ZNK3KIO13AccessManager6windowEv@Base 4.96.0
 _ZNK3KIO13JobUiDelegate10metaObjectEv@Base 4.96.0
 _ZNK3KIO15FileUndoManager10metaObjectEv@Base 4.96.0
 _ZNK3KIO15FileUndoManager11UiInterface12parentWidgetEv@Base 4.96.0
 _ZNK3KIO15FileUndoManager11UiInterface16showProgressInfoEv@Base 4.96.0
 _ZNK3KIO15FileUndoManager11uiInterfaceEv@Base 4.96.0
 _ZNK3KIO15FileUndoManager13undoAvailableEv@Base 4.96.0
 _ZNK3KIO15FileUndoManager26currentCommandSerialNumberEv@Base 4.96.0
 _ZNK3KIO15FileUndoManager8undoTextEv@Base 4.96.0
 _ZNK3KIO18DndPopupMenuPlugin10metaObjectEv@Base 5.5.0+git20141226.0011+15.04
 _ZNK3KIO31KUriFilterSearchProviderActions10metaObjectEv@Base 5.16.0
 _ZNK3KIO31KUriFilterSearchProviderActions12selectedTextEv@Base 5.16.0
 _ZNK3KIO7DropJob10metaObjectEv@Base 5.5.0+git20141226.0011+15.04
 _ZNK3KIO8PasteJob10metaObjectEv@Base 5.3.0+git20141101.0339
 _ZNK4KRun10autoDeleteEv@Base 4.96.0
 _ZNK4KRun10doScanFileEv@Base 4.96.0
 _ZNK4KRun10metaObjectEv@Base 4.96.0
 _ZNK4KRun11hasFinishedEv@Base 4.96.0
 _ZNK4KRun11isDirectoryEv@Base 4.96.0
 _ZNK4KRun11isLocalFileEv@Base 4.96.0
 _ZNK4KRun12progressInfoEv@Base 4.96.0
 _ZNK4KRun17suggestedFileNameEv@Base 4.96.0
 _ZNK4KRun20initializeNextActionEv@Base 4.96.0
 _ZNK4KRun3urlEv@Base 4.96.0
 _ZNK4KRun6windowEv@Base 4.96.0
 _ZNK4KRun8hasErrorEv@Base 4.96.0
 _ZNK9KDirModel10headerDataEiN2Qt11OrientationEi@Base 4.96.0
 _ZNK9KDirModel10metaObjectEv@Base 4.96.0
 _ZNK9KDirModel11columnCountERK11QModelIndex@Base 4.96.0
 _ZNK9KDirModel11hasChildrenERK11QModelIndex@Base 4.96.0
 _ZNK9KDirModel11indexForUrlERK4QUrl@Base 4.96.0
 _ZNK9KDirModel12canFetchMoreERK11QModelIndex@Base 4.96.0
 _ZNK9KDirModel12indexForItemEPK9KFileItem@Base 4.96.0
 _ZNK9KDirModel12indexForItemERK9KFileItem@Base 4.96.0
 _ZNK9KDirModel12itemForIndexERK11QModelIndex@Base 4.96.0
 _ZNK9KDirModel19jobTransfersVisibleEv@Base 4.96.0
 _ZNK9KDirModel4dataERK11QModelIndexi@Base 4.96.0
 _ZNK9KDirModel5flagsERK11QModelIndex@Base 4.96.0
 _ZNK9KDirModel5indexEiiRK11QModelIndex@Base 4.96.0
 _ZNK9KDirModel6parentERK11QModelIndex@Base 4.96.0
 _ZNK9KDirModel7siblingEiiRK11QModelIndex@Base 4.99.0
 _ZNK9KDirModel8mimeDataERK5QListI11QModelIndexE@Base 4.96.0
 _ZNK9KDirModel8rowCountERK11QModelIndex@Base 4.96.0
 _ZNK9KDirModel9dirListerEv@Base 4.96.0
 _ZNK9KDirModel9mimeTypesEv@Base 4.96.0
 _ZTI10KAutoMount@Base 4.96.0
 _ZTI10KDirLister@Base 4.96.0
 _ZTI12KAutoUnmount@Base 4.96.0
 _ZTI12KUrlComboBox@Base 4.96.0
 _ZTI12ThumbCreator@Base 4.96.0
 _ZTI13KUrlRequester@Base 4.96.0
 _ZTI14KSslInfoDialog@Base 4.96.0
 _ZTI14KUrlCompletion@Base 4.96.0
 _ZTI14ThumbCreatorV2@Base 4.96.0
 _ZTI15KOpenWithDialog@Base 4.96.0
 _ZTI16KFileItemActions@Base 4.96.0
 _ZTI16KShellCompletion@Base 4.96.0
 _ZTI16KUriFilterPlugin@Base 4.96.0
 _ZTI17KFileItemDelegate@Base 4.96.0
 _ZTI17KPropertiesDialog@Base 4.96.0
 _ZTI18KOverlayIconPlugin@Base 5.16.0
 _ZTI18KSslCertificateBox@Base 4.96.0
 _ZTI18KUrlComboRequester@Base 4.96.0
 _ZTI18KUrlPixmapProvider@Base 4.96.0
 _ZTI19KUrlRequesterDialog@Base 4.96.0
 _ZTI20ThumbSequenceCreator@Base 4.96.0
 _ZTI23KPropertiesDialogPlugin@Base 4.96.0
 _ZTI24KUriFilterSearchProvider@Base 4.96.0
 _ZTI26KBuildSycocaProgressDialog@Base 4.96.0
 _ZTI29KAbstractFileItemActionPlugin@Base 4.96.0
 _ZTI4KRun@Base 4.96.0
 _ZTI9KDirModel@Base 4.96.0
 _ZTIN3KIO10PreviewJobE@Base 4.96.0
 _ZTIN3KIO10SkipDialogE@Base 4.96.0
 _ZTIN3KIO11Integration9CookieJarE@Base 4.96.0
 _ZTIN3KIO12RenameDialogE@Base 4.96.0
 _ZTIN3KIO13AccessManagerE@Base 4.96.0
 _ZTIN3KIO13JobUiDelegateE@Base 4.96.0
 _ZTIN3KIO15FileUndoManager11UiInterfaceE@Base 4.96.0
 _ZTIN3KIO15FileUndoManagerE@Base 4.96.0
 _ZTIN3KIO18DndPopupMenuPluginE@Base 5.5.0+git20141226.0011+15.04
 _ZTIN3KIO31KUriFilterSearchProviderActionsE@Base 5.16.0
 _ZTIN3KIO7DropJobE@Base 5.5.0+git20141226.0011+15.04
 _ZTIN3KIO8PasteJobE@Base 5.3.0+git20141101.0339
 _ZTS10KAutoMount@Base 4.96.0
 _ZTS10KDirLister@Base 4.96.0
 _ZTS12KAutoUnmount@Base 4.96.0
 _ZTS12KUrlComboBox@Base 4.96.0
 _ZTS12ThumbCreator@Base 4.96.0
 _ZTS13KUrlRequester@Base 4.96.0
 _ZTS14KSslInfoDialog@Base 4.96.0
 _ZTS14KUrlCompletion@Base 4.96.0
 _ZTS14ThumbCreatorV2@Base 4.96.0
 _ZTS15KOpenWithDialog@Base 4.96.0
 _ZTS16KFileItemActions@Base 4.96.0
 _ZTS16KShellCompletion@Base 4.96.0
 _ZTS16KUriFilterPlugin@Base 4.96.0
 _ZTS17KFileItemDelegate@Base 4.96.0
 _ZTS17KPropertiesDialog@Base 4.96.0
 _ZTS18KOverlayIconPlugin@Base 5.16.0
 _ZTS18KSslCertificateBox@Base 4.96.0
 _ZTS18KUrlComboRequester@Base 4.96.0
 _ZTS18KUrlPixmapProvider@Base 4.96.0
 _ZTS19KUrlRequesterDialog@Base 4.96.0
 _ZTS20ThumbSequenceCreator@Base 4.96.0
 _ZTS23KPropertiesDialogPlugin@Base 4.96.0
 _ZTS24KUriFilterSearchProvider@Base 4.96.0
 _ZTS26KBuildSycocaProgressDialog@Base 4.96.0
 _ZTS29KAbstractFileItemActionPlugin@Base 4.96.0
 _ZTS4KRun@Base 4.96.0
 _ZTS9KDirModel@Base 4.96.0
 _ZTSN3KIO10PreviewJobE@Base 4.96.0
 _ZTSN3KIO10SkipDialogE@Base 4.96.0
 _ZTSN3KIO11Integration9CookieJarE@Base 4.96.0
 _ZTSN3KIO12RenameDialogE@Base 4.96.0
 _ZTSN3KIO13AccessManagerE@Base 4.96.0
 _ZTSN3KIO13JobUiDelegateE@Base 4.96.0
 _ZTSN3KIO15FileUndoManager11UiInterfaceE@Base 4.96.0
 _ZTSN3KIO15FileUndoManagerE@Base 4.96.0
 _ZTSN3KIO18DndPopupMenuPluginE@Base 5.5.0+git20141226.0011+15.04
 _ZTSN3KIO31KUriFilterSearchProviderActionsE@Base 5.16.0
 _ZTSN3KIO7DropJobE@Base 5.5.0+git20141226.0011+15.04
 _ZTSN3KIO8PasteJobE@Base 5.3.0+git20141101.0339
 _ZTV10KAutoMount@Base 4.96.0
 _ZTV10KDirLister@Base 4.96.0
 _ZTV12KAutoUnmount@Base 4.96.0
 _ZTV12KUrlComboBox@Base 4.96.0
 _ZTV12ThumbCreator@Base 4.96.0
 _ZTV13KUrlRequester@Base 4.96.0
 _ZTV14KSslInfoDialog@Base 4.96.0
 _ZTV14KUrlCompletion@Base 4.96.0
 _ZTV14ThumbCreatorV2@Base 4.96.0
 _ZTV15KOpenWithDialog@Base 4.96.0
 _ZTV16KFileItemActions@Base 4.96.0
 _ZTV16KShellCompletion@Base 4.96.0
 _ZTV16KUriFilterPlugin@Base 4.96.0
 _ZTV17KFileItemDelegate@Base 4.96.0
 _ZTV17KPropertiesDialog@Base 4.96.0
 _ZTV18KOverlayIconPlugin@Base 5.16.0
 _ZTV18KSslCertificateBox@Base 4.96.0
 _ZTV18KUrlComboRequester@Base 4.96.0
 _ZTV18KUrlPixmapProvider@Base 4.96.0
 _ZTV19KUrlRequesterDialog@Base 4.96.0
 _ZTV20ThumbSequenceCreator@Base 4.96.0
 _ZTV23KPropertiesDialogPlugin@Base 4.96.0
 _ZTV24KUriFilterSearchProvider@Base 4.96.0
 _ZTV26KBuildSycocaProgressDialog@Base 4.96.0
 _ZTV29KAbstractFileItemActionPlugin@Base 4.96.0
 _ZTV4KRun@Base 4.96.0
 _ZTV9KDirModel@Base 4.96.0
 _ZTVN3KIO10PreviewJobE@Base 4.96.0
 _ZTVN3KIO10SkipDialogE@Base 4.96.0
 _ZTVN3KIO11Integration9CookieJarE@Base 4.96.0
 _ZTVN3KIO12RenameDialogE@Base 4.96.0
 _ZTVN3KIO13AccessManagerE@Base 4.96.0
 _ZTVN3KIO13JobUiDelegateE@Base 4.96.0
 _ZTVN3KIO15FileUndoManager11UiInterfaceE@Base 4.96.0
 _ZTVN3KIO15FileUndoManagerE@Base 4.96.0
 _ZTVN3KIO18DndPopupMenuPluginE@Base 5.5.0+git20141226.0011+15.04
 _ZTVN3KIO31KUriFilterSearchProviderActionsE@Base 5.16.0
 _ZTVN3KIO7DropJobE@Base 5.5.0+git20141226.0011+15.04
 _ZTVN3KIO8PasteJobE@Base 5.3.0+git20141101.0339
 _ZThn16_N12KUrlComboBoxD0Ev@Base 4.96.0
 _ZThn16_N12KUrlComboBoxD1Ev@Base 4.96.0
 _ZThn16_N13KUrlRequesterD0Ev@Base 4.96.0
 _ZThn16_N13KUrlRequesterD1Ev@Base 4.96.0
 _ZThn16_N14KSslInfoDialogD0Ev@Base 4.96.0
 _ZThn16_N14KSslInfoDialogD1Ev@Base 4.96.0
 _ZThn16_N15KOpenWithDialogD0Ev@Base 4.96.0
 _ZThn16_N15KOpenWithDialogD1Ev@Base 4.96.0
 _ZThn16_N17KPropertiesDialogD0Ev@Base 4.96.0
 _ZThn16_N17KPropertiesDialogD1Ev@Base 4.96.0
 _ZThn16_N18KSslCertificateBoxD0Ev@Base 4.96.0
 _ZThn16_N18KSslCertificateBoxD1Ev@Base 4.96.0
 _ZThn16_N19KUrlRequesterDialogD0Ev@Base 4.96.0
 _ZThn16_N19KUrlRequesterDialogD1Ev@Base 4.96.0
 _ZThn16_N26KBuildSycocaProgressDialogD0Ev@Base 4.96.0
 _ZThn16_N26KBuildSycocaProgressDialogD1Ev@Base 4.96.0
 _ZThn16_N3KIO10SkipDialogD0Ev@Base 4.96.0
 _ZThn16_N3KIO10SkipDialogD1Ev@Base 4.96.0
 _ZThn16_N3KIO12RenameDialogD0Ev@Base 4.96.0
 _ZThn16_N3KIO12RenameDialogD1Ev@Base 4.96.0
 _ZThn32_N3KIO13JobUiDelegate13askFileRenameEP4KJobRK7QStringRK4QUrlS8_6QFlagsINS_19RenameDialog_OptionEERS3_yyRK9QDateTimeSF_SF_SF_@Base 4.96.0
 _ZThn32_N3KIO13JobUiDelegate17requestMessageBoxENS_22JobUiDelegateExtension14MessageBoxTypeERK7QStringS5_S5_S5_S5_S5_S5_RKNS_8MetaDataE@Base 4.96.0
 _ZThn32_N3KIO13JobUiDelegate20updateUrlInClipboardERK4QUrlS3_@Base 4.96.0
 _ZThn32_N3KIO13JobUiDelegate21askDeleteConfirmationERK5QListI4QUrlENS_22JobUiDelegateExtension12DeletionTypeENS6_16ConfirmationTypeE@Base 4.96.0
 _ZThn32_N3KIO13JobUiDelegate22createClipboardUpdaterEPNS_3JobENS_22JobUiDelegateExtension20ClipboardUpdaterModeE@Base 4.96.0
 _ZThn32_N3KIO13JobUiDelegate7askSkipEP4KJob6QFlagsINS_17SkipDialog_OptionEERK7QString@Base 4.96.0
 _ZThn32_N3KIO13JobUiDelegateD0Ev@Base 4.96.0
 _ZThn32_N3KIO13JobUiDelegateD1Ev@Base 4.96.0
 _ZThn48_N12KUrlComboBox19setCompletionObjectEP11KCompletionb@Base 4.96.0
 _ZThn48_N12KUrlComboBoxD0Ev@Base 4.96.0
 _ZThn48_N12KUrlComboBoxD1Ev@Base 4.96.0
 _ZZZNK13KUrlRequester20KUrlRequesterPrivate11kToQFiltersERK7QStringENKUlvE_clEvE15qstring_literal@Base 5.16.0
