libKF5Contacts.so.5 libkf5contacts5 #MINVER#
 _ZN12KConfigGroup10writeEntryIiEEvPKcRK5QListIT_E6QFlagsIN11KConfigBase15WriteConfigFlagEE@Base 15.07.90
 _ZN9KContacts11CalendarUrl13setParametersERK4QMapI7QString11QStringListE@Base 15.07.90
 _ZN9KContacts11CalendarUrl6setUrlERK4QUrl@Base 15.07.90
 _ZN9KContacts11CalendarUrl7setTypeENS0_12CalendarTypeE@Base 15.07.90
 _ZN9KContacts11CalendarUrlC1ENS0_12CalendarTypeE@Base 15.07.90
 _ZN9KContacts11CalendarUrlC1ERKS0_@Base 15.07.90
 _ZN9KContacts11CalendarUrlC1Ev@Base 15.07.90
 _ZN9KContacts11CalendarUrlC2ENS0_12CalendarTypeE@Base 15.07.90
 _ZN9KContacts11CalendarUrlC2ERKS0_@Base 15.07.90
 _ZN9KContacts11CalendarUrlC2Ev@Base 15.07.90
 _ZN9KContacts11CalendarUrlD1Ev@Base 15.07.90
 _ZN9KContacts11CalendarUrlD2Ev@Base 15.07.90
 _ZN9KContacts11CalendarUrlaSERKS0_@Base 15.07.90
 _ZN9KContacts11PhoneNumber13typeFlagLabelENS0_8TypeFlagE@Base 15.07.90
 _ZN9KContacts11PhoneNumber5setIdERK7QString@Base 15.07.90
 _ZN9KContacts11PhoneNumber7setTypeE6QFlagsINS0_8TypeFlagEE@Base 15.07.90
 _ZN9KContacts11PhoneNumber8typeListEv@Base 15.07.90
 _ZN9KContacts11PhoneNumber9setNumberERK7QString@Base 15.07.90
 _ZN9KContacts11PhoneNumber9typeLabelE6QFlagsINS0_8TypeFlagEE@Base 15.07.90
 _ZN9KContacts11PhoneNumberC1ERK7QString6QFlagsINS0_8TypeFlagEE@Base 15.07.90
 _ZN9KContacts11PhoneNumberC1ERKS0_@Base 15.07.90
 _ZN9KContacts11PhoneNumberC1Ev@Base 15.07.90
 _ZN9KContacts11PhoneNumberC2ERK7QString6QFlagsINS0_8TypeFlagEE@Base 15.07.90
 _ZN9KContacts11PhoneNumberC2ERKS0_@Base 15.07.90
 _ZN9KContacts11PhoneNumberC2Ev@Base 15.07.90
 _ZN9KContacts11PhoneNumberD1Ev@Base 15.07.90
 _ZN9KContacts11PhoneNumberD2Ev@Base 15.07.90
 _ZN9KContacts11PhoneNumberaSERKS0_@Base 15.07.90
 _ZN9KContacts12ContactGroup16ContactReference12insertCustomERK7QStringS4_@Base 15.07.90
 _ZN9KContacts12ContactGroup16ContactReference12removeCustomERK7QString@Base 15.07.90
 _ZN9KContacts12ContactGroup16ContactReference17setPreferredEmailERK7QString@Base 15.07.90
 _ZN9KContacts12ContactGroup16ContactReference6setGidERK7QString@Base 15.07.90
 _ZN9KContacts12ContactGroup16ContactReference6setUidERK7QString@Base 15.07.90
 _ZN9KContacts12ContactGroup16ContactReferenceC1ERK7QString@Base 15.07.90
 _ZN9KContacts12ContactGroup16ContactReferenceC1ERKS1_@Base 15.07.90
 _ZN9KContacts12ContactGroup16ContactReferenceC1Ev@Base 15.07.90
 _ZN9KContacts12ContactGroup16ContactReferenceC2ERK7QString@Base 15.07.90
 _ZN9KContacts12ContactGroup16ContactReferenceC2ERKS1_@Base 15.07.90
 _ZN9KContacts12ContactGroup16ContactReferenceC2Ev@Base 15.07.90
 _ZN9KContacts12ContactGroup16ContactReferenceD1Ev@Base 15.07.90
 _ZN9KContacts12ContactGroup16ContactReferenceD2Ev@Base 15.07.90
 _ZN9KContacts12ContactGroup16ContactReferenceaSERKS1_@Base 15.07.90
 _ZN9KContacts12ContactGroup16contactReferenceEj@Base 15.07.90
 _ZN9KContacts12ContactGroup20removeAllContactDataEv@Base 15.07.90
 _ZN9KContacts12ContactGroup21ContactGroupReference12insertCustomERK7QStringS4_@Base 15.07.90
 _ZN9KContacts12ContactGroup21ContactGroupReference12removeCustomERK7QString@Base 15.07.90
 _ZN9KContacts12ContactGroup21ContactGroupReference6setUidERK7QString@Base 15.07.90
 _ZN9KContacts12ContactGroup21ContactGroupReferenceC1ERK7QString@Base 15.07.90
 _ZN9KContacts12ContactGroup21ContactGroupReferenceC1ERKS1_@Base 15.07.90
 _ZN9KContacts12ContactGroup21ContactGroupReferenceC1Ev@Base 15.07.90
 _ZN9KContacts12ContactGroup21ContactGroupReferenceC2ERK7QString@Base 15.07.90
 _ZN9KContacts12ContactGroup21ContactGroupReferenceC2ERKS1_@Base 15.07.90
 _ZN9KContacts12ContactGroup21ContactGroupReferenceC2Ev@Base 15.07.90
 _ZN9KContacts12ContactGroup21ContactGroupReferenceD1Ev@Base 15.07.90
 _ZN9KContacts12ContactGroup21ContactGroupReferenceD2Ev@Base 15.07.90
 _ZN9KContacts12ContactGroup21ContactGroupReferenceaSERKS1_@Base 15.07.90
 _ZN9KContacts12ContactGroup21contactGroupReferenceEj@Base 15.07.90
 _ZN9KContacts12ContactGroup26removeAllContactReferencesEv@Base 15.07.90
 _ZN9KContacts12ContactGroup31removeAllContactGroupReferencesEv@Base 15.07.90
 _ZN9KContacts12ContactGroup4Data12insertCustomERK7QStringS4_@Base 15.07.90
 _ZN9KContacts12ContactGroup4Data12removeCustomERK7QString@Base 15.07.90
 _ZN9KContacts12ContactGroup4Data7setNameERK7QString@Base 15.07.90
 _ZN9KContacts12ContactGroup4Data8setEmailERK7QString@Base 15.07.90
 _ZN9KContacts12ContactGroup4DataC1ERK7QStringS4_@Base 15.07.90
 _ZN9KContacts12ContactGroup4DataC1ERKS1_@Base 15.07.90
 _ZN9KContacts12ContactGroup4DataC1Ev@Base 15.07.90
 _ZN9KContacts12ContactGroup4DataC2ERK7QStringS4_@Base 15.07.90
 _ZN9KContacts12ContactGroup4DataC2ERKS1_@Base 15.07.90
 _ZN9KContacts12ContactGroup4DataC2Ev@Base 15.07.90
 _ZN9KContacts12ContactGroup4DataD1Ev@Base 15.07.90
 _ZN9KContacts12ContactGroup4DataD2Ev@Base 15.07.90
 _ZN9KContacts12ContactGroup4DataaSERKS1_@Base 15.07.90
 _ZN9KContacts12ContactGroup4dataEj@Base 15.07.90
 _ZN9KContacts12ContactGroup5setIdERK7QString@Base 15.07.90
 _ZN9KContacts12ContactGroup6appendERKNS0_16ContactReferenceE@Base 15.07.90
 _ZN9KContacts12ContactGroup6appendERKNS0_21ContactGroupReferenceE@Base 15.07.90
 _ZN9KContacts12ContactGroup6appendERKNS0_4DataE@Base 15.07.90
 _ZN9KContacts12ContactGroup6removeERKNS0_16ContactReferenceE@Base 15.07.90
 _ZN9KContacts12ContactGroup6removeERKNS0_21ContactGroupReferenceE@Base 15.07.90
 _ZN9KContacts12ContactGroup6removeERKNS0_4DataE@Base 15.07.90
 _ZN9KContacts12ContactGroup7setNameERK7QString@Base 15.07.90
 _ZN9KContacts12ContactGroup8mimeTypeEv@Base 15.07.90
 _ZN9KContacts12ContactGroupC1ERK7QString@Base 15.07.90
 _ZN9KContacts12ContactGroupC1ERKS0_@Base 15.07.90
 _ZN9KContacts12ContactGroupC1Ev@Base 15.07.90
 _ZN9KContacts12ContactGroupC2ERK7QString@Base 15.07.90
 _ZN9KContacts12ContactGroupC2ERKS0_@Base 15.07.90
 _ZN9KContacts12ContactGroupC2Ev@Base 15.07.90
 _ZN9KContacts12ContactGroupD1Ev@Base 15.07.90
 _ZN9KContacts12ContactGroupD2Ev@Base 15.07.90
 _ZN9KContacts12ContactGroupaSERKS0_@Base 15.07.90
 _ZN9KContacts12NameSortModeC1ENS0_8NameTypeEb@Base 15.07.90
 _ZN9KContacts12NameSortModeC1Ev@Base 15.07.90
 _ZN9KContacts12NameSortModeC2ENS0_8NameTypeEb@Base 15.07.90
 _ZN9KContacts12NameSortModeC2Ev@Base 15.07.90
 _ZN9KContacts12NameSortModeD0Ev@Base 15.07.90
 _ZN9KContacts12NameSortModeD1Ev@Base 15.07.90
 _ZN9KContacts12NameSortModeD2Ev@Base 15.07.90
 _ZN9KContacts13AddresseeList10sortByModeEPNS_8SortModeE@Base 15.07.90
 _ZN9KContacts13AddresseeList11sortByFieldEPNS_5FieldE@Base 15.07.90
 _ZN9KContacts13AddresseeList11sortByTraitINS_13SortingTraits10FamilyNameEEEvv@Base 15.07.90
 _ZN9KContacts13AddresseeList11sortByTraitINS_13SortingTraits13FormattedNameEEEvv@Base 15.07.90
 _ZN9KContacts13AddresseeList11sortByTraitINS_13SortingTraits3UidEEEvv@Base 15.07.90
 _ZN9KContacts13AddresseeList11sortByTraitINS_13SortingTraits4NameEEEvv@Base 15.07.90
 _ZN9KContacts13AddresseeList11sortByTraitINS_13SortingTraits9GivenNameEEEvv@Base 15.07.90
 _ZN9KContacts13AddresseeList17setReverseSortingEb@Base 15.07.90
 _ZN9KContacts13AddresseeList4sortEv@Base 15.07.90
 _ZN9KContacts13AddresseeList6sortByENS_16SortingCriterionE@Base 15.07.90
 _ZN9KContacts13AddresseeListC1ERK7QVectorINS_9AddresseeEE@Base 15.07.90
 _ZN9KContacts13AddresseeListC1ERKS0_@Base 15.07.90
 _ZN9KContacts13AddresseeListC1Ev@Base 15.07.90
 _ZN9KContacts13AddresseeListC2ERK7QVectorINS_9AddresseeEE@Base 15.07.90
 _ZN9KContacts13AddresseeListC2ERKS0_@Base 15.07.90
 _ZN9KContacts13AddresseeListC2Ev@Base 15.07.90
 _ZN9KContacts13AddresseeListD1Ev@Base 15.07.90
 _ZN9KContacts13AddresseeListD2Ev@Base 15.07.90
 _ZN9KContacts13AddresseeListaSERKS0_@Base 15.07.90
 _ZN9KContacts13FieldSortModeC1EPNS_5FieldEb@Base 15.07.90
 _ZN9KContacts13FieldSortModeC2EPNS_5FieldEb@Base 15.07.90
 _ZN9KContacts13FieldSortModeD0Ev@Base 15.07.90
 _ZN9KContacts13FieldSortModeD1Ev@Base 15.07.90
 _ZN9KContacts13FieldSortModeD2Ev@Base 15.07.90
 _ZN9KContacts13LDIFConverter15LDIFToAddresseeERK7QStringRNS_13AddresseeListER7QVectorINS_12ContactGroupEERK9QDateTime@Base 15.07.90
 _ZN9KContacts13LDIFConverter15addresseeToLDIFERKNS_13AddresseeListER7QString@Base 15.07.90
 _ZN9KContacts13LDIFConverter15addresseeToLDIFERKNS_9AddresseeER7QString@Base 15.07.90
 _ZN9KContacts13LDIFConverter18contactGroupToLDIFERK7QVectorINS_12ContactGroupEER7QString@Base 15.07.90
 _ZN9KContacts13LDIFConverter18contactGroupToLDIFERKNS_12ContactGroupER7QString@Base 15.07.90
 _ZN9KContacts13LDIFConverter30addresseeAndContactGroupToLDIFERKNS_13AddresseeListERK7QVectorINS_12ContactGroupEER7QString@Base 15.07.90
 _ZN9KContacts13SortingTraits10FamilyName2eqERKNS_9AddresseeES4_@Base 15.07.90
 _ZN9KContacts13SortingTraits10FamilyName2ltERKNS_9AddresseeES4_@Base 15.07.90
 _ZN9KContacts13SortingTraits10FamilyNameC1Ev@Base 15.07.90
 _ZN9KContacts13SortingTraits10FamilyNameC2Ev@Base 15.07.90
 _ZN9KContacts13SortingTraits10FamilyNameD1Ev@Base 15.07.90
 _ZN9KContacts13SortingTraits10FamilyNameD2Ev@Base 15.07.90
 _ZN9KContacts13SortingTraits13FormattedName2eqERKNS_9AddresseeES4_@Base 15.07.90
 _ZN9KContacts13SortingTraits13FormattedName2ltERKNS_9AddresseeES4_@Base 15.07.90
 _ZN9KContacts13SortingTraits13FormattedNameC1Ev@Base 15.07.90
 _ZN9KContacts13SortingTraits13FormattedNameC2Ev@Base 15.07.90
 _ZN9KContacts13SortingTraits13FormattedNameD1Ev@Base 15.07.90
 _ZN9KContacts13SortingTraits13FormattedNameD2Ev@Base 15.07.90
 _ZN9KContacts13SortingTraits3Uid2eqERKNS_9AddresseeES4_@Base 15.07.90
 _ZN9KContacts13SortingTraits3Uid2ltERKNS_9AddresseeES4_@Base 15.07.90
 _ZN9KContacts13SortingTraits3UidC1Ev@Base 15.07.90
 _ZN9KContacts13SortingTraits3UidC2Ev@Base 15.07.90
 _ZN9KContacts13SortingTraits3UidD1Ev@Base 15.07.90
 _ZN9KContacts13SortingTraits3UidD2Ev@Base 15.07.90
 _ZN9KContacts13SortingTraits4Name2eqERKNS_9AddresseeES4_@Base 15.07.90
 _ZN9KContacts13SortingTraits4Name2ltERKNS_9AddresseeES4_@Base 15.07.90
 _ZN9KContacts13SortingTraits4NameC1Ev@Base 15.07.90
 _ZN9KContacts13SortingTraits4NameC2Ev@Base 15.07.90
 _ZN9KContacts13SortingTraits4NameD1Ev@Base 15.07.90
 _ZN9KContacts13SortingTraits4NameD2Ev@Base 15.07.90
 _ZN9KContacts13SortingTraits9GivenName2eqERKNS_9AddresseeES4_@Base 15.07.90
 _ZN9KContacts13SortingTraits9GivenName2ltERKNS_9AddresseeES4_@Base 15.07.90
 _ZN9KContacts13SortingTraits9GivenNameC1Ev@Base 15.07.90
 _ZN9KContacts13SortingTraits9GivenNameC2Ev@Base 15.07.90
 _ZN9KContacts13SortingTraits9GivenNameD1Ev@Base 15.07.90
 _ZN9KContacts13SortingTraits9GivenNameD2Ev@Base 15.07.90
 _ZN9KContacts14VCardConverterC1Ev@Base 15.07.90
 _ZN9KContacts14VCardConverterC2Ev@Base 15.07.90
 _ZN9KContacts14VCardConverterD1Ev@Base 15.07.90
 _ZN9KContacts14VCardConverterD2Ev@Base 15.07.90
 _ZN9KContacts15AddresseeHelper11qt_metacallEN11QMetaObject4CallEiPPv@Base 15.07.90
 _ZN9KContacts15AddresseeHelper11qt_metacastEPKc@Base 15.07.90
 _ZN9KContacts15AddresseeHelper12initSettingsEv@Base 15.07.90
 _ZN9KContacts15AddresseeHelper16staticMetaObjectE@Base 15.07.90
 _ZN9KContacts15AddresseeHelper4selfEv@Base 15.07.90
 _ZN9KContacts15AddresseeHelperC1Ev@Base 15.07.90
 _ZN9KContacts15AddresseeHelperC2Ev@Base 15.07.90
 _ZN9KContacts15AddresseeHelperD0Ev@Base 15.07.90
 _ZN9KContacts15AddresseeHelperD1Ev@Base 15.07.90
 _ZN9KContacts15AddresseeHelperD2Ev@Base 15.07.90
 _ZN9KContacts16ContactGroupTool12convertToXmlERK7QVectorINS_12ContactGroupEEP9QIODeviceP7QString@Base 15.07.90
 _ZN9KContacts16ContactGroupTool12convertToXmlERKNS_12ContactGroupEP9QIODeviceP7QString@Base 15.07.90
 _ZN9KContacts16ContactGroupTool14convertFromXmlEP9QIODeviceR7QVectorINS_12ContactGroupEEP7QString@Base 15.07.90
 _ZN9KContacts16ContactGroupTool14convertFromXmlEP9QIODeviceRNS_12ContactGroupEP7QString@Base 15.07.90
 _ZN9KContacts17VCardStringToDateERK7QString@Base 15.07.90
 _ZN9KContacts17adaptIMAttributesER10QByteArray@Base 15.12.0
 _ZN9KContacts17dateToVCardStringE5QDate@Base 15.12.0
 _ZN9KContacts17dateToVCardStringERK9QDateTime@Base 15.07.90
 _ZN9KContacts18ResourceLocatorUrl13setParametersERK4QMapI7QString11QStringListE@Base 15.07.90
 _ZN9KContacts18ResourceLocatorUrl6setUrlERK4QUrl@Base 15.07.90
 _ZN9KContacts18ResourceLocatorUrlC1ERKS0_@Base 15.07.90
 _ZN9KContacts18ResourceLocatorUrlC1Ev@Base 15.07.90
 _ZN9KContacts18ResourceLocatorUrlC2ERKS0_@Base 15.07.90
 _ZN9KContacts18ResourceLocatorUrlC2Ev@Base 15.07.90
 _ZN9KContacts18ResourceLocatorUrlD1Ev@Base 15.07.90
 _ZN9KContacts18ResourceLocatorUrlD2Ev@Base 15.07.90
 _ZN9KContacts18ResourceLocatorUrlaSERKS0_@Base 15.07.90
 _ZN9KContacts3Geo11setLatitudeEf@Base 15.07.90
 _ZN9KContacts3Geo12setLongitudeEf@Base 15.07.90
 _ZN9KContacts3Geo5clearEv@Base 15.07.90
 _ZN9KContacts3GeoC1ERKS0_@Base 15.07.90
 _ZN9KContacts3GeoC1Eff@Base 15.07.90
 _ZN9KContacts3GeoC1Ev@Base 15.07.90
 _ZN9KContacts3GeoC2ERKS0_@Base 15.07.90
 _ZN9KContacts3GeoC2Eff@Base 15.07.90
 _ZN9KContacts3GeoC2Ev@Base 15.07.90
 _ZN9KContacts3GeoD1Ev@Base 15.07.90
 _ZN9KContacts3GeoD2Ev@Base 15.07.90
 _ZN9KContacts3GeoaSERKS0_@Base 15.07.90
 _ZN9KContacts3Key11setTextDataERK7QString@Base 15.07.90
 _ZN9KContacts3Key13setBinaryDataERK10QByteArray@Base 15.07.90
 _ZN9KContacts3Key19setCustomTypeStringERK7QString@Base 15.07.90
 _ZN9KContacts3Key5setIdERK7QString@Base 15.07.90
 _ZN9KContacts3Key7setTypeENS0_4TypeE@Base 15.07.90
 _ZN9KContacts3Key8typeListEv@Base 15.07.90
 _ZN9KContacts3Key9typeLabelENS0_4TypeE@Base 15.07.90
 _ZN9KContacts3KeyC1ERK7QStringNS0_4TypeE@Base 15.07.90
 _ZN9KContacts3KeyC1ERKS0_@Base 15.07.90
 _ZN9KContacts3KeyC2ERK7QStringNS0_4TypeE@Base 15.07.90
 _ZN9KContacts3KeyC2ERKS0_@Base 15.07.90
 _ZN9KContacts3KeyD1Ev@Base 15.07.90
 _ZN9KContacts3KeyD2Ev@Base 15.07.90
 _ZN9KContacts3KeyaSERKS0_@Base 15.07.90
 _ZN9KContacts4Impp10setAddressERK7QString@Base 15.07.90
 _ZN9KContacts4Impp12typeToStringENS0_8ImppTypeE@Base 15.07.90
 _ZN9KContacts4Impp13setParametersERK4QMapI7QString11QStringListE@Base 15.07.90
 _ZN9KContacts4Impp7setTypeENS0_8ImppTypeE@Base 15.07.90
 _ZN9KContacts4ImppC1ERK7QString@Base 15.07.90
 _ZN9KContacts4ImppC1ERKS0_@Base 15.07.90
 _ZN9KContacts4ImppC1Ev@Base 15.07.90
 _ZN9KContacts4ImppC2ERK7QString@Base 15.07.90
 _ZN9KContacts4ImppC2ERKS0_@Base 15.07.90
 _ZN9KContacts4ImppC2Ev@Base 15.07.90
 _ZN9KContacts4ImppD1Ev@Base 15.07.90
 _ZN9KContacts4ImppD2Ev@Base 15.07.90
 _ZN9KContacts4ImppaSERKS0_@Base 15.07.90
 _ZN9KContacts4Lang11setLanguageERK7QString@Base 15.07.90
 _ZN9KContacts4Lang13setParametersERK4QMapI7QString11QStringListE@Base 15.07.90
 _ZN9KContacts4LangC1ERK7QString@Base 15.07.90
 _ZN9KContacts4LangC1ERKS0_@Base 15.07.90
 _ZN9KContacts4LangC1Ev@Base 15.07.90
 _ZN9KContacts4LangC2ERK7QString@Base 15.07.90
 _ZN9KContacts4LangC2ERKS0_@Base 15.07.90
 _ZN9KContacts4LangC2Ev@Base 15.07.90
 _ZN9KContacts4LangD1Ev@Base 15.07.90
 _ZN9KContacts4LangD2Ev@Base 15.07.90
 _ZN9KContacts4LangaSERKS0_@Base 15.07.90
 _ZN9KContacts5Email13setParametersERK4QMapI7QString11QStringListE@Base 15.07.90
 _ZN9KContacts5Email8setEmailERK7QString@Base 15.07.90
 _ZN9KContacts5EmailC1ERK7QString@Base 15.07.90
 _ZN9KContacts5EmailC1ERKS0_@Base 15.07.90
 _ZN9KContacts5EmailC1Ev@Base 15.07.90
 _ZN9KContacts5EmailC2ERK7QString@Base 15.07.90
 _ZN9KContacts5EmailC2ERKS0_@Base 15.07.90
 _ZN9KContacts5EmailC2Ev@Base 15.07.90
 _ZN9KContacts5EmailD1Ev@Base 15.07.90
 _ZN9KContacts5EmailD2Ev@Base 15.07.90
 _ZN9KContacts5EmailaSERKS0_@Base 15.07.90
 _ZN9KContacts5Field10saveFieldsER12KConfigGroupRK7QStringRK5QListIPS0_E@Base 15.07.90
 _ZN9KContacts5Field10saveFieldsERK7QStringRK5QListIPS0_E@Base 15.07.90
 _ZN9KContacts5Field11createFieldEii@Base 15.07.90
 _ZN9KContacts5Field12deleteFieldsEv@Base 15.07.90
 _ZN9KContacts5Field13categoryLabelEi@Base 15.07.90
 _ZN9KContacts5Field13defaultFieldsEv@Base 15.07.90
 _ZN9KContacts5Field13restoreFieldsERK12KConfigGroupRK7QString@Base 15.07.90
 _ZN9KContacts5Field13restoreFieldsERK7QString@Base 15.07.90
 _ZN9KContacts5Field17createCustomFieldERK7QStringiS3_S3_@Base 15.07.90
 _ZN9KContacts5Field18createDefaultFieldEii@Base 15.07.90
 _ZN9KContacts5Field5labelEv@Base 15.07.90
 _ZN9KContacts5Field5valueERKNS_9AddresseeE@Base 15.07.90
 _ZN9KContacts5Field6equalsEPS0_@Base 15.07.90
 _ZN9KContacts5Field7sortKeyERKNS_9AddresseeE@Base 15.07.90
 _ZN9KContacts5Field8categoryEv@Base 15.07.90
 _ZN9KContacts5Field8isCustomEv@Base 15.07.90
 _ZN9KContacts5Field8setValueERNS_9AddresseeERK7QString@Base 15.07.90
 _ZN9KContacts5Field9allFieldsEv@Base 15.07.90
 _ZN9KContacts5FieldC1EPNS0_7PrivateE@Base 15.07.90
 _ZN9KContacts5FieldC2EPNS0_7PrivateE@Base 15.07.90
 _ZN9KContacts5FieldD0Ev@Base 15.07.90
 _ZN9KContacts5FieldD1Ev@Base 15.07.90
 _ZN9KContacts5FieldD2Ev@Base 15.07.90
 _ZN9KContacts5Sound6setUrlERK7QString@Base 15.07.90
 _ZN9KContacts5Sound7setDataERK10QByteArray@Base 15.07.90
 _ZN9KContacts5SoundC1ERK10QByteArray@Base 15.07.90
 _ZN9KContacts5SoundC1ERK7QString@Base 15.07.90
 _ZN9KContacts5SoundC1ERKS0_@Base 15.07.90
 _ZN9KContacts5SoundC1Ev@Base 15.07.90
 _ZN9KContacts5SoundC2ERK10QByteArray@Base 15.07.90
 _ZN9KContacts5SoundC2ERK7QString@Base 15.07.90
 _ZN9KContacts5SoundC2ERKS0_@Base 15.07.90
 _ZN9KContacts5SoundC2Ev@Base 15.07.90
 _ZN9KContacts5SoundD1Ev@Base 15.07.90
 _ZN9KContacts5SoundD2Ev@Base 15.07.90
 _ZN9KContacts5SoundaSERKS0_@Base 15.07.90
 _ZN9KContacts6Gender10setCommentERK7QString@Base 15.07.90
 _ZN9KContacts6Gender9setGenderERK7QString@Base 15.07.90
 _ZN9KContacts6GenderC1ERK7QString@Base 15.07.90
 _ZN9KContacts6GenderC1ERKS0_@Base 15.07.90
 _ZN9KContacts6GenderC1Ev@Base 15.07.90
 _ZN9KContacts6GenderC2ERK7QString@Base 15.07.90
 _ZN9KContacts6GenderC2ERKS0_@Base 15.07.90
 _ZN9KContacts6GenderC2Ev@Base 15.07.90
 _ZN9KContacts6GenderD1Ev@Base 15.07.90
 _ZN9KContacts6GenderD2Ev@Base 15.07.90
 _ZN9KContacts6GenderaSERKS0_@Base 15.07.90
 _ZN9KContacts7Address10labelLabelEv@Base 15.07.90
 _ZN9KContacts7Address10setCountryERK7QString@Base 15.07.90
 _ZN9KContacts7Address11regionLabelEv@Base 15.07.90
 _ZN9KContacts7Address11setExtendedERK7QString@Base 15.07.90
 _ZN9KContacts7Address11setLocalityERK7QString@Base 15.07.90
 _ZN9KContacts7Address11streetLabelEv@Base 15.07.90
 _ZN9KContacts7Address12ISOtoCountryERK7QString@Base 15.07.90
 _ZN9KContacts7Address12countryLabelEv@Base 15.07.90
 _ZN9KContacts7Address12countryToISOERK7QString@Base 15.07.90
 _ZN9KContacts7Address13extendedLabelEv@Base 15.07.90
 _ZN9KContacts7Address13localityLabelEv@Base 15.07.90
 _ZN9KContacts7Address13setPostalCodeERK7QString@Base 15.07.90
 _ZN9KContacts7Address15postalCodeLabelEv@Base 15.07.90
 _ZN9KContacts7Address16setPostOfficeBoxERK7QString@Base 15.07.90
 _ZN9KContacts7Address18postOfficeBoxLabelEv@Base 15.07.90
 _ZN9KContacts7Address5clearEv@Base 15.07.90
 _ZN9KContacts7Address5setIdERK7QString@Base 15.07.90
 _ZN9KContacts7Address7setTypeE6QFlagsINS0_8TypeFlagEE@Base 15.07.90
 _ZN9KContacts7Address8setLabelERK7QString@Base 15.07.90
 _ZN9KContacts7Address8typeListEv@Base 15.07.90
 _ZN9KContacts7Address9setRegionERK7QString@Base 15.07.90
 _ZN9KContacts7Address9setStreetERK7QString@Base 15.07.90
 _ZN9KContacts7Address9typeLabelE6QFlagsINS0_8TypeFlagEE@Base 15.07.90
 _ZN9KContacts7AddressC1E6QFlagsINS0_8TypeFlagEE@Base 15.07.90
 _ZN9KContacts7AddressC1ERKS0_@Base 15.07.90
 _ZN9KContacts7AddressC1Ev@Base 15.07.90
 _ZN9KContacts7AddressC2E6QFlagsINS0_8TypeFlagEE@Base 15.07.90
 _ZN9KContacts7AddressC2ERKS0_@Base 15.07.90
 _ZN9KContacts7AddressC2Ev@Base 15.07.90
 _ZN9KContacts7AddressD1Ev@Base 15.07.90
 _ZN9KContacts7AddressD2Ev@Base 15.07.90
 _ZN9KContacts7AddressaSERKS0_@Base 15.07.90
 _ZN9KContacts7Picture10setRawDataERK10QByteArrayRK7QString@Base 15.07.90
 _ZN9KContacts7Picture6setUrlERK7QString@Base 15.07.90
 _ZN9KContacts7Picture6setUrlERK7QStringS3_@Base 15.07.90
 _ZN9KContacts7Picture7setDataERK6QImage@Base 15.07.90
 _ZN9KContacts7Picture7setTypeERK7QString@Base 15.07.90
 _ZN9KContacts7PictureC1ERK6QImage@Base 15.07.90
 _ZN9KContacts7PictureC1ERK7QString@Base 15.07.90
 _ZN9KContacts7PictureC1ERKS0_@Base 15.07.90
 _ZN9KContacts7PictureC1Ev@Base 15.07.90
 _ZN9KContacts7PictureC2ERK6QImage@Base 15.07.90
 _ZN9KContacts7PictureC2ERK7QString@Base 15.07.90
 _ZN9KContacts7PictureC2ERKS0_@Base 15.07.90
 _ZN9KContacts7PictureC2Ev@Base 15.07.90
 _ZN9KContacts7PictureD1Ev@Base 15.07.90
 _ZN9KContacts7PictureD2Ev@Base 15.07.90
 _ZN9KContacts7PictureaSERKS0_@Base 15.07.90
 _ZN9KContacts7Related10setRelatedERK7QString@Base 15.07.90
 _ZN9KContacts7Related13setParametersERK4QMapI7QString11QStringListE@Base 15.07.90
 _ZN9KContacts7RelatedC1ERK7QString@Base 15.07.90
 _ZN9KContacts7RelatedC1ERKS0_@Base 15.07.90
 _ZN9KContacts7RelatedC1Ev@Base 15.07.90
 _ZN9KContacts7RelatedC2ERK7QString@Base 15.07.90
 _ZN9KContacts7RelatedC2ERKS0_@Base 15.07.90
 _ZN9KContacts7RelatedC2Ev@Base 15.07.90
 _ZN9KContacts7RelatedD1Ev@Base 15.07.90
 _ZN9KContacts7RelatedD2Ev@Base 15.07.90
 _ZN9KContacts7RelatedaSERKS0_@Base 15.07.90
 _ZN9KContacts7Secrecy7setTypeENS0_4TypeE@Base 15.07.90
 _ZN9KContacts7Secrecy8typeListEv@Base 15.07.90
 _ZN9KContacts7Secrecy9typeLabelENS0_4TypeE@Base 15.07.90
 _ZN9KContacts7SecrecyC1ENS0_4TypeE@Base 15.07.90
 _ZN9KContacts7SecrecyC1ERKS0_@Base 15.07.90
 _ZN9KContacts7SecrecyC2ENS0_4TypeE@Base 15.07.90
 _ZN9KContacts7SecrecyC2ERKS0_@Base 15.07.90
 _ZN9KContacts7SecrecyD1Ev@Base 15.07.90
 _ZN9KContacts7SecrecyD2Ev@Base 15.07.90
 _ZN9KContacts7SecrecyaSERKS0_@Base 15.07.90
 _ZN9KContacts8SortModeD0Ev@Base 15.07.90
 _ZN9KContacts8SortModeD1Ev@Base 15.07.90
 _ZN9KContacts8SortModeD2Ev@Base 15.07.90
 _ZN9KContacts8TimeZone9setOffsetEi@Base 15.07.90
 _ZN9KContacts8TimeZoneC1ERKS0_@Base 15.07.90
 _ZN9KContacts8TimeZoneC1Ei@Base 15.07.90
 _ZN9KContacts8TimeZoneC1Ev@Base 15.07.90
 _ZN9KContacts8TimeZoneC2ERKS0_@Base 15.07.90
 _ZN9KContacts8TimeZoneC2Ei@Base 15.07.90
 _ZN9KContacts8TimeZoneC2Ev@Base 15.07.90
 _ZN9KContacts8TimeZoneD1Ev@Base 15.07.90
 _ZN9KContacts8TimeZoneD2Ev@Base 15.07.90
 _ZN9KContacts8TimeZoneaSERKS0_@Base 15.07.90
 _ZN9KContacts9Addressee10emailLabelEv@Base 15.07.90
 _ZN9KContacts9Addressee10insertImppERKNS_4ImppE@Base 15.07.90
 _ZN9KContacts9Addressee10insertLangERKNS_4LangE@Base 15.07.90
 _ZN9KContacts9Addressee10pagerLabelEv@Base 15.07.90
 _ZN9KContacts9Addressee10photoLabelEv@Base 15.07.90
 _ZN9KContacts9Addressee10removeLangERK7QString@Base 15.07.90
 _ZN9KContacts9Addressee10setChangedEb@Base 15.07.90
 _ZN9KContacts9Addressee10setCustomsERK11QStringList@Base 15.07.90
 _ZN9KContacts9Addressee10setMembersERK11QStringList@Base 15.07.90
 _ZN9KContacts9Addressee10setSecrecyERKNS_7SecrecyE@Base 15.07.90
 _ZN9KContacts9Addressee10soundLabelEv@Base 15.07.90
 _ZN9KContacts9Addressee10titleLabelEv@Base 15.07.90
 _ZN9KContacts9Addressee11insertEmailERK7QStringbRK4QMapIS1_11QStringListE@Base 15.07.90
 _ZN9KContacts9Addressee11mailerLabelEv@Base 15.07.90
 _ZN9KContacts9Addressee11prefixLabelEv@Base 15.07.90
 _ZN9KContacts9Addressee11removeEmailERK7QString@Base 15.07.90
 _ZN9KContacts9Addressee11setBirthdayERK9QDateTime@Base 15.07.90
 _ZN9KContacts9Addressee11setImppListERK7QVectorINS_4ImppEE@Base 15.07.90
 _ZN9KContacts9Addressee11setNickNameERK7QString@Base 15.07.90
 _ZN9KContacts9Addressee11setRevisionERK9QDateTime@Base 15.07.90
 _ZN9KContacts9Addressee11setSortModeEPNS_8SortModeE@Base 15.07.90
 _ZN9KContacts9Addressee11setTimeZoneERKNS_8TimeZoneE@Base 15.07.90
 _ZN9KContacts9Addressee11suffixLabelEv@Base 15.07.90
 _ZN9KContacts9Addressee12homeFaxLabelEv@Base 15.07.90
 _ZN9KContacts9Addressee12insertCustomERK7QStringS3_S3_@Base 15.07.90
 _ZN9KContacts9Addressee12insertMemberERK7QString@Base 15.07.90
 _ZN9KContacts9Addressee12removeCustomERK7QStringS3_@Base 15.07.90
 _ZN9KContacts9Addressee12secrecyLabelEv@Base 15.07.90
 _ZN9KContacts9Addressee12setEmailListERK7QVectorINS_5EmailEE@Base 15.07.90
 _ZN9KContacts9Addressee12setGivenNameERK7QString@Base 15.07.90
 _ZN9KContacts9Addressee12setProductIdERK7QString@Base 15.07.90
 _ZN9KContacts9Addressee13birthdayLabelEv@Base 15.07.90
 _ZN9KContacts9Addressee13carPhoneLabelEv@Base 15.07.90
 _ZN9KContacts9Addressee13insertAddressERKNS_7AddressE@Base 15.07.90
 _ZN9KContacts9Addressee13nickNameLabelEv@Base 15.07.90
 _ZN9KContacts9Addressee13removeAddressERKNS_7AddressE@Base 15.07.90
 _ZN9KContacts9Addressee13revisionLabelEv@Base 15.07.90
 _ZN9KContacts9Addressee13setCategoriesERK11QStringList@Base 15.07.90
 _ZN9KContacts9Addressee13setDepartmentERK7QString@Base 15.07.90
 _ZN9KContacts9Addressee13setFamilyNameERK7QString@Base 15.07.90
 _ZN9KContacts9Addressee13setSortStringERK7QString@Base 15.07.90
 _ZN9KContacts9Addressee13timeZoneLabelEv@Base 15.07.90
 _ZN9KContacts9Addressee14givenNameLabelEv@Base 15.07.90
 _ZN9KContacts9Addressee14homePhoneLabelEv@Base 15.07.90
 _ZN9KContacts9Addressee14insertCategoryERK7QString@Base 15.07.90
 _ZN9KContacts9Addressee14insertExtraUrlERKNS_18ResourceLocatorUrlE@Base 15.07.90
 _ZN9KContacts9Addressee14productIdLabelEv@Base 15.07.90
 _ZN9KContacts9Addressee14removeCategoryERK7QString@Base 15.07.90
 _ZN9KContacts9Addressee15departmentLabelEv@Base 15.07.90
 _ZN9KContacts9Addressee15familyNameLabelEv@Base 15.07.90
 _ZN9KContacts9Addressee15insertExtraLogoERKNS_7PictureE@Base 15.07.90
 _ZN9KContacts9Addressee15insertSourceUrlERK4QUrl@Base 15.07.90
 _ZN9KContacts9Addressee15setExtraUrlListERK7QVectorINS_18ResourceLocatorUrlEE@Base 15.07.90
 _ZN9KContacts9Addressee15setOrganizationERK7QString@Base 15.07.90
 _ZN9KContacts9Addressee15sortStringLabelEv@Base 15.07.90
 _ZN9KContacts9Addressee16businessFaxLabelEv@Base 15.07.90
 _ZN9KContacts9Addressee16insertExtraPhotoERKNS_7PictureE@Base 15.07.90
 _ZN9KContacts9Addressee16insertExtraSoundERKNS_5SoundE@Base 15.07.90
 _ZN9KContacts9Addressee16mobilePhoneLabelEv@Base 15.07.90
 _ZN9KContacts9Addressee16setExtraLogoListERK7QVectorINS_7PictureEE@Base 15.07.90
 _ZN9KContacts9Addressee16setFormattedNameERK7QString@Base 15.07.90
 _ZN9KContacts9Addressee16setRelationShipsERK7QVectorINS_7RelatedEE@Base 15.07.90
 _ZN9KContacts9Addressee17insertCalendarUrlERKNS_11CalendarUrlE@Base 15.07.90
 _ZN9KContacts9Addressee17insertPhoneNumberERKNS_11PhoneNumberE@Base 15.07.90
 _ZN9KContacts9Addressee17organizationLabelEv@Base 15.07.90
 _ZN9KContacts9Addressee17parseEmailAddressERK7QStringRS1_S4_@Base 15.07.90
 _ZN9KContacts9Addressee17removePhoneNumberERKNS_11PhoneNumberE@Base 15.07.90
 _ZN9KContacts9Addressee17setAdditionalNameERK7QString@Base 15.07.90
 _ZN9KContacts9Addressee17setExtraPhotoListERK7QVectorINS_7PictureEE@Base 15.07.90
 _ZN9KContacts9Addressee17setExtraSoundListERK7QVectorINS_5SoundEE@Base 15.07.90
 _ZN9KContacts9Addressee17setNameFromStringERK7QString@Base 15.07.90
 _ZN9KContacts9Addressee17setSourcesUrlListERK7QVectorI4QUrlE@Base 15.07.90
 _ZN9KContacts9Addressee18businessPhoneLabelEv@Base 15.07.90
 _ZN9KContacts9Addressee18formattedNameLabelEv@Base 15.07.90
 _ZN9KContacts9Addressee18insertRelationShipERKNS_7RelatedE@Base 15.07.90
 _ZN9KContacts9Addressee19additionalNameLabelEv@Base 15.07.90
 _ZN9KContacts9Addressee21homeAddressLabelLabelEv@Base 15.07.90
 _ZN9KContacts9Addressee22homeAddressRegionLabelEv@Base 15.07.90
 _ZN9KContacts9Addressee22homeAddressStreetLabelEv@Base 15.07.90
 _ZN9KContacts9Addressee23homeAddressCountryLabelEv@Base 15.07.90
 _ZN9KContacts9Addressee24homeAddressLocalityLabelEv@Base 15.07.90
 _ZN9KContacts9Addressee25businessAddressLabelLabelEv@Base 15.07.90
 _ZN9KContacts9Addressee26businessAddressRegionLabelEv@Base 15.07.90
 _ZN9KContacts9Addressee26businessAddressStreetLabelEv@Base 15.07.90
 _ZN9KContacts9Addressee26homeAddressPostalCodeLabelEv@Base 15.07.90
 _ZN9KContacts9Addressee27businessAddressCountryLabelEv@Base 15.07.90
 _ZN9KContacts9Addressee28businessAddressLocalityLabelEv@Base 15.07.90
 _ZN9KContacts9Addressee29homeAddressPostOfficeBoxLabelEv@Base 15.07.90
 _ZN9KContacts9Addressee30businessAddressPostalCodeLabelEv@Base 15.07.90
 _ZN9KContacts9Addressee33businessAddressPostOfficeBoxLabelEv@Base 15.07.90
 _ZN9KContacts9Addressee6setGeoERKNS_3GeoE@Base 15.07.90
 _ZN9KContacts9Addressee6setUidERK7QString@Base 15.07.90
 _ZN9KContacts9Addressee6setUrlERK4QUrl@Base 15.07.90
 _ZN9KContacts9Addressee6setUrlERKNS_18ResourceLocatorUrlE@Base 15.07.90
 _ZN9KContacts9Addressee7setKeysERK7QVectorINS_3KeyEE@Base 15.07.90
 _ZN9KContacts9Addressee7setKindERK7QString@Base 15.07.90
 _ZN9KContacts9Addressee7setLogoERKNS_7PictureE@Base 15.07.90
 _ZN9KContacts9Addressee7setNameERK7QString@Base 15.07.90
 _ZN9KContacts9Addressee7setNoteERK7QString@Base 15.07.90
 _ZN9KContacts9Addressee7setRoleERK7QString@Base 15.07.90
 _ZN9KContacts9Addressee8geoLabelEv@Base 15.07.90
 _ZN9KContacts9Addressee8mimeTypeEv@Base 15.07.90
 _ZN9KContacts9Addressee8setLangsERK7QVectorINS_4LangEE@Base 15.07.90
 _ZN9KContacts9Addressee8setPhotoERKNS_7PictureE@Base 15.07.90
 _ZN9KContacts9Addressee8setSoundERKNS_5SoundE@Base 15.07.90
 _ZN9KContacts9Addressee8setTitleERK7QString@Base 15.07.90
 _ZN9KContacts9Addressee8uidLabelEv@Base 15.07.90
 _ZN9KContacts9Addressee8urlLabelEv@Base 15.07.90
 _ZN9KContacts9Addressee9insertKeyERKNS_3KeyE@Base 15.07.90
 _ZN9KContacts9Addressee9isdnLabelEv@Base 15.07.90
 _ZN9KContacts9Addressee9logoLabelEv@Base 15.07.90
 _ZN9KContacts9Addressee9nameLabelEv@Base 15.07.90
 _ZN9KContacts9Addressee9noteLabelEv@Base 15.07.90
 _ZN9KContacts9Addressee9removeKeyERKNS_3KeyE@Base 15.07.90
 _ZN9KContacts9Addressee9roleLabelEv@Base 15.07.90
 _ZN9KContacts9Addressee9setEmailsERK11QStringList@Base 15.07.90
 _ZN9KContacts9Addressee9setGenderERKNS_6GenderE@Base 15.07.90
 _ZN9KContacts9Addressee9setMailerERK7QString@Base 15.07.90
 _ZN9KContacts9Addressee9setPrefixERK7QString@Base 15.07.90
 _ZN9KContacts9Addressee9setSuffixERK7QString@Base 15.07.90
 _ZN9KContacts9AddresseeC1ERKS0_@Base 15.07.90
 _ZN9KContacts9AddresseeC1Ev@Base 15.07.90
 _ZN9KContacts9AddresseeC2ERKS0_@Base 15.07.90
 _ZN9KContacts9AddresseeC2Ev@Base 15.07.90
 _ZN9KContacts9AddresseeD1Ev@Base 15.07.90
 _ZN9KContacts9AddresseeD2Ev@Base 15.07.90
 _ZN9KContacts9AddresseeaSERKS0_@Base 15.07.90
 _ZN9KContacts9VCardDrag12fromMimeDataEPK9QMimeDataR10QByteArray@Base 15.07.90
 _ZN9KContacts9VCardDrag12fromMimeDataEPK9QMimeDataRNS_13AddresseeListE@Base 15.07.90
 _ZN9KContacts9VCardDrag16populateMimeDataEP9QMimeDataRK10QByteArray@Base 15.07.90
 _ZN9KContacts9VCardDrag16populateMimeDataEP9QMimeDataRKNS_13AddresseeListE@Base 15.07.90
 _ZN9KContacts9VCardDrag9canDecodeEPK9QMimeData@Base 15.07.90
 _ZN9KContacts9VCardToolC1Ev@Base 15.07.90
 _ZN9KContacts9VCardToolC2Ev@Base 15.07.90
 _ZN9KContacts9VCardToolD1Ev@Base 15.07.90
 _ZN9KContacts9VCardToolD2Ev@Base 15.07.90
 _ZN9KContactslsER11QDataStreamRKNS_11CalendarUrlE@Base 15.07.90
 _ZN9KContactslsER11QDataStreamRKNS_11PhoneNumberE@Base 15.07.90
 _ZN9KContactslsER11QDataStreamRKNS_18ResourceLocatorUrlE@Base 15.07.90
 _ZN9KContactslsER11QDataStreamRKNS_3GeoE@Base 15.07.90
 _ZN9KContactslsER11QDataStreamRKNS_3KeyE@Base 15.07.90
 _ZN9KContactslsER11QDataStreamRKNS_4ImppE@Base 15.07.90
 _ZN9KContactslsER11QDataStreamRKNS_4LangE@Base 15.07.90
 _ZN9KContactslsER11QDataStreamRKNS_5EmailE@Base 15.07.90
 _ZN9KContactslsER11QDataStreamRKNS_5SoundE@Base 15.07.90
 _ZN9KContactslsER11QDataStreamRKNS_6GenderE@Base 15.07.90
 _ZN9KContactslsER11QDataStreamRKNS_7AddressE@Base 15.07.90
 _ZN9KContactslsER11QDataStreamRKNS_7PictureE@Base 15.07.90
 _ZN9KContactslsER11QDataStreamRKNS_7RelatedE@Base 15.07.90
 _ZN9KContactslsER11QDataStreamRKNS_7SecrecyE@Base 15.07.90
 _ZN9KContactslsER11QDataStreamRKNS_8TimeZoneE@Base 15.07.90
 _ZN9KContactslsER11QDataStreamRKNS_9AddresseeE@Base 15.07.90
 _ZN9KContactsrsER11QDataStreamRNS_11CalendarUrlE@Base 15.07.90
 _ZN9KContactsrsER11QDataStreamRNS_11PhoneNumberE@Base 15.07.90
 _ZN9KContactsrsER11QDataStreamRNS_18ResourceLocatorUrlE@Base 15.07.90
 _ZN9KContactsrsER11QDataStreamRNS_3GeoE@Base 15.07.90
 _ZN9KContactsrsER11QDataStreamRNS_3KeyE@Base 15.07.90
 _ZN9KContactsrsER11QDataStreamRNS_4ImppE@Base 15.07.90
 _ZN9KContactsrsER11QDataStreamRNS_4LangE@Base 15.07.90
 _ZN9KContactsrsER11QDataStreamRNS_5EmailE@Base 15.07.90
 _ZN9KContactsrsER11QDataStreamRNS_5SoundE@Base 15.07.90
 _ZN9KContactsrsER11QDataStreamRNS_6GenderE@Base 15.07.90
 _ZN9KContactsrsER11QDataStreamRNS_7AddressE@Base 15.07.90
 _ZN9KContactsrsER11QDataStreamRNS_7PictureE@Base 15.07.90
 _ZN9KContactsrsER11QDataStreamRNS_7RelatedE@Base 15.07.90
 _ZN9KContactsrsER11QDataStreamRNS_7SecrecyE@Base 15.07.90
 _ZN9KContactsrsER11QDataStreamRNS_8TimeZoneE@Base 15.07.90
 _ZN9KContactsrsER11QDataStreamRNS_9AddresseeE@Base 15.07.90
 _ZNK12KConfigGroup9readEntryIiEE5QListIT_EPKcRKS3_@Base 15.07.90
 _ZNK9KContacts11CalendarUrl10parametersEv@Base 15.07.90
 _ZNK9KContacts11CalendarUrl3urlEv@Base 15.07.90
 _ZNK9KContacts11CalendarUrl4typeEv@Base 15.07.90
 _ZNK9KContacts11CalendarUrl7isValidEv@Base 15.07.90
 _ZNK9KContacts11CalendarUrl8toStringEv@Base 15.07.90
 _ZNK9KContacts11CalendarUrleqERKS0_@Base 15.07.90
 _ZNK9KContacts11CalendarUrlneERKS0_@Base 15.07.90
 _ZNK9KContacts11PhoneNumber2idEv@Base 15.07.90
 _ZNK9KContacts11PhoneNumber4typeEv@Base 15.07.90
 _ZNK9KContacts11PhoneNumber6numberEv@Base 15.07.90
 _ZNK9KContacts11PhoneNumber7isEmptyEv@Base 15.07.90
 _ZNK9KContacts11PhoneNumber8toStringEv@Base 15.07.90
 _ZNK9KContacts11PhoneNumber9typeLabelEv@Base 15.07.90
 _ZNK9KContacts11PhoneNumbereqERKS0_@Base 15.07.90
 _ZNK9KContacts11PhoneNumberneERKS0_@Base 15.07.90
 _ZNK9KContacts12ContactGroup16ContactReference14preferredEmailEv@Base 15.07.90
 _ZNK9KContacts12ContactGroup16ContactReference3gidEv@Base 15.07.90
 _ZNK9KContacts12ContactGroup16ContactReference3uidEv@Base 15.07.90
 _ZNK9KContacts12ContactGroup16ContactReference6customERK7QString@Base 15.07.90
 _ZNK9KContacts12ContactGroup16ContactReferenceeqERKS1_@Base 15.07.90
 _ZNK9KContacts12ContactGroup16contactReferenceEj@Base 15.07.90
 _ZNK9KContacts12ContactGroup21ContactGroupReference3uidEv@Base 15.07.90
 _ZNK9KContacts12ContactGroup21ContactGroupReference6customERK7QString@Base 15.07.90
 _ZNK9KContacts12ContactGroup21ContactGroupReferenceeqERKS1_@Base 15.07.90
 _ZNK9KContacts12ContactGroup21contactGroupReferenceEj@Base 15.07.90
 _ZNK9KContacts12ContactGroup21contactReferenceCountEv@Base 15.07.90
 _ZNK9KContacts12ContactGroup26contactGroupReferenceCountEv@Base 15.07.90
 _ZNK9KContacts12ContactGroup2idEv@Base 15.07.90
 _ZNK9KContacts12ContactGroup4Data4nameEv@Base 15.07.90
 _ZNK9KContacts12ContactGroup4Data5emailEv@Base 15.07.90
 _ZNK9KContacts12ContactGroup4Data6customERK7QString@Base 15.07.90
 _ZNK9KContacts12ContactGroup4DataeqERKS1_@Base 15.07.90
 _ZNK9KContacts12ContactGroup4dataEj@Base 15.07.90
 _ZNK9KContacts12ContactGroup4nameEv@Base 15.07.90
 _ZNK9KContacts12ContactGroup5countEv@Base 15.07.90
 _ZNK9KContacts12ContactGroup9dataCountEv@Base 15.07.90
 _ZNK9KContacts12ContactGroupeqERKS0_@Base 15.07.90
 _ZNK9KContacts12NameSortMode6lesserERKNS_9AddresseeES3_@Base 15.07.90
 _ZNK9KContacts13AddresseeList12sortingFieldEv@Base 15.07.90
 _ZNK9KContacts13AddresseeList14reverseSortingEv@Base 15.07.90
 _ZNK9KContacts13AddresseeList16sortingCriterionEv@Base 15.07.90
 _ZNK9KContacts13AddresseeList8toStringEv@Base 15.07.90
 _ZNK9KContacts13FieldSortMode6lesserERKNS_9AddresseeES3_@Base 15.07.90
 _ZNK9KContacts14VCardConverter10parseVCardERK10QByteArray@Base 15.07.90
 _ZNK9KContacts14VCardConverter11createVCardERKNS_9AddresseeENS0_7VersionE@Base 15.07.90
 _ZNK9KContacts14VCardConverter11exportVCardERKNS_9AddresseeENS0_7VersionE@Base 15.07.90
 _ZNK9KContacts14VCardConverter11parseVCardsERK10QByteArray@Base 15.07.90
 _ZNK9KContacts14VCardConverter12createVCardsERKNS_13AddresseeListENS0_7VersionE@Base 15.07.90
 _ZNK9KContacts14VCardConverter12exportVCardsERKNS_13AddresseeListENS0_7VersionE@Base 15.07.90
 _ZNK9KContacts15AddresseeHelper10metaObjectEv@Base 15.07.90
 _ZNK9KContacts15AddresseeHelper13containsTitleERK7QString@Base 15.07.90
 _ZNK9KContacts15AddresseeHelper14containsPrefixERK7QString@Base 15.07.90
 _ZNK9KContacts15AddresseeHelper14containsSuffixERK7QString@Base 15.07.90
 _ZNK9KContacts15AddresseeHelper17tradeAsFamilyNameEv@Base 15.07.90
 _ZNK9KContacts18ResourceLocatorUrl10parametersEv@Base 15.07.90
 _ZNK9KContacts18ResourceLocatorUrl3urlEv@Base 15.07.90
 _ZNK9KContacts18ResourceLocatorUrl7isValidEv@Base 15.07.90
 _ZNK9KContacts18ResourceLocatorUrl8toStringEv@Base 15.07.90
 _ZNK9KContacts18ResourceLocatorUrleqERKS0_@Base 15.07.90
 _ZNK9KContacts18ResourceLocatorUrlneERKS0_@Base 15.07.90
 _ZNK9KContacts3Geo7isValidEv@Base 15.07.90
 _ZNK9KContacts3Geo8latitudeEv@Base 15.07.90
 _ZNK9KContacts3Geo8toStringEv@Base 15.07.90
 _ZNK9KContacts3Geo9longitudeEv@Base 15.07.90
 _ZNK9KContacts3GeoeqERKS0_@Base 15.07.90
 _ZNK9KContacts3GeoneERKS0_@Base 15.07.90
 _ZNK9KContacts3Key10binaryDataEv@Base 15.07.90
 _ZNK9KContacts3Key16customTypeStringEv@Base 15.07.90
 _ZNK9KContacts3Key2idEv@Base 15.07.90
 _ZNK9KContacts3Key4typeEv@Base 15.07.90
 _ZNK9KContacts3Key8isBinaryEv@Base 15.07.90
 _ZNK9KContacts3Key8textDataEv@Base 15.07.90
 _ZNK9KContacts3Key8toStringEv@Base 15.07.90
 _ZNK9KContacts3KeyeqERKS0_@Base 15.07.90
 _ZNK9KContacts3KeyneERKS0_@Base 15.07.90
 _ZNK9KContacts4Impp10parametersEv@Base 15.07.90
 _ZNK9KContacts4Impp4typeEv@Base 15.07.90
 _ZNK9KContacts4Impp7addressEv@Base 15.07.90
 _ZNK9KContacts4Impp7isValidEv@Base 15.07.90
 _ZNK9KContacts4Impp8toStringEv@Base 15.07.90
 _ZNK9KContacts4ImppeqERKS0_@Base 15.07.90
 _ZNK9KContacts4ImppneERKS0_@Base 15.07.90
 _ZNK9KContacts4Lang10parametersEv@Base 15.07.90
 _ZNK9KContacts4Lang7isValidEv@Base 15.07.90
 _ZNK9KContacts4Lang8languageEv@Base 15.07.90
 _ZNK9KContacts4Lang8toStringEv@Base 15.07.90
 _ZNK9KContacts4LangeqERKS0_@Base 15.07.90
 _ZNK9KContacts4LangneERKS0_@Base 15.07.90
 _ZNK9KContacts5Email10parametersEv@Base 15.07.90
 _ZNK9KContacts5Email4mailEv@Base 15.07.90
 _ZNK9KContacts5Email7isValidEv@Base 15.07.90
 _ZNK9KContacts5Email8toStringEv@Base 15.07.90
 _ZNK9KContacts5EmaileqERKS0_@Base 15.07.90
 _ZNK9KContacts5EmailneERKS0_@Base 15.07.90
 _ZNK9KContacts5Sound3urlEv@Base 15.07.90
 _ZNK9KContacts5Sound4dataEv@Base 15.07.90
 _ZNK9KContacts5Sound7isEmptyEv@Base 15.07.90
 _ZNK9KContacts5Sound8isInternEv@Base 15.07.90
 _ZNK9KContacts5Sound8toStringEv@Base 15.07.90
 _ZNK9KContacts5SoundeqERKS0_@Base 15.07.90
 _ZNK9KContacts5SoundneERKS0_@Base 15.07.90
 _ZNK9KContacts6Gender6genderEv@Base 15.07.90
 _ZNK9KContacts6Gender7commentEv@Base 15.07.90
 _ZNK9KContacts6Gender7isValidEv@Base 15.07.90
 _ZNK9KContacts6Gender8toStringEv@Base 15.07.90
 _ZNK9KContacts6GendereqERKS0_@Base 15.07.90
 _ZNK9KContacts6GenderneERKS0_@Base 15.07.90
 _ZNK9KContacts7Address10postalCodeEv@Base 15.07.90
 _ZNK9KContacts7Address13postOfficeBoxEv@Base 15.07.90
 _ZNK9KContacts7Address16formattedAddressERK7QStringS3_@Base 15.07.90
 _ZNK9KContacts7Address2idEv@Base 15.07.90
 _ZNK9KContacts7Address4typeEv@Base 15.07.90
 _ZNK9KContacts7Address5labelEv@Base 15.07.90
 _ZNK9KContacts7Address6regionEv@Base 15.07.90
 _ZNK9KContacts7Address6streetEv@Base 15.07.90
 _ZNK9KContacts7Address7countryEv@Base 15.07.90
 _ZNK9KContacts7Address7isEmptyEv@Base 15.07.90
 _ZNK9KContacts7Address8extendedEv@Base 15.07.90
 _ZNK9KContacts7Address8localityEv@Base 15.07.90
 _ZNK9KContacts7Address8toStringEv@Base 15.07.90
 _ZNK9KContacts7Address9typeLabelEv@Base 15.07.90
 _ZNK9KContacts7AddresseqERKS0_@Base 15.07.90
 _ZNK9KContacts7AddressneERKS0_@Base 15.07.90
 _ZNK9KContacts7Picture3urlEv@Base 15.07.90
 _ZNK9KContacts7Picture4dataEv@Base 15.07.90
 _ZNK9KContacts7Picture4typeEv@Base 15.07.90
 _ZNK9KContacts7Picture7isEmptyEv@Base 15.07.90
 _ZNK9KContacts7Picture7rawDataEv@Base 15.07.90
 _ZNK9KContacts7Picture8isInternEv@Base 15.07.90
 _ZNK9KContacts7Picture8toStringEv@Base 15.07.90
 _ZNK9KContacts7PictureeqERKS0_@Base 15.07.90
 _ZNK9KContacts7PictureneERKS0_@Base 15.07.90
 _ZNK9KContacts7Related10parametersEv@Base 15.07.90
 _ZNK9KContacts7Related7isValidEv@Base 15.07.90
 _ZNK9KContacts7Related7relatedEv@Base 15.07.90
 _ZNK9KContacts7Related8toStringEv@Base 15.07.90
 _ZNK9KContacts7RelatedeqERKS0_@Base 15.07.90
 _ZNK9KContacts7RelatedneERKS0_@Base 15.07.90
 _ZNK9KContacts7Secrecy4typeEv@Base 15.07.90
 _ZNK9KContacts7Secrecy7isValidEv@Base 15.07.90
 _ZNK9KContacts7Secrecy8toStringEv@Base 15.07.90
 _ZNK9KContacts7SecrecyeqERKS0_@Base 15.07.90
 _ZNK9KContacts7SecrecyneERKS0_@Base 15.07.90
 _ZNK9KContacts8TimeZone6offsetEv@Base 15.07.90
 _ZNK9KContacts8TimeZone7isValidEv@Base 15.07.90
 _ZNK9KContacts8TimeZone8toStringEv@Base 15.07.90
 _ZNK9KContacts8TimeZoneeqERKS0_@Base 15.07.90
 _ZNK9KContacts8TimeZoneneERKS0_@Base 15.07.90
 _ZNK9KContacts9Addressee10categoriesEv@Base 15.07.90
 _ZNK9KContacts9Addressee10departmentEv@Base 15.07.90
 _ZNK9KContacts9Addressee10familyNameEv@Base 15.07.90
 _ZNK9KContacts9Addressee10sortStringEv@Base 15.07.90
 _ZNK9KContacts9Addressee11findAddressERK7QString@Base 15.07.90
 _ZNK9KContacts9Addressee11hasCategoryERK7QString@Base 15.07.90
 _ZNK9KContacts9Addressee11phoneNumberE6QFlagsINS_11PhoneNumber8TypeFlagEE@Base 15.07.90
 _ZNK9KContacts9Addressee12extraUrlListEv@Base 15.07.90
 _ZNK9KContacts9Addressee12organizationEv@Base 15.07.90
 _ZNK9KContacts9Addressee12phoneNumbersE6QFlagsINS_11PhoneNumber8TypeFlagEE@Base 15.07.90
 _ZNK9KContacts9Addressee12phoneNumbersEv@Base 15.07.90
 _ZNK9KContacts9Addressee13assembledNameEv@Base 15.07.90
 _ZNK9KContacts9Addressee13extraLogoListEv@Base 15.07.90
 _ZNK9KContacts9Addressee13formattedNameEv@Base 15.07.90
 _ZNK9KContacts9Addressee13relationShipsEv@Base 15.07.90
 _ZNK9KContacts9Addressee14additionalNameEv@Base 15.07.90
 _ZNK9KContacts9Addressee14extraPhotoListEv@Base 15.07.90
 _ZNK9KContacts9Addressee14extraSoundListEv@Base 15.07.90
 _ZNK9KContacts9Addressee14preferredEmailEv@Base 15.07.90
 _ZNK9KContacts9Addressee14sourcesUrlListEv@Base 15.07.90
 _ZNK9KContacts9Addressee15calendarUrlListEv@Base 15.07.90
 _ZNK9KContacts9Addressee15findPhoneNumberERK7QString@Base 15.07.90
 _ZNK9KContacts9Addressee3geoEv@Base 15.07.90
 _ZNK9KContacts9Addressee3keyENS_3Key4TypeERK7QString@Base 15.07.90
 _ZNK9KContacts9Addressee3uidEv@Base 15.07.90
 _ZNK9KContacts9Addressee3urlEv@Base 15.07.90
 _ZNK9KContacts9Addressee4keysENS_3Key4TypeERK7QString@Base 15.07.90
 _ZNK9KContacts9Addressee4keysEv@Base 15.07.90
 _ZNK9KContacts9Addressee4kindEv@Base 15.07.90
 _ZNK9KContacts9Addressee4logoEv@Base 15.07.90
 _ZNK9KContacts9Addressee4nameEv@Base 15.07.90
 _ZNK9KContacts9Addressee4noteEv@Base 15.07.90
 _ZNK9KContacts9Addressee4roleEv@Base 15.07.90
 _ZNK9KContacts9Addressee5langsEv@Base 15.07.90
 _ZNK9KContacts9Addressee5photoEv@Base 15.07.90
 _ZNK9KContacts9Addressee5soundEv@Base 15.07.90
 _ZNK9KContacts9Addressee5titleEv@Base 15.07.90
 _ZNK9KContacts9Addressee6customERK7QStringS3_@Base 15.07.90
 _ZNK9KContacts9Addressee6emailsEv@Base 15.07.90
 _ZNK9KContacts9Addressee6genderEv@Base 15.07.90
 _ZNK9KContacts9Addressee6mailerEv@Base 15.07.90
 _ZNK9KContacts9Addressee6prefixEv@Base 15.07.90
 _ZNK9KContacts9Addressee6suffixEv@Base 15.07.90
 _ZNK9KContacts9Addressee7addressE6QFlagsINS_7Address8TypeFlagEE@Base 15.07.90
 _ZNK9KContacts9Addressee7changedEv@Base 15.07.90
 _ZNK9KContacts9Addressee7customsEv@Base 15.07.90
 _ZNK9KContacts9Addressee7findKeyERK7QString@Base 15.07.90
 _ZNK9KContacts9Addressee7isEmptyEv@Base 15.07.90
 _ZNK9KContacts9Addressee7membersEv@Base 15.07.90
 _ZNK9KContacts9Addressee7secrecyEv@Base 15.07.90
 _ZNK9KContacts9Addressee8birthdayEv@Base 15.07.90
 _ZNK9KContacts9Addressee8imppListEv@Base 15.07.90
 _ZNK9KContacts9Addressee8nickNameEv@Base 15.07.90
 _ZNK9KContacts9Addressee8realNameEv@Base 15.07.90
 _ZNK9KContacts9Addressee8revisionEv@Base 15.07.90
 _ZNK9KContacts9Addressee8timeZoneEv@Base 15.07.90
 _ZNK9KContacts9Addressee8toStringEv@Base 15.07.90
 _ZNK9KContacts9Addressee9addressesE6QFlagsINS_7Address8TypeFlagEE@Base 15.07.90
 _ZNK9KContacts9Addressee9addressesEv@Base 15.07.90
 _ZNK9KContacts9Addressee9emailListEv@Base 15.07.90
 _ZNK9KContacts9Addressee9fullEmailERK7QString@Base 15.07.90
 _ZNK9KContacts9Addressee9givenNameEv@Base 15.07.90
 _ZNK9KContacts9Addressee9productIdEv@Base 15.07.90
 _ZNK9KContacts9AddresseeeqERKS0_@Base 15.07.90
 _ZNK9KContacts9AddresseeltERKS0_@Base 15.07.90
 _ZNK9KContacts9AddresseeneERKS0_@Base 15.07.90
 _ZNK9KContacts9VCardTool10parseSoundERKNS_9VCardLineE@Base 15.07.90
 _ZNK9KContacts9VCardTool11createSoundERKNS_5SoundENS_5VCard7VersionE@Base 15.07.90
 _ZNK9KContacts9VCardTool11parseVCardsERK10QByteArray@Base 15.07.90
 _ZNK9KContacts9VCardTool11splitStringE5QCharRK7QString@Base 15.12.0
 _ZNK9KContacts9VCardTool12addParameterERNS_9VCardLineENS_5VCard7VersionERK7QStringRK11QStringList@Base 15.07.90
 _ZNK9KContacts9VCardTool12createVCardsERKNS_13AddresseeListENS_5VCard7VersionE@Base 15.07.90
 _ZNK9KContacts9VCardTool12createVCardsERKNS_13AddresseeListENS_5VCard7VersionEb@Base 15.07.90
 _ZNK9KContacts9VCardTool12exportVCardsERKNS_13AddresseeListENS_5VCard7VersionE@Base 15.07.90
 _ZNK9KContacts9VCardTool12parsePictureERKNS_9VCardLineE@Base 15.07.90
 _ZNK9KContacts9VCardTool12parseSecrecyERKNS_9VCardLineE@Base 15.07.90
 _ZNK9KContacts9VCardTool13createPictureERK7QStringRKNS_7PictureENS_5VCard7VersionE@Base 15.07.90
 _ZNK9KContacts9VCardTool13createSecrecyERKNS_7SecrecyE@Base 15.07.90
 _ZNK9KContacts9VCardTool13parseDateTimeERK7QString@Base 15.07.90
 _ZNK9KContacts9VCardTool14createDateTimeERK9QDateTime@Base 15.07.90
 _ZNK9KContacts9VCardTool8parseKeyERKNS_9VCardLineE@Base 15.07.90
 _ZNK9KContacts9VCardTool9createKeyERKNS_3KeyENS_5VCard7VersionE@Base 15.07.90
 _ZTIN9KContacts12NameSortModeE@Base 15.07.90
 _ZTIN9KContacts13FieldSortModeE@Base 15.07.90
 _ZTIN9KContacts15AddresseeHelperE@Base 15.07.90
 _ZTIN9KContacts5FieldE@Base 15.07.90
 _ZTIN9KContacts8SortModeE@Base 15.07.90
 _ZTSN9KContacts12NameSortModeE@Base 15.07.90
 _ZTSN9KContacts13FieldSortModeE@Base 15.07.90
 _ZTSN9KContacts15AddresseeHelperE@Base 15.07.90
 _ZTSN9KContacts5FieldE@Base 15.07.90
 _ZTSN9KContacts8SortModeE@Base 15.07.90
 _ZTVN9KContacts12NameSortModeE@Base 15.07.90
 _ZTVN9KContacts13FieldSortModeE@Base 15.07.90
 _ZTVN9KContacts15AddresseeHelperE@Base 15.07.90
 _ZTVN9KContacts5FieldE@Base 15.07.90
 _ZTVN9KContacts8SortModeE@Base 15.07.90
