libKF5Bookmarks.so.5 libkf5bookmarks5 #MINVER#
 _ZN13KBookmarkMenu10addActionsEv@Base 4.96.0
 _ZN13KBookmarkMenu11contextMenuEP7QAction@Base 4.96.0
 _ZN13KBookmarkMenu11qt_metacallEN11QMetaObject4CallEiPPv@Base 4.96.0
 _ZN13KBookmarkMenu11qt_metacastEPKc@Base 4.96.0
 _ZN13KBookmarkMenu12addNewFolderEv@Base 4.96.0
 _ZN13KBookmarkMenu13addOpenInTabsEv@Base 4.96.0
 _ZN13KBookmarkMenu13fillBookmarksEv@Base 4.96.0
 _ZN13KBookmarkMenu13slotNewFolderEv@Base 4.96.0
 _ZN13KBookmarkMenu14addAddBookmarkEv@Base 4.96.0
 _ZN13KBookmarkMenu14ensureUpToDateEv@Base 4.96.0
 _ZN13KBookmarkMenu15slotAboutToShowEv@Base 4.96.0
 _ZN13KBookmarkMenu15slotAddBookmarkEv@Base 4.96.0
 _ZN13KBookmarkMenu16addEditBookmarksEv@Base 4.96.0
 _ZN13KBookmarkMenu16staticMetaObjectE@Base 4.96.0
 _ZN13KBookmarkMenu17actionForBookmarkERK9KBookmark@Base 4.96.0
 _ZN13KBookmarkMenu19addAddBookmarksListEv@Base 4.96.0
 _ZN13KBookmarkMenu20slotAddBookmarksListEv@Base 4.96.0
 _ZN13KBookmarkMenu20slotBookmarksChangedERK7QString@Base 4.96.0
 _ZN13KBookmarkMenu20slotOpenFolderInTabsEv@Base 4.96.0
 _ZN13KBookmarkMenu21slotCustomContextMenuERK6QPoint@Base 4.96.0
 _ZN13KBookmarkMenu5clearEv@Base 4.96.0
 _ZN13KBookmarkMenu6refillEv@Base 4.96.0
 _ZN13KBookmarkMenuC1EP16KBookmarkManagerP14KBookmarkOwnerP5QMenuP17KActionCollection@Base 4.96.0
 _ZN13KBookmarkMenuC1EP16KBookmarkManagerP14KBookmarkOwnerP5QMenuRK7QString@Base 4.96.0
 _ZN13KBookmarkMenuC2EP16KBookmarkManagerP14KBookmarkOwnerP5QMenuP17KActionCollection@Base 4.96.0
 _ZN13KBookmarkMenuC2EP16KBookmarkManagerP14KBookmarkOwnerP5QMenuRK7QString@Base 4.96.0
 _ZN13KBookmarkMenuD0Ev@Base 4.96.0
 _ZN13KBookmarkMenuD1Ev@Base 4.96.0
 _ZN13KBookmarkMenuD2Ev@Base 4.96.0
 _ZN14KBookmarkGroup11addBookmarkERK7QStringRK4QUrlS2_@Base 4.96.0
 _ZN14KBookmarkGroup11addBookmarkERK9KBookmark@Base 4.96.0
 _ZN14KBookmarkGroup12moveBookmarkERK9KBookmarkS2_@Base 4.96.0
 _ZN14KBookmarkGroup14deleteBookmarkERK9KBookmark@Base 4.96.0
 _ZN14KBookmarkGroup15createNewFolderERK7QString@Base 4.96.0
 _ZN14KBookmarkGroup18createNewSeparatorEv@Base 4.96.0
 _ZN14KBookmarkGroupC1ERK11QDomElement@Base 4.96.0
 _ZN14KBookmarkGroupC1Ev@Base 4.96.0
 _ZN14KBookmarkGroupC2ERK11QDomElement@Base 4.96.0
 _ZN14KBookmarkGroupC2Ev@Base 4.96.0
 _ZN14KBookmarkOwner12openInNewTabERK9KBookmark@Base 4.96.0
 _ZN14KBookmarkOwner14FutureBookmarkC1ERK7QStringRK4QUrlS3_@Base 4.96.0
 _ZN14KBookmarkOwner14FutureBookmarkC1ERKS0_@Base 4.96.0
 _ZN14KBookmarkOwner14FutureBookmarkC2ERK7QStringRK4QUrlS3_@Base 4.96.0
 _ZN14KBookmarkOwner14FutureBookmarkC2ERKS0_@Base 4.96.0
 _ZN14KBookmarkOwner14FutureBookmarkD1Ev@Base 4.96.0
 _ZN14KBookmarkOwner14FutureBookmarkD2Ev@Base 4.96.0
 _ZN14KBookmarkOwner14FutureBookmarkaSERKS0_@Base 4.96.0
 _ZN14KBookmarkOwner14bookmarkDialogEP16KBookmarkManagerP7QWidget@Base 4.96.0
 _ZN14KBookmarkOwner15openInNewWindowERK9KBookmark@Base 4.96.0
 _ZN14KBookmarkOwner16openFolderinTabsERK14KBookmarkGroup@Base 4.96.0
 _ZN15KBookmarkAction11qt_metacallEN11QMetaObject4CallEiPPv@Base 4.96.0
 _ZN15KBookmarkAction11qt_metacastEPKc@Base 4.96.0
 _ZN15KBookmarkAction12slotSelectedE6QFlagsIN2Qt11MouseButtonEES0_INS1_16KeyboardModifierEE@Base 4.96.0
 _ZN15KBookmarkAction13slotTriggeredEv@Base 5.1.0
 _ZN15KBookmarkAction16staticMetaObjectE@Base 4.96.0
 _ZN15KBookmarkActionC1ERK9KBookmarkP14KBookmarkOwnerP7QObject@Base 4.96.0
 _ZN15KBookmarkActionC2ERK9KBookmarkP14KBookmarkOwnerP7QObject@Base 4.96.0
 _ZN15KBookmarkActionD0Ev@Base 4.96.0
 _ZN15KBookmarkActionD1Ev@Base 4.96.0
 _ZN15KBookmarkActionD2Ev@Base 4.96.0
 _ZN15KBookmarkDialog11addBookmarkERK7QStringRK4QUrlS2_9KBookmark@Base 4.96.0
 _ZN15KBookmarkDialog11qt_metacallEN11QMetaObject4CallEiPPv@Base 4.96.0
 _ZN15KBookmarkDialog11qt_metacastEPKc@Base 4.96.0
 _ZN15KBookmarkDialog12addBookmarksERK5QListIN14KBookmarkOwner14FutureBookmarkEERK7QString14KBookmarkGroup@Base 4.96.0
 _ZN15KBookmarkDialog12editBookmarkERK9KBookmark@Base 4.96.0
 _ZN15KBookmarkDialog12selectFolderE9KBookmark@Base 4.96.0
 _ZN15KBookmarkDialog15createNewFolderERK7QString9KBookmark@Base 4.96.0
 _ZN15KBookmarkDialog15newFolderButtonEv@Base 4.96.0
 _ZN15KBookmarkDialog16staticMetaObjectE@Base 4.96.0
 _ZN15KBookmarkDialog6acceptEv@Base 4.96.0
 _ZN15KBookmarkDialogC1EP16KBookmarkManagerP7QWidget@Base 4.96.0
 _ZN15KBookmarkDialogC2EP16KBookmarkManagerP7QWidget@Base 4.96.0
 _ZN15KBookmarkDialogD0Ev@Base 4.96.0
 _ZN15KBookmarkDialogD1Ev@Base 4.96.0
 _ZN15KBookmarkDialogD2Ev@Base 4.96.0
 _ZN16KBookmarkManager11emitChangedERK14KBookmarkGroup@Base 4.96.0
 _ZN16KBookmarkManager11emitChangedEv@Base 4.96.0
 _ZN16KBookmarkManager11qt_metacallEN11QMetaObject4CallEiPPv@Base 4.96.0
 _ZN16KBookmarkManager11qt_metacastEPKc@Base 4.96.0
 _ZN16KBookmarkManager13configChangedEv@Base 4.96.0
 _ZN16KBookmarkManager13findByAddressERK7QString@Base 4.96.0
 _ZN16KBookmarkManager13notifyChangedERK7QStringRK12QDBusMessage@Base 4.96.0
 _ZN16KBookmarkManager13updateFaviconERK7QStringS2_@Base 4.96.0
 _ZN16KBookmarkManager14managerForFileERK7QStringS2_@Base 4.96.0
 _ZN16KBookmarkManager15slotFileChangedERK7QString@Base 4.96.0
 _ZN16KBookmarkManager16bookmarksChangedE7QString@Base 4.96.0
 _ZN16KBookmarkManager16setEditorOptionsERK7QStringb@Base 4.96.0
 _ZN16KBookmarkManager16staticMetaObjectE@Base 4.96.0
 _ZN16KBookmarkManager17createTempManagerEv@Base 4.96.0
 _ZN16KBookmarkManager17emitConfigChangedEv@Base 4.96.0
 _ZN16KBookmarkManager17slotEditBookmarksEv@Base 4.96.0
 _ZN16KBookmarkManager19notifyConfigChangedEv@Base 4.96.0
 _ZN16KBookmarkManager20notifyCompleteChangeERK7QString@Base 4.96.0
 _ZN16KBookmarkManager20updateAccessMetadataERK7QString@Base 4.96.0
 _ZN16KBookmarkManager20userBookmarksManagerEv@Base 4.96.0
 _ZN16KBookmarkManager21bookmarkConfigChangedEv@Base 4.96.0
 _ZN16KBookmarkManager22bookmarkCompleteChangeE7QString@Base 4.96.0
 _ZN16KBookmarkManager22managerForExternalFileERK7QString@Base 4.96.0
 _ZN16KBookmarkManager26slotEditBookmarksAtAddressERK7QString@Base 4.96.0
 _ZN16KBookmarkManager27setAutoErrorHandlingEnabledEbP7QWidget@Base 4.96.0
 _ZN16KBookmarkManager4initERK7QString@Base 4.96.0
 _ZN16KBookmarkManager5errorERK7QString@Base 4.96.0
 _ZN16KBookmarkManager7changedERK7QStringS2_@Base 4.96.0
 _ZN16KBookmarkManager7toolbarEv@Base 4.96.0
 _ZN16KBookmarkManager9setUpdateEb@Base 4.96.0
 _ZN16KBookmarkManagerC1ERK7QString@Base 4.96.0
 _ZN16KBookmarkManagerC1ERK7QStringS2_@Base 4.96.0
 _ZN16KBookmarkManagerC1Ev@Base 4.96.0
 _ZN16KBookmarkManagerC2ERK7QString@Base 4.96.0
 _ZN16KBookmarkManagerC2ERK7QStringS2_@Base 4.96.0
 _ZN16KBookmarkManagerC2Ev@Base 4.96.0
 _ZN16KBookmarkManagerD0Ev@Base 4.96.0
 _ZN16KBookmarkManagerD1Ev@Base 4.96.0
 _ZN16KBookmarkManagerD2Ev@Base 4.96.0
 _ZN16KonqBookmarkMenu11contextMenuEP7QAction@Base 4.96.0
 _ZN16KonqBookmarkMenu11qt_metacallEN11QMetaObject4CallEiPPv@Base 4.96.0
 _ZN16KonqBookmarkMenu11qt_metacastEPKc@Base 4.96.0
 _ZN16KonqBookmarkMenu16staticMetaObjectE@Base 4.96.0
 _ZN16KonqBookmarkMenu17actionForBookmarkERK9KBookmark@Base 4.96.0
 _ZN16KonqBookmarkMenu19setDynamicBookmarksERK7QStringRKNS_11DynMenuInfoE@Base 4.96.0
 _ZN16KonqBookmarkMenu20dynamicBookmarksListEv@Base 4.96.0
 _ZN16KonqBookmarkMenu20fillDynamicBookmarksEv@Base 4.96.0
 _ZN16KonqBookmarkMenu20showDynamicBookmarksERK7QString@Base 4.96.0
 _ZN16KonqBookmarkMenu6refillEv@Base 4.96.0
 _ZN19KBookmarkActionMenuC1ERK9KBookmarkP7QObject@Base 4.96.0
 _ZN19KBookmarkActionMenuC1ERK9KBookmarkRK7QStringP7QObject@Base 4.96.0
 _ZN19KBookmarkActionMenuC2ERK9KBookmarkP7QObject@Base 4.96.0
 _ZN19KBookmarkActionMenuC2ERK9KBookmarkRK7QStringP7QObject@Base 4.96.0
 _ZN19KBookmarkActionMenuD0Ev@Base 4.96.0
 _ZN19KBookmarkActionMenuD1Ev@Base 4.96.0
 _ZN19KBookmarkActionMenuD2Ev@Base 4.96.0
 _ZN19KBookmarkDomBuilder11newBookmarkERK7QStringS2_S2_@Base 4.96.0
 _ZN19KBookmarkDomBuilder11qt_metacallEN11QMetaObject4CallEiPPv@Base 4.96.0
 _ZN19KBookmarkDomBuilder11qt_metacastEPKc@Base 4.96.0
 _ZN19KBookmarkDomBuilder12newSeparatorEv@Base 4.96.0
 _ZN19KBookmarkDomBuilder15connectImporterEPK7QObject@Base 4.96.0
 _ZN19KBookmarkDomBuilder16staticMetaObjectE@Base 4.96.0
 _ZN19KBookmarkDomBuilder9endFolderEv@Base 4.96.0
 _ZN19KBookmarkDomBuilder9newFolderERK7QStringbS2_@Base 4.96.0
 _ZN19KBookmarkDomBuilderC1ERK14KBookmarkGroupP16KBookmarkManager@Base 4.96.0
 _ZN19KBookmarkDomBuilderC2ERK14KBookmarkGroupP16KBookmarkManager@Base 4.96.0
 _ZN19KBookmarkDomBuilderD0Ev@Base 4.96.0
 _ZN19KBookmarkDomBuilderD1Ev@Base 4.96.0
 _ZN19KBookmarkDomBuilderD2Ev@Base 4.96.0
 _ZN20KBookmarkContextMenu10addActionsEv@Base 4.96.0
 _ZN20KBookmarkContextMenu10slotEditAtEv@Base 4.96.0
 _ZN20KBookmarkContextMenu10slotInsertEv@Base 4.96.0
 _ZN20KBookmarkContextMenu10slotRemoveEv@Base 4.96.0
 _ZN20KBookmarkContextMenu11addBookmarkEv@Base 4.96.0
 _ZN20KBookmarkContextMenu11qt_metacallEN11QMetaObject4CallEiPPv@Base 4.96.0
 _ZN20KBookmarkContextMenu11qt_metacastEPKc@Base 4.96.0
 _ZN20KBookmarkContextMenu13addPropertiesEv@Base 4.96.0
 _ZN20KBookmarkContextMenu14slotPropertiesEv@Base 4.96.0
 _ZN20KBookmarkContextMenu15slotAboutToShowEv@Base 4.96.0
 _ZN20KBookmarkContextMenu16addFolderActionsEv@Base 4.96.0
 _ZN20KBookmarkContextMenu16slotCopyLocationEv@Base 4.96.0
 _ZN20KBookmarkContextMenu16staticMetaObjectE@Base 4.96.0
 _ZN20KBookmarkContextMenu18addBookmarkActionsEv@Base 4.96.0
 _ZN20KBookmarkContextMenu19addOpenFolderInTabsEv@Base 4.96.0
 _ZN20KBookmarkContextMenu20slotOpenFolderInTabsEv@Base 4.96.0
 _ZN20KBookmarkContextMenuC1ERK9KBookmarkP16KBookmarkManagerP14KBookmarkOwnerP7QWidget@Base 4.96.0
 _ZN20KBookmarkContextMenuC2ERK9KBookmarkP16KBookmarkManagerP14KBookmarkOwnerP7QWidget@Base 4.96.0
 _ZN20KBookmarkContextMenuD0Ev@Base 4.96.0
 _ZN20KBookmarkContextMenuD1Ev@Base 4.96.0
 _ZN20KBookmarkContextMenuD2Ev@Base 4.96.0
 _ZN21KBookmarkImporterBase11newBookmarkERK7QStringS2_S2_@Base 4.96.0
 _ZN21KBookmarkImporterBase11qt_metacallEN11QMetaObject4CallEiPPv@Base 4.96.0
 _ZN21KBookmarkImporterBase11qt_metacastEPKc@Base 4.96.0
 _ZN21KBookmarkImporterBase12newSeparatorEv@Base 4.96.0
 _ZN21KBookmarkImporterBase16staticMetaObjectE@Base 4.96.0
 _ZN21KBookmarkImporterBase19setupSignalForwardsEP7QObjectS1_@Base 4.96.0
 _ZN21KBookmarkImporterBase7factoryERK7QString@Base 4.96.0
 _ZN21KBookmarkImporterBase9endFolderEv@Base 4.96.0
 _ZN21KBookmarkImporterBase9newFolderERK7QStringbS2_@Base 4.96.0
 _ZN23KBookmarkGroupTraverser10visitEnterERK14KBookmarkGroup@Base 4.96.0
 _ZN23KBookmarkGroupTraverser10visitLeaveERK14KBookmarkGroup@Base 4.96.0
 _ZN23KBookmarkGroupTraverser5visitERK9KBookmark@Base 4.96.0
 _ZN23KBookmarkGroupTraverser8traverseERK14KBookmarkGroup@Base 4.96.0
 _ZN23KBookmarkGroupTraverserD0Ev@Base 4.96.0
 _ZN23KBookmarkGroupTraverserD1Ev@Base 4.96.0
 _ZN23KBookmarkGroupTraverserD2Ev@Base 4.96.0
 _ZN23KIEBookmarkExporterImpl5writeERK14KBookmarkGroup@Base 4.96.0
 _ZN23KIEBookmarkImporterImpl5parseEv@Base 4.96.0
 _ZN23KNSBookmarkExporterImpl5writeERK14KBookmarkGroup@Base 4.96.0
 _ZN23KNSBookmarkExporterImpl7setUtf8Eb@Base 4.96.0
 _ZN23KNSBookmarkImporterImpl11qt_metacallEN11QMetaObject4CallEiPPv@Base 4.98.0
 _ZN23KNSBookmarkImporterImpl11qt_metacastEPKc@Base 4.98.0
 _ZN23KNSBookmarkImporterImpl16staticMetaObjectE@Base 4.98.0
 _ZN23KNSBookmarkImporterImpl5parseEv@Base 4.96.0
 _ZN23KonqBookmarkContextMenu10addActionsEv@Base 4.96.0
 _ZN23KonqBookmarkContextMenu11qt_metacallEN11QMetaObject4CallEiPPv@Base 4.96.0
 _ZN23KonqBookmarkContextMenu11qt_metacastEPKc@Base 4.96.0
 _ZN23KonqBookmarkContextMenu12openInNewTabEv@Base 4.96.0
 _ZN23KonqBookmarkContextMenu15openInNewWindowEv@Base 4.96.0
 _ZN23KonqBookmarkContextMenu16staticMetaObjectE@Base 4.96.0
 _ZN23KonqBookmarkContextMenu19toggleShowInToolbarEv@Base 4.96.0
 _ZN23KonqBookmarkContextMenuC1ERK9KBookmarkP16KBookmarkManagerP14KBookmarkOwner@Base 4.96.0
 _ZN23KonqBookmarkContextMenuC2ERK9KBookmarkP16KBookmarkManagerP14KBookmarkOwner@Base 4.96.0
 _ZN23KonqBookmarkContextMenuD0Ev@Base 4.96.0
 _ZN23KonqBookmarkContextMenuD1Ev@Base 4.96.0
 _ZN23KonqBookmarkContextMenuD2Ev@Base 4.96.0
 _ZN24KBookmarkActionInterfaceC1ERK9KBookmark@Base 4.96.0
 _ZN24KBookmarkActionInterfaceC2ERK9KBookmark@Base 4.96.0
 _ZN24KBookmarkActionInterfaceD0Ev@Base 4.96.0
 _ZN24KBookmarkActionInterfaceD1Ev@Base 4.96.0
 _ZN24KBookmarkActionInterfaceD2Ev@Base 4.96.0
 _ZN25KXBELBookmarkImporterImpl10visitEnterERK14KBookmarkGroup@Base 4.96.0
 _ZN25KXBELBookmarkImporterImpl10visitLeaveERK14KBookmarkGroup@Base 4.96.0
 _ZN25KXBELBookmarkImporterImpl11qt_metacallEN11QMetaObject4CallEiPPv@Base 4.96.0
 _ZN25KXBELBookmarkImporterImpl11qt_metacastEPKc@Base 4.96.0
 _ZN25KXBELBookmarkImporterImpl16staticMetaObjectE@Base 4.96.0
 _ZN25KXBELBookmarkImporterImpl5parseEv@Base 4.96.0
 _ZN25KXBELBookmarkImporterImpl5visitERK9KBookmark@Base 4.96.0
 _ZN26KOperaBookmarkExporterImpl5writeERK14KBookmarkGroup@Base 4.96.0
 _ZN26KOperaBookmarkImporterImpl11qt_metacallEN11QMetaObject4CallEiPPv@Base 4.98.0
 _ZN26KOperaBookmarkImporterImpl11qt_metacastEPKc@Base 4.98.0
 _ZN26KOperaBookmarkImporterImpl16staticMetaObjectE@Base 4.98.0
 _ZN26KOperaBookmarkImporterImpl5parseEv@Base 4.96.0
 _ZN9KBookmark11nextAddressERK7QString@Base 4.96.0
 _ZN9KBookmark11setFullTextERK7QString@Base 4.96.0
 _ZN9KBookmark11setMimeTypeERK7QString@Base 4.96.0
 _ZN9KBookmark12commonParentERK7QStringS2_@Base 4.96.0
 _ZN9KBookmark13parentAddressERK7QString@Base 4.96.0
 _ZN9KBookmark14setDescriptionERK7QString@Base 4.96.0
 _ZN9KBookmark15previousAddressERK7QString@Base 4.96.0
 _ZN9KBookmark15setMetaDataItemERK7QStringS2_NS_21MetaDataOverwriteModeE@Base 4.96.0
 _ZN9KBookmark16positionInParentERK7QString@Base 4.96.0
 _ZN9KBookmark16setShowInToolbarEb@Base 4.96.0
 _ZN9KBookmark18standaloneBookmarkERK7QStringRK4QUrlS2_@Base 4.96.0
 _ZN9KBookmark20updateAccessMetadataEv@Base 4.96.0
 _ZN9KBookmark4List12fromMimeDataEPK9QMimeDataR12QDomDocument@Base 4.96.0
 _ZN9KBookmark4List13mimeDataTypesEv@Base 4.96.0
 _ZN9KBookmark4List9canDecodeEPK9QMimeData@Base 4.96.0
 _ZN9KBookmark4ListC1Ev@Base 4.96.0
 _ZN9KBookmark4ListC2Ev@Base 4.96.0
 _ZN9KBookmark6setUrlERK4QUrl@Base 4.96.0
 _ZN9KBookmark7setIconERK7QString@Base 4.96.0
 _ZN9KBookmarkC1ERK11QDomElement@Base 4.96.0
 _ZN9KBookmarkC1Ev@Base 4.96.0
 _ZN9KBookmarkC2ERK11QDomElement@Base 4.96.0
 _ZN9KBookmarkC2Ev@Base 4.96.0
 _ZNK12KConfigGroup9readEntryIbEET_PKcRKS1_@Base 4.100.0
 _ZNK13KBookmarkMenu10metaObjectEv@Base 4.96.0
 _ZNK13KBookmarkMenu10parentMenuEv@Base 4.96.0
 _ZNK13KBookmarkMenu13parentAddressEv@Base 4.96.0
 _ZNK13KBookmarkMenu5ownerEv@Base 4.96.0
 _ZNK13KBookmarkMenu6isRootEv@Base 4.96.0
 _ZNK13KBookmarkMenu7isDirtyEv@Base 4.96.0
 _ZNK13KBookmarkMenu7managerEv@Base 4.96.0
 _ZNK14KBookmarkGroup11findToolbarEv@Base 4.96.0
 _ZNK14KBookmarkGroup12groupUrlListEv@Base 4.96.0
 _ZNK14KBookmarkGroup12nextKnownTagERK11QDomElementb@Base 4.96.0
 _ZNK14KBookmarkGroup14isToolbarGroupEv@Base 4.96.0
 _ZNK14KBookmarkGroup4nextERK9KBookmark@Base 4.96.0
 _ZNK14KBookmarkGroup5firstEv@Base 4.96.0
 _ZNK14KBookmarkGroup6isOpenEv@Base 4.96.0
 _ZNK14KBookmarkGroup7indexOfERK9KBookmark@Base 4.96.0
 _ZNK14KBookmarkGroup8previousERK9KBookmark@Base 4.96.0
 _ZNK14KBookmarkOwner12enableOptionENS_14BookmarkOptionE@Base 4.96.0
 _ZNK14KBookmarkOwner14FutureBookmark3urlEv@Base 4.96.0
 _ZNK14KBookmarkOwner14FutureBookmark4iconEv@Base 4.96.0
 _ZNK14KBookmarkOwner14FutureBookmark5titleEv@Base 4.96.0
 _ZNK15KBookmarkAction10metaObjectEv@Base 4.96.0
 _ZNK15KBookmarkDialog10metaObjectEv@Base 4.96.0
 _ZNK16KBookmarkManager10metaObjectEv@Base 4.96.0
 _ZNK16KBookmarkManager16internalDocumentEv@Base 4.96.0
 _ZNK16KBookmarkManager24autoErrorHandlingEnabledEv@Base 4.96.0
 _ZNK16KBookmarkManager4pathEv@Base 4.96.0
 _ZNK16KBookmarkManager4rootEv@Base 4.96.0
 _ZNK16KBookmarkManager4saveEb@Base 4.96.0
 _ZNK16KBookmarkManager5parseEv@Base 4.96.0
 _ZNK16KBookmarkManager6saveAsERK7QStringb@Base 4.96.0
 _ZNK16KonqBookmarkMenu10metaObjectEv@Base 4.96.0
 _ZNK19KBookmarkDomBuilder10metaObjectEv@Base 4.96.0
 _ZNK20KBookmarkContextMenu10metaObjectEv@Base 4.96.0
 _ZNK20KBookmarkContextMenu5ownerEv@Base 4.96.0
 _ZNK20KBookmarkContextMenu7managerEv@Base 4.96.0
 _ZNK20KBookmarkContextMenu8bookmarkEv@Base 4.96.0
 _ZNK21KBookmarkImporterBase10metaObjectEv@Base 4.96.0
 _ZNK23KIEBookmarkImporterImpl19findDefaultLocationEb@Base 4.96.0
 _ZNK23KNSBookmarkExporterImpl14folderAsStringERK14KBookmarkGroup@Base 4.96.0
 _ZNK23KNSBookmarkImporterImpl10metaObjectEv@Base 4.98.0
 _ZNK23KNSBookmarkImporterImpl19findDefaultLocationEb@Base 4.96.0
 _ZNK23KonqBookmarkContextMenu10metaObjectEv@Base 4.96.0
 _ZNK24KBookmarkActionInterface8bookmarkEv@Base 4.96.0
 _ZNK25KXBELBookmarkImporterImpl10metaObjectEv@Base 4.96.0
 _ZNK26KOperaBookmarkImporterImpl10metaObjectEv@Base 4.98.0
 _ZNK26KOperaBookmarkImporterImpl19findDefaultLocationEb@Base 4.96.0
 _ZNK9KBookmark11descriptionEv@Base 4.96.0
 _ZNK9KBookmark11isSeparatorEv@Base 4.96.0
 _ZNK9KBookmark11parentGroupEv@Base 4.96.0
 _ZNK9KBookmark12metaDataItemERK7QString@Base 4.96.0
 _ZNK9KBookmark13showInToolbarEv@Base 4.96.0
 _ZNK9KBookmark15internalElementEv@Base 4.96.0
 _ZNK9KBookmark16populateMimeDataEP9QMimeData@Base 4.96.0
 _ZNK9KBookmark16positionInParentEv@Base 4.96.0
 _ZNK9KBookmark3urlEv@Base 4.96.0
 _ZNK9KBookmark4List16populateMimeDataEP9QMimeData@Base 4.96.0
 _ZNK9KBookmark4iconEv@Base 4.96.0
 _ZNK9KBookmark4textEv@Base 4.96.0
 _ZNK9KBookmark6isNullEv@Base 4.96.0
 _ZNK9KBookmark7addressEv@Base 4.96.0
 _ZNK9KBookmark7isGroupEv@Base 4.96.0
 _ZNK9KBookmark7toGroupEv@Base 4.96.0
 _ZNK9KBookmark8fullTextEv@Base 4.96.0
 _ZNK9KBookmark8metaDataERK7QStringb@Base 4.96.0
 _ZNK9KBookmark8mimeTypeEv@Base 4.96.0
 _ZNK9KBookmark9hasParentEv@Base 4.96.0
 _ZNK9KBookmarkeqERKS_@Base 4.96.0
 _ZTI13KBookmarkMenu@Base 4.96.0
 _ZTI14KBookmarkOwner@Base 4.96.0
 _ZTI15KBookmarkAction@Base 4.96.0
 _ZTI15KBookmarkDialog@Base 4.96.0
 _ZTI16KBookmarkManager@Base 4.96.0
 _ZTI16KonqBookmarkMenu@Base 4.96.0
 _ZTI19KBookmarkActionMenu@Base 4.96.0
 _ZTI19KBookmarkDomBuilder@Base 4.96.0
 _ZTI20KBookmarkContextMenu@Base 4.96.0
 _ZTI21KBookmarkExporterBase@Base 4.96.0
 _ZTI21KBookmarkImporterBase@Base 4.96.0
 _ZTI23KBookmarkGroupTraverser@Base 4.96.0
 _ZTI23KIEBookmarkExporterImpl@Base 4.96.0
 _ZTI23KIEBookmarkImporterImpl@Base 4.96.0
 _ZTI23KNSBookmarkExporterImpl@Base 4.96.0
 _ZTI23KNSBookmarkImporterImpl@Base 4.96.0
 _ZTI23KonqBookmarkContextMenu@Base 4.96.0
 _ZTI24KBookmarkActionInterface@Base 4.96.0
 _ZTI25KXBELBookmarkImporterImpl@Base 4.96.0
 _ZTI26KOperaBookmarkExporterImpl@Base 4.96.0
 _ZTI26KOperaBookmarkImporterImpl@Base 4.96.0
 _ZTI28KMozillaBookmarkImporterImpl@Base 4.96.0
 _ZTS13KBookmarkMenu@Base 4.96.0
 _ZTS14KBookmarkOwner@Base 4.96.0
 _ZTS15KBookmarkAction@Base 4.96.0
 _ZTS15KBookmarkDialog@Base 4.96.0
 _ZTS16KBookmarkManager@Base 4.96.0
 _ZTS16KonqBookmarkMenu@Base 4.96.0
 _ZTS19KBookmarkActionMenu@Base 4.96.0
 _ZTS19KBookmarkDomBuilder@Base 4.96.0
 _ZTS20KBookmarkContextMenu@Base 4.96.0
 _ZTS21KBookmarkExporterBase@Base 4.96.0
 _ZTS21KBookmarkImporterBase@Base 4.96.0
 _ZTS23KBookmarkGroupTraverser@Base 4.96.0
 _ZTS23KIEBookmarkExporterImpl@Base 4.96.0
 _ZTS23KIEBookmarkImporterImpl@Base 4.96.0
 _ZTS23KNSBookmarkExporterImpl@Base 4.96.0
 _ZTS23KNSBookmarkImporterImpl@Base 4.96.0
 _ZTS23KonqBookmarkContextMenu@Base 4.96.0
 _ZTS24KBookmarkActionInterface@Base 4.96.0
 _ZTS25KXBELBookmarkImporterImpl@Base 4.96.0
 _ZTS26KOperaBookmarkExporterImpl@Base 4.96.0
 _ZTS26KOperaBookmarkImporterImpl@Base 4.96.0
 _ZTS28KMozillaBookmarkImporterImpl@Base 4.96.0
 _ZTV13KBookmarkMenu@Base 4.96.0
 _ZTV14KBookmarkOwner@Base 4.96.0
 _ZTV15KBookmarkAction@Base 4.96.0
 _ZTV15KBookmarkDialog@Base 4.96.0
 _ZTV16KBookmarkManager@Base 4.96.0
 _ZTV16KonqBookmarkMenu@Base 4.96.0
 _ZTV19KBookmarkActionMenu@Base 4.96.0
 _ZTV19KBookmarkDomBuilder@Base 4.96.0
 _ZTV20KBookmarkContextMenu@Base 4.96.0
 _ZTV21KBookmarkExporterBase@Base 4.96.0
 _ZTV21KBookmarkImporterBase@Base 4.96.0
 _ZTV23KBookmarkGroupTraverser@Base 4.96.0
 _ZTV23KIEBookmarkExporterImpl@Base 4.96.0
 _ZTV23KIEBookmarkImporterImpl@Base 4.96.0
 _ZTV23KNSBookmarkExporterImpl@Base 4.96.0
 _ZTV23KNSBookmarkImporterImpl@Base 4.96.0
 _ZTV23KonqBookmarkContextMenu@Base 4.96.0
 _ZTV24KBookmarkActionInterface@Base 4.96.0
 _ZTV25KXBELBookmarkImporterImpl@Base 4.96.0
 _ZTV26KOperaBookmarkExporterImpl@Base 4.96.0
 _ZTV26KOperaBookmarkImporterImpl@Base 4.96.0
 _ZTV28KMozillaBookmarkImporterImpl@Base 4.96.0
 _ZThn16_N15KBookmarkActionD0Ev@Base 4.96.0
 _ZThn16_N15KBookmarkActionD1Ev@Base 4.96.0
 _ZThn16_N15KBookmarkDialogD0Ev@Base 4.96.0
 _ZThn16_N15KBookmarkDialogD1Ev@Base 4.96.0
 _ZThn16_N20KBookmarkContextMenuD0Ev@Base 4.96.0
 _ZThn16_N20KBookmarkContextMenuD1Ev@Base 4.96.0
 _ZThn16_N23KonqBookmarkContextMenuD0Ev@Base 4.96.0
 _ZThn16_N23KonqBookmarkContextMenuD1Ev@Base 4.96.0
 _ZThn24_N19KBookmarkActionMenuD0Ev@Base 4.96.0
 _ZThn24_N19KBookmarkActionMenuD1Ev@Base 4.96.0
 _ZThn32_N25KXBELBookmarkImporterImpl10visitEnterERK14KBookmarkGroup@Base 4.96.0
 _ZThn32_N25KXBELBookmarkImporterImpl10visitLeaveERK14KBookmarkGroup@Base 4.96.0
 _ZThn32_N25KXBELBookmarkImporterImpl5visitERK9KBookmark@Base 4.96.0
