libKF5Style.so.5 libkf5style5 #MINVER#
 _ZN6KStyle11qt_metacallEN11QMetaObject4CallEiPPv@Base 4.96.0
 _ZN6KStyle11qt_metacastEPKc@Base 4.96.0
 _ZN6KStyle12newStyleHintERK7QString@Base 4.96.0
 _ZN6KStyle13newSubElementERK7QString@Base 4.96.0
 _ZN6KStyle15customStyleHintERK7QStringPK7QWidget@Base 4.96.0
 _ZN6KStyle16customSubElementERK7QStringPK7QWidget@Base 4.96.0
 _ZN6KStyle16staticMetaObjectE@Base 4.96.0
 _ZN6KStyle17newControlElementERK7QString@Base 4.96.0
 _ZN6KStyle20customControlElementERK7QStringPK7QWidget@Base 4.96.0
 _ZN6KStyle6polishEP7QWidget@Base 4.96.0
 _ZN6KStyleC1Ev@Base 4.96.0
 _ZN6KStyleC2Ev@Base 4.96.0
 _ZN6KStyleD0Ev@Base 4.96.0
 _ZN6KStyleD1Ev@Base 4.96.0
 _ZN6KStyleD2Ev@Base 4.96.0
 _ZNK12KConfigGroup9readEntryIbEET_PKcRKS1_@Base 4.100.0
 _ZNK6KStyle10metaObjectEv@Base 4.96.0
 _ZNK6KStyle11pixelMetricEN6QStyle11PixelMetricEPK12QStyleOptionPK7QWidget@Base 4.96.0
 _ZNK6KStyle12standardIconEN6QStyle14StandardPixmapEPK12QStyleOptionPK7QWidget@Base 4.96.0
 _ZNK6KStyle15standardPaletteEv@Base 4.96.0
 _ZNK6KStyle9styleHintEN6QStyle9StyleHintEPK12QStyleOptionPK7QWidgetP16QStyleHintReturn@Base 4.96.0
 _ZTI6KStyle@Base 4.96.0
 _ZTS6KStyle@Base 4.96.0
 _ZTV6KStyle@Base 4.96.0
