libKF5QuickAddons.so.5 libkf5quickaddons5 #MINVER#
 _ZN12KQuickAddons12ConfigModule10setButtonsE6QFlagsINS0_6ButtonEE@Base 5.8.0+git20150324.0130+15.04
 _ZN12KQuickAddons12ConfigModule11qt_metacallEN11QMetaObject4CallEiPPv@Base 5.8.0+git20150324.0130+15.04
 _ZN12KQuickAddons12ConfigModule11qt_metacastEPKc@Base 5.8.0+git20150324.0130+15.04
 _ZN12KQuickAddons12ConfigModule12setAboutDataEPK10KAboutData@Base 5.8.0+git20150324.0130+15.04
 _ZN12KQuickAddons12ConfigModule12setNeedsSaveEb@Base 5.8.0+git20150324.0130+15.04
 _ZN12KQuickAddons12ConfigModule12setQuickHelpERK7QString@Base 5.8.0+git20150324.0130+15.04
 _ZN12KQuickAddons12ConfigModule14buttonsChangedEv@Base 5.8.0+git20150324.0130+15.04
 _ZN12KQuickAddons12ConfigModule16needsSaveChangedEv@Base 5.8.0+git20150324.0130+15.04
 _ZN12KQuickAddons12ConfigModule16quickHelpChangedEv@Base 5.8.0+git20150324.0130+15.04
 _ZN12KQuickAddons12ConfigModule16staticMetaObjectE@Base 5.8.0+git20150324.0130+15.04
 _ZN12KQuickAddons12ConfigModule17setAuthActionNameERK7QString@Base 5.8.0+git20150324.0130+15.04
 _ZN12KQuickAddons12ConfigModule18setRootOnlyMessageERK7QString@Base 5.8.0+git20150324.0130+15.04
 _ZN12KQuickAddons12ConfigModule21authActionNameChangedEv@Base 5.8.0+git20150324.0130+15.04
 _ZN12KQuickAddons12ConfigModule21qmlAttachedPropertiesEP7QObject@Base 5.8.0+git20150324.0130+15.04
 _ZN12KQuickAddons12ConfigModule21setNeedsAuthorizationEb@Base 5.8.0+git20150324.0130+15.04
 _ZN12KQuickAddons12ConfigModule21setUseRootOnlyMessageEb@Base 5.8.0+git20150324.0130+15.04
 _ZN12KQuickAddons12ConfigModule22rootOnlyMessageChangedEv@Base 5.8.0+git20150324.0130+15.04
 _ZN12KQuickAddons12ConfigModule25needsAuthorizationChangedEv@Base 5.8.0+git20150324.0130+15.04
 _ZN12KQuickAddons12ConfigModule25useRootOnlyMessageChangedEv@Base 5.8.0+git20150324.0130+15.04
 _ZN12KQuickAddons12ConfigModule4loadEv@Base 5.8.0+git20150324.0130+15.04
 _ZN12KQuickAddons12ConfigModule4saveEv@Base 5.8.0+git20150324.0130+15.04
 _ZN12KQuickAddons12ConfigModule6mainUiEv@Base 5.8.0+git20150324.0130+15.04
 _ZN12KQuickAddons12ConfigModule8defaultsEv@Base 5.8.0+git20150324.0130+15.04
 _ZN12KQuickAddons12ConfigModule9needsSaveEv@Base 5.8.0+git20150324.0130+15.04
 _ZN12KQuickAddons12ConfigModuleC1EP7QObjectRK5QListI8QVariantE@Base 5.8.0+git20150324.0130+15.04
 _ZN12KQuickAddons12ConfigModuleC1EPK10KAboutDataP7QObjectRK5QListI8QVariantE@Base 5.8.0+git20150324.0130+15.04
 _ZN12KQuickAddons12ConfigModuleC1ERK15KPluginMetaDataP7QObjectRK5QListI8QVariantE@Base 5.11.0
 _ZN12KQuickAddons12ConfigModuleC2EP7QObjectRK5QListI8QVariantE@Base 5.8.0+git20150324.0130+15.04
 _ZN12KQuickAddons12ConfigModuleC2EPK10KAboutDataP7QObjectRK5QListI8QVariantE@Base 5.8.0+git20150324.0130+15.04
 _ZN12KQuickAddons12ConfigModuleC2ERK15KPluginMetaDataP7QObjectRK5QListI8QVariantE@Base 5.11.0
 _ZN12KQuickAddons12ConfigModuleD0Ev@Base 5.8.0+git20150324.0130+15.04
 _ZN12KQuickAddons12ConfigModuleD1Ev@Base 5.8.0+git20150324.0130+15.04
 _ZN12KQuickAddons12ConfigModuleD2Ev@Base 5.8.0+git20150324.0130+15.04
 _ZN12KQuickAddons21QuickViewSharedEngine11qt_metacallEN11QMetaObject4CallEiPPv@Base 5.12.0
 _ZN12KQuickAddons21QuickViewSharedEngine11qt_metacastEPKc@Base 5.12.0
 _ZN12KQuickAddons21QuickViewSharedEngine11resizeEventEP12QResizeEvent@Base 5.12.0
 _ZN12KQuickAddons21QuickViewSharedEngine13setResizeModeENS0_10ResizeModeE@Base 5.12.0
 _ZN12KQuickAddons21QuickViewSharedEngine13sourceChangedERK4QUrl@Base 5.12.0
 _ZN12KQuickAddons21QuickViewSharedEngine13statusChangedEN13QQmlComponent6StatusE@Base 5.12.0
 _ZN12KQuickAddons21QuickViewSharedEngine16staticMetaObjectE@Base 5.12.0
 _ZN12KQuickAddons21QuickViewSharedEngine17resizeModeChangedENS0_10ResizeModeE@Base 5.12.0
 _ZN12KQuickAddons21QuickViewSharedEngine9setSourceERK4QUrl@Base 5.12.0
 _ZN12KQuickAddons21QuickViewSharedEngineC1EP7QWindow@Base 5.12.0
 _ZN12KQuickAddons21QuickViewSharedEngineC2EP7QWindow@Base 5.12.0
 _ZN12KQuickAddons21QuickViewSharedEngineD0Ev@Base 5.12.0
 _ZN12KQuickAddons21QuickViewSharedEngineD1Ev@Base 5.12.0
 _ZN12KQuickAddons21QuickViewSharedEngineD2Ev@Base 5.12.0
 _ZN18ImageTexturesCache11loadTextureEP12QQuickWindowRK6QImage6QFlagsINS0_19CreateTextureOptionEE@Base 5.6.0+git20150126.0003+15.04
 _ZN18ImageTexturesCache11loadTextureEP12QQuickWindowRK6QImage@Base 5.3.0+git20141016.0334
 _ZN18ImageTexturesCacheC1Ev@Base 5.3.0+git20141016.0334
 _ZN18ImageTexturesCacheC2Ev@Base 5.3.0+git20141016.0334
 _ZN18ImageTexturesCacheD1Ev@Base 5.3.0+git20141016.0334
 _ZN18ImageTexturesCacheD2Ev@Base 5.3.0+git20141016.0334
 _ZN18ManagedTextureNode10setTextureE14QSharedPointerI10QSGTextureE@Base 5.3.0+git20141016.0334
 _ZN18ManagedTextureNodeC1Ev@Base 5.3.0+git20141016.0334
 _ZN18ManagedTextureNodeC2Ev@Base 5.3.0+git20141016.0334
 _ZNK12KQuickAddons12ConfigModule10metaObjectEv@Base 5.8.0+git20150324.0130+15.04
 _ZNK12KQuickAddons12ConfigModule14authActionNameEv@Base 5.8.0+git20150324.0130+15.04
 _ZNK12KQuickAddons12ConfigModule15rootOnlyMessageEv@Base 5.8.0+git20150324.0130+15.04
 _ZNK12KQuickAddons12ConfigModule18needsAuthorizationEv@Base 5.8.0+git20150324.0130+15.04
 _ZNK12KQuickAddons12ConfigModule18useRootOnlyMessageEv@Base 5.8.0+git20150324.0130+15.04
 _ZNK12KQuickAddons12ConfigModule6engineEv@Base 5.8.0+git20150324.0130+15.04
 _ZNK12KQuickAddons12ConfigModule7buttonsEv@Base 5.8.0+git20150324.0130+15.04
 _ZNK12KQuickAddons12ConfigModule9aboutDataEv@Base 5.8.0+git20150324.0130+15.04
 _ZNK12KQuickAddons12ConfigModule9quickHelpEv@Base 5.8.0+git20150324.0130+15.04
 _ZNK12KQuickAddons21QuickViewSharedEngine10metaObjectEv@Base 5.12.0
 _ZNK12KQuickAddons21QuickViewSharedEngine10resizeModeEv@Base 5.12.0
 _ZNK12KQuickAddons21QuickViewSharedEngine10rootObjectEv@Base 5.12.0
 _ZNK12KQuickAddons21QuickViewSharedEngine11initialSizeEv@Base 5.12.0
 _ZNK12KQuickAddons21QuickViewSharedEngine11rootContextEv@Base 5.12.0
 _ZNK12KQuickAddons21QuickViewSharedEngine6engineEv@Base 5.12.0
 _ZNK12KQuickAddons21QuickViewSharedEngine6errorsEv@Base 5.12.0
 _ZNK12KQuickAddons21QuickViewSharedEngine6sourceEv@Base 5.12.0
 _ZNK12KQuickAddons21QuickViewSharedEngine6statusEv@Base 5.12.0
 _ZNK12KQuickAddons21QuickViewSharedEngine8sizeHintEv@Base 5.12.0
 _ZTI18ManagedTextureNode@Base 5.3.0+git20141016.0334
 _ZTIN12KQuickAddons12ConfigModuleE@Base 5.8.0+git20150324.0130+15.04
 _ZTIN12KQuickAddons21QuickViewSharedEngineE@Base 5.12.0
 _ZTS18ManagedTextureNode@Base 5.3.0+git20141016.0334
 _ZTSN12KQuickAddons12ConfigModuleE@Base 5.8.0+git20150324.0130+15.04
 _ZTSN12KQuickAddons21QuickViewSharedEngineE@Base 5.12.0
 _ZTV18ManagedTextureNode@Base 5.3.0+git20141016.0334
 _ZTVN12KQuickAddons12ConfigModuleE@Base 5.8.0+git20150324.0130+15.04
 _ZTVN12KQuickAddons21QuickViewSharedEngineE@Base 5.12.0
 _ZThn16_N12KQuickAddons21QuickViewSharedEngineD0Ev@Base 5.12.0
 _ZThn16_N12KQuickAddons21QuickViewSharedEngineD1Ev@Base 5.12.0
 _ZZZN10KAboutDataC4ERK7QStringS2_S2_S2_N13KAboutLicense10LicenseKeyES2_S2_S2_S2_Ed_NKUlvE_clEvE15qstring_literal@Base 5.18.0
