libKF5SonnetUi.so.5 libkf5sonnetui5 #MINVER#
 _ZN6Sonnet11Highlighter10ignoreWordERK7QString@Base 4.96.0
 _ZN6Sonnet11Highlighter11eventFilterEP7QObjectP6QEvent@Base 4.96.0
 _ZN6Sonnet11Highlighter11qt_metacallEN11QMetaObject4CallEiPPv@Base 4.96.0
 _ZN6Sonnet11Highlighter11qt_metacastEPKc@Base 4.96.0
 _ZN6Sonnet11Highlighter11setDocumentEP13QTextDocument@Base 4.96.0
 _ZN6Sonnet11Highlighter12setAutomaticEb@Base 4.96.0
 _ZN6Sonnet11Highlighter13activeChangedERK7QString@Base 4.96.0
 _ZN6Sonnet11Highlighter13setMisspelledEii@Base 4.96.0
 _ZN6Sonnet11Highlighter14contentsChangeEiii@Base 4.96.0
 _ZN6Sonnet11Highlighter14highlightBlockERK7QString@Base 4.96.0
 _ZN6Sonnet11Highlighter15slotRehighlightEv@Base 4.96.0
 _ZN6Sonnet11Highlighter15unsetMisspelledEii@Base 4.96.0
 _ZN6Sonnet11Highlighter16isWordMisspelledERK7QString@Base 4.96.0
 _ZN6Sonnet11Highlighter16staticMetaObjectE@Base 4.96.0
 _ZN6Sonnet11Highlighter17slotAutoDetectionEv@Base 4.96.0
 _ZN6Sonnet11Highlighter18setCurrentLanguageERK7QString@Base 4.96.0
 _ZN6Sonnet11Highlighter18setMisspelledColorERK6QColor@Base 4.96.0
 _ZN6Sonnet11Highlighter18suggestionsForWordERK7QStringi@Base 4.96.0
 _ZN6Sonnet11Highlighter19addWordToDictionaryERK7QString@Base 4.96.0
 _ZN6Sonnet11Highlighter19setIntraWordEditingEb@Base 4.96.0
 _ZN6Sonnet11Highlighter9setActiveEb@Base 4.96.0
 _ZN6Sonnet11HighlighterC1EP14QPlainTextEditRK6QColor@Base 5.12.0
 _ZN6Sonnet11HighlighterC1EP9QTextEditRK6QColor@Base 4.96.0
 _ZN6Sonnet11HighlighterC2EP14QPlainTextEditRK6QColor@Base 5.12.0
 _ZN6Sonnet11HighlighterC2EP9QTextEditRK6QColor@Base 4.96.0
 _ZN6Sonnet11HighlighterD0Ev@Base 4.96.0
 _ZN6Sonnet11HighlighterD1Ev@Base 4.96.0
 _ZN6Sonnet11HighlighterD2Ev@Base 4.96.0
 _ZN6Sonnet12ConfigDialog11qt_metacallEN11QMetaObject4CallEiPPv@Base 4.96.0
 _ZN6Sonnet12ConfigDialog11qt_metacastEPKc@Base 4.96.0
 _ZN6Sonnet12ConfigDialog11setLanguageERK7QString@Base 4.96.0
 _ZN6Sonnet12ConfigDialog13configChangedEv@Base 4.96.0
 _ZN6Sonnet12ConfigDialog15languageChangedERK7QString@Base 4.96.0
 _ZN6Sonnet12ConfigDialog16staticMetaObjectE@Base 4.96.0
 _ZN6Sonnet12ConfigDialog6slotOkEv@Base 4.96.0
 _ZN6Sonnet12ConfigDialog9slotApplyEv@Base 4.96.0
 _ZN6Sonnet12ConfigDialogC1EP7QWidget@Base 4.96.0
 _ZN6Sonnet12ConfigDialogC2EP7QWidget@Base 4.96.0
 _ZN6Sonnet12ConfigDialogD0Ev@Base 4.96.0
 _ZN6Sonnet12ConfigDialogD1Ev@Base 4.96.0
 _ZN6Sonnet12ConfigDialogD2Ev@Base 4.96.0
 _ZN6Sonnet12ConfigWidget10setFromGuiEv@Base 4.96.0
 _ZN6Sonnet12ConfigWidget11qt_metacallEN11QMetaObject4CallEiPPv@Base 4.96.0
 _ZN6Sonnet12ConfigWidget11qt_metacastEPKc@Base 4.96.0
 _ZN6Sonnet12ConfigWidget11setLanguageERK7QString@Base 4.96.0
 _ZN6Sonnet12ConfigWidget11slotDefaultEv@Base 4.96.0
 _ZN6Sonnet12ConfigWidget13configChangedEv@Base 4.96.0
 _ZN6Sonnet12ConfigWidget16staticMetaObjectE@Base 4.96.0
 _ZN6Sonnet12ConfigWidget19slotIgnoreWordAddedEv@Base 4.96.0
 _ZN6Sonnet12ConfigWidget21slotIgnoreWordRemovedEv@Base 4.96.0
 _ZN6Sonnet12ConfigWidget32setBackgroundCheckingButtonShownEb@Base 4.96.0
 _ZN6Sonnet12ConfigWidget4saveEv@Base 4.96.0
 _ZN6Sonnet12ConfigWidgetC1EP7QWidget@Base 4.96.0
 _ZN6Sonnet12ConfigWidgetC2EP7QWidget@Base 4.96.0
 _ZN6Sonnet12ConfigWidgetD0Ev@Base 4.96.0
 _ZN6Sonnet12ConfigWidgetD1Ev@Base 4.96.0
 _ZN6Sonnet12ConfigWidgetD2Ev@Base 4.96.0
 _ZN6Sonnet18DictionaryComboBox11qt_metacallEN11QMetaObject4CallEiPPv@Base 4.96.0
 _ZN6Sonnet18DictionaryComboBox11qt_metacastEPKc@Base 4.96.0
 _ZN6Sonnet18DictionaryComboBox11reloadComboEv@Base 4.96.0
 _ZN6Sonnet18DictionaryComboBox16staticMetaObjectE@Base 4.96.0
 _ZN6Sonnet18DictionaryComboBox17dictionaryChangedERK7QString@Base 4.96.0
 _ZN6Sonnet18DictionaryComboBox21dictionaryNameChangedERK7QString@Base 4.96.0
 _ZN6Sonnet18DictionaryComboBox22setCurrentByDictionaryERK7QString@Base 4.96.0
 _ZN6Sonnet18DictionaryComboBox26setCurrentByDictionaryNameERK7QString@Base 4.96.0
 _ZN6Sonnet18DictionaryComboBoxC1EP7QWidget@Base 4.96.0
 _ZN6Sonnet18DictionaryComboBoxC2EP7QWidget@Base 4.96.0
 _ZN6Sonnet18DictionaryComboBoxD0Ev@Base 4.96.0
 _ZN6Sonnet18DictionaryComboBoxD1Ev@Base 4.96.0
 _ZN6Sonnet18DictionaryComboBoxD2Ev@Base 4.96.0
 _ZN6Sonnet19SpellCheckDecorator11eventFilterEP7QObjectP6QEvent@Base 4.96.0
 _ZN6Sonnet19SpellCheckDecorator11qt_metacallEN11QMetaObject4CallEiPPv@Base 4.96.0
 _ZN6Sonnet19SpellCheckDecorator11qt_metacastEPKc@Base 4.96.0
 _ZN6Sonnet19SpellCheckDecorator14setHighlighterEPNS_11HighlighterE@Base 4.96.0
 _ZN6Sonnet19SpellCheckDecorator16staticMetaObjectE@Base 4.96.0
 _ZN6Sonnet19SpellCheckDecorator7Private18execSuggestionMenuERK6QPointRK7QStringRK11QTextCursor@Base 4.96.0
 _ZN6Sonnet19SpellCheckDecorator7Private18onContextMenuEventEP17QContextMenuEvent@Base 4.96.0
 _ZN6Sonnet19SpellCheckDecorator7Private24createDefaultHighlighterEv@Base 4.96.0
 _ZN6Sonnet19SpellCheckDecoratorC1EP14QPlainTextEdit@Base 5.12.0
 _ZN6Sonnet19SpellCheckDecoratorC1EP9QTextEdit@Base 4.96.0
 _ZN6Sonnet19SpellCheckDecoratorC2EP14QPlainTextEdit@Base 5.12.0
 _ZN6Sonnet19SpellCheckDecoratorC2EP9QTextEdit@Base 4.96.0
 _ZN6Sonnet19SpellCheckDecoratorD0Ev@Base 4.96.0
 _ZN6Sonnet19SpellCheckDecoratorD1Ev@Base 4.96.0
 _ZN6Sonnet19SpellCheckDecoratorD2Ev@Base 4.96.0
 _ZN6Sonnet6Dialog10slotCancelEv@Base 4.96.0
 _ZN6Sonnet6Dialog11autoCorrectERK7QStringS3_@Base 4.96.0
 _ZN6Sonnet6Dialog11misspellingERK7QStringi@Base 4.96.0
 _ZN6Sonnet6Dialog11qt_metacallEN11QMetaObject4CallEiPPv@Base 4.96.0
 _ZN6Sonnet6Dialog11qt_metacastEPKc@Base 4.96.0
 _ZN6Sonnet6Dialog11slotAddWordEv@Base 4.96.0
 _ZN6Sonnet6Dialog11slotSkipAllEv@Base 4.96.0
 _ZN6Sonnet6Dialog11slotSuggestEv@Base 4.96.0
 _ZN6Sonnet6Dialog12slotFinishedEv@Base 4.96.0
 _ZN6Sonnet6Dialog12updateDialogERK7QString@Base 4.96.0
 _ZN6Sonnet6Dialog13setGuiEnabledEb@Base 4.96.0
 _ZN6Sonnet6Dialog14slotReplaceAllEv@Base 4.96.0
 _ZN6Sonnet6Dialog15fillSuggestionsERK11QStringList@Base 4.96.0
 _ZN6Sonnet6Dialog15initConnectionsEv@Base 4.96.0
 _ZN6Sonnet6Dialog15languageChangedERK7QString@Base 4.96.0
 _ZN6Sonnet6Dialog15slotAutocorrectEv@Base 4.96.0
 _ZN6Sonnet6Dialog15slotMisspellingERK7QStringi@Base 4.96.0
 _ZN6Sonnet6Dialog15slotReplaceWordEv@Base 4.96.0
 _ZN6Sonnet6Dialog16spellCheckStatusERK7QString@Base 4.96.0
 _ZN6Sonnet6Dialog16staticMetaObjectE@Base 4.96.0
 _ZN6Sonnet6Dialog17activeAutoCorrectEb@Base 4.96.0
 _ZN6Sonnet6Dialog18showProgressDialogEi@Base 4.96.0
 _ZN6Sonnet6Dialog18slotChangeLanguageERK7QString@Base 4.96.0
 _ZN6Sonnet6Dialog20slotSelectionChangedERK11QModelIndex@Base 4.96.0
 _ZN6Sonnet6Dialog22fillDictionaryComboBoxEv@Base 4.96.0
 _ZN6Sonnet6Dialog24setProgressDialogVisibleEb@Base 4.96.0
 _ZN6Sonnet6Dialog24updateDictionaryComboBoxEv@Base 4.96.0
 _ZN6Sonnet6Dialog31showSpellCheckCompletionMessageEb@Base 4.96.0
 _ZN6Sonnet6Dialog38setSpellCheckContinuedAfterReplacementEb@Base 4.96.0
 _ZN6Sonnet6Dialog4doneERK7QString@Base 4.96.0
 _ZN6Sonnet6Dialog4showEv@Base 4.96.0
 _ZN6Sonnet6Dialog4stopEv@Base 4.96.0
 _ZN6Sonnet6Dialog6cancelEv@Base 4.96.0
 _ZN6Sonnet6Dialog7initGuiEv@Base 4.96.0
 _ZN6Sonnet6Dialog7replaceERK7QStringiS3_@Base 4.96.0
 _ZN6Sonnet6Dialog8slotDoneEv@Base 4.96.0
 _ZN6Sonnet6Dialog8slotSkipEv@Base 4.96.0
 _ZN6Sonnet6Dialog9setBufferERK7QString@Base 4.96.0
 _ZN6Sonnet6DialogC1EPNS_17BackgroundCheckerEP7QWidget@Base 4.96.0
 _ZN6Sonnet6DialogC2EPNS_17BackgroundCheckerEP7QWidget@Base 4.96.0
 _ZN6Sonnet6DialogD0Ev@Base 4.96.0
 _ZN6Sonnet6DialogD1Ev@Base 4.96.0
 _ZN6Sonnet6DialogD2Ev@Base 4.96.0
 _ZNK6Sonnet11Highlighter10metaObjectEv@Base 4.96.0
 _ZNK6Sonnet11Highlighter15currentLanguageEv@Base 4.96.0
 _ZNK6Sonnet11Highlighter16intraWordEditingEv@Base 4.96.0
 _ZNK6Sonnet11Highlighter17spellCheckerFoundEv@Base 4.96.0
 _ZNK6Sonnet11Highlighter23checkerEnabledByDefaultEv@Base 4.96.0
 _ZNK6Sonnet11Highlighter8isActiveEv@Base 4.96.0
 _ZNK6Sonnet11Highlighter9automaticEv@Base 4.96.0
 _ZNK6Sonnet12ConfigDialog10metaObjectEv@Base 4.96.0
 _ZNK6Sonnet12ConfigDialog8languageEv@Base 4.96.0
 _ZNK6Sonnet12ConfigWidget10metaObjectEv@Base 4.96.0
 _ZNK6Sonnet12ConfigWidget29backgroundCheckingButtonShownEv@Base 4.96.0
 _ZNK6Sonnet12ConfigWidget8languageEv@Base 4.96.0
 _ZNK6Sonnet18DictionaryComboBox10metaObjectEv@Base 4.96.0
 _ZNK6Sonnet18DictionaryComboBox17currentDictionaryEv@Base 4.96.0
 _ZNK6Sonnet18DictionaryComboBox21currentDictionaryNameEv@Base 4.96.0
 _ZNK6Sonnet19SpellCheckDecorator10metaObjectEv@Base 4.96.0
 _ZNK6Sonnet19SpellCheckDecorator11highlighterEv@Base 4.96.0
 _ZNK6Sonnet19SpellCheckDecorator30isSpellCheckingEnabledForBlockERK7QString@Base 4.96.0
 _ZNK6Sonnet6Dialog10metaObjectEv@Base 4.96.0
 _ZNK6Sonnet6Dialog14originalBufferEv@Base 4.96.0
 _ZNK6Sonnet6Dialog6bufferEv@Base 4.96.0
 _ZTIN6Sonnet11HighlighterE@Base 4.96.0
 _ZTIN6Sonnet12ConfigDialogE@Base 4.96.0
 _ZTIN6Sonnet12ConfigWidgetE@Base 4.96.0
 _ZTIN6Sonnet18DictionaryComboBoxE@Base 4.96.0
 _ZTIN6Sonnet19SpellCheckDecoratorE@Base 4.96.0
 _ZTIN6Sonnet6DialogE@Base 4.96.0
 _ZTSN6Sonnet11HighlighterE@Base 4.96.0
 _ZTSN6Sonnet12ConfigDialogE@Base 4.96.0
 _ZTSN6Sonnet12ConfigWidgetE@Base 4.96.0
 _ZTSN6Sonnet18DictionaryComboBoxE@Base 4.96.0
 _ZTSN6Sonnet19SpellCheckDecoratorE@Base 4.96.0
 _ZTSN6Sonnet6DialogE@Base 4.96.0
 _ZTVN6Sonnet11HighlighterE@Base 4.96.0
 _ZTVN6Sonnet12ConfigDialogE@Base 4.96.0
 _ZTVN6Sonnet12ConfigWidgetE@Base 4.96.0
 _ZTVN6Sonnet18DictionaryComboBoxE@Base 4.96.0
 _ZTVN6Sonnet19SpellCheckDecoratorE@Base 4.96.0
 _ZTVN6Sonnet6DialogE@Base 4.96.0
 _ZThn16_N6Sonnet12ConfigDialogD0Ev@Base 4.96.0
 _ZThn16_N6Sonnet12ConfigDialogD1Ev@Base 4.96.0
 _ZThn16_N6Sonnet12ConfigWidgetD0Ev@Base 4.96.0
 _ZThn16_N6Sonnet12ConfigWidgetD1Ev@Base 4.96.0
 _ZThn16_N6Sonnet18DictionaryComboBoxD0Ev@Base 4.96.0
 _ZThn16_N6Sonnet18DictionaryComboBoxD1Ev@Base 4.96.0
 _ZThn16_N6Sonnet6DialogD0Ev@Base 4.96.0
 _ZThn16_N6Sonnet6DialogD1Ev@Base 4.96.0
