libKF5KIOCore.so.5 libkf5kiocore5 #MINVER#
 _Z22_allKsslCaCertificatesP22KSslCertificateManager@Base 4.96.0
 _Z25_setAllKsslCaCertificatesP22KSslCertificateManagerRK5QListI17KSslCaCertificateE@Base 4.96.0
 _ZN10KIOPrivate13createSymlinkERK7QStringS2_NS_11SymlinkTypeE@Base 4.99.0
 _ZN10KIOPrivate14isProcessAliveEx@Base 4.99.0
 _ZN10KIOPrivate15changeOwnershipERK7QString7KUserId8KGroupId@Base 4.99.0
 _ZN10KIOPrivate19sendTerminateSignalEx@Base 4.99.0
 _ZN10KSslCipher16supportedCiphersEv@Base 4.96.0
 _ZN10KSslCipherC1ERK10QSslCipher@Base 4.96.0
 _ZN10KSslCipherC1ERKS_@Base 4.96.0
 _ZN10KSslCipherC1Ev@Base 4.96.0
 _ZN10KSslCipherC2ERK10QSslCipher@Base 4.96.0
 _ZN10KSslCipherC2ERKS_@Base 4.96.0
 _ZN10KSslCipherC2Ev@Base 4.96.0
 _ZN10KSslCipherD1Ev@Base 4.96.0
 _ZN10KSslCipherD2Ev@Base 4.96.0
 _ZN10KSslCipheraSERKS_@Base 4.96.0
 _ZN10KTcpSocket10setCiphersERK5QListI10KSslCipherE@Base 4.96.0
 _ZN10KTcpSocket11qt_metacallEN11QMetaObject4CallEiPPv@Base 4.96.0
 _ZN10KTcpSocket11qt_metacastEPKc@Base 4.96.0
 _ZN10KTcpSocket12disconnectedEv@Base 4.96.0
 _ZN10KTcpSocket12stateChangedENS_5StateE@Base 4.96.0
 _ZN10KTcpSocket13connectToHostERK12QHostAddresstNS_11ProxyPolicyE@Base 4.96.0
 _ZN10KTcpSocket13connectToHostERK4QUrlNS_11ProxyPolicyE@Base 4.96.0
 _ZN10KTcpSocket13connectToHostERK7QStringtNS_11ProxyPolicyE@Base 4.96.0
 _ZN10KTcpSocket13setPrivateKeyERK7KSslKey@Base 4.96.0
 _ZN10KTcpSocket13setPrivateKeyERK7QStringN7KSslKey9AlgorithmEN4QSsl14EncodingFormatERK10QByteArray@Base 4.96.0
 _ZN10KTcpSocket13showSslErrorsEv@Base 4.96.0
 _ZN10KTcpSocket15ignoreSslErrorsEv@Base 4.96.0
 _ZN10KTcpSocket15setSocketOptionEN15QAbstractSocket12SocketOptionERK8QVariant@Base 4.96.0
 _ZN10KTcpSocket16addCaCertificateERK15QSslCertificate@Base 4.96.0
 _ZN10KTcpSocket16staticMetaObjectE@Base 4.96.0
 _ZN10KTcpSocket16waitForConnectedEi@Base 4.96.0
 _ZN10KTcpSocket16waitForEncryptedEi@Base 4.96.0
 _ZN10KTcpSocket16waitForReadyReadEi@Base 4.96.0
 _ZN10KTcpSocket17addCaCertificatesERK5QListI15QSslCertificateE@Base 4.96.0
 _ZN10KTcpSocket17setCaCertificatesERK5QListI15QSslCertificateE@Base 4.96.0
 _ZN10KTcpSocket17setReadBufferSizeEx@Base 4.96.0
 _ZN10KTcpSocket18disconnectFromHostEv@Base 4.96.0
 _ZN10KTcpSocket19setLocalCertificateERK15QSslCertificate@Base 4.96.0
 _ZN10KTcpSocket19setLocalCertificateERK7QStringN4QSsl14EncodingFormatE@Base 4.96.0
 _ZN10KTcpSocket19setSslConfigurationERK17QSslConfiguration@Base 4.96.0
 _ZN10KTcpSocket19waitForBytesWrittenEi@Base 4.96.0
 _ZN10KTcpSocket19waitForDisconnectedEi@Base 4.96.0
 _ZN10KTcpSocket21encryptedBytesWrittenEx@Base 4.96.0
 _ZN10KTcpSocket21encryptionModeChangedENS_14EncryptionModeE@Base 4.96.0
 _ZN10KTcpSocket21startClientEncryptionEv@Base 4.96.0
 _ZN10KTcpSocket22connectToHostEncryptedERK7QStringt6QFlagsIN9QIODevice12OpenModeFlagEE@Base 4.96.0
 _ZN10KTcpSocket23setAdvertisedSslVersionENS_10SslVersionE@Base 4.96.0
 _ZN10KTcpSocket23setVerificationPeerNameERK7QString@Base 4.96.0
 _ZN10KTcpSocket27proxyAuthenticationRequiredERK13QNetworkProxyP14QAuthenticator@Base 4.96.0
 _ZN10KTcpSocket4openE6QFlagsIN9QIODevice12OpenModeFlagEE@Base 4.96.0
 _ZN10KTcpSocket5abortEv@Base 4.96.0
 _ZN10KTcpSocket5closeEv@Base 4.96.0
 _ZN10KTcpSocket5errorENS_5ErrorE@Base 4.96.0
 _ZN10KTcpSocket5flushEv@Base 4.96.0
 _ZN10KTcpSocket8readDataEPcx@Base 4.96.0
 _ZN10KTcpSocket8setProxyERK13QNetworkProxy@Base 4.96.0
 _ZN10KTcpSocket9connectedEv@Base 4.96.0
 _ZN10KTcpSocket9encryptedEv@Base 4.96.0
 _ZN10KTcpSocket9hostFoundEv@Base 4.96.0
 _ZN10KTcpSocket9sslErrorsERK5QListI9KSslErrorE@Base 4.96.0
 _ZN10KTcpSocket9writeDataEPKcx@Base 4.96.0
 _ZN10KTcpSocketC1EP7QObject@Base 4.96.0
 _ZN10KTcpSocketC2EP7QObject@Base 4.96.0
 _ZN10KTcpSocketD0Ev@Base 4.96.0
 _ZN10KTcpSocketD1Ev@Base 4.96.0
 _ZN10KTcpSocketD2Ev@Base 4.96.0
 _ZN11KMountPoint18currentMountPointsE6QFlagsINS_17DetailsNeededFlagEE@Base 4.96.0
 _ZN11KMountPoint19possibleMountPointsE6QFlagsINS_17DetailsNeededFlagEE@Base 4.96.0
 _ZN11KMountPoint4ListC1Ev@Base 4.96.0
 _ZN11KMountPoint4ListC2Ev@Base 4.96.0
 _ZN11KMountPoint7Private25finalizeCurrentMountPointE6QFlagsINS_17DetailsNeededFlagEE@Base 4.96.0
 _ZN11KMountPoint7Private26finalizePossibleMountPointE6QFlagsINS_17DetailsNeededFlagEE@Base 4.96.0
 _ZN11KMountPointC1Ev@Base 4.96.0
 _ZN11KMountPointC2Ev@Base 4.96.0
 _ZN11KMountPointD1Ev@Base 4.96.0
 _ZN11KMountPointD2Ev@Base 4.96.0
 _ZN11KSambaShare11qt_metacallEN11QMetaObject4CallEiPPv@Base 4.96.0
 _ZN11KSambaShare11qt_metacastEPKc@Base 4.96.0
 _ZN11KSambaShare16staticMetaObjectE@Base 4.96.0
 _ZN11KSambaShare7changedEv@Base 4.96.0
 _ZN11KSambaShare8instanceEv@Base 4.96.0
 _ZN11KSambaShareC1Ev@Base 4.96.0
 _ZN11KSambaShareC2Ev@Base 4.96.0
 _ZN11KSambaShareD0Ev@Base 4.96.0
 _ZN11KSambaShareD1Ev@Base 4.96.0
 _ZN11KSambaShareD2Ev@Base 4.96.0
 _ZN12KConfigGroup10writeEntryIbEEvPKcRKT_6QFlagsIN11KConfigBase15WriteConfigFlagEE@Base 4.100.0
 _ZN12KLocalSocket11qt_metacallEN11QMetaObject4CallEiPPv@Base 4.96.0
 _ZN12KLocalSocket11qt_metacastEPKc@Base 4.96.0
 _ZN12KLocalSocket13connectToPathERK7QString6QFlagsIN9QIODevice12OpenModeFlagEE@Base 4.96.0
 _ZN12KLocalSocket13connectToPathERK7QStringNS_15LocalSocketTypeE6QFlagsIN9QIODevice12OpenModeFlagEE@Base 4.96.0
 _ZN12KLocalSocket16staticMetaObjectE@Base 4.96.0
 _ZN12KLocalSocket18disconnectFromPathEv@Base 4.96.0
 _ZN12KLocalSocket27connectToHostImplementationERK7QStringt6QFlagsIN9QIODevice12OpenModeFlagEE@Base 4.96.0
 _ZN12KLocalSocket32disconnectFromHostImplementationEv@Base 4.96.0
 _ZN12KLocalSocketC1EP7QObject@Base 4.96.0
 _ZN12KLocalSocketC2EP7QObject@Base 4.96.0
 _ZN12KLocalSocketD0Ev@Base 4.96.0
 _ZN12KLocalSocketD1Ev@Base 4.96.0
 _ZN12KLocalSocketD2Ev@Base 4.96.0
 _ZN12KSSLSettings10getEGDPathEv@Base 4.96.0
 _ZN12KSSLSettings13getCipherListEv@Base 4.96.0
 _ZN12KSSLSettings14setWarnOnEnterEb@Base 4.96.0
 _ZN12KSSLSettings14setWarnOnLeaveEb@Base 4.96.0
 _ZN12KSSLSettings20setWarnOnUnencryptedEb@Base 4.96.0
 _ZN12KSSLSettings4loadEv@Base 4.96.0
 _ZN12KSSLSettings4saveEv@Base 4.96.0
 _ZN12KSSLSettings8defaultsEv@Base 4.96.0
 _ZN12KSSLSettingsC1Eb@Base 4.96.0
 _ZN12KSSLSettingsC2Eb@Base 4.96.0
 _ZN12KSSLSettingsD1Ev@Base 4.96.0
 _ZN12KSSLSettingsD2Ev@Base 4.96.0
 _ZN13KFileItemListC1ERK5QListI9KFileItemE@Base 4.96.0
 _ZN13KFileItemListC1Ev@Base 4.96.0
 _ZN13KFileItemListC2ERK5QListI9KFileItemE@Base 4.96.0
 _ZN13KFileItemListC2Ev@Base 4.96.0
 _ZN13KProtocolInfo11extraFieldsERK4QUrl@Base 4.96.0
 _ZN13KProtocolInfo12capabilitiesERK7QString@Base 4.96.0
 _ZN13KProtocolInfo13protocolClassERK7QString@Base 4.96.0
 _ZN13KProtocolInfo15isKnownProtocolERK4QUrl@Base 4.96.0
 _ZN13KProtocolInfo15isKnownProtocolERK7QString@Base 4.96.0
 _ZN13KProtocolInfo15showFilePreviewERK7QString@Base 4.96.0
 _ZN13KProtocolInfo16isFilterProtocolERK4QUrl@Base 4.96.0
 _ZN13KProtocolInfo16isFilterProtocolERK7QString@Base 4.96.0
 _ZN13KProtocolInfo16isHelperProtocolERK4QUrl@Base 4.96.0
 _ZN13KProtocolInfo16isHelperProtocolERK7QString@Base 4.96.0
 _ZN13KProtocolInfo16maxSlavesPerHostERK7QString@Base 4.96.0
 _ZN13KProtocolInfo30determineMimetypeFromExtensionERK7QString@Base 4.96.0
 _ZN13KProtocolInfo4execERK7QString@Base 4.96.0
 _ZN13KProtocolInfo4iconERK7QString@Base 4.96.0
 _ZN13KProtocolInfo6configERK7QString@Base 4.96.0
 _ZN13KProtocolInfo7docPathERK7QString@Base 4.96.0
 _ZN13KProtocolInfo9maxSlavesERK7QString@Base 4.96.0
 _ZN13KProtocolInfo9protocolsEv@Base 4.96.0
 _ZN13KProtocolInfo9proxiedByERK7QString@Base 4.96.0
 _ZN14KCoreDirLister10itemsAddedERK4QUrlRK13KFileItemList@Base 4.96.0
 _ZN14KCoreDirLister10jobStartedEPN3KIO7ListJobE@Base 4.96.0
 _ZN14KCoreDirLister11emitChangesEv@Base 4.96.0
 _ZN14KCoreDirLister11handleErrorEPN3KIO3JobE@Base 4.96.0
 _ZN14KCoreDirLister11infoMessageERK7QString@Base 4.96.0
 _ZN14KCoreDirLister11qt_metacallEN11QMetaObject4CallEiPPv@Base 4.96.0
 _ZN14KCoreDirLister11qt_metacastEPKc@Base 4.96.0
 _ZN14KCoreDirLister11redirectionERK4QUrl@Base 4.96.0
 _ZN14KCoreDirLister11redirectionERK4QUrlS2_@Base 4.96.0
 _ZN14KCoreDirLister12itemsDeletedERK13KFileItemList@Base 4.96.0
 _ZN14KCoreDirLister12refreshItemsERK5QListI5QPairI9KFileItemS2_EE@Base 4.96.0
 _ZN14KCoreDirLister13processedSizeEy@Base 4.96.0
 _ZN14KCoreDirLister13setAutoUpdateEb@Base 4.96.0
 _ZN14KCoreDirLister13setMimeFilterERK11QStringList@Base 4.96.0
 _ZN14KCoreDirLister13setNameFilterERK7QString@Base 4.96.0
 _ZN14KCoreDirLister14setDirOnlyModeEb@Base 4.96.0
 _ZN14KCoreDirLister15clearMimeFilterEv@Base 4.96.0
 _ZN14KCoreDirLister15updateDirectoryERK4QUrl@Base 4.96.0
 _ZN14KCoreDirLister16cachedItemForUrlERK4QUrl@Base 4.96.0
 _ZN14KCoreDirLister16staticMetaObjectE@Base 4.96.0
 _ZN14KCoreDirLister18handleErrorMessageERK7QString@Base 4.96.0
 _ZN14KCoreDirLister18setShowingDotFilesEb@Base 4.96.0
 _ZN14KCoreDirLister19itemsFilteredByMimeERK13KFileItemList@Base 4.96.0
 _ZN14KCoreDirLister19setDelayedMimeTypesEb@Base 4.96.0
 _ZN14KCoreDirLister20setMimeExcludeFilterERK11QStringList@Base 4.96.0
 _ZN14KCoreDirLister4stopERK4QUrl@Base 4.96.0
 _ZN14KCoreDirLister4stopEv@Base 4.96.0
 _ZN14KCoreDirLister5clearERK4QUrl@Base 4.96.0
 _ZN14KCoreDirLister5clearEv@Base 4.96.0
 _ZN14KCoreDirLister5speedEi@Base 4.96.0
 _ZN14KCoreDirLister7Private10addNewItemERK4QUrlRK9KFileItem@Base 4.96.0
 _ZN14KCoreDirLister7Private10connectJobEPN3KIO7ListJobE@Base 4.96.0
 _ZN14KCoreDirLister7Private11addNewItemsERK4QUrlRK22NonMovableFileItemList@Base 5.0.0
 _ZN14KCoreDirLister7Private11emitChangesEv@Base 4.96.0
 _ZN14KCoreDirLister7Private12_k_slotSpeedEP4KJobm@Base 4.96.0
 _ZN14KCoreDirLister7Private14CachedItemsJob11qt_metacallEN11QMetaObject4CallEiPPv@Base 4.96.0
 _ZN14KCoreDirLister7Private14CachedItemsJob11qt_metacastEPKc@Base 4.96.0
 _ZN14KCoreDirLister7Private14CachedItemsJob16staticMetaObjectE@Base 4.96.0
 _ZN14KCoreDirLister7Private14CachedItemsJob4doneEv@Base 4.96.0
 _ZN14KCoreDirLister7Private14CachedItemsJob6doKillEv@Base 4.96.0
 _ZN14KCoreDirLister7Private14CachedItemsJobC1EPS_RK4QUrlb@Base 4.96.0
 _ZN14KCoreDirLister7Private14CachedItemsJobC2EPS_RK4QUrlb@Base 4.96.0
 _ZN14KCoreDirLister7Private14_k_slotPercentEP4KJobm@Base 4.96.0
 _ZN14KCoreDirLister7Private14addRefreshItemERK4QUrlRK9KFileItemS6_@Base 4.96.0
 _ZN14KCoreDirLister7Private16_k_slotTotalSizeEP4KJoby@Base 4.96.0
 _ZN14KCoreDirLister7Private16emitItemsDeletedERK13KFileItemList@Base 4.96.0
 _ZN14KCoreDirLister7Private18_k_slotInfoMessageEP4KJobRK7QString@Base 4.96.0
 _ZN14KCoreDirLister7Private20_k_slotProcessedSizeEP4KJoby@Base 4.96.0
 _ZN14KCoreDirLister7Private7jobDoneEPN3KIO7ListJobE@Base 4.96.0
 _ZN14KCoreDirLister7Private7numJobsEv@Base 4.96.0
 _ZN14KCoreDirLister7Private8redirectERK4QUrlS3_b@Base 4.96.0
 _ZN14KCoreDirLister7Private9emitItemsEv@Base 4.96.0
 _ZN14KCoreDirLister7openUrlERK4QUrl6QFlagsINS_11OpenUrlFlagEE@Base 4.96.0
 _ZN14KCoreDirLister7percentEi@Base 4.96.0
 _ZN14KCoreDirLister7startedERK4QUrl@Base 4.96.0
 _ZN14KCoreDirLister8canceledERK4QUrl@Base 4.96.0
 _ZN14KCoreDirLister8canceledEv@Base 4.96.0
 _ZN14KCoreDirLister8newItemsERK13KFileItemList@Base 4.96.0
 _ZN14KCoreDirLister9completedERK4QUrl@Base 4.96.0
 _ZN14KCoreDirLister9completedEv@Base 4.96.0
 _ZN14KCoreDirLister9totalSizeEy@Base 4.96.0
 _ZN14KCoreDirListerC1EP7QObject@Base 4.96.0
 _ZN14KCoreDirListerC2EP7QObject@Base 4.96.0
 _ZN14KCoreDirListerD0Ev@Base 4.96.0
 _ZN14KCoreDirListerD1Ev@Base 4.96.0
 _ZN14KCoreDirListerD2Ev@Base 4.96.0
 _ZN14KUrlAuthorized14allowUrlActionERK7QStringRK4QUrlS5_@Base 4.96.0
 _ZN14KUrlAuthorized18authorizeUrlActionERK7QStringRK4QUrlS5_@Base 4.96.0
 _ZN15KRecentDocument12maximumItemsEv@Base 4.96.0
 _ZN15KRecentDocument15recentDocumentsEv@Base 4.96.0
 _ZN15KRecentDocument23recentDocumentDirectoryEv@Base 4.96.0
 _ZN15KRecentDocument3addERK4QUrl@Base 4.96.0
 _ZN15KRecentDocument3addERK4QUrlRK7QString@Base 4.96.0
 _ZN15KRecentDocument5clearEv@Base 4.96.0
 _ZN15KRemoteEncoding11setEncodingEPKc@Base 4.96.0
 _ZN15KRemoteEncoding12virtual_hookEiPv@Base 4.96.0
 _ZN15KRemoteEncodingC1EPKc@Base 4.96.0
 _ZN15KRemoteEncodingC2EPKc@Base 4.96.0
 _ZN15KRemoteEncodingD0Ev@Base 4.96.0
 _ZN15KRemoteEncodingD1Ev@Base 4.96.0
 _ZN15KRemoteEncodingD2Ev@Base 4.96.0
 _ZN15KSambaShareData10setCommentERK7QString@Base 4.96.0
 _ZN15KSambaShareData18setGuestPermissionERKNS_15GuestPermissionE@Base 4.96.0
 _ZN15KSambaShareData4saveEv@Base 4.96.0
 _ZN15KSambaShareData6removeEv@Base 4.96.0
 _ZN15KSambaShareData6setAclERK7QString@Base 4.96.0
 _ZN15KSambaShareData7setNameERK7QString@Base 4.96.0
 _ZN15KSambaShareData7setPathERK7QString@Base 4.96.0
 _ZN15KSambaShareDataC1ERKS_@Base 4.96.0
 _ZN15KSambaShareDataC1Ev@Base 4.96.0
 _ZN15KSambaShareDataC2ERKS_@Base 4.96.0
 _ZN15KSambaShareDataC2Ev@Base 4.96.0
 _ZN15KSambaShareDataD1Ev@Base 4.96.0
 _ZN15KSambaShareDataD2Ev@Base 4.96.0
 _ZN15KSambaShareDataaSERKS_@Base 4.96.0
 _ZN15KSslErrorUiDataC1EPK10KTcpSocket@Base 4.96.0
 _ZN15KSslErrorUiDataC1EPK10QSslSocket@Base 4.96.0
 _ZN15KSslErrorUiDataC1ERKS_@Base 4.96.0
 _ZN15KSslErrorUiDataC1Ev@Base 4.96.0
 _ZN15KSslErrorUiDataC2EPK10KTcpSocket@Base 4.96.0
 _ZN15KSslErrorUiDataC2EPK10QSslSocket@Base 4.96.0
 _ZN15KSslErrorUiDataC2ERKS_@Base 4.96.0
 _ZN15KSslErrorUiDataC2Ev@Base 4.96.0
 _ZN15KSslErrorUiDataD1Ev@Base 4.96.0
 _ZN15KSslErrorUiDataD2Ev@Base 4.96.0
 _ZN15KSslErrorUiDataaSERKS_@Base 4.96.0
 _ZN16KProtocolManager10autoResumeEv@Base 4.96.0
 _ZN16KProtocolManager10charsetForERK4QUrl@Base 4.96.0
 _ZN16KProtocolManager10noProxyForEv@Base 4.96.0
 _ZN16KProtocolManager10outputTypeERK4QUrl@Base 4.96.0
 _ZN16KProtocolManager11markPartialEv@Base 4.96.0
 _ZN16KProtocolManager11maxCacheAgeEv@Base 4.96.0
 _ZN16KProtocolManager11proxyForUrlERK4QUrl@Base 4.96.0
 _ZN16KProtocolManager11readTimeoutEv@Base 4.96.0
 _ZN16KProtocolManager12cacheControlEv@Base 4.96.0
 _ZN16KProtocolManager12maxCacheSizeEv@Base 4.96.0
 _ZN16KProtocolManager13canCopyToFileERK4QUrl@Base 4.96.0
 _ZN16KProtocolManager13proxiesForUrlERK4QUrl@Base 4.96.0
 _ZN16KProtocolManager13proxyAuthModeEv@Base 4.96.0
 _ZN16KProtocolManager13slaveProtocolERK4QUrlR11QStringList@Base 4.96.0
 _ZN16KProtocolManager13slaveProtocolERK4QUrlR7QString@Base 4.96.0
 _ZN16KProtocolManager14connectTimeoutEv@Base 4.96.0
 _ZN16KProtocolManager14supportsMovingERK4QUrl@Base 4.96.0
 _ZN16KProtocolManager15canCopyFromFileERK4QUrl@Base 4.96.0
 _ZN16KProtocolManager15canRenameToFileERK4QUrl@Base 4.96.0
 _ZN16KProtocolManager15defaultMimetypeERK4QUrl@Base 4.96.0
 _ZN16KProtocolManager15minimumKeepSizeEv@Base 4.96.0
 _ZN16KProtocolManager15responseTimeoutEv@Base 4.96.0
 _ZN16KProtocolManager15supportsLinkingERK4QUrl@Base 4.96.0
 _ZN16KProtocolManager15supportsListingERK4QUrl@Base 4.96.0
 _ZN16KProtocolManager15supportsMakeDirERK4QUrl@Base 4.96.0
 _ZN16KProtocolManager15supportsOpeningERK4QUrl@Base 4.96.0
 _ZN16KProtocolManager15supportsReadingERK4QUrl@Base 4.96.0
 _ZN16KProtocolManager15supportsWritingERK4QUrl@Base 4.96.0
 _ZN16KProtocolManager15useReverseProxyEv@Base 4.96.0
 _ZN16KProtocolManager16defaultUserAgentERK7QString@Base 4.96.0
 _ZN16KProtocolManager16defaultUserAgentEv@Base 4.96.0
 _ZN16KProtocolManager16isSourceProtocolERK4QUrl@Base 4.96.0
 _ZN16KProtocolManager16supportsDeletingERK4QUrl@Base 4.96.0
 _ZN16KProtocolManager16userAgentForHostERK7QString@Base 4.96.0
 _ZN16KProtocolManager17canRenameFromFileERK4QUrl@Base 4.96.0
 _ZN16KProtocolManager17proxyConfigScriptEv@Base 4.96.0
 _ZN16KProtocolManager18canDeleteRecursiveERK4QUrl@Base 4.96.0
 _ZN16KProtocolManager19proxyConnectTimeoutEv@Base 4.96.0
 _ZN16KProtocolManager20reparseConfigurationEv@Base 4.96.0
 _ZN16KProtocolManager21acceptLanguagesHeaderEv@Base 4.96.0
 _ZN16KProtocolManager21persistentConnectionsEv@Base 4.96.0
 _ZN16KProtocolManager22fileNameUsedForCopyingERK4QUrl@Base 4.96.0
 _ZN16KProtocolManager23userAgentForApplicationERK7QStringS2_RK11QStringList@Base 4.96.0
 _ZN16KProtocolManager25persistentProxyConnectionEv@Base 4.96.0
 _ZN16KProtocolManager26protocolForArchiveMimetypeERK7QString@Base 4.96.0
 _ZN16KProtocolManager30getSystemNameVersionAndMachineER7QStringS1_S1_@Base 4.96.0
 _ZN16KProtocolManager7listingERK4QUrl@Base 4.96.0
 _ZN16KProtocolManager8badProxyERK7QString@Base 4.96.0
 _ZN16KProtocolManager8cacheDirEv@Base 4.96.0
 _ZN16KProtocolManager8proxyForERK7QString@Base 4.96.0
 _ZN16KProtocolManager8useCacheEv@Base 4.96.0
 _ZN16KProtocolManager8useProxyEv@Base 4.96.0
 _ZN16KProtocolManager9inputTypeERK4QUrl@Base 4.96.0
 _ZN16KProtocolManager9proxyTypeEv@Base 4.96.0
 _ZN18KDiskFreeSpaceInfo13freeSpaceInfoERK7QString@Base 4.96.0
 _ZN18KDiskFreeSpaceInfoC1ERKS_@Base 4.96.0
 _ZN18KDiskFreeSpaceInfoC1Ev@Base 4.96.0
 _ZN18KDiskFreeSpaceInfoC2ERKS_@Base 4.96.0
 _ZN18KDiskFreeSpaceInfoC2Ev@Base 4.96.0
 _ZN18KDiskFreeSpaceInfoD1Ev@Base 4.96.0
 _ZN18KDiskFreeSpaceInfoD2Ev@Base 4.96.0
 _ZN18KDiskFreeSpaceInfoaSERKS_@Base 4.96.0
 _ZN18KLocalSocketServer11qt_metacallEN11QMetaObject4CallEiPPv@Base 4.96.0
 _ZN18KLocalSocketServer11qt_metacastEPKc@Base 4.96.0
 _ZN18KLocalSocketServer13newConnectionEv@Base 4.96.0
 _ZN18KLocalSocketServer16staticMetaObjectE@Base 4.96.0
 _ZN18KLocalSocketServer18incomingConnectionEi@Base 4.96.0
 _ZN18KLocalSocketServer20waitForNewConnectionEiPb@Base 4.96.0
 _ZN18KLocalSocketServer21nextPendingConnectionEv@Base 4.96.0
 _ZN18KLocalSocketServer24setMaxPendingConnectionsEi@Base 4.96.0
 _ZN18KLocalSocketServer5closeEv@Base 4.96.0
 _ZN18KLocalSocketServer6listenERK7QStringN12KLocalSocket15LocalSocketTypeE@Base 4.96.0
 _ZN18KLocalSocketServerC1EP7QObject@Base 4.96.0
 _ZN18KLocalSocketServerC2EP7QObject@Base 4.96.0
 _ZN18KLocalSocketServerD0Ev@Base 4.96.0
 _ZN18KLocalSocketServerD1Ev@Base 4.96.0
 _ZN18KLocalSocketServerD2Ev@Base 4.96.0
 _ZN19KSslCertificateRule11setRejectedEb@Base 4.96.0
 _ZN19KSslCertificateRule16setIgnoredErrorsERK5QListI9KSslErrorE@Base 4.96.0
 _ZN19KSslCertificateRule16setIgnoredErrorsERK5QListIN9KSslError5ErrorEE@Base 4.96.0
 _ZN19KSslCertificateRule17setExpiryDateTimeERK9QDateTime@Base 4.96.0
 _ZN19KSslCertificateRuleC1ERK15QSslCertificateRK7QString@Base 4.96.0
 _ZN19KSslCertificateRuleC1ERKS_@Base 4.96.0
 _ZN19KSslCertificateRuleC2ERK15QSslCertificateRK7QString@Base 4.96.0
 _ZN19KSslCertificateRuleC2ERKS_@Base 4.96.0
 _ZN19KSslCertificateRuleD1Ev@Base 4.96.0
 _ZN19KSslCertificateRuleD2Ev@Base 4.96.0
 _ZN19KSslCertificateRuleaSERKS_@Base 4.96.0
 _ZN22KSslCertificateManager18nonIgnorableErrorsERK5QListI9KSslErrorE@Base 4.96.0
 _ZN22KSslCertificateManager18nonIgnorableErrorsERK5QListIN9KSslError5ErrorEE@Base 4.96.0
 _ZN22KSslCertificateManager4selfEv@Base 4.96.0
 _ZN22KSslCertificateManager7setRuleERK19KSslCertificateRule@Base 4.96.0
 _ZN22KSslCertificateManager9clearRuleERK15QSslCertificateRK7QString@Base 4.96.0
 _ZN22KSslCertificateManager9clearRuleERK19KSslCertificateRule@Base 4.96.0
 _ZN22KSslCertificateManagerC1Ev@Base 4.96.0
 _ZN22KSslCertificateManagerC2Ev@Base 4.96.0
 _ZN22KSslCertificateManagerD1Ev@Base 4.96.0
 _ZN22KSslCertificateManagerD2Ev@Base 4.96.0
 _ZN23KFileItemListProperties8setItemsERK13KFileItemList@Base 4.96.0
 _ZN23KFileItemListPropertiesC1ERK13KFileItemList@Base 4.96.0
 _ZN23KFileItemListPropertiesC1ERKS_@Base 4.96.0
 _ZN23KFileItemListPropertiesC1Ev@Base 4.96.0
 _ZN23KFileItemListPropertiesC2ERK13KFileItemList@Base 4.96.0
 _ZN23KFileItemListPropertiesC2ERKS_@Base 4.96.0
 _ZN23KFileItemListPropertiesC2Ev@Base 4.96.0
 _ZN23KFileItemListPropertiesD0Ev@Base 4.96.0
 _ZN23KFileItemListPropertiesD1Ev@Base 4.96.0
 _ZN23KFileItemListPropertiesD2Ev@Base 4.96.0
 _ZN23KFileItemListPropertiesaSERKS_@Base 4.96.0
 _ZN25OrgKdeKDirNotifyInterface10FilesAddedERK7QString@Base 4.96.0
 _ZN25OrgKdeKDirNotifyInterface11FileRenamedERK7QStringS2_@Base 4.96.0
 _ZN25OrgKdeKDirNotifyInterface11qt_metacallEN11QMetaObject4CallEiPPv@Base 4.96.0
 _ZN25OrgKdeKDirNotifyInterface11qt_metacastEPKc@Base 4.96.0
 _ZN25OrgKdeKDirNotifyInterface12FilesChangedERK11QStringList@Base 4.96.0
 _ZN25OrgKdeKDirNotifyInterface12FilesRemovedERK11QStringList@Base 4.96.0
 _ZN25OrgKdeKDirNotifyInterface13emitFileMovedERK4QUrlS2_@Base 4.96.0
 _ZN25OrgKdeKDirNotifyInterface13leftDirectoryERK7QString@Base 4.96.0
 _ZN25OrgKdeKDirNotifyInterface14emitFilesAddedERK4QUrl@Base 4.96.0
 _ZN25OrgKdeKDirNotifyInterface15emitFileRenamedERK4QUrlS2_@Base 4.96.0
 _ZN25OrgKdeKDirNotifyInterface16emitFilesChangedERK5QListI4QUrlE@Base 4.96.0
 _ZN25OrgKdeKDirNotifyInterface16emitFilesRemovedERK5QListI4QUrlE@Base 4.96.0
 _ZN25OrgKdeKDirNotifyInterface16enteredDirectoryERK7QString@Base 4.96.0
 _ZN25OrgKdeKDirNotifyInterface16staticMetaObjectE@Base 4.96.0
 _ZN25OrgKdeKDirNotifyInterface17emitLeftDirectoryERK4QUrl@Base 4.96.0
 _ZN25OrgKdeKDirNotifyInterface20emitEnteredDirectoryERK4QUrl@Base 4.96.0
 _ZN25OrgKdeKDirNotifyInterface9FileMovedERK7QStringS2_@Base 4.96.0
 _ZN25OrgKdeKDirNotifyInterfaceC1ERK7QStringS2_RK15QDBusConnectionP7QObject@Base 4.96.0
 _ZN25OrgKdeKDirNotifyInterfaceC2ERK7QStringS2_RK15QDBusConnectionP7QObject@Base 4.96.0
 _ZN25OrgKdeKDirNotifyInterfaceD0Ev@Base 4.96.0
 _ZN25OrgKdeKDirNotifyInterfaceD1Ev@Base 4.96.0
 _ZN25OrgKdeKDirNotifyInterfaceD2Ev@Base 4.96.0
 _ZN3KIO10RestoreJob10slotResultEP4KJob@Base 5.2.0
 _ZN3KIO10RestoreJob11qt_metacallEN11QMetaObject4CallEiPPv@Base 5.2.0
 _ZN3KIO10RestoreJob11qt_metacastEPKc@Base 5.2.0
 _ZN3KIO10RestoreJob16staticMetaObjectE@Base 5.2.0
 _ZN3KIO10RestoreJobC1ERNS_17RestoreJobPrivateE@Base 5.2.0
 _ZN3KIO10RestoreJobC2ERNS_17RestoreJobPrivateE@Base 5.2.0
 _ZN3KIO10RestoreJobD0Ev@Base 5.2.0
 _ZN3KIO10RestoreJobD1Ev@Base 5.2.0
 _ZN3KIO10RestoreJobD2Ev@Base 5.2.0
 _ZN3KIO10SpecialJob11qt_metacallEN11QMetaObject4CallEiPPv@Base 4.96.0
 _ZN3KIO10SpecialJob11qt_metacastEPKc@Base 4.96.0
 _ZN3KIO10SpecialJob12setArgumentsERK10QByteArray@Base 4.96.0
 _ZN3KIO10SpecialJob16staticMetaObjectE@Base 4.96.0
 _ZN3KIO10SpecialJobC1ERK4QUrlRK10QByteArray@Base 4.96.0
 _ZN3KIO10SpecialJobC2ERK4QUrlRK10QByteArray@Base 4.96.0
 _ZN3KIO10SpecialJobD0Ev@Base 4.96.0
 _ZN3KIO10SpecialJobD1Ev@Base 4.96.0
 _ZN3KIO10SpecialJobD2Ev@Base 4.96.0
 _ZN3KIO10emptyTrashEv@Base 5.2.0
 _ZN3KIO11FileCopyJob10slotResultEP4KJob@Base 4.96.0
 _ZN3KIO11FileCopyJob11qt_metacallEN11QMetaObject4CallEiPPv@Base 4.96.0
 _ZN3KIO11FileCopyJob11qt_metacastEPKc@Base 4.96.0
 _ZN3KIO11FileCopyJob13setSourceSizeEy@Base 4.96.0
 _ZN3KIO11FileCopyJob16staticMetaObjectE@Base 4.96.0
 _ZN3KIO11FileCopyJob19setModificationTimeERK9QDateTime@Base 4.96.0
 _ZN3KIO11FileCopyJob8doResumeEv@Base 4.96.0
 _ZN3KIO11FileCopyJob8mimetypeEPNS_3JobERK7QString@Base 4.96.0
 _ZN3KIO11FileCopyJob9doSuspendEv@Base 4.96.0
 _ZN3KIO11FileCopyJobC1ERNS_18FileCopyJobPrivateE@Base 4.96.0
 _ZN3KIO11FileCopyJobC2ERNS_18FileCopyJobPrivateE@Base 4.96.0
 _ZN3KIO11FileCopyJobD0Ev@Base 4.96.0
 _ZN3KIO11FileCopyJobD1Ev@Base 4.96.0
 _ZN3KIO11FileCopyJobD2Ev@Base 4.96.0
 _ZN3KIO11MimetypeJob11qt_metacallEN11QMetaObject4CallEiPPv@Base 4.96.0
 _ZN3KIO11MimetypeJob11qt_metacastEPKc@Base 4.96.0
 _ZN3KIO11MimetypeJob12slotFinishedEv@Base 4.96.0
 _ZN3KIO11MimetypeJob16staticMetaObjectE@Base 4.96.0
 _ZN3KIO11MimetypeJobC1ERNS_18MimetypeJobPrivateE@Base 4.96.0
 _ZN3KIO11MimetypeJobC2ERNS_18MimetypeJobPrivateE@Base 4.96.0
 _ZN3KIO11MimetypeJobD0Ev@Base 4.96.0
 _ZN3KIO11MimetypeJobD1Ev@Base 4.96.0
 _ZN3KIO11MimetypeJobD2Ev@Base 4.96.0
 _ZN3KIO11MultiGetJob11qt_metacallEN11QMetaObject4CallEiPPv@Base 4.96.0
 _ZN3KIO11MultiGetJob11qt_metacastEPKc@Base 4.96.0
 _ZN3KIO11MultiGetJob12slotFinishedEv@Base 4.96.0
 _ZN3KIO11MultiGetJob12slotMimetypeERK7QString@Base 4.96.0
 _ZN3KIO11MultiGetJob15slotRedirectionERK4QUrl@Base 4.96.0
 _ZN3KIO11MultiGetJob16staticMetaObjectE@Base 4.96.0
 _ZN3KIO11MultiGetJob3getElRK4QUrlRKNS_8MetaDataE@Base 4.96.0
 _ZN3KIO11MultiGetJob4dataElRK10QByteArray@Base 4.96.0
 _ZN3KIO11MultiGetJob6resultEl@Base 4.96.0
 _ZN3KIO11MultiGetJob8mimetypeElRK7QString@Base 4.96.0
 _ZN3KIO11MultiGetJob8slotDataERK10QByteArray@Base 4.96.0
 _ZN3KIO11MultiGetJobC1ERNS_18MultiGetJobPrivateE@Base 4.96.0
 _ZN3KIO11MultiGetJobC2ERNS_18MultiGetJobPrivateE@Base 4.96.0
 _ZN3KIO11MultiGetJobD0Ev@Base 4.96.0
 _ZN3KIO11MultiGetJobD1Ev@Base 4.96.0
 _ZN3KIO11MultiGetJobD2Ev@Base 4.96.0
 _ZN3KIO11SlaveConfig10configDataERK7QStringS3_@Base 4.96.0
 _ZN3KIO11SlaveConfig10configDataERK7QStringS3_S3_@Base 4.96.0
 _ZN3KIO11SlaveConfig11qt_metacallEN11QMetaObject4CallEiPPv@Base 4.96.0
 _ZN3KIO11SlaveConfig11qt_metacastEPKc@Base 4.96.0
 _ZN3KIO11SlaveConfig12configNeededERK7QStringS3_@Base 4.96.0
 _ZN3KIO11SlaveConfig13setConfigDataERK7QStringS3_RKNS_8MetaDataE@Base 4.96.0
 _ZN3KIO11SlaveConfig13setConfigDataERK7QStringS3_S3_S3_@Base 4.96.0
 _ZN3KIO11SlaveConfig16staticMetaObjectE@Base 4.96.0
 _ZN3KIO11SlaveConfig4selfEv@Base 4.96.0
 _ZN3KIO11SlaveConfig5resetEv@Base 4.96.0
 _ZN3KIO11SlaveConfigC1Ev@Base 4.96.0
 _ZN3KIO11SlaveConfigC2Ev@Base 4.96.0
 _ZN3KIO11SlaveConfigD0Ev@Base 4.96.0
 _ZN3KIO11SlaveConfigD1Ev@Base 4.96.0
 _ZN3KIO11SlaveConfigD2Ev@Base 4.96.0
 _ZN3KIO11TransferJob10slotResultEP4KJob@Base 4.96.0
 _ZN3KIO11TransferJob11qt_metacallEN11QMetaObject4CallEiPPv@Base 4.96.0
 _ZN3KIO11TransferJob11qt_metacastEPKc@Base 4.96.0
 _ZN3KIO11TransferJob11redirectionEPNS_3JobERK4QUrl@Base 4.96.0
 _ZN3KIO11TransferJob11slotDataReqEv@Base 4.96.0
 _ZN3KIO11TransferJob12setTotalSizeEy@Base 4.96.0
 _ZN3KIO11TransferJob12slotFinishedEv@Base 4.96.0
 _ZN3KIO11TransferJob12slotMetaDataERKNS_8MetaDataE@Base 4.96.0
 _ZN3KIO11TransferJob12slotMimetypeERK7QString@Base 4.96.0
 _ZN3KIO11TransferJob13sendAsyncDataERK10QByteArray@Base 4.96.0
 _ZN3KIO11TransferJob15slotRedirectionERK4QUrl@Base 4.96.0
 _ZN3KIO11TransferJob16staticMetaObjectE@Base 4.96.0
 _ZN3KIO11TransferJob17setReportDataSentEb@Base 4.96.0
 _ZN3KIO11TransferJob19setAsyncDataEnabledEb@Base 4.96.0
 _ZN3KIO11TransferJob19setModificationTimeERK9QDateTime@Base 4.96.0
 _ZN3KIO11TransferJob20permanentRedirectionEPNS_3JobERK4QUrlS5_@Base 4.96.0
 _ZN3KIO11TransferJob4dataEPNS_3JobERK10QByteArray@Base 4.96.0
 _ZN3KIO11TransferJob7dataReqEPNS_3JobER10QByteArray@Base 4.96.0
 _ZN3KIO11TransferJob8doResumeEv@Base 4.96.0
 _ZN3KIO11TransferJob8mimetypeEPNS_3JobERK7QString@Base 4.96.0
 _ZN3KIO11TransferJob8slotDataERK10QByteArray@Base 4.96.0
 _ZN3KIO11TransferJob9canResumeEPNS_3JobEy@Base 4.96.0
 _ZN3KIO11TransferJobC1ERNS_18TransferJobPrivateE@Base 4.96.0
 _ZN3KIO11TransferJobC2ERNS_18TransferJobPrivateE@Base 4.96.0
 _ZN3KIO11TransferJobD0Ev@Base 4.96.0
 _ZN3KIO11TransferJobD1Ev@Base 4.96.0
 _ZN3KIO11TransferJobD2Ev@Base 4.96.0
 _ZN3KIO11convertSizeEy@Base 4.96.0
 _ZN3KIO11davPropFindERK4QUrlRK12QDomDocumentRK7QString6QFlagsINS_7JobFlagEE@Base 4.96.0
 _ZN3KIO11file_deleteERK4QUrl6QFlagsINS_7JobFlagEE@Base 4.96.0
 _ZN3KIO11http_deleteERK4QUrl6QFlagsINS_7JobFlagEE@Base 4.96.0
 _ZN3KIO11suggestNameERK4QUrlRK7QString@Base 4.96.0
 _ZN3KIO12TCPSlaveBase11setBlockingEb@Base 4.96.0
 _ZN3KIO12TCPSlaveBase12virtual_hookEiPv@Base 4.96.0
 _ZN3KIO12TCPSlaveBase13connectToHostERK7QStringS3_t@Base 4.96.0
 _ZN3KIO12TCPSlaveBase13connectToHostERK7QStringtPS1_@Base 4.96.0
 _ZN3KIO12TCPSlaveBase15waitForResponseEi@Base 4.96.0
 _ZN3KIO12TCPSlaveBase18disconnectFromHostEv@Base 4.96.0
 _ZN3KIO12TCPSlaveBase19TcpSlaveBasePrivate16startTLSInternalEN10KTcpSocket10SslVersionEi@Base 5.6.0+git20150118
 _ZN3KIO12TCPSlaveBase23selectClientCertificateEv@Base 4.96.0
 _ZN3KIO12TCPSlaveBase23verifyServerCertificateEv@Base 4.96.0
 _ZN3KIO12TCPSlaveBase4readEPcl@Base 4.96.0
 _ZN3KIO12TCPSlaveBase5writeEPKcl@Base 4.96.0
 _ZN3KIO12TCPSlaveBase8readLineEPcl@Base 4.96.0
 _ZN3KIO12TCPSlaveBase8startSslEv@Base 4.96.0
 _ZN3KIO12TCPSlaveBaseC1ERK10QByteArrayS3_S3_b@Base 4.96.0
 _ZN3KIO12TCPSlaveBaseC2ERK10QByteArrayS3_S3_b@Base 4.96.0
 _ZN3KIO12TCPSlaveBaseD0Ev@Base 4.96.0
 _ZN3KIO12TCPSlaveBaseD1Ev@Base 4.96.0
 _ZN3KIO12TCPSlaveBaseD2Ev@Base 4.96.0
 _ZN3KIO12davPropPatchERK4QUrlRK12QDomDocument6QFlagsINS_7JobFlagEE@Base 4.96.0
 _ZN3KIO12mostLocalUrlERK4QUrl6QFlagsINS_7JobFlagEE@Base 4.96.0
 _ZN3KIO13EmptyTrashJob11qt_metacallEN11QMetaObject4CallEiPPv@Base 5.2.0
 _ZN3KIO13EmptyTrashJob11qt_metacastEPKc@Base 5.2.0
 _ZN3KIO13EmptyTrashJob12slotFinishedEv@Base 5.2.0
 _ZN3KIO13EmptyTrashJob16staticMetaObjectE@Base 5.2.0
 _ZN3KIO13EmptyTrashJobC1ERNS_20EmptyTrashJobPrivateE@Base 5.2.0
 _ZN3KIO13EmptyTrashJobC2ERNS_20EmptyTrashJobPrivateE@Base 5.2.0
 _ZN3KIO13EmptyTrashJobD0Ev@Base 5.2.0
 _ZN3KIO13EmptyTrashJobD1Ev@Base 5.2.0
 _ZN3KIO13EmptyTrashJobD2Ev@Base 5.2.0
 _ZN3KIO13directorySizeERK13KFileItemList@Base 4.96.0
 _ZN3KIO13directorySizeERK4QUrl@Base 4.96.0
 _ZN3KIO13favIconForUrlERK4QUrl@Base 4.96.0
 _ZN3KIO13getJobTrackerEv@Base 4.96.0
 _ZN3KIO13listRecursiveERK4QUrl6QFlagsINS_7JobFlagEEb@Base 4.96.0
 _ZN3KIO13setJobTrackerEP20KJobTrackerInterface@Base 4.96.0
 _ZN3KIO14SlaveInterface10messageBoxEiRK7QStringS3_S3_S3_@Base 4.96.0
 _ZN3KIO14SlaveInterface10messageBoxEiRK7QStringS3_S3_S3_S3_@Base 4.96.0
 _ZN3KIO14SlaveInterface11dropNetworkERK7QStringS3_@Base 4.96.0
 _ZN3KIO14SlaveInterface11infoMessageERK7QString@Base 4.96.0
 _ZN3KIO14SlaveInterface11listEntriesERK5QListINS_8UDSEntryEE@Base 4.96.0
 _ZN3KIO14SlaveInterface11qt_metacallEN11QMetaObject4CallEiPPv@Base 4.96.0
 _ZN3KIO14SlaveInterface11qt_metacastEPKc@Base 4.96.0
 _ZN3KIO14SlaveInterface11redirectionERK4QUrl@Base 4.96.0
 _ZN3KIO14SlaveInterface11slaveStatusExRK10QByteArrayRK7QStringb@Base 4.98.0
 _ZN3KIO14SlaveInterface13processedSizeEy@Base 4.96.0
 _ZN3KIO14SlaveInterface13setConnectionEPNS_10ConnectionE@Base 4.96.0
 _ZN3KIO14SlaveInterface14needSubUrlDataEv@Base 4.96.0
 _ZN3KIO14SlaveInterface14requestNetworkERK7QStringS3_@Base 4.96.0
 _ZN3KIO14SlaveInterface16sendResumeAnswerEb@Base 4.96.0
 _ZN3KIO14SlaveInterface16staticMetaObjectE@Base 4.96.0
 _ZN3KIO14SlaveInterface20sendMessageBoxAnswerEi@Base 4.96.0
 _ZN3KIO14SlaveInterface4dataERK10QByteArray@Base 4.96.0
 _ZN3KIO14SlaveInterface4openEv@Base 4.96.0
 _ZN3KIO14SlaveInterface5errorEiRK7QString@Base 4.96.0
 _ZN3KIO14SlaveInterface5speedEm@Base 4.96.0
 _ZN3KIO14SlaveInterface7dataReqEv@Base 4.96.0
 _ZN3KIO14SlaveInterface7warningERK7QString@Base 4.96.0
 _ZN3KIO14SlaveInterface7writtenEy@Base 4.96.0
 _ZN3KIO14SlaveInterface8dispatchEiRK10QByteArray@Base 4.96.0
 _ZN3KIO14SlaveInterface8dispatchEv@Base 4.96.0
 _ZN3KIO14SlaveInterface8finishedEv@Base 4.96.0
 _ZN3KIO14SlaveInterface8metaDataERKNS_8MetaDataE@Base 4.96.0
 _ZN3KIO14SlaveInterface8mimeTypeERK7QString@Base 4.96.0
 _ZN3KIO14SlaveInterface8positionEy@Base 4.96.0
 _ZN3KIO14SlaveInterface9calcSpeedEv@Base 4.96.0
 _ZN3KIO14SlaveInterface9canResumeEy@Base 4.96.0
 _ZN3KIO14SlaveInterface9connectedEv@Base 4.96.0
 _ZN3KIO14SlaveInterface9errorPageEv@Base 4.96.0
 _ZN3KIO14SlaveInterface9setOffsetEy@Base 4.96.0
 _ZN3KIO14SlaveInterface9statEntryERKNS_8UDSEntryE@Base 4.96.0
 _ZN3KIO14SlaveInterface9totalSizeEy@Base 4.96.0
 _ZN3KIO14SlaveInterfaceC1ERNS_21SlaveInterfacePrivateEP7QObject@Base 4.96.0
 _ZN3KIO14SlaveInterfaceC2ERNS_21SlaveInterfacePrivateEP7QObject@Base 4.96.0
 _ZN3KIO14SlaveInterfaceD0Ev@Base 4.96.0
 _ZN3KIO14SlaveInterfaceD1Ev@Base 4.96.0
 _ZN3KIO14SlaveInterfaceD2Ev@Base 4.96.0
 _ZN3KIO14convertSecondsEj@Base 4.96.0
 _ZN3KIO14decodeFileNameERK7QString@Base 4.96.0
 _ZN3KIO14encodeFileNameERK7QString@Base 4.96.0
 _ZN3KIO14iconNameForUrlERK4QUrl@Base 4.96.0
 _ZN3KIO14rawErrorDetailEiRK7QStringPK4QUrli@Base 4.96.0
 _ZN3KIO14storedHttpPostEP9QIODeviceRK4QUrlx6QFlagsINS_7JobFlagEE@Base 4.96.0
 _ZN3KIO14storedHttpPostERK10QByteArrayRK4QUrl6QFlagsINS_7JobFlagEE@Base 4.96.0
 _ZN3KIO16ConnectionServer11qt_metacallEN11QMetaObject4CallEiPPv@Base 4.96.0
 _ZN3KIO16ConnectionServer11qt_metacastEPKc@Base 4.96.0
 _ZN3KIO16ConnectionServer13newConnectionEv@Base 4.96.0
 _ZN3KIO16ConnectionServer15listenForRemoteEv@Base 4.96.0
 _ZN3KIO16ConnectionServer16staticMetaObjectE@Base 4.96.0
 _ZN3KIO16ConnectionServer21nextPendingConnectionEv@Base 4.96.0
 _ZN3KIO16ConnectionServer24setNextPendingConnectionEPNS_10ConnectionE@Base 4.96.0
 _ZN3KIO16ConnectionServer5closeEv@Base 4.96.0
 _ZN3KIO16ConnectionServerC1EP7QObject@Base 4.96.0
 _ZN3KIO16ConnectionServerC2EP7QObject@Base 4.96.0
 _ZN3KIO16ConnectionServerD0Ev@Base 4.96.0
 _ZN3KIO16ConnectionServerD1Ev@Base 4.96.0
 _ZN3KIO16ConnectionServerD2Ev@Base 4.96.0
 _ZN3KIO16DirectorySizeJob10slotResultEP4KJob@Base 4.96.0
 _ZN3KIO16DirectorySizeJob11qt_metacallEN11QMetaObject4CallEiPPv@Base 4.96.0
 _ZN3KIO16DirectorySizeJob11qt_metacastEPKc@Base 4.96.0
 _ZN3KIO16DirectorySizeJob16staticMetaObjectE@Base 4.96.0
 _ZN3KIO16DirectorySizeJobC1ERNS_23DirectorySizeJobPrivateE@Base 4.96.0
 _ZN3KIO16DirectorySizeJobC2ERNS_23DirectorySizeJobPrivateE@Base 4.96.0
 _ZN3KIO16DirectorySizeJobD0Ev@Base 4.96.0
 _ZN3KIO16DirectorySizeJobD1Ev@Base 4.96.0
 _ZN3KIO16DirectorySizeJobD2Ev@Base 4.96.0
 _ZN3KIO16buildErrorStringEiRK7QString@Base 4.96.0
 _ZN3KIO16restoreFromTrashERK5QListI4QUrlE6QFlagsINS_7JobFlagEE@Base 5.2.0
 _ZN3KIO17DesktopExecParser14executableNameERK7QString@Base 4.96.0
 _ZN3KIO17DesktopExecParser14executablePathERK7QString@Base 4.96.0
 _ZN3KIO17DesktopExecParser16hasSchemeHandlerERK4QUrl@Base 4.96.0
 _ZN3KIO17DesktopExecParser18supportedProtocolsERK8KService@Base 4.96.0
 _ZN3KIO17DesktopExecParser19setUrlsAreTempFilesEb@Base 4.96.0
 _ZN3KIO17DesktopExecParser20setSuggestedFileNameERK7QString@Base 4.96.0
 _ZN3KIO17DesktopExecParser25isProtocolInSupportedListERK4QUrlRK11QStringList@Base 4.96.0
 _ZN3KIO17DesktopExecParserC1ERK8KServiceRK5QListI4QUrlE@Base 4.96.0
 _ZN3KIO17DesktopExecParserC2ERK8KServiceRK5QListI4QUrlE@Base 4.96.0
 _ZN3KIO17DesktopExecParserD1Ev@Base 4.96.0
 _ZN3KIO17DesktopExecParserD2Ev@Base 4.96.0
 _ZN3KIO17StoredTransferJob11qt_metacallEN11QMetaObject4CallEiPPv@Base 4.96.0
 _ZN3KIO17StoredTransferJob11qt_metacastEPKc@Base 4.96.0
 _ZN3KIO17StoredTransferJob16staticMetaObjectE@Base 4.96.0
 _ZN3KIO17StoredTransferJob7setDataERK10QByteArray@Base 4.96.0
 _ZN3KIO17StoredTransferJobC1ERNS_24StoredTransferJobPrivateE@Base 4.96.0
 _ZN3KIO17StoredTransferJobC2ERNS_24StoredTransferJobPrivateE@Base 4.96.0
 _ZN3KIO17StoredTransferJobD0Ev@Base 4.96.0
 _ZN3KIO17StoredTransferJobD1Ev@Base 4.96.0
 _ZN3KIO17StoredTransferJobD2Ev@Base 4.96.0
 _ZN3KIO17http_update_cacheERK4QUrlbRK9QDateTime@Base 4.96.0
 _ZN3KIO17parseCacheControlERK7QString@Base 4.96.0
 _ZN3KIO18calculateRemainingEyyy@Base 4.96.0
 _ZN3KIO18convertPermissionsEi@Base 4.96.0
 _ZN3KIO18convertSizeFromKiBEy@Base 4.96.0
 _ZN3KIO18itemsSummaryStringEjjjyb@Base 4.96.0
 _ZN3KIO19ForwardingSlaveBase11qt_metacallEN11QMetaObject4CallEiPPv@Base 4.96.0
 _ZN3KIO19ForwardingSlaveBase11qt_metacastEPKc@Base 4.96.0
 _ZN3KIO19ForwardingSlaveBase16staticMetaObjectE@Base 4.96.0
 _ZN3KIO19ForwardingSlaveBase19setModificationTimeERK4QUrlRK9QDateTime@Base 4.96.0
 _ZN3KIO19ForwardingSlaveBase3delERK4QUrlb@Base 4.96.0
 _ZN3KIO19ForwardingSlaveBase3getERK4QUrl@Base 4.96.0
 _ZN3KIO19ForwardingSlaveBase3putERK4QUrli6QFlagsINS_7JobFlagEE@Base 4.96.0
 _ZN3KIO19ForwardingSlaveBase4copyERK4QUrlS3_i6QFlagsINS_7JobFlagEE@Base 4.96.0
 _ZN3KIO19ForwardingSlaveBase4statERK4QUrl@Base 4.96.0
 _ZN3KIO19ForwardingSlaveBase5chmodERK4QUrli@Base 4.96.0
 _ZN3KIO19ForwardingSlaveBase5mkdirERK4QUrli@Base 4.96.0
 _ZN3KIO19ForwardingSlaveBase6renameERK4QUrlS3_6QFlagsINS_7JobFlagEE@Base 4.96.0
 _ZN3KIO19ForwardingSlaveBase7listDirERK4QUrl@Base 4.96.0
 _ZN3KIO19ForwardingSlaveBase7symlinkERK7QStringRK4QUrl6QFlagsINS_7JobFlagEE@Base 4.96.0
 _ZN3KIO19ForwardingSlaveBase8mimetypeERK4QUrl@Base 4.96.0
 _ZN3KIO19ForwardingSlaveBaseC1ERK10QByteArrayS3_S3_@Base 4.96.0
 _ZN3KIO19ForwardingSlaveBaseC2ERK10QByteArrayS3_S3_@Base 4.96.0
 _ZN3KIO19ForwardingSlaveBaseD0Ev@Base 4.96.0
 _ZN3KIO19ForwardingSlaveBaseD1Ev@Base 4.96.0
 _ZN3KIO19ForwardingSlaveBaseD2Ev@Base 4.96.0
 _ZN3KIO19fileSystemFreeSpaceERK4QUrl@Base 5.2.0+git20140925
 _ZN3KIO19setModificationTimeERK4QUrlRK9QDateTime@Base 4.96.0
 _ZN3KIO20JobUiDelegateFactoryC1Ev@Base 4.96.0
 _ZN3KIO20JobUiDelegateFactoryC2Ev@Base 4.96.0
 _ZN3KIO20JobUiDelegateFactoryD0Ev@Base 4.96.0
 _ZN3KIO20JobUiDelegateFactoryD1Ev@Base 4.96.0
 _ZN3KIO20JobUiDelegateFactoryD2Ev@Base 4.96.0
 _ZN3KIO21getCacheControlStringENS_12CacheControlE@Base 4.96.0
 _ZN3KIO22FileSystemFreeSpaceJob11qt_metacallEN11QMetaObject4CallEiPPv@Base 5.2.0+git20140925
 _ZN3KIO22FileSystemFreeSpaceJob11qt_metacastEPKc@Base 5.2.0+git20140925
 _ZN3KIO22FileSystemFreeSpaceJob12slotFinishedEv@Base 5.2.0+git20140925
 _ZN3KIO22FileSystemFreeSpaceJob16staticMetaObjectE@Base 5.2.0+git20140925
 _ZN3KIO22FileSystemFreeSpaceJob6resultEPNS_3JobEyy@Base 5.2.0+git20140925
 _ZN3KIO22FileSystemFreeSpaceJobC1ERNS_29FileSystemFreeSpaceJobPrivateE@Base 5.2.0+git20140925
 _ZN3KIO22FileSystemFreeSpaceJobC2ERNS_29FileSystemFreeSpaceJobPrivateE@Base 5.2.0+git20140925
 _ZN3KIO22FileSystemFreeSpaceJobD0Ev@Base 5.2.0+git20140925
 _ZN3KIO22FileSystemFreeSpaceJobD1Ev@Base 5.2.0+git20140925
 _ZN3KIO22FileSystemFreeSpaceJobD2Ev@Base 5.2.0+git20140925
 _ZN3KIO22JobUiDelegateExtension20updateUrlInClipboardERK4QUrlS3_@Base 4.96.0
 _ZN3KIO22JobUiDelegateExtension22createClipboardUpdaterEPNS_3JobENS0_20ClipboardUpdaterModeE@Base 4.96.0
 _ZN3KIO22JobUiDelegateExtensionC1Ev@Base 4.96.0
 _ZN3KIO22JobUiDelegateExtensionC2Ev@Base 4.96.0
 _ZN3KIO22JobUiDelegateExtensionD0Ev@Base 4.96.0
 _ZN3KIO22JobUiDelegateExtensionD1Ev@Base 4.96.0
 _ZN3KIO22JobUiDelegateExtensionD2Ev@Base 4.96.0
 _ZN3KIO25calculateRemainingSecondsEyyy@Base 4.96.0
 _ZN3KIO26createDefaultJobUiDelegateEv@Base 4.96.0
 _ZN3KIO27defaultJobUiDelegateFactoryEv@Base 4.96.0
 _ZN3KIO28unsupportedActionErrorStringERK7QStringi@Base 4.96.0
 _ZN3KIO29defaultJobUiDelegateExtensionEv@Base 4.96.0
 _ZN3KIO30setDefaultJobUiDelegateFactoryEPNS_20JobUiDelegateFactoryE@Base 4.96.0
 _ZN3KIO32setDefaultJobUiDelegateExtensionEPNS_22JobUiDelegateExtensionE@Base 4.96.0
 _ZN3KIO3Job11addMetaDataERK4QMapI7QStringS2_E@Base 4.96.0
 _ZN3KIO3Job11addMetaDataERK7QStringS3_@Base 4.96.0
 _ZN3KIO3Job11qt_metacallEN11QMetaObject4CallEiPPv@Base 4.96.0
 _ZN3KIO3Job11qt_metacastEPKc@Base 4.96.0
 _ZN3KIO3Job11setMetaDataERKNS_8MetaDataE@Base 4.96.0
 _ZN3KIO3Job12removeSubjobEP4KJob@Base 4.96.0
 _ZN3KIO3Job12setParentJobEPS0_@Base 4.96.0
 _ZN3KIO3Job13mergeMetaDataERK4QMapI7QStringS2_E@Base 4.96.0
 _ZN3KIO3Job13queryMetaDataERK7QString@Base 4.96.0
 _ZN3KIO3Job16staticMetaObjectE@Base 4.96.0
 _ZN3KIO3Job22setUiDelegateExtensionEPNS_22JobUiDelegateExtensionE@Base 4.96.0
 _ZN3KIO3Job6doKillEv@Base 4.96.0
 _ZN3KIO3Job8canceledEP4KJob@Base 4.96.0
 _ZN3KIO3Job8doResumeEv@Base 4.96.0
 _ZN3KIO3Job9addSubjobEP4KJob@Base 4.96.0
 _ZN3KIO3Job9connectedEPS0_@Base 4.96.0
 _ZN3KIO3Job9doSuspendEv@Base 4.96.0
 _ZN3KIO3JobC1ERNS_10JobPrivateE@Base 4.96.0
 _ZN3KIO3JobC1Ev@Base 4.96.0
 _ZN3KIO3JobC2ERNS_10JobPrivateE@Base 4.96.0
 _ZN3KIO3JobC2Ev@Base 4.96.0
 _ZN3KIO3JobD0Ev@Base 4.96.0
 _ZN3KIO3JobD1Ev@Base 4.96.0
 _ZN3KIO3JobD2Ev@Base 4.96.0
 _ZN3KIO3delERK4QUrl6QFlagsINS_7JobFlagEE@Base 4.96.0
 _ZN3KIO3delERK5QListI4QUrlE6QFlagsINS_7JobFlagEE@Base 4.96.0
 _ZN3KIO3getERK4QUrlNS_8LoadTypeE6QFlagsINS_7JobFlagEE@Base 4.96.0
 _ZN3KIO3putERK4QUrli6QFlagsINS_7JobFlagEE@Base 4.96.0
 _ZN3KIO4copyERK4QUrlS2_6QFlagsINS_7JobFlagEE@Base 4.96.0
 _ZN3KIO4copyERK5QListI4QUrlERKS1_6QFlagsINS_7JobFlagEE@Base 4.96.0
 _ZN3KIO4linkERK4QUrlS2_6QFlagsINS_7JobFlagEE@Base 4.96.0
 _ZN3KIO4linkERK5QListI4QUrlERKS1_6QFlagsINS_7JobFlagEE@Base 4.96.0
 _ZN3KIO4moveERK4QUrlS2_6QFlagsINS_7JobFlagEE@Base 4.96.0
 _ZN3KIO4moveERK5QListI4QUrlERKS1_6QFlagsINS_7JobFlagEE@Base 4.96.0
 _ZN3KIO4openERK4QUrl6QFlagsIN9QIODevice12OpenModeFlagEE@Base 4.96.0
 _ZN3KIO4statERK4QUrl6QFlagsINS_7JobFlagEE@Base 4.96.0
 _ZN3KIO4statERK4QUrlNS_7StatJob8StatSideEs6QFlagsINS_7JobFlagEE@Base 4.96.0
 _ZN3KIO4statERK4QUrlbs6QFlagsINS_7JobFlagEE@Base 4.96.0
 _ZN3KIO5NetRC12NetRCPrivate13getMacdefPartERK7QString@Base 4.96.0
 _ZN3KIO5NetRC12NetRCPrivate14getMachinePartERK7QString@Base 4.96.0
 _ZN3KIO5NetRC12NetRCPrivate7extractERK7QStringS4_@Base 4.96.0
 _ZN3KIO5NetRC4selfEv@Base 4.96.0
 _ZN3KIO5NetRC5parseERK7QString@Base 4.96.0
 _ZN3KIO5NetRC6lookupERK4QUrlRNS0_9AutoLoginEbRK7QString6QFlagsINS0_14LookUpModeFlagEE@Base 4.96.0
 _ZN3KIO5NetRC6reloadEv@Base 4.96.0
 _ZN3KIO5NetRC8instanceE@Base 4.96.0
 _ZN3KIO5NetRCC1Ev@Base 4.96.0
 _ZN3KIO5NetRCC2Ev@Base 4.96.0
 _ZN3KIO5NetRCD1Ev@Base 4.96.0
 _ZN3KIO5NetRCD2Ev@Base 4.96.0
 _ZN3KIO5Slave11createSlaveERK7QStringRK4QUrlRiRS1_@Base 4.96.0
 _ZN3KIO5Slave11isConnectedEv@Base 4.96.0
 _ZN3KIO5Slave11qt_metacallEN11QMetaObject4CallEiPPv@Base 4.96.0
 _ZN3KIO5Slave11qt_metacastEPKc@Base 4.96.0
 _ZN3KIO5Slave11setProtocolERK7QString@Base 4.96.0
 _ZN3KIO5Slave12setConnectedEb@Base 4.96.0
 _ZN3KIO5Slave13slaveProtocolEv@Base 4.96.0
 _ZN3KIO5Slave16staticMetaObjectE@Base 4.96.0
 _ZN3KIO5Slave17checkForHeldSlaveERK4QUrl@Base 4.96.0
 _ZN3KIO5Slave3refEv@Base 4.96.0
 _ZN3KIO5Slave4holdERK4QUrl@Base 4.96.0
 _ZN3KIO5Slave4hostEv@Base 4.96.0
 _ZN3KIO5Slave4killEv@Base 4.96.0
 _ZN3KIO5Slave4portEv@Base 4.96.0
 _ZN3KIO5Slave4sendEiRK10QByteArray@Base 4.96.0
 _ZN3KIO5Slave4userEv@Base 4.96.0
 _ZN3KIO5Slave5derefEv@Base 4.96.0
 _ZN3KIO5Slave6acceptEv@Base 4.96.0
 _ZN3KIO5Slave6passwdEv@Base 4.96.0
 _ZN3KIO5Slave6resumeEv@Base 4.96.0
 _ZN3KIO5Slave6setJobEPNS_9SimpleJobE@Base 4.96.0
 _ZN3KIO5Slave6setPIDEx@Base 4.98.0
 _ZN3KIO5Slave7isAliveEv@Base 4.96.0
 _ZN3KIO5Slave7setHostERK7QStringtS3_S3_@Base 4.96.0
 _ZN3KIO5Slave7setIdleEv@Base 4.96.0
 _ZN3KIO5Slave7suspendEv@Base 4.96.0
 _ZN3KIO5Slave7timeoutEv@Base 4.96.0
 _ZN3KIO5Slave8gotInputEv@Base 4.96.0
 _ZN3KIO5Slave8idleTimeEv@Base 4.96.0
 _ZN3KIO5Slave8protocolEv@Base 4.96.0
 _ZN3KIO5Slave9holdSlaveERK7QStringRK4QUrl@Base 4.96.0
 _ZN3KIO5Slave9resetHostEv@Base 4.96.0
 _ZN3KIO5Slave9setConfigERKNS_8MetaDataE@Base 4.96.0
 _ZN3KIO5Slave9slaveDiedEPS0_@Base 4.96.0
 _ZN3KIO5Slave9slave_pidEv@Base 4.96.0
 _ZN3KIO5Slave9suspendedEv@Base 4.96.0
 _ZN3KIO5SlaveC1ERK7QStringP7QObject@Base 4.96.0
 _ZN3KIO5SlaveC2ERK7QStringP7QObject@Base 4.96.0
 _ZN3KIO5SlaveD0Ev@Base 4.96.0
 _ZN3KIO5SlaveD1Ev@Base 4.96.0
 _ZN3KIO5SlaveD2Ev@Base 4.96.0
 _ZN3KIO5chmodERK13KFileItemListiiRK7QStringS5_b6QFlagsINS_7JobFlagEE@Base 4.96.0
 _ZN3KIO5chmodERK4QUrli@Base 4.96.0
 _ZN3KIO5chownERK4QUrlRK7QStringS5_@Base 4.96.0
 _ZN3KIO5mkdirERK4QUrli@Base 4.96.0
 _ZN3KIO5mountEbRK10QByteArrayRK7QStringS5_6QFlagsINS_7JobFlagEE@Base 4.96.0
 _ZN3KIO5rmdirERK4QUrl@Base 4.96.0
 _ZN3KIO5trashERK4QUrl6QFlagsINS_7JobFlagEE@Base 4.96.0
 _ZN3KIO5trashERK5QListI4QUrlE6QFlagsINS_7JobFlagEE@Base 4.96.0
 _ZN3KIO5upUrlERK4QUrl@Base 4.96.0
 _ZN3KIO6DavJob11qt_metacallEN11QMetaObject4CallEiPPv@Base 4.96.0
 _ZN3KIO6DavJob11qt_metacastEPKc@Base 4.96.0
 _ZN3KIO6DavJob12slotFinishedEv@Base 4.96.0
 _ZN3KIO6DavJob16staticMetaObjectE@Base 4.96.0
 _ZN3KIO6DavJob8responseEv@Base 4.96.0
 _ZN3KIO6DavJob8slotDataERK10QByteArray@Base 4.96.0
 _ZN3KIO6DavJobC1ERNS_13DavJobPrivateEiRK7QString@Base 4.96.0
 _ZN3KIO6DavJobC2ERNS_13DavJobPrivateEiRK7QString@Base 4.96.0
 _ZN3KIO6copyAsERK4QUrlS2_6QFlagsINS_7JobFlagEE@Base 4.96.0
 _ZN3KIO6linkAsERK4QUrlS2_6QFlagsINS_7JobFlagEE@Base 4.96.0
 _ZN3KIO6mkpathERK4QUrlS2_6QFlagsINS_7JobFlagEE@Base 5.3.0+git20141016.0314
 _ZN3KIO6moveAsERK4QUrlS2_6QFlagsINS_7JobFlagEE@Base 4.96.0
 _ZN3KIO6numberEy@Base 4.96.0
 _ZN3KIO6renameERK4QUrlS2_6QFlagsINS_7JobFlagEE@Base 4.96.0
 _ZN3KIO7CopyJob10emitResultEv@Base 4.96.0
 _ZN3KIO7CopyJob10slotResultEP4KJob@Base 4.96.0
 _ZN3KIO7CopyJob10totalFilesEP4KJobm@Base 4.96.0
 _ZN3KIO7CopyJob11copyingDoneEPNS_3JobERK4QUrlS5_RK9QDateTimebb@Base 4.96.0
 _ZN3KIO7CopyJob11creatingDirEPNS_3JobERK4QUrl@Base 4.96.0
 _ZN3KIO7CopyJob11qt_metacallEN11QMetaObject4CallEiPPv@Base 4.96.0
 _ZN3KIO7CopyJob11qt_metacastEPKc@Base 4.96.0
 _ZN3KIO7CopyJob11setAutoSkipEb@Base 4.96.0
 _ZN3KIO7CopyJob13aboutToCreateEPNS_3JobERK5QListINS_8CopyInfoEE@Base 4.96.0
 _ZN3KIO7CopyJob13processedDirsEPNS_3JobEm@Base 4.96.0
 _ZN3KIO7CopyJob13setAutoRenameEb@Base 4.96.0
 _ZN3KIO7CopyJob14processedFilesEPNS_3JobEm@Base 4.96.0
 _ZN3KIO7CopyJob15copyingLinkDoneEPNS_3JobERK4QUrlRK7QStringS5_@Base 4.96.0
 _ZN3KIO7CopyJob16staticMetaObjectE@Base 4.96.0
 _ZN3KIO7CopyJob21setDefaultPermissionsEb@Base 4.96.0
 _ZN3KIO7CopyJob31setWriteIntoExistingDirectoriesEb@Base 4.96.0
 _ZN3KIO7CopyJob6movingEPNS_3JobERK4QUrlS5_@Base 4.96.0
 _ZN3KIO7CopyJob7copyingEPNS_3JobERK4QUrlS5_@Base 4.96.0
 _ZN3KIO7CopyJob7linkingEPNS_3JobERK7QStringRK4QUrl@Base 4.96.0
 _ZN3KIO7CopyJob7renamedEPNS_3JobERK4QUrlS5_@Base 4.96.0
 _ZN3KIO7CopyJob9doSuspendEv@Base 4.96.0
 _ZN3KIO7CopyJob9totalDirsEP4KJobm@Base 4.96.0
 _ZN3KIO7CopyJobC1ERNS_14CopyJobPrivateE@Base 4.96.0
 _ZN3KIO7CopyJobC2ERNS_14CopyJobPrivateE@Base 4.96.0
 _ZN3KIO7CopyJobD0Ev@Base 4.96.0
 _ZN3KIO7CopyJobD1Ev@Base 4.96.0
 _ZN3KIO7CopyJobD2Ev@Base 4.96.0
 _ZN3KIO7FileJob11qt_metacallEN11QMetaObject4CallEiPPv@Base 4.96.0
 _ZN3KIO7FileJob11qt_metacastEPKc@Base 4.96.0
 _ZN3KIO7FileJob11redirectionEPNS_3JobERK4QUrl@Base 4.96.0
 _ZN3KIO7FileJob16staticMetaObjectE@Base 4.96.0
 _ZN3KIO7FileJob4dataEPNS_3JobERK10QByteArray@Base 4.96.0
 _ZN3KIO7FileJob4openEPNS_3JobE@Base 4.96.0
 _ZN3KIO7FileJob4readEy@Base 4.96.0
 _ZN3KIO7FileJob4seekEy@Base 4.96.0
 _ZN3KIO7FileJob4sizeEv@Base 4.96.0
 _ZN3KIO7FileJob5closeEPNS_3JobE@Base 4.96.0
 _ZN3KIO7FileJob5closeEv@Base 4.96.0
 _ZN3KIO7FileJob5writeERK10QByteArray@Base 4.96.0
 _ZN3KIO7FileJob7writtenEPNS_3JobEy@Base 4.96.0
 _ZN3KIO7FileJob8mimetypeEPNS_3JobERK7QString@Base 4.96.0
 _ZN3KIO7FileJob8positionEPNS_3JobEy@Base 4.96.0
 _ZN3KIO7FileJobC1ERNS_14FileJobPrivateE@Base 4.96.0
 _ZN3KIO7FileJobC2ERNS_14FileJobPrivateE@Base 4.96.0
 _ZN3KIO7FileJobD0Ev@Base 4.96.0
 _ZN3KIO7FileJobD1Ev@Base 4.96.0
 _ZN3KIO7FileJobD2Ev@Base 4.96.0
 _ZN3KIO7ListJob10slotResultEP4KJob@Base 4.96.0
 _ZN3KIO7ListJob11qt_metacallEN11QMetaObject4CallEiPPv@Base 4.96.0
 _ZN3KIO7ListJob11qt_metacastEPKc@Base 4.96.0
 _ZN3KIO7ListJob11redirectionEPNS_3JobERK4QUrl@Base 4.96.0
 _ZN3KIO7ListJob12slotFinishedEv@Base 4.96.0
 _ZN3KIO7ListJob12slotMetaDataERKNS_8MetaDataE@Base 4.96.0
 _ZN3KIO7ListJob15setUnrestrictedEb@Base 4.96.0
 _ZN3KIO7ListJob16staticMetaObjectE@Base 4.96.0
 _ZN3KIO7ListJob20permanentRedirectionEPNS_3JobERK4QUrlS5_@Base 4.96.0
 _ZN3KIO7ListJob7entriesEPNS_3JobERK5QListINS_8UDSEntryEE@Base 4.96.0
 _ZN3KIO7ListJob8subErrorEPS0_S1_@Base 4.96.0
 _ZN3KIO7ListJobC1ERNS_14ListJobPrivateE@Base 4.96.0
 _ZN3KIO7ListJobC2ERNS_14ListJobPrivateE@Base 4.96.0
 _ZN3KIO7ListJobD0Ev@Base 4.96.0
 _ZN3KIO7ListJobD1Ev@Base 4.96.0
 _ZN3KIO7ListJobD2Ev@Base 4.96.0
 _ZN3KIO7StatJob10setDetailsEs@Base 4.96.0
 _ZN3KIO7StatJob11qt_metacallEN11QMetaObject4CallEiPPv@Base 4.96.0
 _ZN3KIO7StatJob11qt_metacastEPKc@Base 4.96.0
 _ZN3KIO7StatJob11redirectionEPNS_3JobERK4QUrl@Base 4.96.0
 _ZN3KIO7StatJob12slotFinishedEv@Base 4.96.0
 _ZN3KIO7StatJob12slotMetaDataERKNS_8MetaDataE@Base 4.96.0
 _ZN3KIO7StatJob16staticMetaObjectE@Base 4.96.0
 _ZN3KIO7StatJob20permanentRedirectionEPNS_3JobERK4QUrlS5_@Base 4.96.0
 _ZN3KIO7StatJob7setSideENS0_8StatSideE@Base 4.96.0
 _ZN3KIO7StatJob7setSideEb@Base 4.96.0
 _ZN3KIO7StatJobC1ERNS_14StatJobPrivateE@Base 4.96.0
 _ZN3KIO7StatJobC2ERNS_14StatJobPrivateE@Base 4.96.0
 _ZN3KIO7StatJobD0Ev@Base 4.96.0
 _ZN3KIO7StatJobD1Ev@Base 4.96.0
 _ZN3KIO7StatJobD2Ev@Base 4.96.0
 _ZN3KIO7listDirERK4QUrl6QFlagsINS_7JobFlagEEb@Base 4.96.0
 _ZN3KIO7specialERK4QUrlRK10QByteArray6QFlagsINS_7JobFlagEE@Base 4.96.0
 _ZN3KIO7symlinkERK7QStringRK4QUrl6QFlagsINS_7JobFlagEE@Base 4.96.0
 _ZN3KIO7unmountERK7QString6QFlagsINS_7JobFlagEE@Base 4.96.0
 _ZN3KIO8AuthInfo11setModifiedEb@Base 4.96.0
 _ZN3KIO8AuthInfo13setExtraFieldERK7QStringRK8QVariant@Base 4.96.0
 _ZN3KIO8AuthInfo17registerMetaTypesEv@Base 4.96.0
 _ZN3KIO8AuthInfo18setExtraFieldFlagsERK7QStringNS0_10FieldFlagsE@Base 4.96.0
 _ZN3KIO8AuthInfoC1ERKS0_@Base 4.96.0
 _ZN3KIO8AuthInfoC1Ev@Base 4.96.0
 _ZN3KIO8AuthInfoC2ERKS0_@Base 4.96.0
 _ZN3KIO8AuthInfoC2Ev@Base 4.96.0
 _ZN3KIO8AuthInfoD1Ev@Base 4.96.0
 _ZN3KIO8AuthInfoD2Ev@Base 4.96.0
 _ZN3KIO8AuthInfoaSERKS0_@Base 4.96.0
 _ZN3KIO8ChmodJob10slotResultEP4KJob@Base 4.96.0
 _ZN3KIO8ChmodJob11qt_metacallEN11QMetaObject4CallEiPPv@Base 4.96.0
 _ZN3KIO8ChmodJob11qt_metacastEPKc@Base 4.96.0
 _ZN3KIO8ChmodJob16staticMetaObjectE@Base 4.96.0
 _ZN3KIO8ChmodJobC1ERNS_15ChmodJobPrivateE@Base 4.96.0
 _ZN3KIO8ChmodJobC2ERNS_15ChmodJobPrivateE@Base 4.96.0
 _ZN3KIO8ChmodJobD0Ev@Base 4.96.0
 _ZN3KIO8ChmodJobD1Ev@Base 4.96.0
 _ZN3KIO8ChmodJobD2Ev@Base 4.96.0
 _ZN3KIO8HostInfo10lookupHostERK7QStringP7QObjectPKc@Base 4.96.0
 _ZN3KIO8HostInfo10lookupHostERK7QStringm@Base 4.96.0
 _ZN3KIO8HostInfo11cacheLookupERK9QHostInfo@Base 4.96.0
 _ZN3KIO8HostInfo12prefetchHostERK7QString@Base 4.96.0
 _ZN3KIO8HostInfo12setCacheSizeEi@Base 4.96.0
 _ZN3KIO8HostInfo23lookupCachedHostInfoForERK7QString@Base 4.96.0
 _ZN3KIO8HostInfo6setTTLEi@Base 4.96.0
 _ZN3KIO8MkdirJob11qt_metacallEN11QMetaObject4CallEiPPv@Base 4.96.0
 _ZN3KIO8MkdirJob11qt_metacastEPKc@Base 4.96.0
 _ZN3KIO8MkdirJob11redirectionEPNS_3JobERK4QUrl@Base 4.96.0
 _ZN3KIO8MkdirJob12slotFinishedEv@Base 4.96.0
 _ZN3KIO8MkdirJob16staticMetaObjectE@Base 4.96.0
 _ZN3KIO8MkdirJob20permanentRedirectionEPNS_3JobERK4QUrlS5_@Base 4.96.0
 _ZN3KIO8MkdirJobC1ERNS_15MkdirJobPrivateE@Base 4.96.0
 _ZN3KIO8MkdirJobC2ERNS_15MkdirJobPrivateE@Base 4.96.0
 _ZN3KIO8MkdirJobD0Ev@Base 4.96.0
 _ZN3KIO8MkdirJobD1Ev@Base 4.96.0
 _ZN3KIO8MkdirJobD2Ev@Base 4.96.0
 _ZN3KIO8UDSEntry5clearEv@Base 4.96.0
 _ZN3KIO8UDSEntry6insertEjRK7QString@Base 4.96.0
 _ZN3KIO8UDSEntry6insertEjx@Base 4.96.0
 _ZN3KIO8UDSEntry7reserveEi@Base 5.5.0+git20141229.0049+15.04
 _ZN3KIO8UDSEntryC1ERK6stat64RK7QString@Base 4.100.0
 _ZN3KIO8UDSEntryC1ERKS0_@Base 4.96.0
 _ZN3KIO8UDSEntryC1Ev@Base 4.96.0
 _ZN3KIO8UDSEntryC2ERK6stat64RK7QString@Base 4.100.0
 _ZN3KIO8UDSEntryC2ERKS0_@Base 4.96.0
 _ZN3KIO8UDSEntryC2Ev@Base 4.96.0
 _ZN3KIO8UDSEntryD1Ev@Base 4.96.0
 _ZN3KIO8UDSEntryD2Ev@Base 4.96.0
 _ZN3KIO8UDSEntryaSERKS0_@Base 4.96.0
 _ZN3KIO8mimetypeERK4QUrl6QFlagsINS_7JobFlagEE@Base 4.96.0
 _ZN3KIO9DeleteJob10slotResultEP4KJob@Base 4.96.0
 _ZN3KIO9DeleteJob10totalFilesEP4KJobm@Base 4.96.0
 _ZN3KIO9DeleteJob11qt_metacallEN11QMetaObject4CallEiPPv@Base 4.96.0
 _ZN3KIO9DeleteJob11qt_metacastEPKc@Base 4.96.0
 _ZN3KIO9DeleteJob13processedDirsEPNS_3JobEm@Base 4.96.0
 _ZN3KIO9DeleteJob14processedFilesEPNS_3JobEm@Base 4.96.0
 _ZN3KIO9DeleteJob16staticMetaObjectE@Base 4.96.0
 _ZN3KIO9DeleteJob8deletingEPNS_3JobERK4QUrl@Base 4.96.0
 _ZN3KIO9DeleteJob9totalDirsEP4KJobm@Base 4.96.0
 _ZN3KIO9DeleteJobC1ERNS_16DeleteJobPrivateE@Base 4.96.0
 _ZN3KIO9DeleteJobC2ERNS_16DeleteJobPrivateE@Base 4.96.0
 _ZN3KIO9DeleteJobD0Ev@Base 4.96.0
 _ZN3KIO9DeleteJobD1Ev@Base 4.96.0
 _ZN3KIO9DeleteJobD2Ev@Base 4.96.0
 _ZN3KIO9IdleSlave11qt_metacallEN11QMetaObject4CallEiPPv@Base 4.96.0
 _ZN3KIO9IdleSlave11qt_metacastEPKc@Base 4.96.0
 _ZN3KIO9IdleSlave12statusUpdateEPS0_@Base 4.96.0
 _ZN3KIO9IdleSlave16staticMetaObjectE@Base 4.96.0
 _ZN3KIO9IdleSlave20reparseConfigurationEv@Base 4.96.0
 _ZN3KIO9IdleSlave7connectERK7QString@Base 4.96.0
 _ZN3KIO9IdleSlave8gotInputEv@Base 4.96.0
 _ZN3KIO9IdleSlaveC1EP7QObject@Base 4.96.0
 _ZN3KIO9IdleSlaveC2EP7QObject@Base 4.96.0
 _ZN3KIO9IdleSlaveD0Ev@Base 4.96.0
 _ZN3KIO9IdleSlaveD1Ev@Base 4.96.0
 _ZN3KIO9IdleSlaveD2Ev@Base 4.96.0
 _ZN3KIO9MkpathJob10slotResultEP4KJob@Base 5.3.0+git20141016.0314
 _ZN3KIO9MkpathJob11qt_metacallEN11QMetaObject4CallEiPPv@Base 5.3.0+git20141016.0314
 _ZN3KIO9MkpathJob11qt_metacastEPKc@Base 5.3.0+git20141016.0314
 _ZN3KIO9MkpathJob16directoryCreatedERK4QUrl@Base 5.3.0+git20141016.0314
 _ZN3KIO9MkpathJob16staticMetaObjectE@Base 5.3.0+git20141016.0314
 _ZN3KIO9MkpathJobC1ERNS_16MkpathJobPrivateE@Base 5.3.0+git20141016.0314
 _ZN3KIO9MkpathJobC2ERNS_16MkpathJobPrivateE@Base 5.3.0+git20141016.0314
 _ZN3KIO9MkpathJobD0Ev@Base 5.3.0+git20141016.0314
 _ZN3KIO9MkpathJobD1Ev@Base 5.3.0+git20141016.0314
 _ZN3KIO9MkpathJobD2Ev@Base 5.3.0+git20141016.0314
 _ZN3KIO9Scheduler10disconnectEPK7QObjectPKcS3_S5_@Base 4.96.0
 _ZN3KIO9Scheduler10slaveErrorEPNS_5SlaveEiRK7QString@Base 4.96.0
 _ZN3KIO9Scheduler11jobFinishedEPNS_9SimpleJobEPNS_5SlaveE@Base 4.96.0
 _ZN3KIO9Scheduler11qt_metacallEN11QMetaObject4CallEiPPv@Base 4.96.0
 _ZN3KIO9Scheduler11qt_metacastEPKc@Base 4.96.0
 _ZN3KIO9Scheduler11scheduleJobEPNS_9SimpleJobE@Base 4.96.0
 _ZN3KIO9Scheduler14putSlaveOnHoldEPNS_9SimpleJobERK4QUrl@Base 4.96.0
 _ZN3KIO9Scheduler14setJobPriorityEPNS_9SimpleJobEi@Base 4.96.0
 _ZN3KIO9Scheduler14slaveConnectedEPNS_5SlaveE@Base 4.96.0
 _ZN3KIO9Scheduler15disconnectSlaveEPNS_5SlaveE@Base 4.96.0
 _ZN3KIO9Scheduler16assignJobToSlaveEPNS_5SlaveEPNS_9SimpleJobE@Base 4.96.0
 _ZN3KIO9Scheduler16checkSlaveOnHoldEb@Base 4.96.0
 _ZN3KIO9Scheduler16isSlaveOnHoldForERK4QUrl@Base 4.96.0
 _ZN3KIO9Scheduler16staticMetaObjectE@Base 4.96.0
 _ZN3KIO9Scheduler17getConnectedSlaveERK4QUrlRKNS_8MetaDataE@Base 4.96.0
 _ZN3KIO9Scheduler17removeSlaveOnHoldEv@Base 4.96.0
 _ZN3KIO9Scheduler18publishSlaveOnHoldEv@Base 4.96.0
 _ZN3KIO9Scheduler22slaveOnHoldListChangedEv@Base 4.96.0
 _ZN3KIO9Scheduler22updateInternalMetaDataEPNS_9SimpleJobE@Base 4.96.0
 _ZN3KIO9Scheduler25reparseSlaveConfigurationERK7QString@Base 4.96.0
 _ZN3KIO9Scheduler29emitReparseSlaveConfigurationEv@Base 4.96.0
 _ZN3KIO9Scheduler4selfEv@Base 4.96.0
 _ZN3KIO9Scheduler5doJobEPNS_9SimpleJobE@Base 4.96.0
 _ZN3KIO9Scheduler6d_funcEv@Base 4.96.0
 _ZN3KIO9Scheduler7connectEPK7QObjectPKcS3_S5_@Base 4.96.0
 _ZN3KIO9Scheduler7connectEPK7QObjectPKcS5_@Base 4.96.0
 _ZN3KIO9Scheduler7connectEPKcPK7QObjectS2_@Base 4.96.0
 _ZN3KIO9Scheduler9cancelJobEPNS_9SimpleJobE@Base 4.96.0
 _ZN3KIO9SchedulerC1Ev@Base 4.96.0
 _ZN3KIO9SchedulerC2Ev@Base 4.96.0
 _ZN3KIO9SchedulerD0Ev@Base 4.96.0
 _ZN3KIO9SchedulerD1Ev@Base 4.96.0
 _ZN3KIO9SchedulerD2Ev@Base 4.96.0
 _ZN3KIO9SimpleJob11qt_metacallEN11QMetaObject4CallEiPPv@Base 4.96.0
 _ZN3KIO9SimpleJob11qt_metacastEPKc@Base 4.96.0
 _ZN3KIO9SimpleJob11slotWarningERK7QString@Base 4.96.0
 _ZN3KIO9SimpleJob12removeOnHoldEv@Base 4.96.0
 _ZN3KIO9SimpleJob12slotFinishedEv@Base 4.96.0
 _ZN3KIO9SimpleJob12slotMetaDataERKNS_8MetaDataE@Base 4.96.0
 _ZN3KIO9SimpleJob16staticMetaObjectE@Base 4.96.0
 _ZN3KIO9SimpleJob22storeSSLSessionFromJobERK4QUrl@Base 4.96.0
 _ZN3KIO9SimpleJob29setRedirectionHandlingEnabledEb@Base 4.96.0
 _ZN3KIO9SimpleJob6doKillEv@Base 4.96.0
 _ZN3KIO9SimpleJob8doResumeEv@Base 4.96.0
 _ZN3KIO9SimpleJob9doSuspendEv@Base 4.96.0
 _ZN3KIO9SimpleJob9putOnHoldEv@Base 4.96.0
 _ZN3KIO9SimpleJob9slotErrorEiRK7QString@Base 4.96.0
 _ZN3KIO9SimpleJobC1ERNS_16SimpleJobPrivateE@Base 4.96.0
 _ZN3KIO9SimpleJobC2ERNS_16SimpleJobPrivateE@Base 4.96.0
 _ZN3KIO9SimpleJobD0Ev@Base 4.96.0
 _ZN3KIO9SimpleJobD1Ev@Base 4.96.0
 _ZN3KIO9SimpleJobD2Ev@Base 4.96.0
 _ZN3KIO9SlaveBase10lookupHostERK7QString@Base 4.96.0
 _ZN3KIO9SlaveBase10messageBoxENS0_14MessageBoxTypeERK7QStringS4_S4_S4_@Base 4.96.0
 _ZN3KIO9SlaveBase10messageBoxERK7QStringNS0_14MessageBoxTypeES3_S3_S3_S3_@Base 4.96.0
 _ZN3KIO9SlaveBase11dropNetworkERK7QString@Base 4.96.0
 _ZN3KIO9SlaveBase11infoMessageERK7QString@Base 4.96.0
 _ZN3KIO9SlaveBase11listEntriesERK5QListINS_8UDSEntryEE@Base 4.96.0
 _ZN3KIO9SlaveBase11readTimeoutEv@Base 4.96.0
 _ZN3KIO9SlaveBase11redirectionERK4QUrl@Base 4.96.0
 _ZN3KIO9SlaveBase11setKillFlagEv@Base 4.96.0
 _ZN3KIO9SlaveBase11setLinkDestERK4QUrlRK7QString@Base 4.96.0
 _ZN3KIO9SlaveBase11setMetaDataERK7QStringS3_@Base 4.96.0
 _ZN3KIO9SlaveBase11slaveStatusERK7QStringb@Base 4.96.0
 _ZN3KIO9SlaveBase12connectSlaveERK7QString@Base 4.96.0
 _ZN3KIO9SlaveBase12dispatchLoopEv@Base 4.96.0
 _ZN3KIO9SlaveBase12sendMetaDataEv@Base 4.96.0
 _ZN3KIO9SlaveBase12slave_statusEv@Base 4.96.0
 _ZN3KIO9SlaveBase12virtual_hookEiPv@Base 4.96.0
 _ZN3KIO9SlaveBase13processedSizeEy@Base 4.96.0
 _ZN3KIO9SlaveBase13waitForAnswerEiiR10QByteArrayPi@Base 4.96.0
 _ZN3KIO9SlaveBase14connectTimeoutEv@Base 4.96.0
 _ZN3KIO9SlaveBase14needSubUrlDataEv@Base 4.96.0
 _ZN3KIO9SlaveBase14openConnectionEv@Base 4.96.0
 _ZN3KIO9SlaveBase14remoteEncodingEv@Base 4.96.0
 _ZN3KIO9SlaveBase14requestNetworkERK7QString@Base 4.96.0
 _ZN3KIO9SlaveBase15closeConnectionEv@Base 4.96.0
 _ZN3KIO9SlaveBase15disconnectSlaveEv@Base 4.96.0
 _ZN3KIO9SlaveBase15responseTimeoutEv@Base 4.96.0
 _ZN3KIO9SlaveBase15waitForHostInfoER9QHostInfo@Base 4.96.0
 _ZN3KIO9SlaveBase16processedPercentEf@Base 4.96.0
 _ZN3KIO9SlaveBase18openPasswordDialogERNS_8AuthInfoERK7QString@Base 4.96.0
 _ZN3KIO9SlaveBase19cacheAuthenticationERKNS_8AuthInfoE@Base 4.96.0
 _ZN3KIO9SlaveBase19dispatchOpenCommandEiRK10QByteArray@Base 4.96.0
 _ZN3KIO9SlaveBase19proxyConnectTimeoutEv@Base 4.96.0
 _ZN3KIO9SlaveBase19sendAndKeepMetaDataEv@Base 4.96.0
 _ZN3KIO9SlaveBase19setModificationTimeERK4QUrlRK9QDateTime@Base 4.96.0
 _ZN3KIO9SlaveBase20reparseConfigurationEv@Base 4.96.0
 _ZN3KIO9SlaveBase24setTimeoutSpecialCommandEiRK10QByteArray@Base 4.96.0
 _ZN3KIO9SlaveBase25checkCachedAuthenticationERNS_8AuthInfoE@Base 4.96.0
 _ZN3KIO9SlaveBase3delERK4QUrlb@Base 4.96.0
 _ZN3KIO9SlaveBase3getERK4QUrl@Base 4.96.0
 _ZN3KIO9SlaveBase3putERK4QUrli6QFlagsINS_7JobFlagEE@Base 4.96.0
 _ZN3KIO9SlaveBase4copyERK4QUrlS3_i6QFlagsINS_7JobFlagEE@Base 4.96.0
 _ZN3KIO9SlaveBase4dataERK10QByteArray@Base 4.96.0
 _ZN3KIO9SlaveBase4exitEv@Base 4.96.0
 _ZN3KIO9SlaveBase4openERK4QUrl6QFlagsIN9QIODevice12OpenModeFlagEE@Base 4.96.0
 _ZN3KIO9SlaveBase4readEy@Base 4.96.0
 _ZN3KIO9SlaveBase4seekEy@Base 4.96.0
 _ZN3KIO9SlaveBase4sendEiRK10QByteArray@Base 4.96.0
 _ZN3KIO9SlaveBase4statERK4QUrl@Base 4.96.0
 _ZN3KIO9SlaveBase5chmodERK4QUrli@Base 4.96.0
 _ZN3KIO9SlaveBase5chownERK4QUrlRK7QStringS6_@Base 4.96.0
 _ZN3KIO9SlaveBase5closeEv@Base 4.96.0
 _ZN3KIO9SlaveBase5errorEiRK7QString@Base 4.96.0
 _ZN3KIO9SlaveBase5mkdirERK4QUrli@Base 4.96.0
 _ZN3KIO9SlaveBase5speedEm@Base 4.96.0
 _ZN3KIO9SlaveBase5writeERK10QByteArray@Base 4.96.0
 _ZN3KIO9SlaveBase6configEv@Base 4.96.0
 _ZN3KIO9SlaveBase6openedEv@Base 4.96.0
 _ZN3KIO9SlaveBase6renameERK4QUrlS3_6QFlagsINS_7JobFlagEE@Base 4.96.0
 _ZN3KIO9SlaveBase7dataReqEv@Base 4.96.0
 _ZN3KIO9SlaveBase7listDirERK4QUrl@Base 4.96.0
 _ZN3KIO9SlaveBase7setHostERK7QStringtS3_S3_@Base 4.96.0
 _ZN3KIO9SlaveBase7specialERK10QByteArray@Base 4.96.0
 _ZN3KIO9SlaveBase7symlinkERK7QStringRK4QUrl6QFlagsINS_7JobFlagEE@Base 4.96.0
 _ZN3KIO9SlaveBase7warningERK7QString@Base 4.96.0
 _ZN3KIO9SlaveBase7writtenEy@Base 4.96.0
 _ZN3KIO9SlaveBase8dispatchEiRK10QByteArray@Base 4.96.0
 _ZN3KIO9SlaveBase8finishedEv@Base 4.96.0
 _ZN3KIO9SlaveBase8mimeTypeERK7QString@Base 4.96.0
 _ZN3KIO9SlaveBase8mimetypeERK4QUrl@Base 4.96.0
 _ZN3KIO9SlaveBase8multiGetERK10QByteArray@Base 4.96.0
 _ZN3KIO9SlaveBase8positionEy@Base 4.96.0
 _ZN3KIO9SlaveBase8readDataER10QByteArray@Base 4.96.0
 _ZN3KIO9SlaveBase9canResumeEv@Base 4.96.0
 _ZN3KIO9SlaveBase9canResumeEy@Base 4.96.0
 _ZN3KIO9SlaveBase9connectedEv@Base 4.96.0
 _ZN3KIO9SlaveBase9errorPageEv@Base 4.96.0
 _ZN3KIO9SlaveBase9listEntryERKNS_8UDSEntryE@Base 4.96.0
 _ZN3KIO9SlaveBase9listEntryERKNS_8UDSEntryEb@Base 4.96.0
 _ZN3KIO9SlaveBase9setSubUrlERK4QUrl@Base 4.96.0
 _ZN3KIO9SlaveBase9statEntryERKNS_8UDSEntryE@Base 4.96.0
 _ZN3KIO9SlaveBase9totalSizeEy@Base 4.96.0
 _ZN3KIO9SlaveBaseC1ERK10QByteArrayS3_S3_@Base 4.96.0
 _ZN3KIO9SlaveBaseC2ERK10QByteArrayS3_S3_@Base 4.96.0
 _ZN3KIO9SlaveBaseD0Ev@Base 4.96.0
 _ZN3KIO9SlaveBaseD1Ev@Base 4.96.0
 _ZN3KIO9SlaveBaseD2Ev@Base 4.96.0
 _ZN3KIO9davReportERK4QUrlRK7QStringS5_6QFlagsINS_7JobFlagEE@Base 4.96.0
 _ZN3KIO9davSearchERK4QUrlRK7QStringS5_S5_6QFlagsINS_7JobFlagEE@Base 4.96.0
 _ZN3KIO9file_copyERK4QUrlS2_i6QFlagsINS_7JobFlagEE@Base 4.96.0
 _ZN3KIO9file_moveERK4QUrlS2_i6QFlagsINS_7JobFlagEE@Base 4.96.0
 _ZN3KIO9http_postERK4QUrlP9QIODevicex6QFlagsINS_7JobFlagEE@Base 4.96.0
 _ZN3KIO9http_postERK4QUrlRK10QByteArray6QFlagsINS_7JobFlagEE@Base 4.96.0
 _ZN3KIO9multi_getElRK4QUrlRKNS_8MetaDataE@Base 4.96.0
 _ZN3KIO9storedGetERK4QUrlNS_8LoadTypeE6QFlagsINS_7JobFlagEE@Base 4.96.0
 _ZN3KIO9storedPutEP9QIODeviceRK4QUrli6QFlagsINS_7JobFlagEE@Base 5.10.0
 _ZN3KIO9storedPutERK10QByteArrayRK4QUrli6QFlagsINS_7JobFlagEE@Base 4.96.0
 _ZN3KIOlsER11QDataStreamRKNS_8AuthInfoE@Base 4.96.0
 _ZN3KIOlsER13QDBusArgumentRKNS_8AuthInfoE@Base 4.96.0
 _ZN3KIOrsER11QDataStreamRNS_8AuthInfoE@Base 4.96.0
 _ZN3KIOrsERK13QDBusArgumentRNS_8AuthInfoE@Base 4.96.0
 _ZN4KACL11KACLPrivate18setMaskPermissionsEt@Base 4.96.0
 _ZN4KACL11KACLPrivate19setAllUsersOrGroupsERK5QListI5QPairI7QStringtEEi@Base 4.96.0
 _ZN4KACL11KACLPrivate30setNamedUserOrGroupPermissionsERK7QStringti@Base 4.96.0
 _ZN4KACL12virtual_hookEiPv@Base 4.96.0
 _ZN4KACL18setMaskPermissionsEt@Base 4.96.0
 _ZN4KACL19setOwnerPermissionsEt@Base 4.96.0
 _ZN4KACL20setOthersPermissionsEt@Base 4.96.0
 _ZN4KACL21setAllUserPermissionsERK5QListI5QPairI7QStringtEE@Base 4.96.0
 _ZN4KACL22setAllGroupPermissionsERK5QListI5QPairI7QStringtEE@Base 4.96.0
 _ZN4KACL23setNamedUserPermissionsERK7QStringt@Base 4.96.0
 _ZN4KACL24setNamedGroupPermissionsERK7QStringt@Base 4.96.0
 _ZN4KACL25setOwningGroupPermissionsEt@Base 4.96.0
 _ZN4KACL6setACLERK7QString@Base 4.96.0
 _ZN4KACLC1ERK7QString@Base 4.96.0
 _ZN4KACLC1ERKS_@Base 4.96.0
 _ZN4KACLC1Ej@Base 4.96.0
 _ZN4KACLC1Ev@Base 4.96.0
 _ZN4KACLC2ERK7QString@Base 4.96.0
 _ZN4KACLC2ERKS_@Base 4.96.0
 _ZN4KACLC2Ej@Base 4.96.0
 _ZN4KACLC2Ev@Base 4.96.0
 _ZN4KACLD0Ev@Base 4.96.0
 _ZN4KACLD1Ev@Base 4.96.0
 _ZN4KACLD2Ev@Base 4.96.0
 _ZN4KACLaSERKS_@Base 4.96.0
 _ZN7KSslKeyC1ERK7QSslKey@Base 4.96.0
 _ZN7KSslKeyC1ERKS_@Base 4.96.0
 _ZN7KSslKeyC1Ev@Base 4.96.0
 _ZN7KSslKeyC2ERK7QSslKey@Base 4.96.0
 _ZN7KSslKeyC2ERKS_@Base 4.96.0
 _ZN7KSslKeyC2Ev@Base 4.96.0
 _ZN7KSslKeyD1Ev@Base 4.96.0
 _ZN7KSslKeyD2Ev@Base 4.96.0
 _ZN7KSslKeyaSERKS_@Base 4.96.0
 _ZN9KFileItem15refreshMimeTypeEv@Base 4.96.0
 _ZN9KFileItem19setDelayedMimeTypesEb@Base 4.96.0
 _ZN9KFileItem6assignERKS_@Base 4.96.0
 _ZN9KFileItem6setUrlERK4QUrl@Base 4.96.0
 _ZN9KFileItem7refreshEv@Base 4.96.0
 _ZN9KFileItem7setNameERK7QString@Base 4.96.0
 _ZN9KFileItem9setHiddenEv@Base 5.5.0+git20150102.0011+15.04
 _ZN9KFileItemC1ERK4QUrlRK7QStringj@Base 4.96.0
 _ZN9KFileItemC1ERKN3KIO8UDSEntryERK4QUrlbb@Base 4.96.0
 _ZN9KFileItemC1ERKS_@Base 4.96.0
 _ZN9KFileItemC1EjjRK4QUrlb@Base 4.96.0
 _ZN9KFileItemC1Ev@Base 4.96.0
 _ZN9KFileItemC2ERK4QUrlRK7QStringj@Base 4.96.0
 _ZN9KFileItemC2ERKN3KIO8UDSEntryERK4QUrlbb@Base 4.96.0
 _ZN9KFileItemC2ERKS_@Base 4.96.0
 _ZN9KFileItemC2EjjRK4QUrlb@Base 4.96.0
 _ZN9KFileItemC2Ev@Base 4.96.0
 _ZN9KFileItemD1Ev@Base 4.96.0
 _ZN9KFileItemD2Ev@Base 4.96.0
 _ZN9KFileItemaSERKS_@Base 4.96.0
 _ZN9KNFSShare11qt_metacallEN11QMetaObject4CallEiPPv@Base 4.96.0
 _ZN9KNFSShare11qt_metacastEPKc@Base 4.96.0
 _ZN9KNFSShare16KNFSSharePrivate15findExportsFileEv@Base 4.96.0
 _ZN9KNFSShare16KNFSSharePrivate15readExportsFileEv@Base 4.96.0
 _ZN9KNFSShare16KNFSSharePrivate17_k_slotFileChangeERK7QString@Base 4.96.0
 _ZN9KNFSShare16KNFSSharePrivateC1EPS_@Base 4.96.0
 _ZN9KNFSShare16KNFSSharePrivateC2EPS_@Base 4.96.0
 _ZN9KNFSShare16staticMetaObjectE@Base 4.96.0
 _ZN9KNFSShare7changedEv@Base 4.96.0
 _ZN9KNFSShare8instanceEv@Base 4.96.0
 _ZN9KNFSShareC1Ev@Base 4.96.0
 _ZN9KNFSShareC2Ev@Base 4.96.0
 _ZN9KNFSShareD0Ev@Base 4.96.0
 _ZN9KNFSShareD1Ev@Base 4.96.0
 _ZN9KNFSShareD2Ev@Base 4.96.0
 _ZN9KSslErrorC1ENS_5ErrorERK15QSslCertificate@Base 4.96.0
 _ZN9KSslErrorC1ERK9QSslError@Base 4.96.0
 _ZN9KSslErrorC1ERKS_@Base 4.96.0
 _ZN9KSslErrorC2ENS_5ErrorERK15QSslCertificate@Base 4.96.0
 _ZN9KSslErrorC2ERK9QSslError@Base 4.96.0
 _ZN9KSslErrorC2ERKS_@Base 4.96.0
 _ZN9KSslErrorD1Ev@Base 4.96.0
 _ZN9KSslErrorD2Ev@Base 4.96.0
 _ZN9KSslErroraSERKS_@Base 4.96.0
 _ZNK10KSslCipher12digestMethodEv@Base 4.96.0
 _ZNK10KSslCipher13supportedBitsEv@Base 4.96.0
 _ZNK10KSslCipher16encryptionMethodEv@Base 4.96.0
 _ZNK10KSslCipher17keyExchangeMethodEv@Base 4.96.0
 _ZNK10KSslCipher20authenticationMethodEv@Base 4.96.0
 _ZNK10KSslCipher4nameEv@Base 4.96.0
 _ZNK10KSslCipher6isNullEv@Base 4.96.0
 _ZNK10KSslCipher8usedBitsEv@Base 4.96.0
 _ZNK10KTcpSocket10metaObjectEv@Base 4.96.0
 _ZNK10KTcpSocket10privateKeyEv@Base 4.96.0
 _ZNK10KTcpSocket11canReadLineEv@Base 4.96.0
 _ZNK10KTcpSocket11peerAddressEv@Base 4.96.0
 _ZNK10KTcpSocket12bytesToWriteEv@Base 4.96.0
 _ZNK10KTcpSocket12isSequentialEv@Base 4.96.0
 _ZNK10KTcpSocket12localAddressEv@Base 4.96.0
 _ZNK10KTcpSocket12socketOptionEN15QAbstractSocket12SocketOptionE@Base 4.96.0
 _ZNK10KTcpSocket13sessionCipherEv@Base 4.96.0
 _ZNK10KTcpSocket14bytesAvailableEv@Base 4.96.0
 _ZNK10KTcpSocket14caCertificatesEv@Base 4.96.0
 _ZNK10KTcpSocket14encryptionModeEv@Base 4.96.0
 _ZNK10KTcpSocket14readBufferSizeEv@Base 4.96.0
 _ZNK10KTcpSocket16localCertificateEv@Base 4.96.0
 _ZNK10KTcpSocket16sslConfigurationEv@Base 4.96.0
 _ZNK10KTcpSocket20advertisedSslVersionEv@Base 4.96.0
 _ZNK10KTcpSocket20negotiatedSslVersionEv@Base 4.96.0
 _ZNK10KTcpSocket20peerCertificateChainEv@Base 4.96.0
 _ZNK10KTcpSocket24negotiatedSslVersionNameEv@Base 4.96.0
 _ZNK10KTcpSocket5atEndEv@Base 4.96.0
 _ZNK10KTcpSocket5errorEv@Base 4.96.0
 _ZNK10KTcpSocket5proxyEv@Base 4.96.0
 _ZNK10KTcpSocket5stateEv@Base 4.96.0
 _ZNK10KTcpSocket7ciphersEv@Base 4.96.0
 _ZNK10KTcpSocket7isValidEv@Base 4.96.0
 _ZNK10KTcpSocket8peerNameEv@Base 4.96.0
 _ZNK10KTcpSocket8peerPortEv@Base 4.96.0
 _ZNK10KTcpSocket9sslErrorsEv@Base 4.96.0
 _ZNK11KMountPoint10mountPointEv@Base 4.96.0
 _ZNK11KMountPoint11mountedFromEv@Base 4.96.0
 _ZNK11KMountPoint12mountOptionsEv@Base 4.96.0
 _ZNK11KMountPoint12probablySlowEv@Base 4.96.0
 _ZNK11KMountPoint14realDeviceNameEv@Base 4.96.0
 _ZNK11KMountPoint18testFileSystemFlagENS_14FileSystemFlagE@Base 4.96.0
 _ZNK11KMountPoint4List10findByPathERK7QString@Base 4.96.0
 _ZNK11KMountPoint4List12findByDeviceERK7QString@Base 4.96.0
 _ZNK11KMountPoint9mountTypeEv@Base 4.96.0
 _ZNK11KSambaShare10metaObjectEv@Base 4.96.0
 _ZNK11KSambaShare10shareNamesEv@Base 4.96.0
 _ZNK11KSambaShare11smbConfPathEv@Base 4.96.0
 _ZNK11KSambaShare14getShareByNameERK7QString@Base 4.96.0
 _ZNK11KSambaShare15getSharesByPathERK7QString@Base 4.96.0
 _ZNK11KSambaShare17isDirectorySharedERK7QString@Base 4.96.0
 _ZNK11KSambaShare17sharedDirectoriesEv@Base 4.96.0
 _ZNK11KSambaShare20isShareNameAvailableERK7QString@Base 4.96.0
 _ZNK12KConfigGroup9readEntryIbEET_PKcRKS1_@Base 4.100.0
 _ZNK12KConfigGroup9readEntryIiEE5QListIT_EPKcRKS3_@Base 4.100.0
 _ZNK12KConfigGroup9readEntryIiEET_PKcRKS1_@Base 4.100.0
 _ZNK12KLocalSocket10metaObjectEv@Base 4.96.0
 _ZNK12KLocalSocket15localSocketTypeEv@Base 4.96.0
 _ZNK12KLocalSocket8peerPathEv@Base 4.96.0
 _ZNK12KLocalSocket9localPathEv@Base 4.96.0
 _ZNK12KSSLSettings11warnOnEnterEv@Base 4.96.0
 _ZNK12KSSLSettings11warnOnLeaveEv@Base 4.96.0
 _ZNK12KSSLSettings11warnOnMixedEv@Base 4.96.0
 _ZNK12KSSLSettings12autoSendX509Ev@Base 4.96.0
 _ZNK12KSSLSettings14promptSendX509Ev@Base 4.96.0
 _ZNK12KSSLSettings17warnOnUnencryptedEv@Base 4.96.0
 _ZNK12KSSLSettings6useEGDEv@Base 4.96.0
 _ZNK12KSSLSettings8useEFileEv@Base 4.96.0
 _ZNK13KFileItemList10findByNameERK7QString@Base 4.96.0
 _ZNK13KFileItemList13targetUrlListEv@Base 4.96.0
 _ZNK13KFileItemList7urlListEv@Base 4.96.0
 _ZNK13KFileItemList9findByUrlERK4QUrl@Base 4.96.0
 _ZNK14KCoreDirLister10autoUpdateEv@Base 4.96.0
 _ZNK14KCoreDirLister10findByNameERK7QString@Base 4.96.0
 _ZNK14KCoreDirLister10isFinishedEv@Base 4.96.0
 _ZNK14KCoreDirLister10metaObjectEv@Base 4.96.0
 _ZNK14KCoreDirLister10nameFilterEv@Base 4.96.0
 _ZNK14KCoreDirLister11dirOnlyModeEv@Base 4.96.0
 _ZNK14KCoreDirLister11directoriesEv@Base 4.96.0
 _ZNK14KCoreDirLister11itemsForDirERK4QUrlNS_10WhichItemsE@Base 4.96.0
 _ZNK14KCoreDirLister11mimeFiltersEv@Base 4.96.0
 _ZNK14KCoreDirLister12doMimeFilterERK7QStringRK11QStringList@Base 4.96.0
 _ZNK14KCoreDirLister12doNameFilterERK7QStringRK5QListI7QRegExpE@Base 4.96.0
 _ZNK14KCoreDirLister13matchesFilterERK7QString@Base 4.96.0
 _ZNK14KCoreDirLister13matchesFilterERK9KFileItem@Base 4.96.0
 _ZNK14KCoreDirLister15showingDotFilesEv@Base 4.96.0
 _ZNK14KCoreDirLister16delayedMimeTypesEv@Base 4.96.0
 _ZNK14KCoreDirLister17matchesMimeFilterERK7QString@Base 4.96.0
 _ZNK14KCoreDirLister17matchesMimeFilterERK9KFileItem@Base 4.96.0
 _ZNK14KCoreDirLister3urlEv@Base 4.96.0
 _ZNK14KCoreDirLister5itemsENS_10WhichItemsE@Base 4.96.0
 _ZNK14KCoreDirLister7Private13isItemVisibleERK9KFileItem@Base 4.96.0
 _ZNK14KCoreDirLister7Private14CachedItemsJob10metaObjectEv@Base 4.96.0
 _ZNK14KCoreDirLister7Private19doMimeExcludeFilterERK7QStringRK11QStringList@Base 4.96.0
 _ZNK14KCoreDirLister7Private20cachedItemsJobForUrlERK4QUrl@Base 4.96.0
 _ZNK14KCoreDirLister8rootItemEv@Base 4.96.0
 _ZNK14KCoreDirLister9findByUrlERK4QUrl@Base 4.96.0
 _ZNK15KRemoteEncoding11encodingMibEv@Base 4.96.0
 _ZNK15KRemoteEncoding6decodeERK10QByteArray@Base 4.96.0
 _ZNK15KRemoteEncoding6encodeERK4QUrl@Base 4.96.0
 _ZNK15KRemoteEncoding6encodeERK7QString@Base 4.96.0
 _ZNK15KRemoteEncoding8encodingEv@Base 4.96.0
 _ZNK15KRemoteEncoding8fileNameERK4QUrl@Base 4.96.0
 _ZNK15KRemoteEncoding9directoryERK4QUrlb@Base 4.96.0
 _ZNK15KSambaShareData15guestPermissionEv@Base 4.96.0
 _ZNK15KSambaShareData3aclEv@Base 4.96.0
 _ZNK15KSambaShareData4nameEv@Base 4.96.0
 _ZNK15KSambaShareData4pathEv@Base 4.96.0
 _ZNK15KSambaShareData7commentEv@Base 4.96.0
 _ZNK15KSambaShareDataeqERKS_@Base 4.96.0
 _ZNK15KSambaShareDataneERKS_@Base 4.96.0
 _ZNK18KDiskFreeSpaceInfo10mountPointEv@Base 4.96.0
 _ZNK18KDiskFreeSpaceInfo4sizeEv@Base 4.96.0
 _ZNK18KDiskFreeSpaceInfo4usedEv@Base 4.96.0
 _ZNK18KDiskFreeSpaceInfo7isValidEv@Base 4.96.0
 _ZNK18KDiskFreeSpaceInfo9availableEv@Base 4.96.0
 _ZNK18KLocalSocketServer10metaObjectEv@Base 4.96.0
 _ZNK18KLocalSocketServer11errorStringEv@Base 4.96.0
 _ZNK18KLocalSocketServer11isListeningEv@Base 4.96.0
 _ZNK18KLocalSocketServer11serverErrorEv@Base 4.96.0
 _ZNK18KLocalSocketServer15localSocketTypeEv@Base 4.96.0
 _ZNK18KLocalSocketServer21hasPendingConnectionsEv@Base 4.96.0
 _ZNK18KLocalSocketServer21maxPendingConnectionsEv@Base 4.96.0
 _ZNK18KLocalSocketServer9localPathEv@Base 4.96.0
 _ZNK19KSslCertificateRule10isRejectedEv@Base 4.96.0
 _ZNK19KSslCertificateRule11certificateEv@Base 4.96.0
 _ZNK19KSslCertificateRule12filterErrorsERK5QListI9KSslErrorE@Base 4.96.0
 _ZNK19KSslCertificateRule12filterErrorsERK5QListIN9KSslError5ErrorEE@Base 4.96.0
 _ZNK19KSslCertificateRule13ignoredErrorsEv@Base 4.96.0
 _ZNK19KSslCertificateRule14expiryDateTimeEv@Base 4.96.0
 _ZNK19KSslCertificateRule14isErrorIgnoredEN9KSslError5ErrorE@Base 4.96.0
 _ZNK19KSslCertificateRule8hostNameEv@Base 4.96.0
 _ZNK22KSslCertificateManager14caCertificatesEv@Base 4.96.0
 _ZNK22KSslCertificateManager4ruleERK15QSslCertificateRK7QString@Base 4.96.0
 _ZNK23KFileItemListProperties11isDirectoryEv@Base 4.96.0
 _ZNK23KFileItemListProperties14supportsMovingEv@Base 4.96.0
 _ZNK23KFileItemListProperties15supportsReadingEv@Base 4.96.0
 _ZNK23KFileItemListProperties15supportsWritingEv@Base 4.96.0
 _ZNK23KFileItemListProperties16supportsDeletingEv@Base 4.96.0
 _ZNK23KFileItemListProperties5itemsEv@Base 4.96.0
 _ZNK23KFileItemListProperties7isLocalEv@Base 4.96.0
 _ZNK23KFileItemListProperties7urlListEv@Base 4.96.0
 _ZNK23KFileItemListProperties8mimeTypeEv@Base 4.96.0
 _ZNK23KFileItemListProperties9mimeGroupEv@Base 4.96.0
 _ZNK25OrgKdeKDirNotifyInterface10metaObjectEv@Base 4.96.0
 _ZNK3KIO10RestoreJob10metaObjectEv@Base 5.2.0
 _ZNK3KIO10SpecialJob10metaObjectEv@Base 4.96.0
 _ZNK3KIO10SpecialJob9argumentsEv@Base 4.96.0
 _ZNK3KIO11FileCopyJob10metaObjectEv@Base 4.96.0
 _ZNK3KIO11FileCopyJob6srcUrlEv@Base 4.96.0
 _ZNK3KIO11FileCopyJob7destUrlEv@Base 4.96.0
 _ZNK3KIO11MimetypeJob10metaObjectEv@Base 4.96.0
 _ZNK3KIO11MultiGetJob10metaObjectEv@Base 4.96.0
 _ZNK3KIO11SlaveConfig10metaObjectEv@Base 4.96.0
 _ZNK3KIO11TransferJob10metaObjectEv@Base 4.96.0
 _ZNK3KIO11TransferJob11isErrorPageEv@Base 4.96.0
 _ZNK3KIO11TransferJob11redirectUrlEv@Base 4.96.0
 _ZNK3KIO11TransferJob14reportDataSentEv@Base 4.96.0
 _ZNK3KIO11TransferJob8mimetypeEv@Base 4.96.0
 _ZNK3KIO12TCPSlaveBase10isUsingSslEv@Base 4.96.0
 _ZNK3KIO12TCPSlaveBase11isConnectedEv@Base 4.96.0
 _ZNK3KIO12TCPSlaveBase4portEv@Base 4.96.0
 _ZNK3KIO12TCPSlaveBase5atEndEv@Base 4.96.0
 _ZNK3KIO12TCPSlaveBase6socketEv@Base 4.96.0
 _ZNK3KIO12TCPSlaveBase9isAutoSslEv@Base 4.96.0
 _ZNK3KIO13EmptyTrashJob10metaObjectEv@Base 5.2.0
 _ZNK3KIO14SlaveInterface10connectionEv@Base 4.96.0
 _ZNK3KIO14SlaveInterface10metaObjectEv@Base 4.96.0
 _ZNK3KIO14SlaveInterface6offsetEv@Base 4.96.0
 _ZNK3KIO16ConnectionServer10metaObjectEv@Base 4.96.0
 _ZNK3KIO16ConnectionServer11isListeningEv@Base 4.96.0
 _ZNK3KIO16ConnectionServer7addressEv@Base 4.96.0
 _ZNK3KIO16DirectorySizeJob10metaObjectEv@Base 4.96.0
 _ZNK3KIO16DirectorySizeJob10totalFilesEv@Base 4.96.0
 _ZNK3KIO16DirectorySizeJob12totalSubdirsEv@Base 4.96.0
 _ZNK3KIO16DirectorySizeJob9totalSizeEv@Base 4.96.0
 _ZNK3KIO17DesktopExecParser18resultingArgumentsEv@Base 4.96.0
 _ZNK3KIO17StoredTransferJob10metaObjectEv@Base 4.96.0
 _ZNK3KIO17StoredTransferJob4dataEv@Base 4.96.0
 _ZNK3KIO19ForwardingSlaveBase10metaObjectEv@Base 4.96.0
 _ZNK3KIO19ForwardingSlaveBase12processedUrlEv@Base 4.96.0
 _ZNK3KIO19ForwardingSlaveBase12requestedUrlEv@Base 4.96.0
 _ZNK3KIO19ForwardingSlaveBase15prepareUDSEntryERNS_8UDSEntryEb@Base 4.96.0
 _ZNK3KIO22FileSystemFreeSpaceJob10metaObjectEv@Base 5.2.0+git20140925
 _ZNK3KIO3Job10metaObjectEv@Base 4.96.0
 _ZNK3KIO3Job11errorStringEv@Base 4.96.0
 _ZNK3KIO3Job16outgoingMetaDataEv@Base 4.96.0
 _ZNK3KIO3Job19uiDelegateExtensionEv@Base 4.96.0
 _ZNK3KIO3Job20detailedErrorStringsEPK4QUrli@Base 4.96.0
 _ZNK3KIO3Job2uiEv@Base 4.96.0
 _ZNK3KIO3Job8metaDataEv@Base 4.96.0
 _ZNK3KIO3Job9parentJobEv@Base 4.96.0
 _ZNK3KIO5Slave10metaObjectEv@Base 4.96.0
 _ZNK3KIO5Slave3jobEv@Base 4.96.0
 _ZNK3KIO6DavJob10metaObjectEv@Base 4.96.0
 _ZNK3KIO7CopyJob10metaObjectEv@Base 4.96.0
 _ZNK3KIO7CopyJob13operationModeEv@Base 4.96.0
 _ZNK3KIO7CopyJob7destUrlEv@Base 4.96.0
 _ZNK3KIO7CopyJob7srcUrlsEv@Base 4.96.0
 _ZNK3KIO7FileJob10metaObjectEv@Base 4.96.0
 _ZNK3KIO7ListJob10metaObjectEv@Base 4.96.0
 _ZNK3KIO7ListJob14redirectionUrlEv@Base 4.96.0
 _ZNK3KIO7StatJob10metaObjectEv@Base 4.96.0
 _ZNK3KIO7StatJob10statResultEv@Base 4.96.0
 _ZNK3KIO7StatJob12mostLocalUrlEv@Base 4.96.0
 _ZNK3KIO8AuthInfo10isModifiedEv@Base 4.96.0
 _ZNK3KIO8AuthInfo13getExtraFieldERK7QString@Base 4.96.0
 _ZNK3KIO8AuthInfo18getExtraFieldFlagsERK7QString@Base 4.96.0
 _ZNK3KIO8ChmodJob10metaObjectEv@Base 4.96.0
 _ZNK3KIO8MkdirJob10metaObjectEv@Base 4.96.0
 _ZNK3KIO8UDSEntry10listFieldsEv@Base 4.96.0
 _ZNK3KIO8UDSEntry11numberValueEjx@Base 4.96.0
 _ZNK3KIO8UDSEntry11stringValueEj@Base 4.96.0
 _ZNK3KIO8UDSEntry5countEv@Base 4.96.0
 _ZNK3KIO8UDSEntry5isDirEv@Base 4.96.0
 _ZNK3KIO8UDSEntry6fieldsEv@Base 5.7.0+git20150216.1153+15.04
 _ZNK3KIO8UDSEntry6isLinkEv@Base 4.96.0
 _ZNK3KIO8UDSEntry8containsEj@Base 4.96.0
 _ZNK3KIO9DeleteJob10metaObjectEv@Base 4.96.0
 _ZNK3KIO9DeleteJob4urlsEv@Base 4.96.0
 _ZNK3KIO9IdleSlave10connectionEv@Base 4.96.0
 _ZNK3KIO9IdleSlave10metaObjectEv@Base 4.96.0
 _ZNK3KIO9IdleSlave3ageERK9QDateTime@Base 4.96.0
 _ZNK3KIO9IdleSlave3pidEv@Base 4.96.0
 _ZNK3KIO9IdleSlave5matchERK7QStringS3_b@Base 4.96.0
 _ZNK3KIO9IdleSlave6onHoldERK4QUrl@Base 4.96.0
 _ZNK3KIO9IdleSlave8protocolEv@Base 4.96.0
 _ZNK3KIO9MkpathJob10metaObjectEv@Base 5.3.0+git20141016.0314
 _ZNK3KIO9Scheduler10metaObjectEv@Base 4.96.0
 _ZNK3KIO9SimpleJob10metaObjectEv@Base 4.96.0
 _ZNK3KIO9SimpleJob28isRedirectionHandlingEnabledEv@Base 4.96.0
 _ZNK3KIO9SimpleJob3urlEv@Base 4.96.0
 _ZNK3KIO9SlaveBase11allMetaDataEv@Base 4.96.0
 _ZNK3KIO9SlaveBase11hasMetaDataERK7QString@Base 4.96.0
 _ZNK3KIO9SlaveBase8metaDataERK7QString@Base 4.96.0
 _ZNK3KIO9SlaveBase9wasKilledEv@Base 4.96.0
 _ZNK4KACL10isExtendedEv@Base 4.96.0
 _ZNK4KACL11KACLPrivate11getUserNameEj@Base 4.96.0
 _ZNK4KACL11KACLPrivate12getGroupNameEj@Base 4.96.0
 _ZNK4KACL15basePermissionsEv@Base 4.96.0
 _ZNK4KACL15maskPermissionsERb@Base 4.96.0
 _ZNK4KACL16ownerPermissionsEv@Base 4.96.0
 _ZNK4KACL17othersPermissionsEv@Base 4.96.0
 _ZNK4KACL18allUserPermissionsEv@Base 4.96.0
 _ZNK4KACL19allGroupPermissionsEv@Base 4.96.0
 _ZNK4KACL20namedUserPermissionsERK7QStringPb@Base 4.96.0
 _ZNK4KACL21namedGroupPermissionsERK7QStringPb@Base 4.96.0
 _ZNK4KACL22owningGroupPermissionsEv@Base 4.96.0
 _ZNK4KACL7isValidEv@Base 4.96.0
 _ZNK4KACL8asStringEv@Base 4.96.0
 _ZNK4KACLeqERKS_@Base 4.96.0
 _ZNK4KACLneERKS_@Base 4.96.0
 _ZNK7KSslKey12isExportableEv@Base 4.96.0
 _ZNK7KSslKey5toDerEv@Base 4.96.0
 _ZNK7KSslKey7secrecyEv@Base 4.96.0
 _ZNK7KSslKey9algorithmEv@Base 4.96.0
 _ZNK9KFileItem10defaultACLEv@Base 4.96.0
 _ZNK9KFileItem10isReadableEv@Base 4.96.0
 _ZNK9KFileItem10isWritableEv@Base 4.96.0
 _ZNK9KFileItem10timeStringENS_9FileTimesE@Base 4.96.0
 _ZNK9KFileItem10timeStringEj@Base 4.96.0
 _ZNK9KFileItem11isLocalFileEv@Base 4.96.0
 _ZNK9KFileItem11mimeCommentEv@Base 4.96.0
 _ZNK9KFileItem11permissionsEv@Base 4.96.0
 _ZNK9KFileItem12acceptsDropsEv@Base 4.96.0
 _ZNK9KFileItem12mostLocalUrlEPb@Base 4.96.0
 _ZNK9KFileItem13isDesktopFileEv@Base 4.96.0
 _ZNK9KFileItem13isRegularFileEv@Base 4.96.0
 _ZNK9KFileItem14hasExtendedACLEv@Base 4.96.0
 _ZNK9KFileItem15currentMimeTypeEv@Base 4.96.0
 _ZNK9KFileItem15isMimeTypeKnownEv@Base 4.96.0
 _ZNK9KFileItem16getStatusBarInfoEv@Base 4.96.0
 _ZNK9KFileItem16isFinalIconKnownEv@Base 4.96.0
 _ZNK9KFileItem17determineMimeTypeEv@Base 4.96.0
 _ZNK9KFileItem17permissionsStringEv@Base 4.96.0
 _ZNK9KFileItem3ACLEv@Base 4.96.0
 _ZNK9KFileItem3cmpERKS_@Base 4.96.0
 _ZNK9KFileItem3urlEv@Base 4.96.0
 _ZNK9KFileItem4modeEv@Base 4.96.0
 _ZNK9KFileItem4nameEb@Base 4.96.0
 _ZNK9KFileItem4sizeEv@Base 4.96.0
 _ZNK9KFileItem4textEv@Base 4.96.0
 _ZNK9KFileItem4timeENS_9FileTimesE@Base 4.96.0
 _ZNK9KFileItem4userEv@Base 4.96.0
 _ZNK9KFileItem5entryEv@Base 4.96.0
 _ZNK9KFileItem5groupEv@Base 4.96.0
 _ZNK9KFileItem5isDirEv@Base 4.96.0
 _ZNK9KFileItem6isFileEv@Base 4.96.0
 _ZNK9KFileItem6isLinkEv@Base 4.96.0
 _ZNK9KFileItem6isNullEv@Base 4.96.0
 _ZNK9KFileItem6isSlowEv@Base 4.96.0
 _ZNK9KFileItem7commentEv@Base 4.96.0
 _ZNK9KFileItem8iconNameEv@Base 4.96.0
 _ZNK9KFileItem8isHiddenEv@Base 4.96.0
 _ZNK9KFileItem8linkDestEv@Base 4.96.0
 _ZNK9KFileItem8mimetypeEv@Base 4.96.0
 _ZNK9KFileItem8overlaysEv@Base 4.96.0
 _ZNK9KFileItem9localPathEv@Base 4.96.0
 _ZNK9KFileItem9targetUrlEv@Base 4.96.0
 _ZNK9KFileItemcv8QVariantEv@Base 4.96.0
 _ZNK9KFileItemeqERKS_@Base 4.96.0
 _ZNK9KFileItemneERKS_@Base 4.96.0
 _ZNK9KNFSShare10metaObjectEv@Base 4.96.0
 _ZNK9KNFSShare11exportsPathEv@Base 4.96.0
 _ZNK9KNFSShare17isDirectorySharedERK7QString@Base 4.96.0
 _ZNK9KNFSShare17sharedDirectoriesEv@Base 4.96.0
 _ZNK9KSslError11certificateEv@Base 4.96.0
 _ZNK9KSslError11errorStringEv@Base 4.96.0
 _ZNK9KSslError5errorEv@Base 4.96.0
 _ZTI10KTcpSocket@Base 4.96.0
 _ZTI11KSambaShare@Base 4.96.0
 _ZTI12KLocalSocket@Base 4.96.0
 _ZTI14KCoreDirLister@Base 4.96.0
 _ZTI15KRemoteEncoding@Base 4.96.0
 _ZTI18KLocalSocketServer@Base 4.96.0
 _ZTI23KFileItemListProperties@Base 4.96.0
 _ZTI25OrgKdeKDirNotifyInterface@Base 4.96.0
 _ZTI4KACL@Base 4.96.0
 _ZTI9KNFSShare@Base 4.96.0
 _ZTIN14KCoreDirLister7Private14CachedItemsJobE@Base 4.96.0
 _ZTIN3KIO10RestoreJobE@Base 5.2.0
 _ZTIN3KIO10SpecialJobE@Base 4.96.0
 _ZTIN3KIO11FileCopyJobE@Base 4.96.0
 _ZTIN3KIO11MimetypeJobE@Base 4.96.0
 _ZTIN3KIO11MultiGetJobE@Base 4.96.0
 _ZTIN3KIO11SlaveConfigE@Base 4.96.0
 _ZTIN3KIO11TransferJobE@Base 4.96.0
 _ZTIN3KIO12TCPSlaveBaseE@Base 4.96.0
 _ZTIN3KIO13EmptyTrashJobE@Base 5.2.0
 _ZTIN3KIO14SlaveInterfaceE@Base 4.96.0
 _ZTIN3KIO16ConnectionServerE@Base 4.96.0
 _ZTIN3KIO16DirectorySizeJobE@Base 4.96.0
 _ZTIN3KIO17StoredTransferJobE@Base 4.96.0
 _ZTIN3KIO19ForwardingSlaveBaseE@Base 4.96.0
 _ZTIN3KIO20JobUiDelegateFactoryE@Base 4.96.0
 _ZTIN3KIO22FileSystemFreeSpaceJobE@Base 5.2.0+git20140925
 _ZTIN3KIO22JobUiDelegateExtensionE@Base 4.96.0
 _ZTIN3KIO3JobE@Base 4.96.0
 _ZTIN3KIO5SlaveE@Base 4.96.0
 _ZTIN3KIO6DavJobE@Base 4.96.0
 _ZTIN3KIO7CopyJobE@Base 4.96.0
 _ZTIN3KIO7FileJobE@Base 4.96.0
 _ZTIN3KIO7ListJobE@Base 4.96.0
 _ZTIN3KIO7StatJobE@Base 4.96.0
 _ZTIN3KIO8ChmodJobE@Base 4.96.0
 _ZTIN3KIO8MkdirJobE@Base 4.96.0
 _ZTIN3KIO9DeleteJobE@Base 4.96.0
 _ZTIN3KIO9IdleSlaveE@Base 4.96.0
 _ZTIN3KIO9MkpathJobE@Base 5.3.0+git20141016.0314
 _ZTIN3KIO9SchedulerE@Base 4.96.0
 _ZTIN3KIO9SimpleJobE@Base 4.96.0
 _ZTIN3KIO9SlaveBaseE@Base 4.96.0
 _ZTS10KTcpSocket@Base 4.96.0
 _ZTS11KSambaShare@Base 4.96.0
 _ZTS12KLocalSocket@Base 4.96.0
 _ZTS14KCoreDirLister@Base 4.96.0
 _ZTS15KRemoteEncoding@Base 4.96.0
 _ZTS18KLocalSocketServer@Base 4.96.0
 _ZTS23KFileItemListProperties@Base 4.96.0
 _ZTS25OrgKdeKDirNotifyInterface@Base 4.96.0
 _ZTS4KACL@Base 4.96.0
 _ZTS9KNFSShare@Base 4.96.0
 _ZTSN14KCoreDirLister7Private14CachedItemsJobE@Base 4.96.0
 _ZTSN3KIO10RestoreJobE@Base 5.2.0
 _ZTSN3KIO10SpecialJobE@Base 4.96.0
 _ZTSN3KIO11FileCopyJobE@Base 4.96.0
 _ZTSN3KIO11MimetypeJobE@Base 4.96.0
 _ZTSN3KIO11MultiGetJobE@Base 4.96.0
 _ZTSN3KIO11SlaveConfigE@Base 4.96.0
 _ZTSN3KIO11TransferJobE@Base 4.96.0
 _ZTSN3KIO12TCPSlaveBaseE@Base 4.96.0
 _ZTSN3KIO13EmptyTrashJobE@Base 5.2.0
 _ZTSN3KIO14SlaveInterfaceE@Base 4.96.0
 _ZTSN3KIO16ConnectionServerE@Base 4.96.0
 _ZTSN3KIO16DirectorySizeJobE@Base 4.96.0
 _ZTSN3KIO17StoredTransferJobE@Base 4.96.0
 _ZTSN3KIO19ForwardingSlaveBaseE@Base 4.96.0
 _ZTSN3KIO20JobUiDelegateFactoryE@Base 4.96.0
 _ZTSN3KIO22FileSystemFreeSpaceJobE@Base 5.2.0+git20140925
 _ZTSN3KIO22JobUiDelegateExtensionE@Base 4.96.0
 _ZTSN3KIO3JobE@Base 4.96.0
 _ZTSN3KIO5SlaveE@Base 4.96.0
 _ZTSN3KIO6DavJobE@Base 4.96.0
 _ZTSN3KIO7CopyJobE@Base 4.96.0
 _ZTSN3KIO7FileJobE@Base 4.96.0
 _ZTSN3KIO7ListJobE@Base 4.96.0
 _ZTSN3KIO7StatJobE@Base 4.96.0
 _ZTSN3KIO8ChmodJobE@Base 4.96.0
 _ZTSN3KIO8MkdirJobE@Base 4.96.0
 _ZTSN3KIO9DeleteJobE@Base 4.96.0
 _ZTSN3KIO9IdleSlaveE@Base 4.96.0
 _ZTSN3KIO9MkpathJobE@Base 5.3.0+git20141016.0314
 _ZTSN3KIO9SchedulerE@Base 4.96.0
 _ZTSN3KIO9SimpleJobE@Base 4.96.0
 _ZTSN3KIO9SlaveBaseE@Base 4.96.0
 _ZTV10KTcpSocket@Base 4.96.0
 _ZTV11KSambaShare@Base 4.96.0
 _ZTV12KLocalSocket@Base 4.96.0
 _ZTV14KCoreDirLister@Base 4.96.0
 _ZTV15KRemoteEncoding@Base 4.96.0
 _ZTV18KLocalSocketServer@Base 4.96.0
 _ZTV23KFileItemListProperties@Base 4.96.0
 _ZTV25OrgKdeKDirNotifyInterface@Base 4.96.0
 _ZTV4KACL@Base 4.96.0
 _ZTV9KNFSShare@Base 4.96.0
 _ZTVN14KCoreDirLister7Private14CachedItemsJobE@Base 4.96.0
 _ZTVN3KIO10RestoreJobE@Base 5.2.0
 _ZTVN3KIO10SpecialJobE@Base 4.96.0
 _ZTVN3KIO11FileCopyJobE@Base 4.96.0
 _ZTVN3KIO11MimetypeJobE@Base 4.96.0
 _ZTVN3KIO11MultiGetJobE@Base 4.96.0
 _ZTVN3KIO11SlaveConfigE@Base 4.96.0
 _ZTVN3KIO11TransferJobE@Base 4.96.0
 _ZTVN3KIO12TCPSlaveBaseE@Base 4.96.0
 _ZTVN3KIO13EmptyTrashJobE@Base 5.2.0
 _ZTVN3KIO14SlaveInterfaceE@Base 4.96.0
 _ZTVN3KIO16ConnectionServerE@Base 4.96.0
 _ZTVN3KIO16DirectorySizeJobE@Base 4.96.0
 _ZTVN3KIO17StoredTransferJobE@Base 4.96.0
 _ZTVN3KIO19ForwardingSlaveBaseE@Base 4.96.0
 _ZTVN3KIO20JobUiDelegateFactoryE@Base 4.96.0
 _ZTVN3KIO22FileSystemFreeSpaceJobE@Base 5.2.0+git20140925
 _ZTVN3KIO22JobUiDelegateExtensionE@Base 4.96.0
 _ZTVN3KIO3JobE@Base 4.96.0
 _ZTVN3KIO5SlaveE@Base 4.96.0
 _ZTVN3KIO6DavJobE@Base 4.96.0
 _ZTVN3KIO7CopyJobE@Base 4.96.0
 _ZTVN3KIO7FileJobE@Base 4.96.0
 _ZTVN3KIO7ListJobE@Base 4.96.0
 _ZTVN3KIO7StatJobE@Base 4.96.0
 _ZTVN3KIO8ChmodJobE@Base 4.96.0
 _ZTVN3KIO8MkdirJobE@Base 4.96.0
 _ZTVN3KIO9DeleteJobE@Base 4.96.0
 _ZTVN3KIO9IdleSlaveE@Base 4.96.0
 _ZTVN3KIO9MkpathJobE@Base 5.3.0+git20141016.0314
 _ZTVN3KIO9SchedulerE@Base 4.96.0
 _ZTVN3KIO9SimpleJobE@Base 4.96.0
 _ZTVN3KIO9SlaveBaseE@Base 4.96.0
 _ZThn16_N3KIO19ForwardingSlaveBase19setModificationTimeERK4QUrlRK9QDateTime@Base 4.96.0
 _ZThn16_N3KIO19ForwardingSlaveBase3delERK4QUrlb@Base 4.96.0
 _ZThn16_N3KIO19ForwardingSlaveBase3getERK4QUrl@Base 4.96.0
 _ZThn16_N3KIO19ForwardingSlaveBase3putERK4QUrli6QFlagsINS_7JobFlagEE@Base 4.96.0
 _ZThn16_N3KIO19ForwardingSlaveBase4copyERK4QUrlS3_i6QFlagsINS_7JobFlagEE@Base 4.96.0
 _ZThn16_N3KIO19ForwardingSlaveBase4statERK4QUrl@Base 4.96.0
 _ZThn16_N3KIO19ForwardingSlaveBase5chmodERK4QUrli@Base 4.96.0
 _ZThn16_N3KIO19ForwardingSlaveBase5mkdirERK4QUrli@Base 4.96.0
 _ZThn16_N3KIO19ForwardingSlaveBase6renameERK4QUrlS3_6QFlagsINS_7JobFlagEE@Base 4.96.0
 _ZThn16_N3KIO19ForwardingSlaveBase7listDirERK4QUrl@Base 4.96.0
 _ZThn16_N3KIO19ForwardingSlaveBase7symlinkERK7QStringRK4QUrl6QFlagsINS_7JobFlagEE@Base 4.96.0
 _ZThn16_N3KIO19ForwardingSlaveBase8mimetypeERK4QUrl@Base 4.96.0
 _ZThn16_N3KIO19ForwardingSlaveBaseD0Ev@Base 4.96.0
 _ZThn16_N3KIO19ForwardingSlaveBaseD1Ev@Base 4.96.0
 _ZZZN3KIO12TCPSlaveBase19TcpSlaveBasePrivate14setSslMetaDataEvENKUlvE0_clEvE15qstring_literal@Base 5.16.0
 _ZZZN3KIO12TCPSlaveBase19TcpSlaveBasePrivate14setSslMetaDataEvENKUlvE1_clEvE15qstring_literal@Base 5.16.0
 _ZZZN3KIO12TCPSlaveBase19TcpSlaveBasePrivate14setSslMetaDataEvENKUlvE2_clEvE15qstring_literal@Base 5.16.0
 _ZZZN3KIO12TCPSlaveBase19TcpSlaveBasePrivate14setSslMetaDataEvENKUlvE3_clEvE15qstring_literal@Base 5.16.0
 _ZZZN3KIO12TCPSlaveBase19TcpSlaveBasePrivate14setSslMetaDataEvENKUlvE4_clEvE15qstring_literal@Base 5.16.0
 _ZZZN3KIO12TCPSlaveBase19TcpSlaveBasePrivate14setSslMetaDataEvENKUlvE5_clEvE15qstring_literal@Base 5.16.0
 _ZZZN3KIO12TCPSlaveBase19TcpSlaveBasePrivate14setSslMetaDataEvENKUlvE6_clEvE15qstring_literal@Base 5.16.0
 _ZZZN3KIO12TCPSlaveBase19TcpSlaveBasePrivate14setSslMetaDataEvENKUlvE7_clEvE15qstring_literal@Base 5.16.0
 _ZZZN3KIO12TCPSlaveBase19TcpSlaveBasePrivate14setSslMetaDataEvENKUlvE8_clEvE15qstring_literal@Base 5.16.0
 _ZZZN3KIO12TCPSlaveBase19TcpSlaveBasePrivate14setSslMetaDataEvENKUlvE_clEvE15qstring_literal@Base 5.16.0
 _ZZZN3KIO12TCPSlaveBase19TcpSlaveBasePrivate16clearSslMetaDataEvENKUlvE0_clEvE15qstring_literal@Base 5.16.0
 _ZZZN3KIO12TCPSlaveBase19TcpSlaveBasePrivate16clearSslMetaDataEvENKUlvE_clEvE15qstring_literal@Base 5.16.0
 _Zls6QDebugRK9KFileItem@Base 4.96.0
 _ZlsR11QDataStreamRK4KACL@Base 4.96.0
 _ZlsR11QDataStreamRK9KFileItem@Base 4.96.0
 _ZlsR11QDataStreamRKN3KIO8UDSEntryE@Base 4.96.0
 _ZrsR11QDataStreamR4KACL@Base 4.96.0
 _ZrsR11QDataStreamR9KFileItem@Base 4.96.0
 _ZrsR11QDataStreamRN3KIO8UDSEntryE@Base 4.96.0
 kio_resolve_local_urls@Base 4.96.0
