libKF5IdentityManagement.so.5 libkf5identitymanagement5 #MINVER#
 _ZN12KConfigGroup10writeEntryIbEEvPKcRKT_6QFlagsIN11KConfigBase15WriteConfigFlagEE@Base 15.07.90
 _ZN19KIdentityManagement13IdentityCombo11qt_metacallEN11QMetaObject4CallEiPPv@Base 15.07.90
 _ZN19KIdentityManagement13IdentityCombo11qt_metacastEPKc@Base 15.07.90
 _ZN19KIdentityManagement13IdentityCombo15identityChangedEj@Base 15.07.90
 _ZN19KIdentityManagement13IdentityCombo15slotEmitChangedEi@Base 15.07.90
 _ZN19KIdentityManagement13IdentityCombo16staticMetaObjectE@Base 15.07.90
 _ZN19KIdentityManagement13IdentityCombo17slotUpdateTooltipEj@Base 15.07.90
 _ZN19KIdentityManagement13IdentityCombo18setCurrentIdentityERK7QString@Base 15.07.90
 _ZN19KIdentityManagement13IdentityCombo18setCurrentIdentityERKNS_8IdentityE@Base 15.07.90
 _ZN19KIdentityManagement13IdentityCombo18setCurrentIdentityEj@Base 15.07.90
 _ZN19KIdentityManagement13IdentityCombo26slotIdentityManagerChangedEv@Base 15.07.90
 _ZN19KIdentityManagement13IdentityComboC1EPNS_15IdentityManagerEP7QWidget@Base 15.07.90
 _ZN19KIdentityManagement13IdentityComboC2EPNS_15IdentityManagerEP7QWidget@Base 15.07.90
 _ZN19KIdentityManagement13IdentityComboD0Ev@Base 15.07.90
 _ZN19KIdentityManagement13IdentityComboD1Ev@Base 15.07.90
 _ZN19KIdentityManagement13IdentityComboD2Ev@Base 15.07.90
 _ZN19KIdentityManagement15IdentityManager11modifyBeginEv@Base 15.07.90
 _ZN19KIdentityManagement15IdentityManager11qt_metacallEN11QMetaObject4CallEiPPv@Base 15.07.90
 _ZN19KIdentityManagement15IdentityManager11qt_metacastEPKc@Base 15.07.90
 _ZN19KIdentityManagement15IdentityManager12setAsDefaultEj@Base 15.07.90
 _ZN19KIdentityManagement15IdentityManager12slotRollbackEv@Base 15.07.90
 _ZN19KIdentityManagement15IdentityManager14newFromScratchERK7QString@Base 15.07.90
 _ZN19KIdentityManagement15IdentityManager14removeIdentityERK7QString@Base 15.07.90
 _ZN19KIdentityManagement15IdentityManager15newFromExistingERKNS_8IdentityERK7QString@Base 15.07.90
 _ZN19KIdentityManagement15IdentityManager16staticMetaObjectE@Base 15.07.90
 _ZN19KIdentityManagement15IdentityManager17identitiesChangedERK7QString@Base 15.07.90
 _ZN19KIdentityManagement15IdentityManager20newFromControlCenterERK7QString@Base 15.07.90
 _ZN19KIdentityManagement15IdentityManager20removeIdentityForcedERK7QString@Base 15.07.90
 _ZN19KIdentityManagement15IdentityManager21modifyIdentityForNameERK7QString@Base 15.07.90
 _ZN19KIdentityManagement15IdentityManager21modifyIdentityForUoidEj@Base 15.07.90
 _ZN19KIdentityManagement15IdentityManager4sortEv@Base 15.07.90
 _ZN19KIdentityManagement15IdentityManager5addedERKNS_8IdentityE@Base 15.07.90
 _ZN19KIdentityManagement15IdentityManager6commitEv@Base 15.07.90
 _ZN19KIdentityManagement15IdentityManager7changedERKNS_8IdentityE@Base 15.07.90
 _ZN19KIdentityManagement15IdentityManager7changedEj@Base 15.07.90
 _ZN19KIdentityManagement15IdentityManager7changedEv@Base 15.07.90
 _ZN19KIdentityManagement15IdentityManager7deletedEj@Base 15.07.90
 _ZN19KIdentityManagement15IdentityManager8rollbackEv@Base 15.07.90
 _ZN19KIdentityManagement15IdentityManager9modifyEndEv@Base 15.07.90
 _ZN19KIdentityManagement15IdentityManagerC1EbP7QObjectPKc@Base 15.07.90
 _ZN19KIdentityManagement15IdentityManagerC2EbP7QObjectPKc@Base 15.07.90
 _ZN19KIdentityManagement15IdentityManagerD0Ev@Base 15.07.90
 _ZN19KIdentityManagement15IdentityManagerD1Ev@Base 15.07.90
 _ZN19KIdentityManagement15IdentityManagerD2Ev@Base 15.07.90
 _ZN19KIdentityManagement21SignatureConfigurator10setFileURLERK7QString@Base 15.07.90
 _ZN19KIdentityManagement21SignatureConfigurator11qt_metacallEN11QMetaObject4CallEiPPv@Base 15.07.90
 _ZN19KIdentityManagement21SignatureConfigurator11qt_metacastEPKc@Base 15.07.90
 _ZN19KIdentityManagement21SignatureConfigurator11slotSetHtmlEv@Base 15.07.90
 _ZN19KIdentityManagement21SignatureConfigurator12setSignatureERKNS_9SignatureE@Base 15.07.90
 _ZN19KIdentityManagement21SignatureConfigurator13setCommandURLERK7QString@Base 15.07.90
 _ZN19KIdentityManagement21SignatureConfigurator13setInlineTextERK7QString@Base 15.07.90
 _ZN19KIdentityManagement21SignatureConfigurator16setImageLocationERK7QString@Base 15.07.90
 _ZN19KIdentityManagement21SignatureConfigurator16setImageLocationERKNS_8IdentityE@Base 15.07.90
 _ZN19KIdentityManagement21SignatureConfigurator16setSignatureTypeENS_9Signature4TypeE@Base 15.07.90
 _ZN19KIdentityManagement21SignatureConfigurator16staticMetaObjectE@Base 15.07.90
 _ZN19KIdentityManagement21SignatureConfigurator19setSignatureEnabledEb@Base 15.07.90
 _ZN19KIdentityManagement21SignatureConfigurator20slotEnableEditButtonERK7QString@Base 15.07.90
 _ZN19KIdentityManagement21SignatureConfigurator8slotEditEv@Base 15.07.90
 _ZN19KIdentityManagement21SignatureConfiguratorC1EP7QWidget@Base 15.07.90
 _ZN19KIdentityManagement21SignatureConfiguratorC2EP7QWidget@Base 15.07.90
 _ZN19KIdentityManagement21SignatureConfiguratorD0Ev@Base 15.07.90
 _ZN19KIdentityManagement21SignatureConfiguratorD1Ev@Base 15.07.90
 _ZN19KIdentityManagement21SignatureConfiguratorD2Ev@Base 15.07.90
 _ZN19KIdentityManagement8Identity10readConfigERK12KConfigGroup@Base 15.07.90
 _ZN19KIdentityManagement8Identity11setFullNameERK7QString@Base 15.07.90
 _ZN19KIdentityManagement8Identity11setPropertyERK7QStringRK8QVariant@Base 15.07.90
 _ZN19KIdentityManagement8Identity12fromMimeDataEPK9QMimeData@Base 15.07.90
 _ZN19KIdentityManagement8Identity12mimeDataTypeEv@Base 15.07.90
 _ZN19KIdentityManagement8Identity12setIsDefaultEb@Base 15.07.90
 _ZN19KIdentityManagement8Identity12setSignatureERKNS_9SignatureE@Base 15.07.90
 _ZN19KIdentityManagement8Identity12setTemplatesERK7QString@Base 15.07.90
 _ZN19KIdentityManagement8Identity12setTransportERK7QString@Base 15.07.90
 _ZN19KIdentityManagement8Identity12setVCardFileERK7QString@Base 15.07.90
 _ZN19KIdentityManagement8Identity13setDictionaryERK7QString@Base 15.07.90
 _ZN19KIdentityManagement8Identity14setAttachVcardEb@Base 15.07.90
 _ZN19KIdentityManagement8Identity14setDisabledFccEb@Base 15.07.90
 _ZN19KIdentityManagement8Identity14setPgpAutoSignEb@Base 15.07.90
 _ZN19KIdentityManagement8Identity14setReplyToAddrERK7QString@Base 15.07.90
 _ZN19KIdentityManagement8Identity15setEmailAliasesERK11QStringList@Base 15.07.90
 _ZN19KIdentityManagement8Identity15setIdentityNameERK7QString@Base 15.07.90
 _ZN19KIdentityManagement8Identity15setOrganizationERK7QString@Base 15.07.90
 _ZN19KIdentityManagement8Identity15setXFaceEnabledEb@Base 15.07.90
 _ZN19KIdentityManagement8Identity16setPGPSigningKeyERK10QByteArray@Base 15.07.90
 _ZN19KIdentityManagement8Identity16setSignatureFileERK7QString@Base 15.07.90
 _ZN19KIdentityManagement8Identity18setSMIMESigningKeyERK10QByteArray@Base 15.07.90
 _ZN19KIdentityManagement8Identity19setPGPEncryptionKeyERK10QByteArray@Base 15.07.90
 _ZN19KIdentityManagement8Identity20setDefaultDomainNameERK7QString@Base 15.07.90
 _ZN19KIdentityManagement8Identity21setSMIMEEncryptionKeyERK10QByteArray@Base 15.07.90
 _ZN19KIdentityManagement8Identity22setPrimaryEmailAddressERK7QString@Base 15.07.90
 _ZN19KIdentityManagement8Identity22setSignatureInlineTextERK7QString@Base 15.07.90
 _ZN19KIdentityManagement8Identity25setAutocorrectionLanguageERK7QString@Base 15.07.90
 _ZN19KIdentityManagement8Identity31setPreferredCryptoMessageFormatERK7QString@Base 15.07.90
 _ZN19KIdentityManagement8Identity4nullEv@Base 15.07.90
 _ZN19KIdentityManagement8Identity5setCcERK7QString@Base 15.07.90
 _ZN19KIdentityManagement8Identity6setBccERK7QString@Base 15.07.90
 _ZN19KIdentityManagement8Identity6setFccERK7QString@Base 15.07.90
 _ZN19KIdentityManagement8Identity7setUoidEj@Base 15.07.90
 _ZN19KIdentityManagement8Identity8setXFaceERK7QString@Base 15.07.90
 _ZN19KIdentityManagement8Identity9canDecodeEPK9QMimeData@Base 15.07.90
 _ZN19KIdentityManagement8Identity9setDraftsERK7QString@Base 15.07.90
 _ZN19KIdentityManagement8Identity9signatureEv@Base 15.07.90
 _ZN19KIdentityManagement8IdentityC1ERK7QStringS3_S3_S3_S3_@Base 15.07.90
 _ZN19KIdentityManagement8IdentityC2ERK7QStringS3_S3_S3_S3_@Base 15.07.90
 _ZN19KIdentityManagement8thatIsMeERK7QString@Base 15.07.90
 _ZN19KIdentityManagement9Signature10readConfigERK12KConfigGroup@Base 15.07.90
 _ZN19KIdentityManagement9Signature14setInlinedHtmlEb@Base 15.07.90
 _ZN19KIdentityManagement9Signature16setImageLocationERK7QString@Base 15.07.90
 _ZN19KIdentityManagement9Signature17setEmbeddedImagesERK5QListI14QSharedPointerINS0_13EmbeddedImageEEE@Base 15.07.90
 _ZN19KIdentityManagement9Signature19setEnabledSignatureEb@Base 15.07.90
 _ZN19KIdentityManagement9Signature6setUrlERK7QStringb@Base 15.07.90
 _ZN19KIdentityManagement9Signature7setTextERK7QString@Base 15.07.90
 _ZN19KIdentityManagement9Signature7setTypeENS0_4TypeE@Base 15.07.90
 _ZN19KIdentityManagement9Signature8addImageERK6QImageRK7QString@Base 15.07.90
 _ZN19KIdentityManagement9SignatureC1ERK7QString@Base 15.07.90
 _ZN19KIdentityManagement9SignatureC1ERK7QStringb@Base 15.07.90
 _ZN19KIdentityManagement9SignatureC1ERKS0_@Base 15.07.90
 _ZN19KIdentityManagement9SignatureC1Ev@Base 15.07.90
 _ZN19KIdentityManagement9SignatureC2ERK7QString@Base 15.07.90
 _ZN19KIdentityManagement9SignatureC2ERK7QStringb@Base 15.07.90
 _ZN19KIdentityManagement9SignatureC2ERKS0_@Base 15.07.90
 _ZN19KIdentityManagement9SignatureC2Ev@Base 15.07.90
 _ZN19KIdentityManagement9SignatureD1Ev@Base 15.07.90
 _ZN19KIdentityManagement9SignatureD2Ev@Base 15.07.90
 _ZN19KIdentityManagement9SignatureaSERKS0_@Base 15.07.90
 _ZN19KIdentityManagement9allEmailsEv@Base 15.07.90
 _ZN19KIdentityManagementlsER11QDataStreamRKNS_8IdentityE@Base 15.07.90
 _ZN19KIdentityManagementlsER11QDataStreamRKNS_9SignatureE@Base 15.07.90
 _ZN19KIdentityManagementrsER11QDataStreamRNS_8IdentityE@Base 15.07.90
 _ZN19KIdentityManagementrsER11QDataStreamRNS_9SignatureE@Base 15.07.90
 _ZNK12KConfigGroup9readEntryIbEET_PKcRKS1_@Base 15.07.90
 _ZNK19KIdentityManagement13IdentityCombo10metaObjectEv@Base 15.07.90
 _ZNK19KIdentityManagement13IdentityCombo15currentIdentityEv@Base 15.07.90
 _ZNK19KIdentityManagement13IdentityCombo15identityManagerEv@Base 15.07.90
 _ZNK19KIdentityManagement13IdentityCombo19currentIdentityNameEv@Base 15.07.90
 _ZNK19KIdentityManagement15IdentityManager10identitiesEv@Base 15.07.90
 _ZNK19KIdentityManagement15IdentityManager10makeUniqueERK7QString@Base 15.07.90
 _ZNK19KIdentityManagement15IdentityManager10metaObjectEv@Base 15.07.90
 _ZNK19KIdentityManagement15IdentityManager15defaultIdentityEv@Base 15.07.90
 _ZNK19KIdentityManagement15IdentityManager15identityForUoidEj@Base 15.07.90
 _ZNK19KIdentityManagement15IdentityManager16shadowIdentitiesEv@Base 15.07.90
 _ZNK19KIdentityManagement15IdentityManager17hasPendingChangesEv@Base 15.07.90
 _ZNK19KIdentityManagement15IdentityManager18identityForAddressERK7QString@Base 15.07.90
 _ZNK19KIdentityManagement15IdentityManager24identityForUoidOrDefaultEj@Base 15.07.90
 _ZNK19KIdentityManagement15IdentityManager3endEv@Base 15.07.90
 _ZNK19KIdentityManagement15IdentityManager5beginEv@Base 15.07.90
 _ZNK19KIdentityManagement15IdentityManager8isUniqueERK7QString@Base 15.07.90
 _ZNK19KIdentityManagement15IdentityManager8thatIsMeERK7QString@Base 15.07.90
 _ZNK19KIdentityManagement15IdentityManager9allEmailsEv@Base 15.07.90
 _ZNK19KIdentityManagement21SignatureConfigurator10commandURLEv@Base 15.07.90
 _ZNK19KIdentityManagement21SignatureConfigurator10metaObjectEv@Base 15.07.90
 _ZNK19KIdentityManagement21SignatureConfigurator13signatureTypeEv@Base 15.07.90
 _ZNK19KIdentityManagement21SignatureConfigurator18isSignatureEnabledEv@Base 15.07.90
 _ZNK19KIdentityManagement21SignatureConfigurator7fileURLEv@Base 15.07.90
 _ZNK19KIdentityManagement21SignatureConfigurator9signatureEv@Base 15.07.90
 _ZNK19KIdentityManagement8Identity10dictionaryEv@Base 15.07.90
 _ZNK19KIdentityManagement8Identity11attachVcardEv@Base 15.07.90
 _ZNK19KIdentityManagement8Identity11disabledFccEv@Base 15.07.90
 _ZNK19KIdentityManagement8Identity11pgpAutoSignEv@Base 15.07.90
 _ZNK19KIdentityManagement8Identity11replyToAddrEv@Base 15.07.90
 _ZNK19KIdentityManagement8Identity11writeConfigER12KConfigGroup@Base 15.07.90
 _ZNK19KIdentityManagement8Identity12emailAliasesEv@Base 15.07.90
 _ZNK19KIdentityManagement8Identity12identityNameEv@Base 15.07.90
 _ZNK19KIdentityManagement8Identity12organizationEv@Base 15.07.90
 _ZNK19KIdentityManagement8Identity13fullEmailAddrEv@Base 15.07.90
 _ZNK19KIdentityManagement8Identity13pgpSigningKeyEv@Base 15.07.90
 _ZNK19KIdentityManagement8Identity13signatureFileEv@Base 15.07.90
 _ZNK19KIdentityManagement8Identity13signatureTextEPb@Base 15.07.90
 _ZNK19KIdentityManagement8Identity14isXFaceEnabledEv@Base 15.07.90
 _ZNK19KIdentityManagement8Identity14mailingAllowedEv@Base 15.07.90
 _ZNK19KIdentityManagement8Identity15smimeSigningKeyEv@Base 15.07.90
 _ZNK19KIdentityManagement8Identity15verifyAkonadiIdERK7QString@Base 15.07.90
 _ZNK19KIdentityManagement8Identity16pgpEncryptionKeyEv@Base 15.07.90
 _ZNK19KIdentityManagement8Identity16populateMimeDataEP9QMimeData@Base 15.07.90
 _ZNK19KIdentityManagement8Identity16useSignatureFileEv@Base 15.07.90
 _ZNK19KIdentityManagement8Identity17defaultDomainNameEv@Base 15.07.90
 _ZNK19KIdentityManagement8Identity17signatureIsInlineEv@Base 15.07.90
 _ZNK19KIdentityManagement8Identity18signatureIsCommandEv@Base 15.07.90
 _ZNK19KIdentityManagement8Identity18smimeEncryptionKeyEv@Base 15.07.90
 _ZNK19KIdentityManagement8Identity19matchesEmailAddressERK7QString@Base 15.07.90
 _ZNK19KIdentityManagement8Identity19primaryEmailAddressEv@Base 15.07.90
 _ZNK19KIdentityManagement8Identity19signatureInlineTextEv@Base 15.07.90
 _ZNK19KIdentityManagement8Identity20signatureIsPlainFileEv@Base 15.07.90
 _ZNK19KIdentityManagement8Identity22autocorrectionLanguageEv@Base 15.07.90
 _ZNK19KIdentityManagement8Identity22signatureIsInlinedHtmlEv@Base 15.07.90
 _ZNK19KIdentityManagement8Identity28preferredCryptoMessageFormatEv@Base 15.07.90
 _ZNK19KIdentityManagement8Identity2ccEv@Base 15.07.90
 _ZNK19KIdentityManagement8Identity3bccEv@Base 15.07.90
 _ZNK19KIdentityManagement8Identity3fccEv@Base 15.07.90
 _ZNK19KIdentityManagement8Identity4uoidEv@Base 15.07.90
 _ZNK19KIdentityManagement8Identity5xfaceEv@Base 15.07.90
 _ZNK19KIdentityManagement8Identity6draftsEv@Base 15.07.90
 _ZNK19KIdentityManagement8Identity6isNullEv@Base 15.07.90
 _ZNK19KIdentityManagement8Identity8fullNameEv@Base 15.07.90
 _ZNK19KIdentityManagement8Identity8propertyERK7QString@Base 15.07.90
 _ZNK19KIdentityManagement8Identity9isDefaultEv@Base 15.07.90
 _ZNK19KIdentityManagement8Identity9templatesEv@Base 15.07.90
 _ZNK19KIdentityManagement8Identity9transportEv@Base 15.07.90
 _ZNK19KIdentityManagement8Identity9vCardFileEv@Base 15.07.90
 _ZNK19KIdentityManagement8IdentityeqERKS0_@Base 15.07.90
 _ZNK19KIdentityManagement8IdentitygeERKS0_@Base 15.07.90
 _ZNK19KIdentityManagement8IdentitygtERKS0_@Base 15.07.90
 _ZNK19KIdentityManagement8IdentityleERKS0_@Base 15.07.90
 _ZNK19KIdentityManagement8IdentityltERKS0_@Base 15.07.90
 _ZNK19KIdentityManagement8IdentityneERKS0_@Base 15.07.90
 _ZNK19KIdentityManagement9Signature11toPlainTextEv@Base 15.07.90
 _ZNK19KIdentityManagement9Signature11writeConfigER12KConfigGroup@Base 15.07.90
 _ZNK19KIdentityManagement9Signature13imageLocationEv@Base 15.07.90
 _ZNK19KIdentityManagement9Signature13isInlinedHtmlEv@Base 15.07.90
 _ZNK19KIdentityManagement9Signature13withSeparatorEPb@Base 15.07.90
 _ZNK19KIdentityManagement9Signature14embeddedImagesEv@Base 15.07.90
 _ZNK19KIdentityManagement9Signature18insertIntoTextEditENS0_9PlacementE6QFlagsINS0_13AddedTextFlagEEPN12KPIMTextEdit16RichTextComposerEb@Base 15.12.0
 _ZNK19KIdentityManagement9Signature18isEnabledSignatureEv@Base 15.07.90
 _ZNK19KIdentityManagement9Signature3urlEv@Base 15.07.90
 _ZNK19KIdentityManagement9Signature4textEv@Base 15.07.90
 _ZNK19KIdentityManagement9Signature4typeEv@Base 15.07.90
 _ZNK19KIdentityManagement9Signature7rawTextEPb@Base 15.07.90
 _ZNK19KIdentityManagement9SignatureeqERKS0_@Base 15.07.90
 _ZTIN19KIdentityManagement13IdentityComboE@Base 15.07.90
 _ZTIN19KIdentityManagement15IdentityManagerE@Base 15.07.90
 _ZTIN19KIdentityManagement21SignatureConfiguratorE@Base 15.07.90
 _ZTSN19KIdentityManagement13IdentityComboE@Base 15.07.90
 _ZTSN19KIdentityManagement15IdentityManagerE@Base 15.07.90
 _ZTSN19KIdentityManagement21SignatureConfiguratorE@Base 15.07.90
 _ZTVN19KIdentityManagement13IdentityComboE@Base 15.07.90
 _ZTVN19KIdentityManagement15IdentityManagerE@Base 15.07.90
 _ZTVN19KIdentityManagement21SignatureConfiguratorE@Base 15.07.90
 _ZThn16_N19KIdentityManagement13IdentityComboD0Ev@Base 15.07.90
 _ZThn16_N19KIdentityManagement13IdentityComboD1Ev@Base 15.07.90
 _ZThn16_N19KIdentityManagement21SignatureConfiguratorD0Ev@Base 15.07.90
 _ZThn16_N19KIdentityManagement21SignatureConfiguratorD1Ev@Base 15.07.90
 _ZThn48_N19KIdentityManagement13IdentityComboD0Ev@Base 15.07.90
 _ZThn48_N19KIdentityManagement13IdentityComboD1Ev@Base 15.07.90
