libKF5Prison.so.1 libkf5prison1 #MINVER#
 _ZN6prison13Code39Barcode10paintImageERK6QSizeF@Base 1.2~
 _ZN6prison13Code39BarcodeC1Ev@Base 1.2~
 _ZN6prison13Code39BarcodeC2Ev@Base 1.2~
 _ZN6prison13Code39BarcodeD0Ev@Base 1.2~
 _ZN6prison13Code39BarcodeD1Ev@Base 1.2~
 _ZN6prison13Code39BarcodeD2Ev@Base 1.2~
 _ZN6prison13Code93Barcode10paintImageERK6QSizeF@Base 1.2~
 _ZN6prison13Code93BarcodeC1Ev@Base 1.2~
 _ZN6prison13Code93BarcodeC2Ev@Base 1.2~
 _ZN6prison13Code93BarcodeD0Ev@Base 1.2~
 _ZN6prison13Code93BarcodeD1Ev@Base 1.2~
 _ZN6prison13Code93BarcodeD2Ev@Base 1.2~
 _ZN6prison13QRCodeBarcode10paintImageERK6QSizeF@Base 1.2~
 _ZN6prison13QRCodeBarcodeC1Ev@Base 1.2~
 _ZN6prison13QRCodeBarcodeC2Ev@Base 1.2~
 _ZN6prison13QRCodeBarcodeD0Ev@Base 1.2~
 _ZN6prison13QRCodeBarcodeD1Ev@Base 1.2~
 _ZN6prison13QRCodeBarcodeD2Ev@Base 1.2~
 _ZN6prison15AbstractBarcode14setMinimumSizeERK6QSizeF@Base 1.2~
 _ZN6prison15AbstractBarcode18setBackgroundColorERK6QColor@Base 1.2~
 _ZN6prison15AbstractBarcode18setForegroundColorERK6QColor@Base 1.2~
 _ZN6prison15AbstractBarcode7setDataERK7QString@Base 1.2~
 _ZN6prison15AbstractBarcode7toImageERK6QSizeF@Base 1.2~
 _ZN6prison15AbstractBarcodeC1Ev@Base 1.2~
 _ZN6prison15AbstractBarcodeC2Ev@Base 1.2~
 _ZN6prison15AbstractBarcodeD0Ev@Base 1.2~
 _ZN6prison15AbstractBarcodeD1Ev@Base 1.2~
 _ZN6prison15AbstractBarcodeD2Ev@Base 1.2~
 _ZN6prison17DataMatrixBarcode10paintImageERK6QSizeF@Base 1.2~
 _ZN6prison17DataMatrixBarcodeC1Ev@Base 1.2~
 _ZN6prison17DataMatrixBarcodeC2Ev@Base 1.2~
 _ZN6prison17DataMatrixBarcodeD0Ev@Base 1.2~
 _ZN6prison17DataMatrixBarcodeD1Ev@Base 1.2~
 _ZN6prison17DataMatrixBarcodeD2Ev@Base 1.2~
 _ZNK6prison15AbstractBarcode11minimumSizeEv@Base 1.2~
 _ZNK6prison15AbstractBarcode15backgroundColorEv@Base 1.2~
 _ZNK6prison15AbstractBarcode15foregroundColorEv@Base 1.2~
 _ZNK6prison15AbstractBarcode4dataEv@Base 1.2~
 _ZTIN6prison13Code39BarcodeE@Base 1.2~
 _ZTIN6prison13Code93BarcodeE@Base 1.2~
 _ZTIN6prison13QRCodeBarcodeE@Base 1.2~
 _ZTIN6prison15AbstractBarcodeE@Base 1.2~
 _ZTIN6prison17DataMatrixBarcodeE@Base 1.2~
 _ZTSN6prison13Code39BarcodeE@Base 1.2~
 _ZTSN6prison13Code93BarcodeE@Base 1.2~
 _ZTSN6prison13QRCodeBarcodeE@Base 1.2~
 _ZTSN6prison15AbstractBarcodeE@Base 1.2~
 _ZTSN6prison17DataMatrixBarcodeE@Base 1.2~
 _ZTVN6prison13Code39BarcodeE@Base 1.2~
 _ZTVN6prison13Code93BarcodeE@Base 1.2~
 _ZTVN6prison13QRCodeBarcodeE@Base 1.2~
 _ZTVN6prison15AbstractBarcodeE@Base 1.2~
 _ZTVN6prison17DataMatrixBarcodeE@Base 1.2~
