libmodplug.so.1 libmodplug1 #MINVER#
 MixFloatBuffer@Base 1:0.8.8.5
 MixRearBuffer@Base 1:0.8.8.5
 MixReverbBuffer@Base 1:0.8.8.5
 MixSoundBuffer@Base 1:0.8.8.5
 ModPlug_GetCurrentOrder@Base 1:0.8.8.5
 ModPlug_GetCurrentPattern@Base 1:0.8.8.5
 ModPlug_GetCurrentRow@Base 1:0.8.8.5
 ModPlug_GetCurrentSpeed@Base 1:0.8.8.5
 ModPlug_GetCurrentTempo@Base 1:0.8.8.5
 ModPlug_GetLength@Base 1:0.8.8.5
 ModPlug_GetMasterVolume@Base 1:0.8.8.5
 ModPlug_GetMessage@Base 1:0.8.8.5
 ModPlug_GetModuleType@Base 1:0.8.8.5
 ModPlug_GetName@Base 1:0.8.8.5
 ModPlug_GetPattern@Base 1:0.8.8.5
 ModPlug_GetPlayingChannels@Base 1:0.8.8.5
 ModPlug_GetSettings@Base 1:0.8.8.5
 ModPlug_InitMixerCallback@Base 1:0.8.8.5
 ModPlug_InstrumentName@Base 1:0.8.8.5
 ModPlug_Load@Base 1:0.8.8.5
 ModPlug_NumChannels@Base 1:0.8.8.5
 ModPlug_NumInstruments@Base 1:0.8.8.5
 ModPlug_NumPatterns@Base 1:0.8.8.5
 ModPlug_NumSamples@Base 1:0.8.8.5
 ModPlug_Read@Base 1:0.8.8.5
 ModPlug_SampleName@Base 1:0.8.8.5
 ModPlug_Seek@Base 1:0.8.8.5
 ModPlug_SeekOrder@Base 1:0.8.8.5
 ModPlug_SetMasterVolume@Base 1:0.8.8.5
 ModPlug_SetSettings@Base 1:0.8.8.5
 ModPlug_Unload@Base 1:0.8.8.5
 ModPlug_UnloadMixerCallback@Base 1:0.8.8.5
 PAT_Load_Instruments@Base 1:0.8.8.5
 _Z10AMF_UnpackP11_MODCOMMANDPKhjj@Base 1:0.8.8.5
 _Z10DMFNewNodeP9DMF_HTREE@Base 1:0.8.8.5
 _Z10ITReadBitsRjS_RPha@Base 1:0.8.8.5
 _Z11DMFReadBitsP9DMF_HTREEj@Base 1:0.8.8.5
 _Z11MDLReadBitsRjS_RPha@Base 1:0.8.8.5
 _Z11Mono8BitMixP11_MODCHANNELPiS1_@Base 1:0.8.8.5
 _Z11PP20_UnpackPPKhPj@Base 1:0.8.8.5
 _Z12ITUnpack8BitPajPhjb@Base 1:0.8.8.5
 _Z12MMCMP_UnpackPPKhPj@Base 1:0.8.8.5
 _Z12Mono16BitMixP11_MODCHANNELPiS1_@Base 1:0.8.8.5
 _Z12_mm_getfsizeP8_IO_FILE@Base 1:0.8.8.5
 _Z13ITUnpack16BitPajPhjb@Base 1:0.8.8.5
 _Z13PP20_DoUnpackPKhjPhj@Base 1:0.8.8.5
 _Z13Stereo8BitMixP11_MODCHANNELPiS1_@Base 1:0.8.8.5
 _Z13swap_PSMCHUNKP9_PSMCHUNK@Base 1:0.8.8.5
 _Z14Stereo16BitMixP11_MODCHANNELPiS1_@Base 1:0.8.8.5
 _Z14UnpackMDLTrackP11_MODCOMMANDjjjPKh@Base 1:0.8.8.5
 _Z14X86_StereoFillPijS_S_@Base 1:0.8.8.5
 _Z14swap_PSMSAMPLEP10_PSMSAMPLE@Base 1:0.8.8.5
 _Z15FastMono8BitMixP11_MODCHANNELPiS1_@Base 1:0.8.8.5
 _Z15Mono8BitRampMixP11_MODCHANNELPiS1_@Base 1:0.8.8.5
 _Z15swap_PSMPATTERNP11_PSMPATTERN@Base 1:0.8.8.5
 _Z16FastMono16BitMixP11_MODCHANNELPiS1_@Base 1:0.8.8.5
 _Z16IMAADPCMUnpack16PsjPhjj@Base 1:0.8.8.5
 _Z16Mono16BitRampMixP11_MODCHANNELPiS1_@Base 1:0.8.8.5
 _Z16X86_Convert32To8PvPijS0_S0_@Base 1:0.8.8.5
 _Z17ConvertMDLCommandP11_MODCOMMANDjj@Base 1:0.8.8.5
 _Z17FilterMono8BitMixP11_MODCHANNELPiS1_@Base 1:0.8.8.5
 _Z17Mono8BitLinearMixP11_MODCHANNELPiS1_@Base 1:0.8.8.5
 _Z17Mono8BitSplineMixP11_MODCHANNELPiS1_@Base 1:0.8.8.5
 _Z17Stereo8BitRampMixP11_MODCHANNELPiS1_@Base 1:0.8.8.5
 _Z17X86_Convert32To16PvPijS0_S0_@Base 1:0.8.8.5
 _Z17X86_Convert32To24PvPijS0_S0_@Base 1:0.8.8.5
 _Z17X86_Convert32To32PvPijS0_S0_@Base 1:0.8.8.5
 _Z17X86_EndChannelOfsP11_MODCHANNELPij@Base 1:0.8.8.5
 _Z17X86_InitMixBufferPij@Base 1:0.8.8.5
 _Z18FilterMono16BitMixP11_MODCHANNELPiS1_@Base 1:0.8.8.5
 _Z18Mono16BitLinearMixP11_MODCHANNELPiS1_@Base 1:0.8.8.5
 _Z18Mono16BitSplineMixP11_MODCHANNELPiS1_@Base 1:0.8.8.5
 _Z18Stereo16BitRampMixP11_MODCHANNELPiS1_@Base 1:0.8.8.5
 _Z18X86_MonoFromStereoPij@Base 1:0.8.8.5
 _Z18lengthArrayToDWORDPKh@Base 1:0.8.8.5
 _Z19FastMono8BitRampMixP11_MODCHANNELPiS1_@Base 1:0.8.8.5
 _Z19FilterStereo8BitMixP11_MODCHANNELPiS1_@Base 1:0.8.8.5
 _Z19Stereo8BitLinearMixP11_MODCHANNELPiS1_@Base 1:0.8.8.5
 _Z19Stereo8BitSplineMixP11_MODCHANNELPiS1_@Base 1:0.8.8.5
 _Z20FastMono16BitRampMixP11_MODCHANNELPiS1_@Base 1:0.8.8.5
 _Z20FilterStereo16BitMixP11_MODCHANNELPiS1_@Base 1:0.8.8.5
 _Z20Mono8BitFirFilterMixP11_MODCHANNELPiS1_@Base 1:0.8.8.5
 _Z20Stereo16BitLinearMixP11_MODCHANNELPiS1_@Base 1:0.8.8.5
 _Z20Stereo16BitSplineMixP11_MODCHANNELPiS1_@Base 1:0.8.8.5
 _Z21FastMono8BitLinearMixP11_MODCHANNELPiS1_@Base 1:0.8.8.5
 _Z21FastMono8BitSplineMixP11_MODCHANNELPiS1_@Base 1:0.8.8.5
 _Z21FilterMono8BitRampMixP11_MODCHANNELPiS1_@Base 1:0.8.8.5
 _Z21Mono16BitFirFilterMixP11_MODCHANNELPiS1_@Base 1:0.8.8.5
 _Z21Mono8BitLinearRampMixP11_MODCHANNELPiS1_@Base 1:0.8.8.5
 _Z21Mono8BitSplineRampMixP11_MODCHANNELPiS1_@Base 1:0.8.8.5
 _Z22FastMono16BitLinearMixP11_MODCHANNELPiS1_@Base 1:0.8.8.5
 _Z22FastMono16BitSplineMixP11_MODCHANNELPiS1_@Base 1:0.8.8.5
 _Z22FilterMono16BitRampMixP11_MODCHANNELPiS1_@Base 1:0.8.8.5
 _Z22Mono16BitLinearRampMixP11_MODCHANNELPiS1_@Base 1:0.8.8.5
 _Z22Mono16BitSplineRampMixP11_MODCHANNELPiS1_@Base 1:0.8.8.5
 _Z22Stereo8BitFirFilterMixP11_MODCHANNELPiS1_@Base 1:0.8.8.5
 _Z23FilterMono8BitLinearMixP11_MODCHANNELPiS1_@Base 1:0.8.8.5
 _Z23FilterMono8BitSplineMixP11_MODCHANNELPiS1_@Base 1:0.8.8.5
 _Z23FilterStereo8BitRampMixP11_MODCHANNELPiS1_@Base 1:0.8.8.5
 _Z23Stereo16BitFirFilterMixP11_MODCHANNELPiS1_@Base 1:0.8.8.5
 _Z23Stereo8BitLinearRampMixP11_MODCHANNELPiS1_@Base 1:0.8.8.5
 _Z23Stereo8BitSplineRampMixP11_MODCHANNELPiS1_@Base 1:0.8.8.5
 _Z23X86_InterleaveFrontRearPiS_j@Base 1:0.8.8.5
 _Z24FastMono8BitFirFilterMixP11_MODCHANNELPiS1_@Base 1:0.8.8.5
 _Z24FilterMono16BitLinearMixP11_MODCHANNELPiS1_@Base 1:0.8.8.5
 _Z24FilterMono16BitSplineMixP11_MODCHANNELPiS1_@Base 1:0.8.8.5
 _Z24FilterStereo16BitRampMixP11_MODCHANNELPiS1_@Base 1:0.8.8.5
 _Z24Mono8BitFirFilterRampMixP11_MODCHANNELPiS1_@Base 1:0.8.8.5
 _Z24Stereo16BitLinearRampMixP11_MODCHANNELPiS1_@Base 1:0.8.8.5
 _Z24Stereo16BitSplineRampMixP11_MODCHANNELPiS1_@Base 1:0.8.8.5
 _Z25FastMono16BitFirFilterMixP11_MODCHANNELPiS1_@Base 1:0.8.8.5
 _Z25FastMono8BitLinearRampMixP11_MODCHANNELPiS1_@Base 1:0.8.8.5
 _Z25FastMono8BitSplineRampMixP11_MODCHANNELPiS1_@Base 1:0.8.8.5
 _Z25FilterStereo8BitLinearMixP11_MODCHANNELPiS1_@Base 1:0.8.8.5
 _Z25FilterStereo8BitSplineMixP11_MODCHANNELPiS1_@Base 1:0.8.8.5
 _Z25Mono16BitFirFilterRampMixP11_MODCHANNELPiS1_@Base 1:0.8.8.5
 _Z26FastMono16BitLinearRampMixP11_MODCHANNELPiS1_@Base 1:0.8.8.5
 _Z26FastMono16BitSplineRampMixP11_MODCHANNELPiS1_@Base 1:0.8.8.5
 _Z26FilterMono8BitFirFilterMixP11_MODCHANNELPiS1_@Base 1:0.8.8.5
 _Z26FilterStereo16BitLinearMixP11_MODCHANNELPiS1_@Base 1:0.8.8.5
 _Z26FilterStereo16BitSplineMixP11_MODCHANNELPiS1_@Base 1:0.8.8.5
 _Z26Stereo8BitFirFilterRampMixP11_MODCHANNELPiS1_@Base 1:0.8.8.5
 _Z26mid_first_noteonevent_tickP9_MIDEVENT@Base 1:0.8.8.5
 _Z27FilterMono16BitFirFilterMixP11_MODCHANNELPiS1_@Base 1:0.8.8.5
 _Z27FilterMono8BitLinearRampMixP11_MODCHANNELPiS1_@Base 1:0.8.8.5
 _Z27FilterMono8BitSplineRampMixP11_MODCHANNELPiS1_@Base 1:0.8.8.5
 _Z27Stereo16BitFirFilterRampMixP11_MODCHANNELPiS1_@Base 1:0.8.8.5
 _Z28FastMono8BitFirFilterRampMixP11_MODCHANNELPiS1_@Base 1:0.8.8.5
 _Z28FilterMono16BitLinearRampMixP11_MODCHANNELPiS1_@Base 1:0.8.8.5
 _Z28FilterMono16BitSplineRampMixP11_MODCHANNELPiS1_@Base 1:0.8.8.5
 _Z28FilterStereo8BitFirFilterMixP11_MODCHANNELPiS1_@Base 1:0.8.8.5
 _Z29FastMono16BitFirFilterRampMixP11_MODCHANNELPiS1_@Base 1:0.8.8.5
 _Z29FilterStereo16BitFirFilterMixP11_MODCHANNELPiS1_@Base 1:0.8.8.5
 _Z29FilterStereo8BitLinearRampMixP11_MODCHANNELPiS1_@Base 1:0.8.8.5
 _Z29FilterStereo8BitSplineRampMixP11_MODCHANNELPiS1_@Base 1:0.8.8.5
 _Z30FilterMono8BitFirFilterRampMixP11_MODCHANNELPiS1_@Base 1:0.8.8.5
 _Z30FilterStereo16BitLinearRampMixP11_MODCHANNELPiS1_@Base 1:0.8.8.5
 _Z30FilterStereo16BitSplineRampMixP11_MODCHANNELPiS1_@Base 1:0.8.8.5
 _Z31FilterMono16BitFirFilterRampMixP11_MODCHANNELPiS1_@Base 1:0.8.8.5
 _Z32FilterStereo8BitFirFilterRampMixP11_MODCHANNELPiS1_@Base 1:0.8.8.5
 _Z33FilterStereo16BitFirFilterRampMixP11_MODCHANNELPiS1_@Base 1:0.8.8.5
 _Z7IsMagicPKcS0_@Base 1:0.8.8.5
 _Z7_muldivlll@Base 1:0.8.8.5
 _Z8_muldivrlll@Base 1:0.8.8.5
 _Z9AMSUnpackPKcjPcjc@Base 1:0.8.8.5
 _Z9DMFUnpackPhS_S_j@Base 1:0.8.8.5
 _ZN10CSoundFile10FreeSampleEPv@Base 1:0.8.8.5
 _ZN10CSoundFile10InitPlayerEb@Base 1:0.8.8.5
 _ZN10CSoundFile10NoteChangeEjibb@Base 1:0.8.8.5
 _ZN10CSoundFile10PackSampleERii@Base 1:0.8.8.5
 _ZN10CSoundFile10ProcessRowEv@Base 1:0.8.8.5
 _ZN10CSoundFile10ReadSampleEP14_MODINSTRUMENTjPKcj@Base 1:0.8.8.5
 _ZN10CSoundFile10RetrigNoteEjj@Base 1:0.8.8.5
 _ZN10CSoundFile10gdwSysInfoE@Base 1:0.8.8.5
 _ZN10CSoundFile10gnCPUUsageE@Base 1:0.8.8.5
 _ZN10CSoundFile10gnChannelsE@Base 1:0.8.8.5
 _ZN10CSoundFile11DoFreqSlideEP11_MODCHANNELi@Base 1:0.8.8.5
 _ZN10CSoundFile11FineVibratoEP11_MODCHANNELj@Base 1:0.8.8.5
 _ZN10CSoundFile11FreePatternEPv@Base 1:0.8.8.5
 _ZN10CSoundFile11LoopPatternEii@Base 1:0.8.8.5
 _ZN10CSoundFile11PatternLoopEP11_MODCHANNELj@Base 1:0.8.8.5
 _ZN10CSoundFile11VolumeSlideEP11_MODCHANNELj@Base 1:0.8.8.5
 _ZN10CSoundFile12FineVolumeUpEP11_MODCHANNELj@Base 1:0.8.8.5
 _ZN10CSoundFile12ITInstrToMPTEPKvP17_INSTRUMENTHEADERj@Base 1:0.8.8.5
 _ZN10CSoundFile12PanningSlideEP11_MODCHANNELj@Base 1:0.8.8.5
 _ZN10CSoundFile12PortamentoUpEP11_MODCHANNELj@Base 1:0.8.8.5
 _ZN10CSoundFile12ResetMidiCfgEv@Base 1:0.8.8.5
 _ZN10CSoundFile12SetMixConfigEjj@Base 1:0.8.8.5
 _ZN10CSoundFile12gpSndMixHookE@Base 1:0.8.8.5
 _ZN10CSoundFile13CanPackSampleEPcjjPh@Base 1:0.8.8.5
 _ZN10CSoundFile13CheckCPUUsageEj@Base 1:0.8.8.5
 _ZN10CSoundFile13DestroySampleEj@Base 1:0.8.8.5
 _ZN10CSoundFile13InitializeDSPEb@Base 1:0.8.8.5
 _ZN10CSoundFile13ResetChannelsEv@Base 1:0.8.8.5
 _ZN10CSoundFile13SetCurrentPosEj@Base 1:0.8.8.5
 _ZN10CSoundFile13SetWaveConfigEjjjb@Base 1:0.8.8.5
 _ZN10CSoundFile13gdwMixingFreqE@Base 1:0.8.8.5
 _ZN10CSoundFile13gdwSoundSetupE@Base 1:0.8.8.5
 _ZN10CSoundFile13m_nXBassDepthE@Base 1:0.8.8.5
 _ZN10CSoundFile13m_nXBassRangeE@Base 1:0.8.8.5
 _ZN10CSoundFile14AllocateSampleEj@Base 1:0.8.8.5
 _ZN10CSoundFile14FineVolumeDownEP11_MODCHANNELj@Base 1:0.8.8.5
 _ZN10CSoundFile14GlobalFadeSongEj@Base 1:0.8.8.5
 _ZN10CSoundFile14GlobalVolSlideEj@Base 1:0.8.8.5
 _ZN10CSoundFile14LoadMixPluginsEPKvj@Base 1:0.8.8.5
 _ZN10CSoundFile14PortamentoDownEP11_MODCHANNELj@Base 1:0.8.8.5
 _ZN10CSoundFile14ProcessEffectsEv@Base 1:0.8.8.5
 _ZN10CSoundFile14ProcessMonoDSPEi@Base 1:0.8.8.5
 _ZN10CSoundFile14SaveMixPluginsEP8_IO_FILEb@Base 1:0.8.8.5
 _ZN10CSoundFile14SetPatternNameEjPKc@Base 1:0.8.8.5
 _ZN10CSoundFile14TonePortamentoEP11_MODCHANNELj@Base 1:0.8.8.5
 _ZN10CSoundFile14m_nReverbDelayE@Base 1:0.8.8.5
 _ZN10CSoundFile14m_nReverbDepthE@Base 1:0.8.8.5
 _ZN10CSoundFile15AllocatePatternEjj@Base 1:0.8.8.5
 _ZN10CSoundFile15ChannelVolSlideEP11_MODCHANNELj@Base 1:0.8.8.5
 _ZN10CSoundFile15CreateStereoMixEi@Base 1:0.8.8.5
 _ZN10CSoundFile15GetSongCommentsEPcjj@Base 1:0.8.8.5
 _ZN10CSoundFile15SetCurrentOrderEj@Base 1:0.8.8.5
 _ZN10CSoundFile15SetMasterVolumeEjb@Base 1:0.8.8.5
 _ZN10CSoundFile15SetWaveConfigExEbbbbbbb@Base 1:0.8.8.5
 _ZN10CSoundFile15gnBitsPerSampleE@Base 1:0.8.8.5
 _ZN10CSoundFile15m_nStreamVolumeE@Base 1:0.8.8.5
 _ZN10CSoundFile16AdjustSampleLoopEP14_MODINSTRUMENT@Base 1:0.8.8.5
 _ZN10CSoundFile16FinePortamentoUpEP11_MODCHANNELj@Base 1:0.8.8.5
 _ZN10CSoundFile16InstrumentChangeEP11_MODCHANNELjbbb@Base 1:0.8.8.5
 _ZN10CSoundFile16ProcessMidiMacroEjPKcj@Base 1:0.8.8.5
 _ZN10CSoundFile16ProcessStereoDSPEi@Base 1:0.8.8.5
 _ZN10CSoundFile16m_nProLogicDelayE@Base 1:0.8.8.5
 _ZN10CSoundFile16m_nProLogicDepthE@Base 1:0.8.8.5
 _ZN10CSoundFile17SetResamplingModeEj@Base 1:0.8.8.5
 _ZN10CSoundFile17m_nMaxMixChannelsE@Base 1:0.8.8.5
 _ZN10CSoundFile18FinePortamentoDownEP11_MODCHANNELj@Base 1:0.8.8.5
 _ZN10CSoundFile18GetRawSongCommentsEPcjj@Base 1:0.8.8.5
 _ZN10CSoundFile18SetXBassParametersEjj@Base 1:0.8.8.5
 _ZN10CSoundFile19DetectUnusedSamplesEPb@Base 1:0.8.8.5
 _ZN10CSoundFile19ExtendedMODCommandsEjj@Base 1:0.8.8.5
 _ZN10CSoundFile19ExtendedS3MCommandsEjj@Base 1:0.8.8.5
 _ZN10CSoundFile19SetReverbParametersEjj@Base 1:0.8.8.5
 _ZN10CSoundFile19gnVolumeRampSamplesE@Base 1:0.8.8.5
 _ZN10CSoundFile19m_nStereoSeparationE@Base 1:0.8.8.5
 _ZN10CSoundFile20FrequencyToTransposeEP14_MODINSTRUMENT@Base 1:0.8.8.5
 _ZN10CSoundFile20FrequencyToTransposeEj@Base 1:0.8.8.5
 _ZN10CSoundFile20TransposeToFrequencyEii@Base 1:0.8.8.5
 _ZN10CSoundFile21ExtendedChannelEffectEP11_MODCHANNELj@Base 1:0.8.8.5
 _ZN10CSoundFile21ExtraFinePortamentoUpEP11_MODCHANNELj@Base 1:0.8.8.5
 _ZN10CSoundFile21RemoveSelectedSamplesEPb@Base 1:0.8.8.5
 _ZN10CSoundFile21SetSurroundParametersEjj@Base 1:0.8.8.5
 _ZN10CSoundFile21gpMixPluginCreateProcE@Base 1:0.8.8.5
 _ZN10CSoundFile23ExtraFinePortamentoDownEP11_MODCHANNELj@Base 1:0.8.8.5
 _ZN10CSoundFile4ReadEPvj@Base 1:0.8.8.5
 _ZN10CSoundFile5gnAGCE@Base 1:0.8.8.5
 _ZN10CSoundFile6CreateEPKhj@Base 1:0.8.8.5
 _ZN10CSoundFile6KeyOffEj@Base 1:0.8.8.5
 _ZN10CSoundFile6ReadITEPKhj@Base 1:0.8.8.5
 _ZN10CSoundFile6ReadXMEPKhj@Base 1:0.8.8.5
 _ZN10CSoundFile6SetAGCEb@Base 1:0.8.8.5
 _ZN10CSoundFile7DestroyEv@Base 1:0.8.8.5
 _ZN10CSoundFile7NoteCutEjj@Base 1:0.8.8.5
 _ZN10CSoundFile7Read669EPKhj@Base 1:0.8.8.5
 _ZN10CSoundFile7ReadABCEPKhj@Base 1:0.8.8.5
 _ZN10CSoundFile7ReadAMFEPKhj@Base 1:0.8.8.5
 _ZN10CSoundFile7ReadAMSEPKhj@Base 1:0.8.8.5
 _ZN10CSoundFile7ReadDBMEPKhj@Base 1:0.8.8.5
 _ZN10CSoundFile7ReadDMFEPKhj@Base 1:0.8.8.5
 _ZN10CSoundFile7ReadDSMEPKhj@Base 1:0.8.8.5
 _ZN10CSoundFile7ReadFAREPKhj@Base 1:0.8.8.5
 _ZN10CSoundFile7ReadMDLEPKhj@Base 1:0.8.8.5
 _ZN10CSoundFile7ReadMIDEPKhj@Base 1:0.8.8.5
 _ZN10CSoundFile7ReadMT2EPKhj@Base 1:0.8.8.5
 _ZN10CSoundFile7ReadMTMEPKhj@Base 1:0.8.8.5
 _ZN10CSoundFile7ReadMedEPKhj@Base 1:0.8.8.5
 _ZN10CSoundFile7ReadModEPKhj@Base 1:0.8.8.5
 _ZN10CSoundFile7ReadOKTEPKhj@Base 1:0.8.8.5
 _ZN10CSoundFile7ReadPATEPKhj@Base 1:0.8.8.5
 _ZN10CSoundFile7ReadPSMEPKhj@Base 1:0.8.8.5
 _ZN10CSoundFile7ReadPTMEPKhj@Base 1:0.8.8.5
 _ZN10CSoundFile7ReadS3MEPKhj@Base 1:0.8.8.5
 _ZN10CSoundFile7ReadSTMEPKhj@Base 1:0.8.8.5
 _ZN10CSoundFile7ReadUMXEPKhj@Base 1:0.8.8.5
 _ZN10CSoundFile7ReadUltEPKhj@Base 1:0.8.8.5
 _ZN10CSoundFile7ReadWavEPKhj@Base 1:0.8.8.5
 _ZN10CSoundFile7TestABCEPKhj@Base 1:0.8.8.5
 _ZN10CSoundFile7TestMIDEPKhj@Base 1:0.8.8.5
 _ZN10CSoundFile7TestPATEPKhj@Base 1:0.8.8.5
 _ZN10CSoundFile7TremoloEP11_MODCHANNELj@Base 1:0.8.8.5
 _ZN10CSoundFile7VibratoEP11_MODCHANNELj@Base 1:0.8.8.5
 _ZN10CSoundFile8CheckNNAEjjib@Base 1:0.8.8.5
 _ZN10CSoundFile8FadeSongEj@Base 1:0.8.8.5
 _ZN10CSoundFile8ReadAMS2EPKhj@Base 1:0.8.8.5
 _ZN10CSoundFile8ReadNoteEv@Base 1:0.8.8.5
 _ZN10CSoundFile8SetSpeedEj@Base 1:0.8.8.5
 _ZN10CSoundFile8SetTempoEj@Base 1:0.8.8.5
 _ZN10CSoundFile9GetLengthEbb@Base 1:0.8.8.5
 _ZN10CSoundFile9PanbrelloEP11_MODCHANNELj@Base 1:0.8.8.5
 _ZN10CSoundFile9gnVUMeterE@Base 1:0.8.8.5
 _ZN10CSoundFileC1Ev@Base 1:0.8.8.5
 _ZN10CSoundFileC2Ev@Base 1:0.8.8.5
 _ZN10CSoundFileD1Ev@Base 1:0.8.8.5
 _ZN10CSoundFileD2Ev@Base 1:0.8.8.5
 _ZN12_PPBITBUFFER7GetBitsEj@Base 1:0.8.8.5
 _ZN13CzCUBICSPLINE3lutE@Base 1:0.8.8.5
 _ZN13CzCUBICSPLINEC1Ev@Base 1:0.8.8.5
 _ZN13CzCUBICSPLINEC2Ev@Base 1:0.8.8.5
 _ZN13CzCUBICSPLINED1Ev@Base 1:0.8.8.5
 _ZN13CzCUBICSPLINED2Ev@Base 1:0.8.8.5
 _ZN13CzWINDOWEDFIR3lutE@Base 1:0.8.8.5
 _ZN13CzWINDOWEDFIRC1Ev@Base 1:0.8.8.5
 _ZN13CzWINDOWEDFIRC2Ev@Base 1:0.8.8.5
 _ZN13CzWINDOWEDFIRD1Ev@Base 1:0.8.8.5
 _ZN13CzWINDOWEDFIRD2Ev@Base 1:0.8.8.5
 _ZN14MMCMPBITBUFFER7GetBitsEj@Base 1:0.8.8.5
 _ZN7ModPlug11gSampleSizeE@Base 1:0.8.8.5
 _ZN7ModPlug14UpdateSettingsEb@Base 1:0.8.8.5
 _ZN7ModPlug9gSettingsE@Base 1:0.8.8.5
 _ZNK10CSoundFile10S3MConvertEP11_MODCOMMANDb@Base 1:0.8.8.5
 _ZNK10CSoundFile13GetCurrentPosEv@Base 1:0.8.8.5
 _ZNK10CSoundFile13GetNNAChannelEj@Base 1:0.8.8.5
 _ZNK10CSoundFile13GetSampleNameEjPc@Base 1:0.8.8.5
 _ZNK10CSoundFile14GetMaxPositionEv@Base 1:0.8.8.5
 _ZNK10CSoundFile14GetNumChannelsEv@Base 1:0.8.8.5
 _ZNK10CSoundFile14GetNumPatternsEv@Base 1:0.8.8.5
 _ZNK10CSoundFile14GetPatternNameEjPcj@Base 1:0.8.8.5
 _ZNK10CSoundFile14GetSaveFormatsEv@Base 1:0.8.8.5
 _ZNK10CSoundFile14IsSongFinishedEjj@Base 1:0.8.8.5
 _ZNK10CSoundFile14ModSaveCommandEPK11_MODCOMMANDb@Base 1:0.8.8.5
 _ZNK10CSoundFile14S3MSaveConvertEPjS0_b@Base 1:0.8.8.5
 _ZNK10CSoundFile17ConvertModCommandEP11_MODCOMMAND@Base 1:0.8.8.5
 _ZNK10CSoundFile17CutOffToFrequencyEji@Base 1:0.8.8.5
 _ZNK10CSoundFile17GetBestSaveFormatEv@Base 1:0.8.8.5
 _ZNK10CSoundFile17GetFreqFromPeriodEjji@Base 1:0.8.8.5
 _ZNK10CSoundFile17GetInstrumentNameEjPc@Base 1:0.8.8.5
 _ZNK10CSoundFile17GetNoteFromPeriodEj@Base 1:0.8.8.5
 _ZNK10CSoundFile17GetNumInstrumentsEv@Base 1:0.8.8.5
 _ZNK10CSoundFile17GetPeriodFromNoteEjij@Base 1:0.8.8.5
 _ZNK10CSoundFile18SetupChannelFilterEP11_MODCHANNELbi@Base 1:0.8.8.5
 _ZNK10CSoundFile19IsValidBackwardJumpEjjjj@Base 1:0.8.8.5
 autovibit2xm@Base 1:0.8.8.5
 autovibxm2it@Base 1:0.8.8.5
 gbInitPlugins@Base 1:0.8.8.5
 gnDryLOfsVol@Base 1:0.8.8.5
 gnDryROfsVol@Base 1:0.8.8.5
 gnReverbSend@Base 1:0.8.8.5
 gnRvbLOfsVol@Base 1:0.8.8.5
 gnRvbROfsVol@Base 1:0.8.8.5
 pat_gm_drumnote@Base 1:0.8.8.5
 pat_gm_drumnr@Base 1:0.8.8.5
 pat_gm_name@Base 1:0.8.8.5
 pat_gmtosmp@Base 1:0.8.8.5
 pat_init_patnames@Base 1:0.8.8.5
 pat_modnote@Base 1:0.8.8.5
 pat_numinstr@Base 1:0.8.8.5
 pat_numsmp@Base 1:0.8.8.5
 pat_resetsmp@Base 1:0.8.8.5
 pat_smplooped@Base 1:0.8.8.5
 pat_smptogm@Base 1:0.8.8.5
 sfir@Base 1:0.8.8.5
 sspline@Base 1:0.8.8.5
