libIlmImf-2_2.so.22 libopenexr22 #MINVER#
 ImfApplyLut@Base 1.6.1
 ImfCloseInputFile@Base 1.6.1
 ImfCloseOutputFile@Base 1.6.1
 ImfCloseTiledInputFile@Base 1.6.1
 ImfCloseTiledOutputFile@Base 1.6.1
 ImfCopyHeader@Base 1.6.1
 ImfDeleteHeader@Base 1.6.1
 ImfDeleteLut@Base 1.6.1
 ImfErrorMessage@Base 1.6.1
 ImfFloatToHalf@Base 1.6.1
 ImfFloatToHalfArray@Base 1.6.1
 ImfHalfToFloat@Base 1.6.1
 ImfHalfToFloatArray@Base 1.6.1
 ImfHeaderBox2fAttribute@Base 1.6.1
 ImfHeaderBox2iAttribute@Base 1.6.1
 ImfHeaderCompression@Base 1.6.1
 ImfHeaderDataWindow@Base 1.6.1
 ImfHeaderDisplayWindow@Base 1.6.1
 ImfHeaderDoubleAttribute@Base 1.6.1
 ImfHeaderFloatAttribute@Base 1.6.1
 ImfHeaderIntAttribute@Base 1.6.1
 ImfHeaderLineOrder@Base 1.6.1
 ImfHeaderM33fAttribute@Base 1.6.1
 ImfHeaderM44fAttribute@Base 1.6.1
 ImfHeaderPixelAspectRatio@Base 1.6.1
 ImfHeaderScreenWindowCenter@Base 1.6.1
 ImfHeaderScreenWindowWidth@Base 1.6.1
 ImfHeaderSetBox2fAttribute@Base 1.6.1
 ImfHeaderSetBox2iAttribute@Base 1.6.1
 ImfHeaderSetCompression@Base 1.6.1
 ImfHeaderSetDataWindow@Base 1.6.1
 ImfHeaderSetDisplayWindow@Base 1.6.1
 ImfHeaderSetDoubleAttribute@Base 1.6.1
 ImfHeaderSetFloatAttribute@Base 1.6.1
 ImfHeaderSetIntAttribute@Base 1.6.1
 ImfHeaderSetLineOrder@Base 1.6.1
 ImfHeaderSetM33fAttribute@Base 1.6.1
 ImfHeaderSetM44fAttribute@Base 1.6.1
 ImfHeaderSetPixelAspectRatio@Base 1.6.1
 ImfHeaderSetScreenWindowCenter@Base 1.6.1
 ImfHeaderSetScreenWindowWidth@Base 1.6.1
 ImfHeaderSetStringAttribute@Base 1.6.1
 ImfHeaderSetV2fAttribute@Base 1.6.1
 ImfHeaderSetV2iAttribute@Base 1.6.1
 ImfHeaderSetV3fAttribute@Base 1.6.1
 ImfHeaderSetV3iAttribute@Base 1.6.1
 ImfHeaderStringAttribute@Base 1.6.1
 ImfHeaderV2fAttribute@Base 1.6.1
 ImfHeaderV2iAttribute@Base 1.6.1
 ImfHeaderV3fAttribute@Base 1.6.1
 ImfHeaderV3iAttribute@Base 1.6.1
 ImfInputChannels@Base 1.6.1
 ImfInputFileName@Base 1.6.1
 ImfInputHeader@Base 1.6.1
 ImfInputReadPixels@Base 1.6.1
 ImfInputSetFrameBuffer@Base 1.6.1
 ImfNewHeader@Base 1.6.1
 ImfNewRound12logLut@Base 1.6.1
 ImfNewRoundNBitLut@Base 1.6.1
 ImfOpenInputFile@Base 1.6.1
 ImfOpenOutputFile@Base 1.6.1
 ImfOpenTiledInputFile@Base 1.6.1
 ImfOpenTiledOutputFile@Base 1.6.1
 ImfOutputChannels@Base 1.6.1
 ImfOutputCurrentScanLine@Base 1.6.1
 ImfOutputHeader@Base 1.6.1
 ImfOutputSetFrameBuffer@Base 1.6.1
 ImfOutputWritePixels@Base 1.6.1
 ImfTiledInputChannels@Base 1.6.1
 ImfTiledInputFileName@Base 1.6.1
 ImfTiledInputHeader@Base 1.6.1
 ImfTiledInputLevelMode@Base 1.6.1
 ImfTiledInputLevelRoundingMode@Base 1.6.1
 ImfTiledInputReadTile@Base 1.6.1
 ImfTiledInputReadTiles@Base 1.6.1
 ImfTiledInputSetFrameBuffer@Base 1.6.1
 ImfTiledInputTileXSize@Base 1.6.1
 ImfTiledInputTileYSize@Base 1.6.1
 ImfTiledOutputChannels@Base 1.6.1
 ImfTiledOutputHeader@Base 1.6.1
 ImfTiledOutputLevelMode@Base 1.6.1
 ImfTiledOutputLevelRoundingMode@Base 1.6.1
 ImfTiledOutputSetFrameBuffer@Base 1.6.1
 ImfTiledOutputTileXSize@Base 1.6.1
 ImfTiledOutputTileYSize@Base 1.6.1
 ImfTiledOutputWriteTile@Base 1.6.1
 ImfTiledOutputWriteTiles@Base 1.6.1
 _ZN7Iex_2_211OverflowExcD0Ev@Base 2.2
 _ZN7Iex_2_211OverflowExcD1Ev@Base 2.2
 _ZN7Iex_2_211OverflowExcD2Ev@Base 2.2
 _ZN7Iex_2_25IoExcD0Ev@Base 2.2
 _ZN7Iex_2_25IoExcD1Ev@Base 2.2
 _ZN7Iex_2_25IoExcD2Ev@Base 2.2
 _ZN7Iex_2_26ArgExcD0Ev@Base 2.2
 _ZN7Iex_2_26ArgExcD1Ev@Base 2.2
 _ZN7Iex_2_26ArgExcD2Ev@Base 2.2
 _ZN7Iex_2_27MathExcD0Ev@Base 2.2
 _ZN7Iex_2_27MathExcD1Ev@Base 2.2
 _ZN7Iex_2_27MathExcD2Ev@Base 2.2
 _ZN7Iex_2_27TypeExcD0Ev@Base 2.2
 _ZN7Iex_2_27TypeExcD1Ev@Base 2.2
 _ZN7Iex_2_27TypeExcD2Ev@Base 2.2
 _ZN7Iex_2_28ErrnoExcD0Ev@Base 2.2
 _ZN7Iex_2_28ErrnoExcD1Ev@Base 2.2
 _ZN7Iex_2_28ErrnoExcD2Ev@Base 2.2
 _ZN7Iex_2_28InputExcD0Ev@Base 2.2
 _ZN7Iex_2_28InputExcD1Ev@Base 2.2
 _ZN7Iex_2_28InputExcD2Ev@Base 2.2
 _ZN7Iex_2_28LogicExcD0Ev@Base 2.2
 _ZN7Iex_2_28LogicExcD1Ev@Base 2.2
 _ZN7Iex_2_28LogicExcD2Ev@Base 2.2
 _ZN7Iex_2_29NoImplExcD0Ev@Base 2.2
 _ZN7Iex_2_29NoImplExcD1Ev@Base 2.2
 _ZN7Iex_2_29NoImplExcD2Ev@Base 2.2
 _ZN7Imf_2_210Compressor12compressTileEPKciN9Imath_2_23BoxINS3_4Vec2IiEEEERS2_@Base 2.2
 _ZN7Imf_2_210Compressor14uncompressTileEPKciN9Imath_2_23BoxINS3_4Vec2IiEEEERS2_@Base 2.2
 _ZN7Imf_2_210CompressorC1ERKNS_6HeaderE@Base 2.2
 _ZN7Imf_2_210CompressorC2ERKNS_6HeaderE@Base 2.2
 _ZN7Imf_2_210CompressorD0Ev@Base 2.2
 _ZN7Imf_2_210CompressorD1Ev@Base 2.2
 _ZN7Imf_2_210CompressorD2Ev@Base 2.2
 _ZN7Imf_2_210LatLongMap13pixelPositionERKN9Imath_2_23BoxINS1_4Vec2IiEEEERKNS1_4Vec3IfEE@Base 2.2
 _ZN7Imf_2_210LatLongMap13pixelPositionERKN9Imath_2_23BoxINS1_4Vec2IiEEEERKNS3_IfEE@Base 2.2
 _ZN7Imf_2_210LatLongMap7latLongERKN9Imath_2_23BoxINS1_4Vec2IiEEEERKNS3_IfEE@Base 2.2
 _ZN7Imf_2_210LatLongMap7latLongERKN9Imath_2_24Vec3IfEE@Base 2.2
 _ZN7Imf_2_210LatLongMap9directionERKN9Imath_2_23BoxINS1_4Vec2IiEEEERKNS3_IfEE@Base 2.2
 _ZN7Imf_2_210OutputFile10copyPixelsERNS_9InputFileE@Base 2.2
 _ZN7Imf_2_210OutputFile10copyPixelsERNS_9InputPartE@Base 2.2
 _ZN7Imf_2_210OutputFile10initializeERKNS_6HeaderE@Base 2.2
 _ZN7Imf_2_210OutputFile11writePixelsEi@Base 2.2
 _ZN7Imf_2_210OutputFile13breakScanLineEiiic@Base 2.2
 _ZN7Imf_2_210OutputFile14setFrameBufferERKNS_11FrameBufferE@Base 2.2
 _ZN7Imf_2_210OutputFile18updatePreviewImageEPKNS_11PreviewRgbaE@Base 2.2
 _ZN7Imf_2_210OutputFile4DataC1Ei@Base 2.2
 _ZN7Imf_2_210OutputFile4DataC2Ei@Base 2.2
 _ZN7Imf_2_210OutputFile4DataD1Ev@Base 2.2
 _ZN7Imf_2_210OutputFile4DataD2Ev@Base 2.2
 _ZN7Imf_2_210OutputFileC1EPKNS_14OutputPartDataE@Base 2.2
 _ZN7Imf_2_210OutputFileC1EPKcRKNS_6HeaderEi@Base 2.2
 _ZN7Imf_2_210OutputFileC1ERNS_7OStreamERKNS_6HeaderEi@Base 2.2
 _ZN7Imf_2_210OutputFileC2EPKNS_14OutputPartDataE@Base 2.2
 _ZN7Imf_2_210OutputFileC2EPKcRKNS_6HeaderEi@Base 2.2
 _ZN7Imf_2_210OutputFileC2ERNS_7OStreamERKNS_6HeaderEi@Base 2.2
 _ZN7Imf_2_210OutputFileD0Ev@Base 2.2
 _ZN7Imf_2_210OutputFileD1Ev@Base 2.2
 _ZN7Imf_2_210OutputFileD2Ev@Base 2.2
 _ZN7Imf_2_210OutputPart10copyPixelsERNS_9InputFileE@Base 2.2
 _ZN7Imf_2_210OutputPart10copyPixelsERNS_9InputPartE@Base 2.2
 _ZN7Imf_2_210OutputPart11writePixelsEi@Base 2.2
 _ZN7Imf_2_210OutputPart13breakScanLineEiiic@Base 2.2
 _ZN7Imf_2_210OutputPart14setFrameBufferERKNS_11FrameBufferE@Base 2.2
 _ZN7Imf_2_210OutputPart18updatePreviewImageEPKNS_11PreviewRgbaE@Base 2.2
 _ZN7Imf_2_210OutputPartC1ERNS_19MultiPartOutputFileEi@Base 2.2
 _ZN7Imf_2_210OutputPartC2ERNS_19MultiPartOutputFileEi@Base 2.2
 _ZN7Imf_2_210addCapDateERNS_6HeaderERKNSt7__cxx1112basic_stringIcSt11char_traitsIcESaIcEEE@Base 2.2.0
 _ZN7Imf_2_210addExpTimeERNS_6HeaderERKf@Base 2.2
 _ZN7Imf_2_210addKeyCodeERNS_6HeaderERKNS_7KeyCodeE@Base 2.2
 _ZN7Imf_2_210halfToUintE4half@Base 2.2
 _ZN7Imf_2_210hasCapDateERKNS_6HeaderE@Base 2.2
 _ZN7Imf_2_210hasExpTimeERKNS_6HeaderE@Base 2.2
 _ZN7Imf_2_210hasKeyCodeERKNS_6HeaderE@Base 2.2
 _ZN7Imf_2_210isDeepDataERKNSt7__cxx1112basic_stringIcSt11char_traitsIcESaIcEEE@Base 2.2.0
 _ZN7Imf_2_210isImfMagicEPKc@Base 2.2
 _ZN7Imf_2_210numSamplesEiii@Base 2.2
 _ZN7Imf_2_210round12logE4half@Base 2.2
 _ZN7Imf_2_210uintToHalfEj@Base 2.2
 _ZN7Imf_2_210wav2DecodeEPtiiiit@Base 2.2
 _ZN7Imf_2_210wav2EncodeEPtiiiit@Base 2.2
 _ZN7Imf_2_210worldToNDCERKNS_6HeaderE@Base 2.2
 _ZN7Imf_2_210worldToNDCERNS_6HeaderE@Base 2.2
 _ZN7Imf_2_211ChannelList11findChannelEPKc@Base 2.2
 _ZN7Imf_2_211ChannelList11findChannelERKNSt7__cxx1112basic_stringIcSt11char_traitsIcESaIcEEE@Base 2.2.0
 _ZN7Imf_2_211ChannelList15channelsInLayerERKNSt7__cxx1112basic_stringIcSt11char_traitsIcESaIcEEERNS0_8IteratorESA_@Base 2.2.0
 _ZN7Imf_2_211ChannelList18channelsWithPrefixEPKcRNS0_8IteratorES4_@Base 2.2
 _ZN7Imf_2_211ChannelList18channelsWithPrefixERKNSt7__cxx1112basic_stringIcSt11char_traitsIcESaIcEEERNS0_8IteratorESA_@Base 2.2.0
 _ZN7Imf_2_211ChannelList3endEv@Base 2.2
 _ZN7Imf_2_211ChannelList4findEPKc@Base 2.2
 _ZN7Imf_2_211ChannelList4findERKNSt7__cxx1112basic_stringIcSt11char_traitsIcESaIcEEE@Base 2.2.0
 _ZN7Imf_2_211ChannelList5beginEv@Base 2.2
 _ZN7Imf_2_211ChannelList6insertEPKcRKNS_7ChannelE@Base 2.2
 _ZN7Imf_2_211ChannelList6insertERKNSt7__cxx1112basic_stringIcSt11char_traitsIcESaIcEEERKNS_7ChannelE@Base 2.2.0
 _ZN7Imf_2_211ChannelListixEPKc@Base 2.2
 _ZN7Imf_2_211ChannelListixERKNSt7__cxx1112basic_stringIcSt11char_traitsIcESaIcEEE@Base 2.2.0
 _ZN7Imf_2_211FrameBuffer3endEv@Base 2.2
 _ZN7Imf_2_211FrameBuffer4findEPKc@Base 2.2
 _ZN7Imf_2_211FrameBuffer4findERKNSt7__cxx1112basic_stringIcSt11char_traitsIcESaIcEEE@Base 2.2.0
 _ZN7Imf_2_211FrameBuffer5beginEv@Base 2.2
 _ZN7Imf_2_211FrameBuffer6insertEPKcRKNS_5SliceE@Base 2.2
 _ZN7Imf_2_211FrameBuffer6insertERKNSt7__cxx1112basic_stringIcSt11char_traitsIcESaIcEEERKNS_5SliceE@Base 2.2.0
 _ZN7Imf_2_211FrameBuffer9findSliceEPKc@Base 2.2
 _ZN7Imf_2_211FrameBuffer9findSliceERKNSt7__cxx1112basic_stringIcSt11char_traitsIcESaIcEEE@Base 2.2.0
 _ZN7Imf_2_211FrameBufferixEPKc@Base 2.2
 _ZN7Imf_2_211FrameBufferixERKNSt7__cxx1112basic_stringIcSt11char_traitsIcESaIcEEE@Base 2.2.0
 _ZN7Imf_2_211StdIFStream4readEPci@Base 2.2
 _ZN7Imf_2_211StdIFStream5clearEv@Base 2.2
 _ZN7Imf_2_211StdIFStream5seekgEm@Base 2.2.0
 _ZN7Imf_2_211StdIFStream5tellgEv@Base 2.2
 _ZN7Imf_2_211StdIFStreamC1EPKc@Base 2.2
 _ZN7Imf_2_211StdIFStreamC1ERSt14basic_ifstreamIcSt11char_traitsIcEEPKc@Base 2.2
 _ZN7Imf_2_211StdIFStreamC2EPKc@Base 2.2
 _ZN7Imf_2_211StdIFStreamC2ERSt14basic_ifstreamIcSt11char_traitsIcEEPKc@Base 2.2
 _ZN7Imf_2_211StdIFStreamD0Ev@Base 2.2
 _ZN7Imf_2_211StdIFStreamD1Ev@Base 2.2
 _ZN7Imf_2_211StdIFStreamD2Ev@Base 2.2
 _ZN7Imf_2_211StdOFStream5seekpEm@Base 2.2.0
 _ZN7Imf_2_211StdOFStream5tellpEv@Base 2.2
 _ZN7Imf_2_211StdOFStream5writeEPKci@Base 2.2
 _ZN7Imf_2_211StdOFStreamC1EPKc@Base 2.2
 _ZN7Imf_2_211StdOFStreamC1ERSt14basic_ofstreamIcSt11char_traitsIcEEPKc@Base 2.2
 _ZN7Imf_2_211StdOFStreamC2EPKc@Base 2.2
 _ZN7Imf_2_211StdOFStreamC2ERSt14basic_ofstreamIcSt11char_traitsIcEEPKc@Base 2.2
 _ZN7Imf_2_211StdOFStreamD0Ev@Base 2.2
 _ZN7Imf_2_211StdOFStreamD1Ev@Base 2.2
 _ZN7Imf_2_211StdOFStreamD2Ev@Base 2.2
 _ZN7Imf_2_211StdOSStream5seekpEm@Base 2.2.0
 _ZN7Imf_2_211StdOSStream5tellpEv@Base 2.2
 _ZN7Imf_2_211StdOSStream5writeEPKci@Base 2.2
 _ZN7Imf_2_211StdOSStreamC1Ev@Base 2.2
 _ZN7Imf_2_211StdOSStreamC2Ev@Base 2.2
 _ZN7Imf_2_211StdOSStreamD0Ev@Base 2.2
 _ZN7Imf_2_211StdOSStreamD1Ev@Base 2.2
 _ZN7Imf_2_211StdOSStreamD2Ev@Base 2.2
 _ZN7Imf_2_211TileOffsets19reconstructFromFileERNS_7IStreamEbb@Base 2.2
 _ZN7Imf_2_211TileOffsets8readFromERNS_7IStreamERbbb@Base 2.2
 _ZN7Imf_2_211TileOffsets8readFromESt6vectorImSaImEERb@Base 2.2.0
 _ZN7Imf_2_211TileOffsets9findTilesERNS_7IStreamEbbb@Base 2.2
 _ZN7Imf_2_211TileOffsetsC1ENS_9LevelModeEiiPKiS3_@Base 2.2
 _ZN7Imf_2_211TileOffsetsC2ENS_9LevelModeEiiPKiS3_@Base 2.2
 _ZN7Imf_2_211TileOffsetsclEiii@Base 2.2
 _ZN7Imf_2_211TileOffsetsclEiiii@Base 2.2
 _ZN7Imf_2_211addAltitudeERNS_6HeaderERKf@Base 2.2
 _ZN7Imf_2_211addApertureERNS_6HeaderERKf@Base 2.2
 _ZN7Imf_2_211addCommentsERNS_6HeaderERKNSt7__cxx1112basic_stringIcSt11char_traitsIcESaIcEEE@Base 2.2.0
 _ZN7Imf_2_211addIsoSpeedERNS_6HeaderERKf@Base 2.2
 _ZN7Imf_2_211addLatitudeERNS_6HeaderERKf@Base 2.2
 _ZN7Imf_2_211addTimeCodeERNS_6HeaderERKNS_8TimeCodeE@Base 2.2
 _ZN7Imf_2_211addXDensityERNS_6HeaderERKf@Base 2.2
 _ZN7Imf_2_211floatToHalfEf@Base 2.2
 _ZN7Imf_2_211floatToUintEf@Base 2.2
 _ZN7Imf_2_211hasAltitudeERKNS_6HeaderE@Base 2.2
 _ZN7Imf_2_211hasApertureERKNS_6HeaderE@Base 2.2
 _ZN7Imf_2_211hasCommentsERKNS_6HeaderE@Base 2.2
 _ZN7Imf_2_211hasIsoSpeedERKNS_6HeaderE@Base 2.2
 _ZN7Imf_2_211hasLatitudeERKNS_6HeaderE@Base 2.2
 _ZN7Imf_2_211hasTimeCodeERKNS_6HeaderE@Base 2.2
 _ZN7Imf_2_211hasXDensityERKNS_6HeaderE@Base 2.2
 _ZN7Imf_2_211hufCompressEPKtiPc@Base 2.2
 _ZN7Imf_2_211rleCompressEiPKcPa@Base 2.2
 _ZN7Imf_2_211sampleCountEPKciiii@Base 2.2
 _ZN7Imf_2_211sampleCountEPciiii@Base 2.2
 _ZN7Imf_2_211skipChannelERPKcNS_9PixelTypeEm@Base 2.2.0
 _ZN7Imf_2_212PreviewImageC1ERKS0_@Base 2.2
 _ZN7Imf_2_212PreviewImageC1EjjPKNS_11PreviewRgbaE@Base 2.2
 _ZN7Imf_2_212PreviewImageC2ERKS0_@Base 2.2
 _ZN7Imf_2_212PreviewImageC2EjjPKNS_11PreviewRgbaE@Base 2.2
 _ZN7Imf_2_212PreviewImageD1Ev@Base 2.2
 _ZN7Imf_2_212PreviewImageD2Ev@Base 2.2
 _ZN7Imf_2_212PreviewImageaSERKS0_@Base 2.2
 _ZN7Imf_2_212addLongitudeERNS_6HeaderERKf@Base 2.2
 _ZN7Imf_2_212addMultiViewERNS_6HeaderERKSt6vectorINSt7__cxx1112basic_stringIcSt11char_traitsIcESaIcEEESaIS8_EE@Base 2.2.0
 _ZN7Imf_2_212addUtcOffsetERNS_6HeaderERKf@Base 2.2
 _ZN7Imf_2_212addWrapmodesERNS_6HeaderERKNSt7__cxx1112basic_stringIcSt11char_traitsIcESaIcEEE@Base 2.2.0
 _ZN7Imf_2_212hasLongitudeERKNS_6HeaderE@Base 2.2
 _ZN7Imf_2_212hasMultiViewERKNS_6HeaderE@Base 2.2
 _ZN7Imf_2_212hasUtcOffsetERKNS_6HeaderE@Base 2.2
 _ZN7Imf_2_212hasWrapmodesERKNS_6HeaderE@Base 2.2
 _ZN7Imf_2_213AcesInputFile10readPixelsEi@Base 2.2
 _ZN7Imf_2_213AcesInputFile10readPixelsEii@Base 2.2
 _ZN7Imf_2_213AcesInputFile14setFrameBufferEPNS_4RgbaEmm@Base 2.2.0
 _ZN7Imf_2_213AcesInputFile4Data19initColorConversionEv@Base 2.2
 _ZN7Imf_2_213AcesInputFile4DataC1Ev@Base 2.2
 _ZN7Imf_2_213AcesInputFile4DataC2Ev@Base 2.2
 _ZN7Imf_2_213AcesInputFile4DataD1Ev@Base 2.2
 _ZN7Imf_2_213AcesInputFile4DataD2Ev@Base 2.2
 _ZN7Imf_2_213AcesInputFileC1ERKNSt7__cxx1112basic_stringIcSt11char_traitsIcESaIcEEEi@Base 2.2.0
 _ZN7Imf_2_213AcesInputFileC1ERNS_7IStreamEi@Base 2.2
 _ZN7Imf_2_213AcesInputFileC2ERKNSt7__cxx1112basic_stringIcSt11char_traitsIcESaIcEEEi@Base 2.2.0
 _ZN7Imf_2_213AcesInputFileC2ERNS_7IStreamEi@Base 2.2
 _ZN7Imf_2_213AcesInputFileD0Ev@Base 2.2
 _ZN7Imf_2_213AcesInputFileD1Ev@Base 2.2
 _ZN7Imf_2_213AcesInputFileD2Ev@Base 2.2
 _ZN7Imf_2_213B44Compressor10uncompressEPKciN9Imath_2_23BoxINS3_4Vec2IiEEEERS2_@Base 2.2
 _ZN7Imf_2_213B44Compressor10uncompressEPKciiRS2_@Base 2.2
 _ZN7Imf_2_213B44Compressor12compressTileEPKciN9Imath_2_23BoxINS3_4Vec2IiEEEERS2_@Base 2.2
 _ZN7Imf_2_213B44Compressor14uncompressTileEPKciN9Imath_2_23BoxINS3_4Vec2IiEEEERS2_@Base 2.2
 _ZN7Imf_2_213B44Compressor8compressEPKciN9Imath_2_23BoxINS3_4Vec2IiEEEERS2_@Base 2.2
 _ZN7Imf_2_213B44Compressor8compressEPKciiRS2_@Base 2.2
 _ZN7Imf_2_213B44CompressorC1ERKNS_6HeaderEmmb@Base 2.2.0
 _ZN7Imf_2_213B44CompressorC2ERKNS_6HeaderEmmb@Base 2.2.0
 _ZN7Imf_2_213B44CompressorD0Ev@Base 2.2
 _ZN7Imf_2_213B44CompressorD1Ev@Base 2.2
 _ZN7Imf_2_213B44CompressorD2Ev@Base 2.2
 _ZN7Imf_2_213DwaCompressor10uncompressEPKciN9Imath_2_23BoxINS3_4Vec2IiEEEERS2_@Base 2.2
 _ZN7Imf_2_213DwaCompressor10uncompressEPKciiRS2_@Base 2.2
 _ZN7Imf_2_213DwaCompressor12compressTileEPKciN9Imath_2_23BoxINS3_4Vec2IiEEEERS2_@Base 2.2
 _ZN7Imf_2_213DwaCompressor14uncompressTileEPKciN9Imath_2_23BoxINS3_4Vec2IiEEEERS2_@Base 2.2
 _ZN7Imf_2_213DwaCompressor15LossyDctDecoderD0Ev@Base 2.2
 _ZN7Imf_2_213DwaCompressor15LossyDctDecoderD1Ev@Base 2.2
 _ZN7Imf_2_213DwaCompressor15LossyDctDecoderD2Ev@Base 2.2
 _ZN7Imf_2_213DwaCompressor15LossyDctEncoderD0Ev@Base 2.2
 _ZN7Imf_2_213DwaCompressor15LossyDctEncoderD1Ev@Base 2.2
 _ZN7Imf_2_213DwaCompressor15LossyDctEncoderD2Ev@Base 2.2
 _ZN7Imf_2_213DwaCompressor15initializeFuncsEv@Base 2.2
 _ZN7Imf_2_213DwaCompressor16classifyChannelsENS_11ChannelListERSt6vectorINS0_11ChannelDataESaIS3_EERS2_INS0_13CscChannelSetESaIS7_EE@Base 2.2
 _ZN7Imf_2_213DwaCompressor16setupChannelDataEiiii@Base 2.2
 _ZN7Imf_2_213DwaCompressor17initializeBuffersERm@Base 2.2.0
 _ZN7Imf_2_213DwaCompressor18LossyDctDecoderCscD0Ev@Base 2.2
 _ZN7Imf_2_213DwaCompressor18LossyDctDecoderCscD1Ev@Base 2.2
 _ZN7Imf_2_213DwaCompressor18LossyDctDecoderCscD2Ev@Base 2.2
 _ZN7Imf_2_213DwaCompressor18LossyDctEncoderCscD0Ev@Base 2.2
 _ZN7Imf_2_213DwaCompressor18LossyDctEncoderCscD1Ev@Base 2.2
 _ZN7Imf_2_213DwaCompressor18LossyDctEncoderCscD2Ev@Base 2.2
 _ZN7Imf_2_213DwaCompressor19LossyDctDecoderBase7executeEv@Base 2.2
 _ZN7Imf_2_213DwaCompressor19LossyDctDecoderBase7unRleAcERPtS2_@Base 2.2
 _ZN7Imf_2_213DwaCompressor19LossyDctDecoderBaseC1EPcS2_PKtii@Base 2.2
 _ZN7Imf_2_213DwaCompressor19LossyDctDecoderBaseC2EPcS2_PKtii@Base 2.2
 _ZN7Imf_2_213DwaCompressor19LossyDctDecoderBaseD0Ev@Base 2.2
 _ZN7Imf_2_213DwaCompressor19LossyDctDecoderBaseD1Ev@Base 2.2
 _ZN7Imf_2_213DwaCompressor19LossyDctDecoderBaseD2Ev@Base 2.2
 _ZN7Imf_2_213DwaCompressor19LossyDctEncoderBase12countSetBitsEt@Base 2.2
 _ZN7Imf_2_213DwaCompressor19LossyDctEncoderBase5rleAcEP4halfRPt@Base 2.2
 _ZN7Imf_2_213DwaCompressor19LossyDctEncoderBase7executeEv@Base 2.2
 _ZN7Imf_2_213DwaCompressor19LossyDctEncoderBase8quantizeE4halff@Base 2.2
 _ZN7Imf_2_213DwaCompressor19LossyDctEncoderBase8toZigZagEP4halfS3_@Base 2.2
 _ZN7Imf_2_213DwaCompressor19LossyDctEncoderBaseC1EfPcS2_PKtii@Base 2.2
 _ZN7Imf_2_213DwaCompressor19LossyDctEncoderBaseC2EfPcS2_PKtii@Base 2.2
 _ZN7Imf_2_213DwaCompressor19LossyDctEncoderBaseD0Ev@Base 2.2
 _ZN7Imf_2_213DwaCompressor19LossyDctEncoderBaseD1Ev@Base 2.2
 _ZN7Imf_2_213DwaCompressor19LossyDctEncoderBaseD2Ev@Base 2.2
 _ZN7Imf_2_213DwaCompressor28initializeLegacyChannelRulesEv@Base 2.2
 _ZN7Imf_2_213DwaCompressor29initializeDefaultChannelRulesEv@Base 2.2
 _ZN7Imf_2_213DwaCompressor8compressEPKciN9Imath_2_23BoxINS3_4Vec2IiEEEERS2_@Base 2.2
 _ZN7Imf_2_213DwaCompressor8compressEPKciiRS2_@Base 2.2
 _ZN7Imf_2_213DwaCompressorC1ERKNS_6HeaderEiiNS0_13AcCompressionE@Base 2.2
 _ZN7Imf_2_213DwaCompressorC2ERKNS_6HeaderEiiNS0_13AcCompressionE@Base 2.2
 _ZN7Imf_2_213DwaCompressorD0Ev@Base 2.2
 _ZN7Imf_2_213DwaCompressorD1Ev@Base 2.2
 _ZN7Imf_2_213DwaCompressorD2Ev@Base 2.2
 _ZN7Imf_2_213InputPartDataC1EPNS_16InputStreamMutexERKNS_6HeaderEiii@Base 2.2
 _ZN7Imf_2_213InputPartDataC2EPNS_16InputStreamMutexERKNS_6HeaderEiii@Base 2.2
 _ZN7Imf_2_213PizCompressor10uncompressEPKciN9Imath_2_23BoxINS3_4Vec2IiEEEERS2_@Base 2.2
 _ZN7Imf_2_213PizCompressor10uncompressEPKciiRS2_@Base 2.2
 _ZN7Imf_2_213PizCompressor12compressTileEPKciN9Imath_2_23BoxINS3_4Vec2IiEEEERS2_@Base 2.2
 _ZN7Imf_2_213PizCompressor14uncompressTileEPKciN9Imath_2_23BoxINS3_4Vec2IiEEEERS2_@Base 2.2
 _ZN7Imf_2_213PizCompressor8compressEPKciN9Imath_2_23BoxINS3_4Vec2IiEEEERS2_@Base 2.2
 _ZN7Imf_2_213PizCompressor8compressEPKciiRS2_@Base 2.2
 _ZN7Imf_2_213PizCompressorC1ERKNS_6HeaderEmm@Base 2.2.0
 _ZN7Imf_2_213PizCompressorC2ERKNS_6HeaderEmm@Base 2.2.0
 _ZN7Imf_2_213PizCompressorD0Ev@Base 2.2
 _ZN7Imf_2_213PizCompressorD1Ev@Base 2.2
 _ZN7Imf_2_213PizCompressorD2Ev@Base 2.2
 _ZN7Imf_2_213RgbaInputFile10readPixelsEi@Base 2.2
 _ZN7Imf_2_213RgbaInputFile10readPixelsEii@Base 2.2
 _ZN7Imf_2_213RgbaInputFile12setLayerNameERKNSt7__cxx1112basic_stringIcSt11char_traitsIcESaIcEEE@Base 2.2.0
 _ZN7Imf_2_213RgbaInputFile14setFrameBufferEPNS_4RgbaEmm@Base 2.2.0
 _ZN7Imf_2_213RgbaInputFile7FromYca10readPixelsEi@Base 2.2
 _ZN7Imf_2_213RgbaInputFile7FromYca10readPixelsEii@Base 2.2
 _ZN7Imf_2_213RgbaInputFile7FromYca10rotateBuf1Ei@Base 2.2
 _ZN7Imf_2_213RgbaInputFile7FromYca10rotateBuf2Ei@Base 2.2
 _ZN7Imf_2_213RgbaInputFile7FromYca14setFrameBufferEPNS_4RgbaEmmRKNSt7__cxx1112basic_stringIcSt11char_traitsIcESaIcEEE@Base 2.2.0
 _ZN7Imf_2_213RgbaInputFile7FromYca15readYCAScanLineEiPNS_4RgbaE@Base 2.2
 _ZN7Imf_2_213RgbaInputFile7FromYca9padTmpBufEv@Base 2.2
 _ZN7Imf_2_213RgbaInputFile7FromYcaC1ERNS_9InputFileENS_12RgbaChannelsE@Base 2.2
 _ZN7Imf_2_213RgbaInputFile7FromYcaC2ERNS_9InputFileENS_12RgbaChannelsE@Base 2.2
 _ZN7Imf_2_213RgbaInputFile7FromYcaD0Ev@Base 2.2
 _ZN7Imf_2_213RgbaInputFile7FromYcaD1Ev@Base 2.2
 _ZN7Imf_2_213RgbaInputFile7FromYcaD2Ev@Base 2.2
 _ZN7Imf_2_213RgbaInputFileC1EPKcRKNSt7__cxx1112basic_stringIcSt11char_traitsIcESaIcEEEi@Base 2.2.0
 _ZN7Imf_2_213RgbaInputFileC1EPKci@Base 2.2
 _ZN7Imf_2_213RgbaInputFileC1ERNS_7IStreamERKNSt7__cxx1112basic_stringIcSt11char_traitsIcESaIcEEEi@Base 2.2.0
 _ZN7Imf_2_213RgbaInputFileC1ERNS_7IStreamEi@Base 2.2
 _ZN7Imf_2_213RgbaInputFileC2EPKcRKNSt7__cxx1112basic_stringIcSt11char_traitsIcESaIcEEEi@Base 2.2.0
 _ZN7Imf_2_213RgbaInputFileC2EPKci@Base 2.2
 _ZN7Imf_2_213RgbaInputFileC2ERNS_7IStreamERKNSt7__cxx1112basic_stringIcSt11char_traitsIcESaIcEEEi@Base 2.2.0
 _ZN7Imf_2_213RgbaInputFileC2ERNS_7IStreamEi@Base 2.2
 _ZN7Imf_2_213RgbaInputFileD0Ev@Base 2.2
 _ZN7Imf_2_213RgbaInputFileD1Ev@Base 2.2
 _ZN7Imf_2_213RgbaInputFileD2Ev@Base 2.2
 _ZN7Imf_2_213RleCompressor10uncompressEPKciiRS2_@Base 2.2
 _ZN7Imf_2_213RleCompressor8compressEPKciiRS2_@Base 2.2
 _ZN7Imf_2_213RleCompressorC1ERKNS_6HeaderEm@Base 2.2.0
 _ZN7Imf_2_213RleCompressorC2ERKNS_6HeaderEm@Base 2.2.0
 _ZN7Imf_2_213RleCompressorD0Ev@Base 2.2
 _ZN7Imf_2_213RleCompressorD1Ev@Base 2.2
 _ZN7Imf_2_213RleCompressorD2Ev@Base 2.2
 _ZN7Imf_2_213ZipCompressor10uncompressEPKciiRS2_@Base 2.2
 _ZN7Imf_2_213ZipCompressor8compressEPKciiRS2_@Base 2.2
 _ZN7Imf_2_213ZipCompressorC1ERKNS_6HeaderEmm@Base 2.2.0
 _ZN7Imf_2_213ZipCompressorC2ERKNS_6HeaderEmm@Base 2.2.0
 _ZN7Imf_2_213ZipCompressorD0Ev@Base 2.2
 _ZN7Imf_2_213ZipCompressorD1Ev@Base 2.2
 _ZN7Imf_2_213ZipCompressorD2Ev@Base 2.2
 _ZN7Imf_2_213addWorldToNDCERNS_6HeaderERKN9Imath_2_28Matrix44IfEE@Base 2.2
 _ZN7Imf_2_213defaultFormatEPNS_10CompressorE@Base 2.2
 _ZN7Imf_2_213guessExactFpsERKNS_8RationalE@Base 2.2
 _ZN7Imf_2_213guessExactFpsEd@Base 2.2
 _ZN7Imf_2_213hasWorldToNDCERKNS_6HeaderE@Base 2.2
 _ZN7Imf_2_213hufUncompressEPKciPti@Base 2.2
 _ZN7Imf_2_213isOpenExrFileEPKc@Base 2.2
 _ZN7Imf_2_213isOpenExrFileEPKcRb@Base 2.2
 _ZN7Imf_2_213isOpenExrFileEPKcRbS2_@Base 2.2
 _ZN7Imf_2_213isOpenExrFileEPKcRbS2_S2_@Base 2.2
 _ZN7Imf_2_213isOpenExrFileERNS_7IStreamE@Base 2.2
 _ZN7Imf_2_213isOpenExrFileERNS_7IStreamERb@Base 2.2
 _ZN7Imf_2_213isOpenExrFileERNS_7IStreamERbS2_@Base 2.2
 _ZN7Imf_2_213isOpenExrFileERNS_7IStreamERbS2_S2_@Base 2.2
 _ZN7Imf_2_213newCompressorENS_11CompressionEmRKNS_6HeaderE@Base 2.2.0
 _ZN7Imf_2_213pixelTypeSizeENS_9PixelTypeE@Base 2.2
 _ZN7Imf_2_213rleUncompressEiiPKaPc@Base 2.2
 _ZN7Imf_2_213usesLongNamesERKNS_6HeaderE@Base 2.2
 _ZN7Imf_2_213worldToCameraERKNS_6HeaderE@Base 2.2
 _ZN7Imf_2_213worldToCameraERNS_6HeaderE@Base 2.2
 _ZN7Imf_2_214AcesOutputFile11writePixelsEi@Base 2.2
 _ZN7Imf_2_214AcesOutputFile14setFrameBufferEPKNS_4RgbaEmm@Base 2.2.0
 _ZN7Imf_2_214AcesOutputFile18updatePreviewImageEPKNS_11PreviewRgbaE@Base 2.2
 _ZN7Imf_2_214AcesOutputFile4DataC1Ev@Base 2.2
 _ZN7Imf_2_214AcesOutputFile4DataC2Ev@Base 2.2
 _ZN7Imf_2_214AcesOutputFile4DataD1Ev@Base 2.2
 _ZN7Imf_2_214AcesOutputFile4DataD2Ev@Base 2.2
 _ZN7Imf_2_214AcesOutputFileC1ERKNSt7__cxx1112basic_stringIcSt11char_traitsIcESaIcEEERKN9Imath_2_23BoxINS9_4Vec2IiEEEESF_NS_12RgbaChannelsEfNSB_IfEEfNS_9LineOrderENS_11CompressionEi@Base 2.2.0
 _ZN7Imf_2_214AcesOutputFileC1ERKNSt7__cxx1112basic_stringIcSt11char_traitsIcESaIcEEERKNS_6HeaderENS_12RgbaChannelsEi@Base 2.2.0
 _ZN7Imf_2_214AcesOutputFileC1ERKNSt7__cxx1112basic_stringIcSt11char_traitsIcESaIcEEEiiNS_12RgbaChannelsEfN9Imath_2_24Vec2IfEEfNS_9LineOrderENS_11CompressionEi@Base 2.2.0
 _ZN7Imf_2_214AcesOutputFileC1ERNS_7OStreamERKNS_6HeaderENS_12RgbaChannelsEi@Base 2.2
 _ZN7Imf_2_214AcesOutputFileC2ERKNSt7__cxx1112basic_stringIcSt11char_traitsIcESaIcEEERKN9Imath_2_23BoxINS9_4Vec2IiEEEESF_NS_12RgbaChannelsEfNSB_IfEEfNS_9LineOrderENS_11CompressionEi@Base 2.2.0
 _ZN7Imf_2_214AcesOutputFileC2ERKNSt7__cxx1112basic_stringIcSt11char_traitsIcESaIcEEERKNS_6HeaderENS_12RgbaChannelsEi@Base 2.2.0
 _ZN7Imf_2_214AcesOutputFileC2ERKNSt7__cxx1112basic_stringIcSt11char_traitsIcESaIcEEEiiNS_12RgbaChannelsEfN9Imath_2_24Vec2IfEEfNS_9LineOrderENS_11CompressionEi@Base 2.2.0
 _ZN7Imf_2_214AcesOutputFileC2ERNS_7OStreamERKNS_6HeaderENS_12RgbaChannelsEi@Base 2.2
 _ZN7Imf_2_214AcesOutputFileD0Ev@Base 2.2
 _ZN7Imf_2_214AcesOutputFileD1Ev@Base 2.2
 _ZN7Imf_2_214AcesOutputFileD2Ev@Base 2.2
 _ZN7Imf_2_214ChromaticitiesC1ERKN9Imath_2_24Vec2IfEES5_S5_S5_@Base 2.2
 _ZN7Imf_2_214ChromaticitiesC2ERKN9Imath_2_24Vec2IfEES5_S5_S5_@Base 2.2
 _ZN7Imf_2_214FastHufDecoder11buildTablesEPmS1_@Base 2.2.0
 _ZN7Imf_2_214FastHufDecoder6decodeEPKhiPti@Base 2.2
 _ZN7Imf_2_214FastHufDecoder7enabledEv@Base 2.2
 _ZN7Imf_2_214FastHufDecoderC1ERPKciiii@Base 2.2
 _ZN7Imf_2_214FastHufDecoderC2ERPKciiii@Base 2.2
 _ZN7Imf_2_214FastHufDecoderD1Ev@Base 2.2
 _ZN7Imf_2_214FastHufDecoderD2Ev@Base 2.2
 _ZN7Imf_2_214OutputPartDataC1EPNS_17OutputStreamMutexERKNS_6HeaderEiib@Base 2.2
 _ZN7Imf_2_214OutputPartDataC2EPNS_17OutputStreamMutexERKNS_6HeaderEiib@Base 2.2
 _ZN7Imf_2_214RgbaOutputFile11writePixelsEi@Base 2.2
 _ZN7Imf_2_214RgbaOutputFile13breakScanLineEiiic@Base 2.2
 _ZN7Imf_2_214RgbaOutputFile13setYCRoundingEjj@Base 2.2
 _ZN7Imf_2_214RgbaOutputFile14setFrameBufferEPKNS_4RgbaEmm@Base 2.2.0
 _ZN7Imf_2_214RgbaOutputFile18updatePreviewImageEPKNS_11PreviewRgbaE@Base 2.2
 _ZN7Imf_2_214RgbaOutputFile5ToYca11writePixelsEi@Base 2.2
 _ZN7Imf_2_214RgbaOutputFile5ToYca13rotateBuffersEv@Base 2.2
 _ZN7Imf_2_214RgbaOutputFile5ToYca13setYCRoundingEjj@Base 2.2
 _ZN7Imf_2_214RgbaOutputFile5ToYca14setFrameBufferEPKNS_4RgbaEmm@Base 2.2.0
 _ZN7Imf_2_214RgbaOutputFile5ToYca19duplicateLastBufferEv@Base 2.2
 _ZN7Imf_2_214RgbaOutputFile5ToYca27duplicateSecondToLastBufferEv@Base 2.2
 _ZN7Imf_2_214RgbaOutputFile5ToYca34decimateChromaVertAndWriteScanLineEv@Base 2.2
 _ZN7Imf_2_214RgbaOutputFile5ToYca9padTmpBufEv@Base 2.2
 _ZN7Imf_2_214RgbaOutputFile5ToYcaC1ERNS_10OutputFileENS_12RgbaChannelsE@Base 2.2
 _ZN7Imf_2_214RgbaOutputFile5ToYcaC2ERNS_10OutputFileENS_12RgbaChannelsE@Base 2.2
 _ZN7Imf_2_214RgbaOutputFile5ToYcaD0Ev@Base 2.2
 _ZN7Imf_2_214RgbaOutputFile5ToYcaD1Ev@Base 2.2
 _ZN7Imf_2_214RgbaOutputFile5ToYcaD2Ev@Base 2.2
 _ZN7Imf_2_214RgbaOutputFileC1EPKcRKN9Imath_2_23BoxINS3_4Vec2IiEEEES9_NS_12RgbaChannelsEfNS5_IfEEfNS_9LineOrderENS_11CompressionEi@Base 2.2
 _ZN7Imf_2_214RgbaOutputFileC1EPKcRKNS_6HeaderENS_12RgbaChannelsEi@Base 2.2
 _ZN7Imf_2_214RgbaOutputFileC1EPKciiNS_12RgbaChannelsEfN9Imath_2_24Vec2IfEEfNS_9LineOrderENS_11CompressionEi@Base 2.2
 _ZN7Imf_2_214RgbaOutputFileC1ERNS_7OStreamERKNS_6HeaderENS_12RgbaChannelsEi@Base 2.2
 _ZN7Imf_2_214RgbaOutputFileC2EPKcRKN9Imath_2_23BoxINS3_4Vec2IiEEEES9_NS_12RgbaChannelsEfNS5_IfEEfNS_9LineOrderENS_11CompressionEi@Base 2.2
 _ZN7Imf_2_214RgbaOutputFileC2EPKcRKNS_6HeaderENS_12RgbaChannelsEi@Base 2.2
 _ZN7Imf_2_214RgbaOutputFileC2EPKciiNS_12RgbaChannelsEfN9Imath_2_24Vec2IfEEfNS_9LineOrderENS_11CompressionEi@Base 2.2
 _ZN7Imf_2_214RgbaOutputFileC2ERNS_7OStreamERKNS_6HeaderENS_12RgbaChannelsEi@Base 2.2
 _ZN7Imf_2_214RgbaOutputFileD0Ev@Base 2.2
 _ZN7Imf_2_214RgbaOutputFileD1Ev@Base 2.2
 _ZN7Imf_2_214RgbaOutputFileD2Ev@Base 2.2
 _ZN7Imf_2_214TiledInputFile10initializeEv@Base 2.2
 _ZN7Imf_2_214TiledInputFile11rawTileDataERiS1_S1_S1_RPKcS1_@Base 2.2
 _ZN7Imf_2_214TiledInputFile14setFrameBufferERKNS_11FrameBufferE@Base 2.2
 _ZN7Imf_2_214TiledInputFile19multiPartInitializeEPNS_13InputPartDataE@Base 2.2
 _ZN7Imf_2_214TiledInputFile23compatibilityInitializeERNS_7IStreamE@Base 2.2
 _ZN7Imf_2_214TiledInputFile4DataC1Ei@Base 2.2
 _ZN7Imf_2_214TiledInputFile4DataC2Ei@Base 2.2
 _ZN7Imf_2_214TiledInputFile4DataD0Ev@Base 2.2
 _ZN7Imf_2_214TiledInputFile4DataD1Ev@Base 2.2
 _ZN7Imf_2_214TiledInputFile4DataD2Ev@Base 2.2
 _ZN7Imf_2_214TiledInputFile8readTileEiii@Base 2.2
 _ZN7Imf_2_214TiledInputFile8readTileEiiii@Base 2.2
 _ZN7Imf_2_214TiledInputFile9readTilesEiiiii@Base 2.2
 _ZN7Imf_2_214TiledInputFile9readTilesEiiiiii@Base 2.2
 _ZN7Imf_2_214TiledInputFileC1EPKci@Base 2.2
 _ZN7Imf_2_214TiledInputFileC1EPNS_13InputPartDataE@Base 2.2
 _ZN7Imf_2_214TiledInputFileC1ERKNS_6HeaderEPNS_7IStreamEii@Base 2.2
 _ZN7Imf_2_214TiledInputFileC1ERNS_7IStreamEi@Base 2.2
 _ZN7Imf_2_214TiledInputFileC2EPKci@Base 2.2
 _ZN7Imf_2_214TiledInputFileC2EPNS_13InputPartDataE@Base 2.2
 _ZN7Imf_2_214TiledInputFileC2ERKNS_6HeaderEPNS_7IStreamEii@Base 2.2
 _ZN7Imf_2_214TiledInputFileC2ERNS_7IStreamEi@Base 2.2
 _ZN7Imf_2_214TiledInputFileD0Ev@Base 2.2
 _ZN7Imf_2_214TiledInputFileD1Ev@Base 2.2
 _ZN7Imf_2_214TiledInputFileD2Ev@Base 2.2
 _ZN7Imf_2_214TiledInputPart11rawTileDataERiS1_S1_S1_RPKcS1_@Base 2.2
 _ZN7Imf_2_214TiledInputPart14setFrameBufferERKNS_11FrameBufferE@Base 2.2
 _ZN7Imf_2_214TiledInputPart8readTileEiii@Base 2.2
 _ZN7Imf_2_214TiledInputPart8readTileEiiii@Base 2.2
 _ZN7Imf_2_214TiledInputPart9readTilesEiiiii@Base 2.2
 _ZN7Imf_2_214TiledInputPart9readTilesEiiiiii@Base 2.2
 _ZN7Imf_2_214TiledInputPartC1ERNS_18MultiPartInputFileEi@Base 2.2
 _ZN7Imf_2_214TiledInputPartC2ERNS_18MultiPartInputFileEi@Base 2.2
 _ZN7Imf_2_214TypedAttributeIN9Imath_2_23BoxINS1_4Vec2IfEEEEE13copyValueFromERKNS_9AttributeE@Base 2.2
 _ZN7Imf_2_214TypedAttributeIN9Imath_2_23BoxINS1_4Vec2IfEEEEE13readValueFromERNS_7IStreamEii@Base 2.2
 _ZN7Imf_2_214TypedAttributeIN9Imath_2_23BoxINS1_4Vec2IfEEEEE14staticTypeNameEv@Base 2.2
 _ZN7Imf_2_214TypedAttributeIN9Imath_2_23BoxINS1_4Vec2IfEEEEE16makeNewAttributeEv@Base 2.2
 _ZN7Imf_2_214TypedAttributeIN9Imath_2_23BoxINS1_4Vec2IfEEEEED0Ev@Base 2.2
 _ZN7Imf_2_214TypedAttributeIN9Imath_2_23BoxINS1_4Vec2IfEEEEED1Ev@Base 2.2
 _ZN7Imf_2_214TypedAttributeIN9Imath_2_23BoxINS1_4Vec2IfEEEEED2Ev@Base 2.2
 _ZN7Imf_2_214TypedAttributeIN9Imath_2_23BoxINS1_4Vec2IiEEEEE13copyValueFromERKNS_9AttributeE@Base 2.2
 _ZN7Imf_2_214TypedAttributeIN9Imath_2_23BoxINS1_4Vec2IiEEEEE13readValueFromERNS_7IStreamEii@Base 2.2
 _ZN7Imf_2_214TypedAttributeIN9Imath_2_23BoxINS1_4Vec2IiEEEEE14staticTypeNameEv@Base 2.2
 _ZN7Imf_2_214TypedAttributeIN9Imath_2_23BoxINS1_4Vec2IiEEEEE16makeNewAttributeEv@Base 2.2
 _ZN7Imf_2_214TypedAttributeIN9Imath_2_23BoxINS1_4Vec2IiEEEEED0Ev@Base 2.2
 _ZN7Imf_2_214TypedAttributeIN9Imath_2_23BoxINS1_4Vec2IiEEEEED1Ev@Base 2.2
 _ZN7Imf_2_214TypedAttributeIN9Imath_2_23BoxINS1_4Vec2IiEEEEED2Ev@Base 2.2
 _ZN7Imf_2_214TypedAttributeIN9Imath_2_24Vec2IdEEE13copyValueFromERKNS_9AttributeE@Base 2.2
 _ZN7Imf_2_214TypedAttributeIN9Imath_2_24Vec2IdEEE13readValueFromERNS_7IStreamEii@Base 2.2
 _ZN7Imf_2_214TypedAttributeIN9Imath_2_24Vec2IdEEE14staticTypeNameEv@Base 2.2
 _ZN7Imf_2_214TypedAttributeIN9Imath_2_24Vec2IdEEE16makeNewAttributeEv@Base 2.2
 _ZN7Imf_2_214TypedAttributeIN9Imath_2_24Vec2IdEEED0Ev@Base 2.2
 _ZN7Imf_2_214TypedAttributeIN9Imath_2_24Vec2IdEEED1Ev@Base 2.2
 _ZN7Imf_2_214TypedAttributeIN9Imath_2_24Vec2IdEEED2Ev@Base 2.2
 _ZN7Imf_2_214TypedAttributeIN9Imath_2_24Vec2IfEEE13copyValueFromERKNS_9AttributeE@Base 2.2
 _ZN7Imf_2_214TypedAttributeIN9Imath_2_24Vec2IfEEE13readValueFromERNS_7IStreamEii@Base 2.2
 _ZN7Imf_2_214TypedAttributeIN9Imath_2_24Vec2IfEEE14staticTypeNameEv@Base 2.2
 _ZN7Imf_2_214TypedAttributeIN9Imath_2_24Vec2IfEEE16makeNewAttributeEv@Base 2.2
 _ZN7Imf_2_214TypedAttributeIN9Imath_2_24Vec2IfEEED0Ev@Base 2.2
 _ZN7Imf_2_214TypedAttributeIN9Imath_2_24Vec2IfEEED1Ev@Base 2.2
 _ZN7Imf_2_214TypedAttributeIN9Imath_2_24Vec2IfEEED2Ev@Base 2.2
 _ZN7Imf_2_214TypedAttributeIN9Imath_2_24Vec2IiEEE13copyValueFromERKNS_9AttributeE@Base 2.2
 _ZN7Imf_2_214TypedAttributeIN9Imath_2_24Vec2IiEEE13readValueFromERNS_7IStreamEii@Base 2.2
 _ZN7Imf_2_214TypedAttributeIN9Imath_2_24Vec2IiEEE14staticTypeNameEv@Base 2.2
 _ZN7Imf_2_214TypedAttributeIN9Imath_2_24Vec2IiEEE16makeNewAttributeEv@Base 2.2
 _ZN7Imf_2_214TypedAttributeIN9Imath_2_24Vec2IiEEED0Ev@Base 2.2
 _ZN7Imf_2_214TypedAttributeIN9Imath_2_24Vec2IiEEED1Ev@Base 2.2
 _ZN7Imf_2_214TypedAttributeIN9Imath_2_24Vec2IiEEED2Ev@Base 2.2
 _ZN7Imf_2_214TypedAttributeIN9Imath_2_24Vec3IdEEE13copyValueFromERKNS_9AttributeE@Base 2.2
 _ZN7Imf_2_214TypedAttributeIN9Imath_2_24Vec3IdEEE13readValueFromERNS_7IStreamEii@Base 2.2
 _ZN7Imf_2_214TypedAttributeIN9Imath_2_24Vec3IdEEE14staticTypeNameEv@Base 2.2
 _ZN7Imf_2_214TypedAttributeIN9Imath_2_24Vec3IdEEE16makeNewAttributeEv@Base 2.2
 _ZN7Imf_2_214TypedAttributeIN9Imath_2_24Vec3IdEEED0Ev@Base 2.2
 _ZN7Imf_2_214TypedAttributeIN9Imath_2_24Vec3IdEEED1Ev@Base 2.2
 _ZN7Imf_2_214TypedAttributeIN9Imath_2_24Vec3IdEEED2Ev@Base 2.2
 _ZN7Imf_2_214TypedAttributeIN9Imath_2_24Vec3IfEEE13copyValueFromERKNS_9AttributeE@Base 2.2
 _ZN7Imf_2_214TypedAttributeIN9Imath_2_24Vec3IfEEE13readValueFromERNS_7IStreamEii@Base 2.2
 _ZN7Imf_2_214TypedAttributeIN9Imath_2_24Vec3IfEEE14staticTypeNameEv@Base 2.2
 _ZN7Imf_2_214TypedAttributeIN9Imath_2_24Vec3IfEEE16makeNewAttributeEv@Base 2.2
 _ZN7Imf_2_214TypedAttributeIN9Imath_2_24Vec3IfEEED0Ev@Base 2.2
 _ZN7Imf_2_214TypedAttributeIN9Imath_2_24Vec3IfEEED1Ev@Base 2.2
 _ZN7Imf_2_214TypedAttributeIN9Imath_2_24Vec3IfEEED2Ev@Base 2.2
 _ZN7Imf_2_214TypedAttributeIN9Imath_2_24Vec3IiEEE13copyValueFromERKNS_9AttributeE@Base 2.2
 _ZN7Imf_2_214TypedAttributeIN9Imath_2_24Vec3IiEEE13readValueFromERNS_7IStreamEii@Base 2.2
 _ZN7Imf_2_214TypedAttributeIN9Imath_2_24Vec3IiEEE14staticTypeNameEv@Base 2.2
 _ZN7Imf_2_214TypedAttributeIN9Imath_2_24Vec3IiEEE16makeNewAttributeEv@Base 2.2
 _ZN7Imf_2_214TypedAttributeIN9Imath_2_24Vec3IiEEED0Ev@Base 2.2
 _ZN7Imf_2_214TypedAttributeIN9Imath_2_24Vec3IiEEED1Ev@Base 2.2
 _ZN7Imf_2_214TypedAttributeIN9Imath_2_24Vec3IiEEED2Ev@Base 2.2
 _ZN7Imf_2_214TypedAttributeIN9Imath_2_28Matrix33IdEEE13copyValueFromERKNS_9AttributeE@Base 2.2
 _ZN7Imf_2_214TypedAttributeIN9Imath_2_28Matrix33IdEEE13readValueFromERNS_7IStreamEii@Base 2.2
 _ZN7Imf_2_214TypedAttributeIN9Imath_2_28Matrix33IdEEE14staticTypeNameEv@Base 2.2
 _ZN7Imf_2_214TypedAttributeIN9Imath_2_28Matrix33IdEEE16makeNewAttributeEv@Base 2.2
 _ZN7Imf_2_214TypedAttributeIN9Imath_2_28Matrix33IdEEEC1Ev@Base 2.2.0
 _ZN7Imf_2_214TypedAttributeIN9Imath_2_28Matrix33IdEEEC2Ev@Base 2.2.0
 _ZN7Imf_2_214TypedAttributeIN9Imath_2_28Matrix33IdEEED0Ev@Base 2.2
 _ZN7Imf_2_214TypedAttributeIN9Imath_2_28Matrix33IdEEED1Ev@Base 2.2
 _ZN7Imf_2_214TypedAttributeIN9Imath_2_28Matrix33IdEEED2Ev@Base 2.2
 _ZN7Imf_2_214TypedAttributeIN9Imath_2_28Matrix33IfEEE13copyValueFromERKNS_9AttributeE@Base 2.2
 _ZN7Imf_2_214TypedAttributeIN9Imath_2_28Matrix33IfEEE13readValueFromERNS_7IStreamEii@Base 2.2
 _ZN7Imf_2_214TypedAttributeIN9Imath_2_28Matrix33IfEEE14staticTypeNameEv@Base 2.2
 _ZN7Imf_2_214TypedAttributeIN9Imath_2_28Matrix33IfEEE16makeNewAttributeEv@Base 2.2
 _ZN7Imf_2_214TypedAttributeIN9Imath_2_28Matrix33IfEEEC1Ev@Base 2.2
 _ZN7Imf_2_214TypedAttributeIN9Imath_2_28Matrix33IfEEEC2Ev@Base 2.2
 _ZN7Imf_2_214TypedAttributeIN9Imath_2_28Matrix33IfEEED0Ev@Base 2.2
 _ZN7Imf_2_214TypedAttributeIN9Imath_2_28Matrix33IfEEED1Ev@Base 2.2
 _ZN7Imf_2_214TypedAttributeIN9Imath_2_28Matrix33IfEEED2Ev@Base 2.2
 _ZN7Imf_2_214TypedAttributeIN9Imath_2_28Matrix44IdEEE13copyValueFromERKNS_9AttributeE@Base 2.2
 _ZN7Imf_2_214TypedAttributeIN9Imath_2_28Matrix44IdEEE13readValueFromERNS_7IStreamEii@Base 2.2
 _ZN7Imf_2_214TypedAttributeIN9Imath_2_28Matrix44IdEEE14staticTypeNameEv@Base 2.2
 _ZN7Imf_2_214TypedAttributeIN9Imath_2_28Matrix44IdEEE16makeNewAttributeEv@Base 2.2
 _ZN7Imf_2_214TypedAttributeIN9Imath_2_28Matrix44IdEEEC1Ev@Base 2.2.0
 _ZN7Imf_2_214TypedAttributeIN9Imath_2_28Matrix44IdEEEC2Ev@Base 2.2.0
 _ZN7Imf_2_214TypedAttributeIN9Imath_2_28Matrix44IdEEED0Ev@Base 2.2
 _ZN7Imf_2_214TypedAttributeIN9Imath_2_28Matrix44IdEEED1Ev@Base 2.2
 _ZN7Imf_2_214TypedAttributeIN9Imath_2_28Matrix44IdEEED2Ev@Base 2.2
 _ZN7Imf_2_214TypedAttributeIN9Imath_2_28Matrix44IfEEE13copyValueFromERKNS_9AttributeE@Base 2.2
 _ZN7Imf_2_214TypedAttributeIN9Imath_2_28Matrix44IfEEE13readValueFromERNS_7IStreamEii@Base 2.2
 _ZN7Imf_2_214TypedAttributeIN9Imath_2_28Matrix44IfEEE14staticTypeNameEv@Base 2.2
 _ZN7Imf_2_214TypedAttributeIN9Imath_2_28Matrix44IfEEE16makeNewAttributeEv@Base 2.2
 _ZN7Imf_2_214TypedAttributeIN9Imath_2_28Matrix44IfEEEC1ERKS3_@Base 2.2.0
 _ZN7Imf_2_214TypedAttributeIN9Imath_2_28Matrix44IfEEEC1Ev@Base 2.2
 _ZN7Imf_2_214TypedAttributeIN9Imath_2_28Matrix44IfEEEC2ERKS3_@Base 2.2.0
 _ZN7Imf_2_214TypedAttributeIN9Imath_2_28Matrix44IfEEEC2Ev@Base 2.2
 _ZN7Imf_2_214TypedAttributeIN9Imath_2_28Matrix44IfEEED0Ev@Base 2.2
 _ZN7Imf_2_214TypedAttributeIN9Imath_2_28Matrix44IfEEED1Ev@Base 2.2
 _ZN7Imf_2_214TypedAttributeIN9Imath_2_28Matrix44IfEEED2Ev@Base 2.2
 _ZN7Imf_2_214TypedAttributeINS_11ChannelListEE13copyValueFromERKNS_9AttributeE@Base 2.2
 _ZN7Imf_2_214TypedAttributeINS_11ChannelListEE13readValueFromERNS_7IStreamEii@Base 2.2
 _ZN7Imf_2_214TypedAttributeINS_11ChannelListEE14staticTypeNameEv@Base 2.2
 _ZN7Imf_2_214TypedAttributeINS_11ChannelListEE16makeNewAttributeEv@Base 2.2
 _ZN7Imf_2_214TypedAttributeINS_11ChannelListEED0Ev@Base 2.2
 _ZN7Imf_2_214TypedAttributeINS_11ChannelListEED1Ev@Base 2.2
 _ZN7Imf_2_214TypedAttributeINS_11ChannelListEED2Ev@Base 2.2
 _ZN7Imf_2_214TypedAttributeINS_11CompressionEE13copyValueFromERKNS_9AttributeE@Base 2.2
 _ZN7Imf_2_214TypedAttributeINS_11CompressionEE13readValueFromERNS_7IStreamEii@Base 2.2
 _ZN7Imf_2_214TypedAttributeINS_11CompressionEE14staticTypeNameEv@Base 2.2
 _ZN7Imf_2_214TypedAttributeINS_11CompressionEE16makeNewAttributeEv@Base 2.2
 _ZN7Imf_2_214TypedAttributeINS_11CompressionEED0Ev@Base 2.2
 _ZN7Imf_2_214TypedAttributeINS_11CompressionEED1Ev@Base 2.2
 _ZN7Imf_2_214TypedAttributeINS_11CompressionEED2Ev@Base 2.2
 _ZN7Imf_2_214TypedAttributeINS_12PreviewImageEE13copyValueFromERKNS_9AttributeE@Base 2.2
 _ZN7Imf_2_214TypedAttributeINS_12PreviewImageEE13readValueFromERNS_7IStreamEii@Base 2.2
 _ZN7Imf_2_214TypedAttributeINS_12PreviewImageEE14staticTypeNameEv@Base 2.2
 _ZN7Imf_2_214TypedAttributeINS_12PreviewImageEE16makeNewAttributeEv@Base 2.2
 _ZN7Imf_2_214TypedAttributeINS_12PreviewImageEEC1Ev@Base 2.2
 _ZN7Imf_2_214TypedAttributeINS_12PreviewImageEEC2Ev@Base 2.2
 _ZN7Imf_2_214TypedAttributeINS_12PreviewImageEED0Ev@Base 2.2
 _ZN7Imf_2_214TypedAttributeINS_12PreviewImageEED1Ev@Base 2.2
 _ZN7Imf_2_214TypedAttributeINS_12PreviewImageEED2Ev@Base 2.2
 _ZN7Imf_2_214TypedAttributeINS_14ChromaticitiesEE13copyValueFromERKNS_9AttributeE@Base 2.2
 _ZN7Imf_2_214TypedAttributeINS_14ChromaticitiesEE13readValueFromERNS_7IStreamEii@Base 2.2
 _ZN7Imf_2_214TypedAttributeINS_14ChromaticitiesEE14staticTypeNameEv@Base 2.2
 _ZN7Imf_2_214TypedAttributeINS_14ChromaticitiesEE16makeNewAttributeEv@Base 2.2
 _ZN7Imf_2_214TypedAttributeINS_14ChromaticitiesEEC1Ev@Base 2.2
 _ZN7Imf_2_214TypedAttributeINS_14ChromaticitiesEEC2Ev@Base 2.2
 _ZN7Imf_2_214TypedAttributeINS_14ChromaticitiesEED0Ev@Base 2.2
 _ZN7Imf_2_214TypedAttributeINS_14ChromaticitiesEED1Ev@Base 2.2
 _ZN7Imf_2_214TypedAttributeINS_14ChromaticitiesEED2Ev@Base 2.2
 _ZN7Imf_2_214TypedAttributeINS_14DeepImageStateEE13copyValueFromERKNS_9AttributeE@Base 2.2
 _ZN7Imf_2_214TypedAttributeINS_14DeepImageStateEE13readValueFromERNS_7IStreamEii@Base 2.2
 _ZN7Imf_2_214TypedAttributeINS_14DeepImageStateEE14staticTypeNameEv@Base 2.2
 _ZN7Imf_2_214TypedAttributeINS_14DeepImageStateEE16makeNewAttributeEv@Base 2.2
 _ZN7Imf_2_214TypedAttributeINS_14DeepImageStateEED0Ev@Base 2.2
 _ZN7Imf_2_214TypedAttributeINS_14DeepImageStateEED1Ev@Base 2.2
 _ZN7Imf_2_214TypedAttributeINS_14DeepImageStateEED2Ev@Base 2.2
 _ZN7Imf_2_214TypedAttributeINS_15TileDescriptionEE13copyValueFromERKNS_9AttributeE@Base 2.2
 _ZN7Imf_2_214TypedAttributeINS_15TileDescriptionEE13readValueFromERNS_7IStreamEii@Base 2.2
 _ZN7Imf_2_214TypedAttributeINS_15TileDescriptionEE14staticTypeNameEv@Base 2.2
 _ZN7Imf_2_214TypedAttributeINS_15TileDescriptionEE16makeNewAttributeEv@Base 2.2
 _ZN7Imf_2_214TypedAttributeINS_15TileDescriptionEED0Ev@Base 2.2
 _ZN7Imf_2_214TypedAttributeINS_15TileDescriptionEED1Ev@Base 2.2
 _ZN7Imf_2_214TypedAttributeINS_15TileDescriptionEED2Ev@Base 2.2
 _ZN7Imf_2_214TypedAttributeINS_6EnvmapEE13copyValueFromERKNS_9AttributeE@Base 2.2
 _ZN7Imf_2_214TypedAttributeINS_6EnvmapEE13readValueFromERNS_7IStreamEii@Base 2.2
 _ZN7Imf_2_214TypedAttributeINS_6EnvmapEE14staticTypeNameEv@Base 2.2
 _ZN7Imf_2_214TypedAttributeINS_6EnvmapEE16makeNewAttributeEv@Base 2.2
 _ZN7Imf_2_214TypedAttributeINS_6EnvmapEED0Ev@Base 2.2
 _ZN7Imf_2_214TypedAttributeINS_6EnvmapEED1Ev@Base 2.2
 _ZN7Imf_2_214TypedAttributeINS_6EnvmapEED2Ev@Base 2.2
 _ZN7Imf_2_214TypedAttributeINS_7KeyCodeEE13copyValueFromERKNS_9AttributeE@Base 2.2
 _ZN7Imf_2_214TypedAttributeINS_7KeyCodeEE13readValueFromERNS_7IStreamEii@Base 2.2
 _ZN7Imf_2_214TypedAttributeINS_7KeyCodeEE14staticTypeNameEv@Base 2.2
 _ZN7Imf_2_214TypedAttributeINS_7KeyCodeEE16makeNewAttributeEv@Base 2.2
 _ZN7Imf_2_214TypedAttributeINS_7KeyCodeEEC1Ev@Base 2.2
 _ZN7Imf_2_214TypedAttributeINS_7KeyCodeEEC2Ev@Base 2.2
 _ZN7Imf_2_214TypedAttributeINS_7KeyCodeEED0Ev@Base 2.2
 _ZN7Imf_2_214TypedAttributeINS_7KeyCodeEED1Ev@Base 2.2
 _ZN7Imf_2_214TypedAttributeINS_7KeyCodeEED2Ev@Base 2.2
 _ZN7Imf_2_214TypedAttributeINS_8RationalEE13copyValueFromERKNS_9AttributeE@Base 2.2
 _ZN7Imf_2_214TypedAttributeINS_8RationalEE13readValueFromERNS_7IStreamEii@Base 2.2
 _ZN7Imf_2_214TypedAttributeINS_8RationalEE14staticTypeNameEv@Base 2.2
 _ZN7Imf_2_214TypedAttributeINS_8RationalEE16makeNewAttributeEv@Base 2.2
 _ZN7Imf_2_214TypedAttributeINS_8RationalEED0Ev@Base 2.2
 _ZN7Imf_2_214TypedAttributeINS_8RationalEED1Ev@Base 2.2
 _ZN7Imf_2_214TypedAttributeINS_8RationalEED2Ev@Base 2.2
 _ZN7Imf_2_214TypedAttributeINS_8TimeCodeEE13copyValueFromERKNS_9AttributeE@Base 2.2
 _ZN7Imf_2_214TypedAttributeINS_8TimeCodeEE13readValueFromERNS_7IStreamEii@Base 2.2
 _ZN7Imf_2_214TypedAttributeINS_8TimeCodeEE14staticTypeNameEv@Base 2.2
 _ZN7Imf_2_214TypedAttributeINS_8TimeCodeEE16makeNewAttributeEv@Base 2.2
 _ZN7Imf_2_214TypedAttributeINS_8TimeCodeEEC1Ev@Base 2.2
 _ZN7Imf_2_214TypedAttributeINS_8TimeCodeEEC2Ev@Base 2.2
 _ZN7Imf_2_214TypedAttributeINS_8TimeCodeEED0Ev@Base 2.2
 _ZN7Imf_2_214TypedAttributeINS_8TimeCodeEED1Ev@Base 2.2
 _ZN7Imf_2_214TypedAttributeINS_8TimeCodeEED2Ev@Base 2.2
 _ZN7Imf_2_214TypedAttributeINS_9LineOrderEE13copyValueFromERKNS_9AttributeE@Base 2.2
 _ZN7Imf_2_214TypedAttributeINS_9LineOrderEE13readValueFromERNS_7IStreamEii@Base 2.2
 _ZN7Imf_2_214TypedAttributeINS_9LineOrderEE14staticTypeNameEv@Base 2.2
 _ZN7Imf_2_214TypedAttributeINS_9LineOrderEE16makeNewAttributeEv@Base 2.2
 _ZN7Imf_2_214TypedAttributeINS_9LineOrderEED0Ev@Base 2.2
 _ZN7Imf_2_214TypedAttributeINS_9LineOrderEED1Ev@Base 2.2
 _ZN7Imf_2_214TypedAttributeINS_9LineOrderEED2Ev@Base 2.2
 _ZN7Imf_2_214TypedAttributeINSt7__cxx1112basic_stringIcSt11char_traitsIcESaIcEEEE13copyValueFromERKNS_9AttributeE@Base 2.2.0
 _ZN7Imf_2_214TypedAttributeINSt7__cxx1112basic_stringIcSt11char_traitsIcESaIcEEEE13readValueFromERNS_7IStreamEii@Base 2.2.0
 _ZN7Imf_2_214TypedAttributeINSt7__cxx1112basic_stringIcSt11char_traitsIcESaIcEEEE14staticTypeNameEv@Base 2.2.0
 _ZN7Imf_2_214TypedAttributeINSt7__cxx1112basic_stringIcSt11char_traitsIcESaIcEEEE16makeNewAttributeEv@Base 2.2.0
 _ZN7Imf_2_214TypedAttributeINSt7__cxx1112basic_stringIcSt11char_traitsIcESaIcEEEEC1ERKS6_@Base 2.2.0
 _ZN7Imf_2_214TypedAttributeINSt7__cxx1112basic_stringIcSt11char_traitsIcESaIcEEEEC2ERKS6_@Base 2.2.0
 _ZN7Imf_2_214TypedAttributeINSt7__cxx1112basic_stringIcSt11char_traitsIcESaIcEEEED0Ev@Base 2.2.0
 _ZN7Imf_2_214TypedAttributeINSt7__cxx1112basic_stringIcSt11char_traitsIcESaIcEEEED1Ev@Base 2.2.0
 _ZN7Imf_2_214TypedAttributeINSt7__cxx1112basic_stringIcSt11char_traitsIcESaIcEEEED2Ev@Base 2.2.0
 _ZN7Imf_2_214TypedAttributeISt6vectorINSt7__cxx1112basic_stringIcSt11char_traitsIcESaIcEEESaIS7_EEE13copyValueFromERKNS_9AttributeE@Base 2.2.0
 _ZN7Imf_2_214TypedAttributeISt6vectorINSt7__cxx1112basic_stringIcSt11char_traitsIcESaIcEEESaIS7_EEE13readValueFromERNS_7IStreamEii@Base 2.2.0
 _ZN7Imf_2_214TypedAttributeISt6vectorINSt7__cxx1112basic_stringIcSt11char_traitsIcESaIcEEESaIS7_EEE14staticTypeNameEv@Base 2.2.0
 _ZN7Imf_2_214TypedAttributeISt6vectorINSt7__cxx1112basic_stringIcSt11char_traitsIcESaIcEEESaIS7_EEE16makeNewAttributeEv@Base 2.2.0
 _ZN7Imf_2_214TypedAttributeISt6vectorINSt7__cxx1112basic_stringIcSt11char_traitsIcESaIcEEESaIS7_EEEC1ERKS9_@Base 2.2.0
 _ZN7Imf_2_214TypedAttributeISt6vectorINSt7__cxx1112basic_stringIcSt11char_traitsIcESaIcEEESaIS7_EEEC2ERKS9_@Base 2.2.0
 _ZN7Imf_2_214TypedAttributeISt6vectorINSt7__cxx1112basic_stringIcSt11char_traitsIcESaIcEEESaIS7_EEED0Ev@Base 2.2.0
 _ZN7Imf_2_214TypedAttributeISt6vectorINSt7__cxx1112basic_stringIcSt11char_traitsIcESaIcEEESaIS7_EEED1Ev@Base 2.2.0
 _ZN7Imf_2_214TypedAttributeISt6vectorINSt7__cxx1112basic_stringIcSt11char_traitsIcESaIcEEESaIS7_EEED2Ev@Base 2.2.0
 _ZN7Imf_2_214TypedAttributeISt6vectorIfSaIfEEE13copyValueFromERKNS_9AttributeE@Base 2.2
 _ZN7Imf_2_214TypedAttributeISt6vectorIfSaIfEEE13readValueFromERNS_7IStreamEii@Base 2.2
 _ZN7Imf_2_214TypedAttributeISt6vectorIfSaIfEEE14staticTypeNameEv@Base 2.2
 _ZN7Imf_2_214TypedAttributeISt6vectorIfSaIfEEE16makeNewAttributeEv@Base 2.2
 _ZN7Imf_2_214TypedAttributeISt6vectorIfSaIfEEED0Ev@Base 2.2
 _ZN7Imf_2_214TypedAttributeISt6vectorIfSaIfEEED1Ev@Base 2.2
 _ZN7Imf_2_214TypedAttributeISt6vectorIfSaIfEEED2Ev@Base 2.2
 _ZN7Imf_2_214TypedAttributeIdE13copyValueFromERKNS_9AttributeE@Base 2.2
 _ZN7Imf_2_214TypedAttributeIdE13readValueFromERNS_7IStreamEii@Base 2.2
 _ZN7Imf_2_214TypedAttributeIdE14staticTypeNameEv@Base 2.2
 _ZN7Imf_2_214TypedAttributeIdE16makeNewAttributeEv@Base 2.2
 _ZN7Imf_2_214TypedAttributeIdED0Ev@Base 2.2
 _ZN7Imf_2_214TypedAttributeIdED1Ev@Base 2.2
 _ZN7Imf_2_214TypedAttributeIdED2Ev@Base 2.2
 _ZN7Imf_2_214TypedAttributeIfE13copyValueFromERKNS_9AttributeE@Base 2.2
 _ZN7Imf_2_214TypedAttributeIfE13readValueFromERNS_7IStreamEii@Base 2.2
 _ZN7Imf_2_214TypedAttributeIfE14staticTypeNameEv@Base 2.2
 _ZN7Imf_2_214TypedAttributeIfE16makeNewAttributeEv@Base 2.2
 _ZN7Imf_2_214TypedAttributeIfED0Ev@Base 2.2
 _ZN7Imf_2_214TypedAttributeIfED1Ev@Base 2.2
 _ZN7Imf_2_214TypedAttributeIfED2Ev@Base 2.2
 _ZN7Imf_2_214TypedAttributeIiE13copyValueFromERKNS_9AttributeE@Base 2.2
 _ZN7Imf_2_214TypedAttributeIiE13readValueFromERNS_7IStreamEii@Base 2.2
 _ZN7Imf_2_214TypedAttributeIiE14staticTypeNameEv@Base 2.2
 _ZN7Imf_2_214TypedAttributeIiE16makeNewAttributeEv@Base 2.2
 _ZN7Imf_2_214TypedAttributeIiED0Ev@Base 2.2
 _ZN7Imf_2_214TypedAttributeIiED1Ev@Base 2.2
 _ZN7Imf_2_214TypedAttributeIiED2Ev@Base 2.2
 _ZN7Imf_2_214adoptedNeutralERKNS_6HeaderE@Base 2.2
 _ZN7Imf_2_214adoptedNeutralERNS_6HeaderE@Base 2.2
 _ZN7Imf_2_214channelsInViewERKNSt7__cxx1112basic_stringIcSt11char_traitsIcESaIcEEERKNS_11ChannelListERKSt6vectorIS5_SaIS5_EE@Base 2.2.0
 _ZN7Imf_2_214chromaticitiesERKNS_6HeaderE@Base 2.2
 _ZN7Imf_2_214chromaticitiesERNS_6HeaderE@Base 2.2
 _ZN7Imf_2_214convertInPlaceERPcRPKcNS_9PixelTypeEm@Base 2.2.0
 _ZN7Imf_2_214deepImageStateERKNS_6HeaderE@Base 2.2
 _ZN7Imf_2_214deepImageStateERNS_6HeaderE@Base 2.2
 _ZN7Imf_2_214focusAttributeERKNS_6HeaderE@Base 2.2
 _ZN7Imf_2_214focusAttributeERNS_6HeaderE@Base 2.2
 _ZN7Imf_2_214insertViewNameERKNSt7__cxx1112basic_stringIcSt11char_traitsIcESaIcEEERKSt6vectorIS5_SaIS5_EEi@Base 2.2.0
 _ZN7Imf_2_214lineBufferMaxYEiii@Base 2.2
 _ZN7Imf_2_214lineBufferMinYEiii@Base 2.2
 _ZN7Imf_2_214ownerAttributeB5cxx11ERKNS_6HeaderE@Base 2.2.0
 _ZN7Imf_2_214ownerAttributeB5cxx11ERNS_6HeaderE@Base 2.2.0
 _ZN7Imf_2_214removeViewNameERKNSt7__cxx1112basic_stringIcSt11char_traitsIcESaIcEEES7_@Base 2.2.0
 _ZN7Imf_2_214whiteLuminanceERKNS_6HeaderE@Base 2.2
 _ZN7Imf_2_214whiteLuminanceERNS_6HeaderE@Base 2.2
 _ZN7Imf_2_215DeepCompositing15composite_pixelEPfPPKfPPKciii@Base 2.2
 _ZN7Imf_2_215DeepCompositing4sortEPiPPKfPPKciii@Base 2.2
 _ZN7Imf_2_215DeepCompositingC1Ev@Base 2.2
 _ZN7Imf_2_215DeepCompositingC2Ev@Base 2.2
 _ZN7Imf_2_215DeepCompositingD0Ev@Base 2.2
 _ZN7Imf_2_215DeepCompositingD1Ev@Base 2.2
 _ZN7Imf_2_215DeepCompositingD2Ev@Base 2.2
 _ZN7Imf_2_215DeepFrameBuffer22insertSampleCountSliceERKNS_5SliceE@Base 2.2
 _ZN7Imf_2_215DeepFrameBuffer3endEv@Base 2.2
 _ZN7Imf_2_215DeepFrameBuffer4findEPKc@Base 2.2
 _ZN7Imf_2_215DeepFrameBuffer4findERKNSt7__cxx1112basic_stringIcSt11char_traitsIcESaIcEEE@Base 2.2.0
 _ZN7Imf_2_215DeepFrameBuffer5beginEv@Base 2.2
 _ZN7Imf_2_215DeepFrameBuffer6insertEPKcRKNS_9DeepSliceE@Base 2.2
 _ZN7Imf_2_215DeepFrameBuffer6insertERKNSt7__cxx1112basic_stringIcSt11char_traitsIcESaIcEEERKNS_9DeepSliceE@Base 2.2.0
 _ZN7Imf_2_215DeepFrameBuffer9findSliceEPKc@Base 2.2
 _ZN7Imf_2_215DeepFrameBuffer9findSliceERKNSt7__cxx1112basic_stringIcSt11char_traitsIcESaIcEEE@Base 2.2.0
 _ZN7Imf_2_215DeepFrameBufferixEPKc@Base 2.2
 _ZN7Imf_2_215DeepFrameBufferixERKNSt7__cxx1112basic_stringIcSt11char_traitsIcESaIcEEE@Base 2.2.0
 _ZN7Imf_2_215OpaqueAttribute13copyValueFromERKNS_9AttributeE@Base 2.2
 _ZN7Imf_2_215OpaqueAttribute13readValueFromERNS_7IStreamEii@Base 2.2
 _ZN7Imf_2_215OpaqueAttributeC1EPKc@Base 2.2
 _ZN7Imf_2_215OpaqueAttributeC1ERKS0_@Base 2.2
 _ZN7Imf_2_215OpaqueAttributeC2EPKc@Base 2.2
 _ZN7Imf_2_215OpaqueAttributeC2ERKS0_@Base 2.2
 _ZN7Imf_2_215OpaqueAttributeD0Ev@Base 2.2
 _ZN7Imf_2_215OpaqueAttributeD1Ev@Base 2.2
 _ZN7Imf_2_215OpaqueAttributeD2Ev@Base 2.2
 _ZN7Imf_2_215Pxr24Compressor10uncompressEPKciN9Imath_2_23BoxINS3_4Vec2IiEEEERS2_@Base 2.2
 _ZN7Imf_2_215Pxr24Compressor10uncompressEPKciiRS2_@Base 2.2
 _ZN7Imf_2_215Pxr24Compressor12compressTileEPKciN9Imath_2_23BoxINS3_4Vec2IiEEEERS2_@Base 2.2
 _ZN7Imf_2_215Pxr24Compressor14uncompressTileEPKciN9Imath_2_23BoxINS3_4Vec2IiEEEERS2_@Base 2.2
 _ZN7Imf_2_215Pxr24Compressor8compressEPKciN9Imath_2_23BoxINS3_4Vec2IiEEEERS2_@Base 2.2
 _ZN7Imf_2_215Pxr24Compressor8compressEPKciiRS2_@Base 2.2
 _ZN7Imf_2_215Pxr24CompressorC1ERKNS_6HeaderEmm@Base 2.2.0
 _ZN7Imf_2_215Pxr24CompressorC2ERKNS_6HeaderEmm@Base 2.2.0
 _ZN7Imf_2_215Pxr24CompressorD0Ev@Base 2.2
 _ZN7Imf_2_215Pxr24CompressorD1Ev@Base 2.2
 _ZN7Imf_2_215Pxr24CompressorD2Ev@Base 2.2
 _ZN7Imf_2_215TiledOutputFile10copyPixelsERNS_14TiledInputFileE@Base 2.2
 _ZN7Imf_2_215TiledOutputFile10copyPixelsERNS_14TiledInputPartE@Base 2.2
 _ZN7Imf_2_215TiledOutputFile10copyPixelsERNS_9InputFileE@Base 2.2
 _ZN7Imf_2_215TiledOutputFile10copyPixelsERNS_9InputPartE@Base 2.2
 _ZN7Imf_2_215TiledOutputFile10initializeERKNS_6HeaderE@Base 2.2
 _ZN7Imf_2_215TiledOutputFile10writeTilesEiiiii@Base 2.2
 _ZN7Imf_2_215TiledOutputFile10writeTilesEiiiiii@Base 2.2
 _ZN7Imf_2_215TiledOutputFile14setFrameBufferERKNS_11FrameBufferE@Base 2.2
 _ZN7Imf_2_215TiledOutputFile18updatePreviewImageEPKNS_11PreviewRgbaE@Base 2.2
 _ZN7Imf_2_215TiledOutputFile4DataC1Ei@Base 2.2
 _ZN7Imf_2_215TiledOutputFile4DataC2Ei@Base 2.2
 _ZN7Imf_2_215TiledOutputFile4DataD1Ev@Base 2.2
 _ZN7Imf_2_215TiledOutputFile4DataD2Ev@Base 2.2
 _ZN7Imf_2_215TiledOutputFile9breakTileEiiiiiic@Base 2.2
 _ZN7Imf_2_215TiledOutputFile9writeTileEiii@Base 2.2
 _ZN7Imf_2_215TiledOutputFile9writeTileEiiii@Base 2.2
 _ZN7Imf_2_215TiledOutputFileC1EPKNS_14OutputPartDataE@Base 2.2
 _ZN7Imf_2_215TiledOutputFileC1EPKcRKNS_6HeaderEi@Base 2.2
 _ZN7Imf_2_215TiledOutputFileC1ERNS_7OStreamERKNS_6HeaderEi@Base 2.2
 _ZN7Imf_2_215TiledOutputFileC2EPKNS_14OutputPartDataE@Base 2.2
 _ZN7Imf_2_215TiledOutputFileC2EPKcRKNS_6HeaderEi@Base 2.2
 _ZN7Imf_2_215TiledOutputFileC2ERNS_7OStreamERKNS_6HeaderEi@Base 2.2
 _ZN7Imf_2_215TiledOutputFileD0Ev@Base 2.2
 _ZN7Imf_2_215TiledOutputFileD1Ev@Base 2.2
 _ZN7Imf_2_215TiledOutputFileD2Ev@Base 2.2
 _ZN7Imf_2_215TiledOutputPart10copyPixelsERNS_14TiledInputFileE@Base 2.2
 _ZN7Imf_2_215TiledOutputPart10copyPixelsERNS_14TiledInputPartE@Base 2.2
 _ZN7Imf_2_215TiledOutputPart10copyPixelsERNS_9InputFileE@Base 2.2
 _ZN7Imf_2_215TiledOutputPart10copyPixelsERNS_9InputPartE@Base 2.2
 _ZN7Imf_2_215TiledOutputPart10writeTilesEiiiii@Base 2.2
 _ZN7Imf_2_215TiledOutputPart10writeTilesEiiiiii@Base 2.2
 _ZN7Imf_2_215TiledOutputPart14setFrameBufferERKNS_11FrameBufferE@Base 2.2
 _ZN7Imf_2_215TiledOutputPart18updatePreviewImageEPKNS_11PreviewRgbaE@Base 2.2
 _ZN7Imf_2_215TiledOutputPart9breakTileEiiiiiic@Base 2.2
 _ZN7Imf_2_215TiledOutputPart9writeTileEiii@Base 2.2
 _ZN7Imf_2_215TiledOutputPart9writeTileEiiii@Base 2.2
 _ZN7Imf_2_215TiledOutputPartC1ERNS_19MultiPartOutputFileEi@Base 2.2
 _ZN7Imf_2_215TiledOutputPartC2ERNS_19MultiPartOutputFileEi@Base 2.2
 _ZN7Imf_2_215areCounterpartsERKNSt7__cxx1112basic_stringIcSt11char_traitsIcESaIcEEES7_RKSt6vectorIS5_SaIS5_EE@Base 2.2.0
 _ZN7Imf_2_215defaultViewNameERKSt6vectorINSt7__cxx1112basic_stringIcSt11char_traitsIcESaIcEEESaIS6_EE@Base 2.2.0
 _ZN7Imf_2_215envmapAttributeERKNS_6HeaderE@Base 2.2
 _ZN7Imf_2_215envmapAttributeERNS_6HeaderE@Base 2.2
 _ZN7Imf_2_215framesPerSecondERKNS_6HeaderE@Base 2.2
 _ZN7Imf_2_215framesPerSecondERNS_6HeaderE@Base 2.2
 _ZN7Imf_2_215isSupportedTypeERKNSt7__cxx1112basic_stringIcSt11char_traitsIcESaIcEEE@Base 2.2.0
 _ZN7Imf_2_216GenericInputFile30readMagicNumberAndVersionFieldERNS_7IStreamERi@Base 2.2
 _ZN7Imf_2_216GenericInputFileD0Ev@Base 2.2
 _ZN7Imf_2_216GenericInputFileD1Ev@Base 2.2
 _ZN7Imf_2_216GenericInputFileD2Ev@Base 2.2
 _ZN7Imf_2_216InputStreamMutexD0Ev@Base 2.2
 _ZN7Imf_2_216InputStreamMutexD1Ev@Base 2.2
 _ZN7Imf_2_216InputStreamMutexD2Ev@Base 2.2
 _ZN7Imf_2_216addWorldToCameraERNS_6HeaderERKN9Imath_2_28Matrix44IfEE@Base 2.2
 _ZN7Imf_2_216capDateAttributeB5cxx11ERKNS_6HeaderE@Base 2.2.0
 _ZN7Imf_2_216capDateAttributeB5cxx11ERNS_6HeaderE@Base 2.2.0
 _ZN7Imf_2_216channelsInNoViewERKNS_11ChannelListERKSt6vectorINSt7__cxx1112basic_stringIcSt11char_traitsIcESaIcEEESaIS9_EE@Base 2.2.0
 _ZN7Imf_2_216expTimeAttributeERKNS_6HeaderE@Base 2.2
 _ZN7Imf_2_216expTimeAttributeERNS_6HeaderE@Base 2.2
 _ZN7Imf_2_216hasWorldToCameraERKNS_6HeaderE@Base 2.2
 _ZN7Imf_2_216keyCodeAttributeERKNS_6HeaderE@Base 2.2
 _ZN7Imf_2_216keyCodeAttributeERNS_6HeaderE@Base 2.2
 _ZN7Imf_2_216lookModTransformB5cxx11ERKNS_6HeaderE@Base 2.2.0
 _ZN7Imf_2_216lookModTransformB5cxx11ERNS_6HeaderE@Base 2.2.0
 _ZN7Imf_2_216numLinesInBufferEPNS_10CompressorE@Base 2.2
 _ZN7Imf_2_216staticInitializeEv@Base 2.2
 _ZN7Imf_2_217GenericOutputFile31writeMagicNumberAndVersionFieldERNS_7OStreamEPKNS_6HeaderEi@Base 2.2
 _ZN7Imf_2_217GenericOutputFile31writeMagicNumberAndVersionFieldERNS_7OStreamERKNS_6HeaderE@Base 2.2
 _ZN7Imf_2_217GenericOutputFileD0Ev@Base 2.2
 _ZN7Imf_2_217GenericOutputFileD1Ev@Base 2.2
 _ZN7Imf_2_217GenericOutputFileD2Ev@Base 2.2
 _ZN7Imf_2_217OutputStreamMutexD0Ev@Base 2.2
 _ZN7Imf_2_217OutputStreamMutexD1Ev@Base 2.2
 _ZN7Imf_2_217OutputStreamMutexD2Ev@Base 2.2
 _ZN7Imf_2_217ScanLineInputFile10initializeERKNS_6HeaderE@Base 2.2
 _ZN7Imf_2_217ScanLineInputFile10readPixelsEi@Base 2.2
 _ZN7Imf_2_217ScanLineInputFile10readPixelsEii@Base 2.2
 _ZN7Imf_2_217ScanLineInputFile12rawPixelDataEiRPKcRi@Base 2.2
 _ZN7Imf_2_217ScanLineInputFile14setFrameBufferERKNS_11FrameBufferE@Base 2.2
 _ZN7Imf_2_217ScanLineInputFile4DataC1Ei@Base 2.2
 _ZN7Imf_2_217ScanLineInputFile4DataC2Ei@Base 2.2
 _ZN7Imf_2_217ScanLineInputFile4DataD0Ev@Base 2.2
 _ZN7Imf_2_217ScanLineInputFile4DataD1Ev@Base 2.2
 _ZN7Imf_2_217ScanLineInputFile4DataD2Ev@Base 2.2
 _ZN7Imf_2_217ScanLineInputFileC1EPNS_13InputPartDataE@Base 2.2
 _ZN7Imf_2_217ScanLineInputFileC1ERKNS_6HeaderEPNS_7IStreamEi@Base 2.2
 _ZN7Imf_2_217ScanLineInputFileC2EPNS_13InputPartDataE@Base 2.2
 _ZN7Imf_2_217ScanLineInputFileC2ERKNS_6HeaderEPNS_7IStreamEi@Base 2.2
 _ZN7Imf_2_217ScanLineInputFileD0Ev@Base 2.2
 _ZN7Imf_2_217ScanLineInputFileD1Ev@Base 2.2
 _ZN7Imf_2_217ScanLineInputFileD2Ev@Base 2.2
 _ZN7Imf_2_217addAdoptedNeutralERNS_6HeaderERKN9Imath_2_24Vec2IfEE@Base 2.2
 _ZN7Imf_2_217addChromaticitiesERNS_6HeaderERKNS_14ChromaticitiesE@Base 2.2
 _ZN7Imf_2_217addDeepImageStateERNS_6HeaderERKNS_14DeepImageStateE@Base 2.2
 _ZN7Imf_2_217addWhiteLuminanceERNS_6HeaderERKf@Base 2.2
 _ZN7Imf_2_217altitudeAttributeERKNS_6HeaderE@Base 2.2
 _ZN7Imf_2_217altitudeAttributeERNS_6HeaderE@Base 2.2
 _ZN7Imf_2_217apertureAttributeERKNS_6HeaderE@Base 2.2
 _ZN7Imf_2_217apertureAttributeERNS_6HeaderE@Base 2.2
 _ZN7Imf_2_217bytesPerLineTableERKNS_6HeaderERSt6vectorImSaImEE@Base 2.2.0
 _ZN7Imf_2_217channelInAllViewsERKNSt7__cxx1112basic_stringIcSt11char_traitsIcESaIcEEERKNS_11ChannelListERKSt6vectorIS5_SaIS5_EE@Base 2.2.0
 _ZN7Imf_2_217commentsAttributeB5cxx11ERKNS_6HeaderE@Base 2.2.0
 _ZN7Imf_2_217commentsAttributeB5cxx11ERNS_6HeaderE@Base 2.2.0
 _ZN7Imf_2_217dataWindowForTileERKNS_15TileDescriptionEiiiiiiii@Base 2.2
 _ZN7Imf_2_217globalThreadCountEv@Base 2.2
 _ZN7Imf_2_217hasAdoptedNeutralERKNS_6HeaderE@Base 2.2
 _ZN7Imf_2_217hasChromaticitiesERKNS_6HeaderE@Base 2.2
 _ZN7Imf_2_217hasDeepImageStateERKNS_6HeaderE@Base 2.2
 _ZN7Imf_2_217hasWhiteLuminanceERKNS_6HeaderE@Base 2.2
 _ZN7Imf_2_217isDeepOpenExrFileEPKc@Base 2.2
 _ZN7Imf_2_217isDeepOpenExrFileERNS_7IStreamE@Base 2.2
 _ZN7Imf_2_217isoSpeedAttributeERKNS_6HeaderE@Base 2.2
 _ZN7Imf_2_217isoSpeedAttributeERNS_6HeaderE@Base 2.2
 _ZN7Imf_2_217latitudeAttributeERKNS_6HeaderE@Base 2.2
 _ZN7Imf_2_217latitudeAttributeERNS_6HeaderE@Base 2.2
 _ZN7Imf_2_217newTileCompressorENS_11CompressionEmmRKNS_6HeaderE@Base 2.2.0
 _ZN7Imf_2_217timeCodeAttributeERKNS_6HeaderE@Base 2.2
 _ZN7Imf_2_217timeCodeAttributeERNS_6HeaderE@Base 2.2
 _ZN7Imf_2_217xDensityAttributeERKNS_6HeaderE@Base 2.2
 _ZN7Imf_2_217xDensityAttributeERNS_6HeaderE@Base 2.2
 _ZN7Imf_2_218DeepTiledInputFile10initializeEv@Base 2.2
 _ZN7Imf_2_218DeepTiledInputFile14setFrameBufferERKNS_15DeepFrameBufferE@Base 2.2
 _ZN7Imf_2_218DeepTiledInputFile19multiPartInitializeEPNS_13InputPartDataE@Base 2.2
 _ZN7Imf_2_218DeepTiledInputFile20readPixelSampleCountEiii@Base 2.2
 _ZN7Imf_2_218DeepTiledInputFile20readPixelSampleCountEiiii@Base 2.2
 _ZN7Imf_2_218DeepTiledInputFile21readPixelSampleCountsEiiiii@Base 2.2
 _ZN7Imf_2_218DeepTiledInputFile21readPixelSampleCountsEiiiiii@Base 2.2
 _ZN7Imf_2_218DeepTiledInputFile23compatibilityInitializeERNS_7IStreamE@Base 2.2
 _ZN7Imf_2_218DeepTiledInputFile4Data14getSampleCountEii@Base 2.2
 _ZN7Imf_2_218DeepTiledInputFile4DataC1Ei@Base 2.2
 _ZN7Imf_2_218DeepTiledInputFile4DataC2Ei@Base 2.2
 _ZN7Imf_2_218DeepTiledInputFile4DataD0Ev@Base 2.2
 _ZN7Imf_2_218DeepTiledInputFile4DataD1Ev@Base 2.2
 _ZN7Imf_2_218DeepTiledInputFile4DataD2Ev@Base 2.2
 _ZN7Imf_2_218DeepTiledInputFile8readTileEiii@Base 2.2
 _ZN7Imf_2_218DeepTiledInputFile8readTileEiiii@Base 2.2
 _ZN7Imf_2_218DeepTiledInputFile9readTilesEiiiii@Base 2.2
 _ZN7Imf_2_218DeepTiledInputFile9readTilesEiiiiii@Base 2.2
 _ZN7Imf_2_218DeepTiledInputFileC1EPKci@Base 2.2
 _ZN7Imf_2_218DeepTiledInputFileC1EPNS_13InputPartDataE@Base 2.2
 _ZN7Imf_2_218DeepTiledInputFileC1ERKNS_6HeaderEPNS_7IStreamEii@Base 2.2
 _ZN7Imf_2_218DeepTiledInputFileC1ERNS_7IStreamEi@Base 2.2
 _ZN7Imf_2_218DeepTiledInputFileC2EPKci@Base 2.2
 _ZN7Imf_2_218DeepTiledInputFileC2EPNS_13InputPartDataE@Base 2.2
 _ZN7Imf_2_218DeepTiledInputFileC2ERKNS_6HeaderEPNS_7IStreamEii@Base 2.2
 _ZN7Imf_2_218DeepTiledInputFileC2ERNS_7IStreamEi@Base 2.2
 _ZN7Imf_2_218DeepTiledInputFileD0Ev@Base 2.2
 _ZN7Imf_2_218DeepTiledInputFileD1Ev@Base 2.2
 _ZN7Imf_2_218DeepTiledInputFileD2Ev@Base 2.2
 _ZN7Imf_2_218DeepTiledInputPart14setFrameBufferERKNS_15DeepFrameBufferE@Base 2.2
 _ZN7Imf_2_218DeepTiledInputPart20readPixelSampleCountEiii@Base 2.2
 _ZN7Imf_2_218DeepTiledInputPart20readPixelSampleCountEiiii@Base 2.2
 _ZN7Imf_2_218DeepTiledInputPart21readPixelSampleCountsEiiiii@Base 2.2
 _ZN7Imf_2_218DeepTiledInputPart21readPixelSampleCountsEiiiiii@Base 2.2
 _ZN7Imf_2_218DeepTiledInputPart8readTileEiii@Base 2.2
 _ZN7Imf_2_218DeepTiledInputPart8readTileEiiii@Base 2.2
 _ZN7Imf_2_218DeepTiledInputPart9readTilesEiiiii@Base 2.2
 _ZN7Imf_2_218DeepTiledInputPart9readTilesEiiiiii@Base 2.2
 _ZN7Imf_2_218DeepTiledInputPartC1ERNS_18MultiPartInputFileEi@Base 2.2
 _ZN7Imf_2_218DeepTiledInputPartC2ERNS_18MultiPartInputFileEi@Base 2.2
 _ZN7Imf_2_218MultiPartInputFile10initializeEv@Base 2.2
 _ZN7Imf_2_218MultiPartInputFile12getInputPartINS_14TiledInputFileEEEPT_i@Base 2.2
 _ZN7Imf_2_218MultiPartInputFile12getInputPartINS_18DeepTiledInputFileEEEPT_i@Base 2.2
 _ZN7Imf_2_218MultiPartInputFile12getInputPartINS_21DeepScanLineInputFileEEEPT_i@Base 2.2
 _ZN7Imf_2_218MultiPartInputFile12getInputPartINS_9InputFileEEEPT_i@Base 2.2
 _ZN7Imf_2_218MultiPartInputFile4Data17createTileOffsetsERKNS_6HeaderE@Base 2.2
 _ZN7Imf_2_218MultiPartInputFile4Data21readChunkOffsetTablesEb@Base 2.2
 _ZN7Imf_2_218MultiPartInputFile4Data25chunkOffsetReconstructionERNS_7IStreamERKSt6vectorIPNS_13InputPartDataESaIS6_EE@Base 2.2
 _ZN7Imf_2_218MultiPartInputFile4Data7getPartEi@Base 2.2
 _ZN7Imf_2_218MultiPartInputFile4DataD0Ev@Base 2.2
 _ZN7Imf_2_218MultiPartInputFile4DataD1Ev@Base 2.2
 _ZN7Imf_2_218MultiPartInputFile4DataD2Ev@Base 2.2
 _ZN7Imf_2_218MultiPartInputFile7getPartEi@Base 2.2
 _ZN7Imf_2_218MultiPartInputFileC1EPKcib@Base 2.2
 _ZN7Imf_2_218MultiPartInputFileC1ERNS_7IStreamEib@Base 2.2
 _ZN7Imf_2_218MultiPartInputFileC2EPKcib@Base 2.2
 _ZN7Imf_2_218MultiPartInputFileC2ERNS_7IStreamEib@Base 2.2
 _ZN7Imf_2_218MultiPartInputFileD0Ev@Base 2.2
 _ZN7Imf_2_218MultiPartInputFileD1Ev@Base 2.2
 _ZN7Imf_2_218MultiPartInputFileD2Ev@Base 2.2
 _ZN7Imf_2_218TiledRgbaInputFile12setLayerNameERKNSt7__cxx1112basic_stringIcSt11char_traitsIcESaIcEEE@Base 2.2.0
 _ZN7Imf_2_218TiledRgbaInputFile14setFrameBufferEPNS_4RgbaEmm@Base 2.2.0
 _ZN7Imf_2_218TiledRgbaInputFile6FromYa14setFrameBufferEPNS_4RgbaEmmRKNSt7__cxx1112basic_stringIcSt11char_traitsIcESaIcEEE@Base 2.2.0
 _ZN7Imf_2_218TiledRgbaInputFile6FromYa8readTileEiiii@Base 2.2
 _ZN7Imf_2_218TiledRgbaInputFile6FromYaC1ERNS_14TiledInputFileE@Base 2.2
 _ZN7Imf_2_218TiledRgbaInputFile6FromYaC2ERNS_14TiledInputFileE@Base 2.2
 _ZN7Imf_2_218TiledRgbaInputFile6FromYaD0Ev@Base 2.2
 _ZN7Imf_2_218TiledRgbaInputFile6FromYaD1Ev@Base 2.2
 _ZN7Imf_2_218TiledRgbaInputFile6FromYaD2Ev@Base 2.2
 _ZN7Imf_2_218TiledRgbaInputFile8readTileEiii@Base 2.2
 _ZN7Imf_2_218TiledRgbaInputFile8readTileEiiii@Base 2.2
 _ZN7Imf_2_218TiledRgbaInputFile9readTilesEiiiii@Base 2.2
 _ZN7Imf_2_218TiledRgbaInputFile9readTilesEiiiiii@Base 2.2
 _ZN7Imf_2_218TiledRgbaInputFileC1EPKcRKNSt7__cxx1112basic_stringIcSt11char_traitsIcESaIcEEEi@Base 2.2.0
 _ZN7Imf_2_218TiledRgbaInputFileC1EPKci@Base 2.2
 _ZN7Imf_2_218TiledRgbaInputFileC1ERNS_7IStreamERKNSt7__cxx1112basic_stringIcSt11char_traitsIcESaIcEEEi@Base 2.2.0
 _ZN7Imf_2_218TiledRgbaInputFileC1ERNS_7IStreamEi@Base 2.2
 _ZN7Imf_2_218TiledRgbaInputFileC2EPKcRKNSt7__cxx1112basic_stringIcSt11char_traitsIcESaIcEEEi@Base 2.2.0
 _ZN7Imf_2_218TiledRgbaInputFileC2EPKci@Base 2.2
 _ZN7Imf_2_218TiledRgbaInputFileC2ERNS_7IStreamERKNSt7__cxx1112basic_stringIcSt11char_traitsIcESaIcEEEi@Base 2.2.0
 _ZN7Imf_2_218TiledRgbaInputFileC2ERNS_7IStreamEi@Base 2.2
 _ZN7Imf_2_218TiledRgbaInputFileD0Ev@Base 2.2
 _ZN7Imf_2_218TiledRgbaInputFileD1Ev@Base 2.2
 _ZN7Imf_2_218TiledRgbaInputFileD2Ev@Base 2.2
 _ZN7Imf_2_218acesChromaticitiesEv@Base 2.2
 _ZN7Imf_2_218addFramesPerSecondERNS_6HeaderERKNS_8RationalE@Base 2.2
 _ZN7Imf_2_218channelInOtherViewERKNSt7__cxx1112basic_stringIcSt11char_traitsIcESaIcEEERKNS_11ChannelListERKSt6vectorIS5_SaIS5_EES7_@Base 2.2.0
 _ZN7Imf_2_218dataWindowForLevelERKNS_15TileDescriptionEiiiiii@Base 2.2
 _ZN7Imf_2_218hasFramesPerSecondERKNS_6HeaderE@Base 2.2
 _ZN7Imf_2_218isTiledOpenExrFileEPKc@Base 2.2
 _ZN7Imf_2_218isTiledOpenExrFileERNS_7IStreamE@Base 2.2
 _ZN7Imf_2_218isValidCompressionENS_11CompressionE@Base 2.2
 _ZN7Imf_2_218longitudeAttributeERKNS_6HeaderE@Base 2.2
 _ZN7Imf_2_218longitudeAttributeERNS_6HeaderE@Base 2.2
 _ZN7Imf_2_218multiViewAttributeB5cxx11ERKNS_6HeaderE@Base 2.2.0
 _ZN7Imf_2_218multiViewAttributeB5cxx11ERNS_6HeaderE@Base 2.2.0
 _ZN7Imf_2_218originalDataWindowERKNS_6HeaderE@Base 2.2
 _ZN7Imf_2_218originalDataWindowERNS_6HeaderE@Base 2.2
 _ZN7Imf_2_218renderingTransformB5cxx11ERKNS_6HeaderE@Base 2.2.0
 _ZN7Imf_2_218renderingTransformB5cxx11ERNS_6HeaderE@Base 2.2.0
 _ZN7Imf_2_218utcOffsetAttributeERKNS_6HeaderE@Base 2.2
 _ZN7Imf_2_218utcOffsetAttributeERNS_6HeaderE@Base 2.2
 _ZN7Imf_2_218wrapmodesAttributeB5cxx11ERKNS_6HeaderE@Base 2.2.0
 _ZN7Imf_2_218wrapmodesAttributeB5cxx11ERNS_6HeaderE@Base 2.2.0
 _ZN7Imf_2_219DeepTiledOutputFile10copyPixelsERNS_18DeepTiledInputFileE@Base 2.2
 _ZN7Imf_2_219DeepTiledOutputFile10copyPixelsERNS_18DeepTiledInputPartE@Base 2.2
 _ZN7Imf_2_219DeepTiledOutputFile10initializeERKNS_6HeaderE@Base 2.2
 _ZN7Imf_2_219DeepTiledOutputFile10writeTilesEiiiii@Base 2.2
 _ZN7Imf_2_219DeepTiledOutputFile10writeTilesEiiiiii@Base 2.2
 _ZN7Imf_2_219DeepTiledOutputFile14setFrameBufferERKNS_15DeepFrameBufferE@Base 2.2
 _ZN7Imf_2_219DeepTiledOutputFile18updatePreviewImageEPKNS_11PreviewRgbaE@Base 2.2
 _ZN7Imf_2_219DeepTiledOutputFile4Data14getSampleCountEii@Base 2.2
 _ZN7Imf_2_219DeepTiledOutputFile4DataC1Ei@Base 2.2
 _ZN7Imf_2_219DeepTiledOutputFile4DataC2Ei@Base 2.2
 _ZN7Imf_2_219DeepTiledOutputFile4DataD1Ev@Base 2.2
 _ZN7Imf_2_219DeepTiledOutputFile4DataD2Ev@Base 2.2
 _ZN7Imf_2_219DeepTiledOutputFile9breakTileEiiiiiic@Base 2.2
 _ZN7Imf_2_219DeepTiledOutputFile9writeTileEiii@Base 2.2
 _ZN7Imf_2_219DeepTiledOutputFile9writeTileEiiii@Base 2.2
 _ZN7Imf_2_219DeepTiledOutputFileC1EPKNS_14OutputPartDataE@Base 2.2
 _ZN7Imf_2_219DeepTiledOutputFileC1EPKcRKNS_6HeaderEi@Base 2.2
 _ZN7Imf_2_219DeepTiledOutputFileC1ERNS_7OStreamERKNS_6HeaderEi@Base 2.2
 _ZN7Imf_2_219DeepTiledOutputFileC2EPKNS_14OutputPartDataE@Base 2.2
 _ZN7Imf_2_219DeepTiledOutputFileC2EPKcRKNS_6HeaderEi@Base 2.2
 _ZN7Imf_2_219DeepTiledOutputFileC2ERNS_7OStreamERKNS_6HeaderEi@Base 2.2
 _ZN7Imf_2_219DeepTiledOutputFileD0Ev@Base 2.2
 _ZN7Imf_2_219DeepTiledOutputFileD1Ev@Base 2.2
 _ZN7Imf_2_219DeepTiledOutputFileD2Ev@Base 2.2
 _ZN7Imf_2_219DeepTiledOutputPart10copyPixelsERNS_18DeepTiledInputFileE@Base 2.2
 _ZN7Imf_2_219DeepTiledOutputPart10copyPixelsERNS_18DeepTiledInputPartE@Base 2.2
 _ZN7Imf_2_219DeepTiledOutputPart10writeTilesEiiiii@Base 2.2
 _ZN7Imf_2_219DeepTiledOutputPart10writeTilesEiiiiii@Base 2.2
 _ZN7Imf_2_219DeepTiledOutputPart14setFrameBufferERKNS_15DeepFrameBufferE@Base 2.2
 _ZN7Imf_2_219DeepTiledOutputPart18updatePreviewImageEPKNS_11PreviewRgbaE@Base 2.2
 _ZN7Imf_2_219DeepTiledOutputPart9breakTileEiiiiiic@Base 2.2
 _ZN7Imf_2_219DeepTiledOutputPart9writeTileEiii@Base 2.2
 _ZN7Imf_2_219DeepTiledOutputPart9writeTileEiiii@Base 2.2
 _ZN7Imf_2_219DeepTiledOutputPartC1ERNS_19MultiPartOutputFileEi@Base 2.2
 _ZN7Imf_2_219DeepTiledOutputPartC2ERNS_19MultiPartOutputFileEi@Base 2.2
 _ZN7Imf_2_219MultiPartOutputFile13getOutputPartINS_10OutputFileEEEPT_i@Base 2.2
 _ZN7Imf_2_219MultiPartOutputFile13getOutputPartINS_15TiledOutputFileEEEPT_i@Base 2.2
 _ZN7Imf_2_219MultiPartOutputFile13getOutputPartINS_19DeepTiledOutputFileEEEPT_i@Base 2.2
 _ZN7Imf_2_219MultiPartOutputFile13getOutputPartINS_22DeepScanLineOutputFileEEEPT_i@Base 2.2
 _ZN7Imf_2_219MultiPartOutputFile4Data18writeHeadersToFileERKSt6vectorINS_6HeaderESaIS3_EE@Base 2.2
 _ZN7Imf_2_219MultiPartOutputFile4Data22writeChunkTableOffsetsERSt6vectorIPNS_14OutputPartDataESaIS4_EE@Base 2.2
 _ZN7Imf_2_219MultiPartOutputFile4Data23do_header_sanity_checksEb@Base 2.2
 _ZN7Imf_2_219MultiPartOutputFile4Data25headerNameUniquenessCheckERKSt6vectorINS_6HeaderESaIS3_EE@Base 2.2
 _ZN7Imf_2_219MultiPartOutputFile4Data30overrideSharedAttributesValuesERKNS_6HeaderERS2_@Base 2.2
 _ZN7Imf_2_219MultiPartOutputFile4DataD0Ev@Base 2.2
 _ZN7Imf_2_219MultiPartOutputFile4DataD1Ev@Base 2.2
 _ZN7Imf_2_219MultiPartOutputFile4DataD2Ev@Base 2.2
 _ZN7Imf_2_219MultiPartOutputFileC1EPKcPKNS_6HeaderEibi@Base 2.2
 _ZN7Imf_2_219MultiPartOutputFileC1ERNS_7OStreamEPKNS_6HeaderEibi@Base 2.2
 _ZN7Imf_2_219MultiPartOutputFileC2EPKcPKNS_6HeaderEibi@Base 2.2
 _ZN7Imf_2_219MultiPartOutputFileC2ERNS_7OStreamEPKNS_6HeaderEibi@Base 2.2
 _ZN7Imf_2_219MultiPartOutputFileD0Ev@Base 2.2
 _ZN7Imf_2_219MultiPartOutputFileD1Ev@Base 2.2
 _ZN7Imf_2_219MultiPartOutputFileD2Ev@Base 2.2
 _ZN7Imf_2_219TiledRgbaOutputFile10writeTilesEiiiii@Base 2.2
 _ZN7Imf_2_219TiledRgbaOutputFile10writeTilesEiiiiii@Base 2.2
 _ZN7Imf_2_219TiledRgbaOutputFile14setFrameBufferEPKNS_4RgbaEmm@Base 2.2.0
 _ZN7Imf_2_219TiledRgbaOutputFile18updatePreviewImageEPKNS_11PreviewRgbaE@Base 2.2
 _ZN7Imf_2_219TiledRgbaOutputFile4ToYa14setFrameBufferEPKNS_4RgbaEmm@Base 2.2.0
 _ZN7Imf_2_219TiledRgbaOutputFile4ToYa9writeTileEiiii@Base 2.2
 _ZN7Imf_2_219TiledRgbaOutputFile4ToYaC1ERNS_15TiledOutputFileENS_12RgbaChannelsE@Base 2.2
 _ZN7Imf_2_219TiledRgbaOutputFile4ToYaC2ERNS_15TiledOutputFileENS_12RgbaChannelsE@Base 2.2
 _ZN7Imf_2_219TiledRgbaOutputFile4ToYaD0Ev@Base 2.2
 _ZN7Imf_2_219TiledRgbaOutputFile4ToYaD1Ev@Base 2.2
 _ZN7Imf_2_219TiledRgbaOutputFile4ToYaD2Ev@Base 2.2
 _ZN7Imf_2_219TiledRgbaOutputFile9breakTileEiiiiiic@Base 2.2
 _ZN7Imf_2_219TiledRgbaOutputFile9writeTileEiii@Base 2.2
 _ZN7Imf_2_219TiledRgbaOutputFile9writeTileEiiii@Base 2.2
 _ZN7Imf_2_219TiledRgbaOutputFileC1EPKcRKNS_6HeaderENS_12RgbaChannelsEiiNS_9LevelModeENS_17LevelRoundingModeEi@Base 2.2
 _ZN7Imf_2_219TiledRgbaOutputFileC1EPKciiNS_9LevelModeENS_17LevelRoundingModeERKN9Imath_2_23BoxINS5_4Vec2IiEEEESB_NS_12RgbaChannelsEfNS7_IfEEfNS_9LineOrderENS_11CompressionEi@Base 2.2
 _ZN7Imf_2_219TiledRgbaOutputFileC1EPKciiiiNS_9LevelModeENS_17LevelRoundingModeENS_12RgbaChannelsEfN9Imath_2_24Vec2IfEEfNS_9LineOrderENS_11CompressionEi@Base 2.2
 _ZN7Imf_2_219TiledRgbaOutputFileC1ERNS_7OStreamERKNS_6HeaderENS_12RgbaChannelsEiiNS_9LevelModeENS_17LevelRoundingModeEi@Base 2.2
 _ZN7Imf_2_219TiledRgbaOutputFileC2EPKcRKNS_6HeaderENS_12RgbaChannelsEiiNS_9LevelModeENS_17LevelRoundingModeEi@Base 2.2
 _ZN7Imf_2_219TiledRgbaOutputFileC2EPKciiNS_9LevelModeENS_17LevelRoundingModeERKN9Imath_2_23BoxINS5_4Vec2IiEEEESB_NS_12RgbaChannelsEfNS7_IfEEfNS_9LineOrderENS_11CompressionEi@Base 2.2
 _ZN7Imf_2_219TiledRgbaOutputFileC2EPKciiiiNS_9LevelModeENS_17LevelRoundingModeENS_12RgbaChannelsEfN9Imath_2_24Vec2IfEEfNS_9LineOrderENS_11CompressionEi@Base 2.2
 _ZN7Imf_2_219TiledRgbaOutputFileC2ERNS_7OStreamERKNS_6HeaderENS_12RgbaChannelsEiiNS_9LevelModeENS_17LevelRoundingModeEi@Base 2.2
 _ZN7Imf_2_219TiledRgbaOutputFileD0Ev@Base 2.2
 _ZN7Imf_2_219TiledRgbaOutputFileD1Ev@Base 2.2
 _ZN7Imf_2_219TiledRgbaOutputFileD2Ev@Base 2.2
 _ZN7Imf_2_219addLookModTransformERNS_6HeaderERKNSt7__cxx1112basic_stringIcSt11char_traitsIcESaIcEEE@Base 2.2.0
 _ZN7Imf_2_219copyFromFrameBufferERPcRPKcS3_mNS_10Compressor6FormatENS_9PixelTypeE@Base 2.2.0
 _ZN7Imf_2_219copyIntoFrameBufferERPKcPcS3_mbdNS_10Compressor6FormatENS_9PixelTypeES6_@Base 2.2.0
 _ZN7Imf_2_219dwaCompressionLevelERKNS_6HeaderE@Base 2.2
 _ZN7Imf_2_219dwaCompressionLevelERNS_6HeaderE@Base 2.2
 _ZN7Imf_2_219hasLookModTransformERKNS_6HeaderE@Base 2.2
 _ZN7Imf_2_219viewFromChannelNameERKNSt7__cxx1112basic_stringIcSt11char_traitsIcESaIcEEERKSt6vectorIS5_SaIS5_EE@Base 2.2.0
 _ZN7Imf_2_219worldToNDCAttributeERKNS_6HeaderE@Base 2.2
 _ZN7Imf_2_219worldToNDCAttributeERNS_6HeaderE@Base 2.2
 _ZN7Imf_2_220precalculateTileInfoERKNS_15TileDescriptionEiiiiRPiS4_RiS5_@Base 2.2
 _ZN7Imf_2_220setGlobalThreadCountEi@Base 2.2
 _ZN7Imf_2_221CompositeDeepScanLine10readPixelsEii@Base 2.2
 _ZN7Imf_2_221CompositeDeepScanLine14setCompositingEPNS_15DeepCompositingE@Base 2.2
 _ZN7Imf_2_221CompositeDeepScanLine14setFrameBufferERKNS_11FrameBufferE@Base 2.2
 _ZN7Imf_2_221CompositeDeepScanLine4Data11check_validERKNS_6HeaderE@Base 2.2
 _ZN7Imf_2_221CompositeDeepScanLine4Data21handleDeepFrameBufferERNS_15DeepFrameBufferERSt6vectorIjSaIjEERS4_IS4_IPfSaIS8_EESaISA_EERKNS_6HeaderEii@Base 2.2
 _ZN7Imf_2_221CompositeDeepScanLine4DataC1Ev@Base 2.2
 _ZN7Imf_2_221CompositeDeepScanLine4DataC2Ev@Base 2.2
 _ZN7Imf_2_221CompositeDeepScanLine9addSourceEPNS_21DeepScanLineInputFileE@Base 2.2
 _ZN7Imf_2_221CompositeDeepScanLine9addSourceEPNS_21DeepScanLineInputPartE@Base 2.2
 _ZN7Imf_2_221CompositeDeepScanLineC1Ev@Base 2.2
 _ZN7Imf_2_221CompositeDeepScanLineC2Ev@Base 2.2
 _ZN7Imf_2_221CompositeDeepScanLineD0Ev@Base 2.2
 _ZN7Imf_2_221CompositeDeepScanLineD1Ev@Base 2.2
 _ZN7Imf_2_221CompositeDeepScanLineD2Ev@Base 2.2
 _ZN7Imf_2_221DeepScanLineInputFile10initializeERKNS_6HeaderE@Base 2.2
 _ZN7Imf_2_221DeepScanLineInputFile10readPixelsEi@Base 2.2
 _ZN7Imf_2_221DeepScanLineInputFile10readPixelsEii@Base 2.2
 _ZN7Imf_2_221DeepScanLineInputFile12rawPixelDataEiPcRm@Base 2.2.0
 _ZN7Imf_2_221DeepScanLineInputFile14setFrameBufferERKNS_15DeepFrameBufferE@Base 2.2
 _ZN7Imf_2_221DeepScanLineInputFile19multiPartInitializeEPNS_13InputPartDataE@Base 2.2
 _ZN7Imf_2_221DeepScanLineInputFile21readPixelSampleCountsEi@Base 2.2
 _ZN7Imf_2_221DeepScanLineInputFile21readPixelSampleCountsEii@Base 2.2
 _ZN7Imf_2_221DeepScanLineInputFile23compatibilityInitializeERNS_7IStreamE@Base 2.2
 _ZN7Imf_2_221DeepScanLineInputFile4DataC1Ei@Base 2.2
 _ZN7Imf_2_221DeepScanLineInputFile4DataC2Ei@Base 2.2
 _ZN7Imf_2_221DeepScanLineInputFile4DataD0Ev@Base 2.2
 _ZN7Imf_2_221DeepScanLineInputFile4DataD1Ev@Base 2.2
 _ZN7Imf_2_221DeepScanLineInputFile4DataD2Ev@Base 2.2
 _ZN7Imf_2_221DeepScanLineInputFileC1EPKci@Base 2.2
 _ZN7Imf_2_221DeepScanLineInputFileC1EPNS_13InputPartDataE@Base 2.2
 _ZN7Imf_2_221DeepScanLineInputFileC1ERKNS_6HeaderEPNS_7IStreamEii@Base 2.2
 _ZN7Imf_2_221DeepScanLineInputFileC2EPKci@Base 2.2
 _ZN7Imf_2_221DeepScanLineInputFileC2EPNS_13InputPartDataE@Base 2.2
 _ZN7Imf_2_221DeepScanLineInputFileC2ERKNS_6HeaderEPNS_7IStreamEii@Base 2.2
 _ZN7Imf_2_221DeepScanLineInputFileD0Ev@Base 2.2
 _ZN7Imf_2_221DeepScanLineInputFileD1Ev@Base 2.2
 _ZN7Imf_2_221DeepScanLineInputFileD2Ev@Base 2.2
 _ZN7Imf_2_221DeepScanLineInputPart10readPixelsEi@Base 2.2
 _ZN7Imf_2_221DeepScanLineInputPart10readPixelsEii@Base 2.2
 _ZN7Imf_2_221DeepScanLineInputPart12rawPixelDataEiPcRm@Base 2.2.0
 _ZN7Imf_2_221DeepScanLineInputPart14setFrameBufferERKNS_15DeepFrameBufferE@Base 2.2
 _ZN7Imf_2_221DeepScanLineInputPart21readPixelSampleCountsEi@Base 2.2
 _ZN7Imf_2_221DeepScanLineInputPart21readPixelSampleCountsEii@Base 2.2
 _ZN7Imf_2_221DeepScanLineInputPartC1ERNS_18MultiPartInputFileEi@Base 2.2
 _ZN7Imf_2_221DeepScanLineInputPartC2ERNS_18MultiPartInputFileEi@Base 2.2
 _ZN7Imf_2_221addOriginalDataWindowERNS_6HeaderERKN9Imath_2_23BoxINS2_4Vec2IiEEEE@Base 2.2
 _ZN7Imf_2_221addRenderingTransformERNS_6HeaderERKNSt7__cxx1112basic_stringIcSt11char_traitsIcESaIcEEE@Base 2.2.0
 _ZN7Imf_2_221bytesPerDeepLineTableERKNS_6HeaderEPciiRSt6vectorImSaImEE@Base 2.2.0
 _ZN7Imf_2_221bytesPerDeepLineTableERKNS_6HeaderEiiPKciiRSt6vectorImSaImEE@Base 2.2.0
 _ZN7Imf_2_221calculateBytesPerLineERKNS_6HeaderEPciiiiiiRSt6vectorIiSaIiEES7_RS4_ImSaImEE@Base 2.2.0
 _ZN7Imf_2_221fillChannelWithZeroesERPcNS_10Compressor6FormatENS_9PixelTypeEm@Base 2.2.0
 _ZN7Imf_2_221hasOriginalDataWindowERKNS_6HeaderE@Base 2.2
 _ZN7Imf_2_221hasRenderingTransformERKNS_6HeaderE@Base 2.2
 _ZN7Imf_2_222DeepScanLineOutputFile10copyPixelsERNS_21DeepScanLineInputFileE@Base 2.2
 _ZN7Imf_2_222DeepScanLineOutputFile10copyPixelsERNS_21DeepScanLineInputPartE@Base 2.2
 _ZN7Imf_2_222DeepScanLineOutputFile10initializeERKNS_6HeaderE@Base 2.2
 _ZN7Imf_2_222DeepScanLineOutputFile11writePixelsEi@Base 2.2
 _ZN7Imf_2_222DeepScanLineOutputFile14setFrameBufferERKNS_15DeepFrameBufferE@Base 2.2
 _ZN7Imf_2_222DeepScanLineOutputFile18updatePreviewImageEPKNS_11PreviewRgbaE@Base 2.2
 _ZN7Imf_2_222DeepScanLineOutputFile4DataC1Ei@Base 2.2
 _ZN7Imf_2_222DeepScanLineOutputFile4DataC2Ei@Base 2.2
 _ZN7Imf_2_222DeepScanLineOutputFile4DataD1Ev@Base 2.2
 _ZN7Imf_2_222DeepScanLineOutputFile4DataD2Ev@Base 2.2
 _ZN7Imf_2_222DeepScanLineOutputFileC1EPKNS_14OutputPartDataE@Base 2.2
 _ZN7Imf_2_222DeepScanLineOutputFileC1EPKcRKNS_6HeaderEi@Base 2.2
 _ZN7Imf_2_222DeepScanLineOutputFileC1ERNS_7OStreamERKNS_6HeaderEi@Base 2.2
 _ZN7Imf_2_222DeepScanLineOutputFileC2EPKNS_14OutputPartDataE@Base 2.2
 _ZN7Imf_2_222DeepScanLineOutputFileC2EPKcRKNS_6HeaderEi@Base 2.2
 _ZN7Imf_2_222DeepScanLineOutputFileC2ERNS_7OStreamERKNS_6HeaderEi@Base 2.2
 _ZN7Imf_2_222DeepScanLineOutputFileD0Ev@Base 2.2
 _ZN7Imf_2_222DeepScanLineOutputFileD1Ev@Base 2.2
 _ZN7Imf_2_222DeepScanLineOutputFileD2Ev@Base 2.2
 _ZN7Imf_2_222DeepScanLineOutputPart10copyPixelsERNS_21DeepScanLineInputFileE@Base 2.2
 _ZN7Imf_2_222DeepScanLineOutputPart10copyPixelsERNS_21DeepScanLineInputPartE@Base 2.2
 _ZN7Imf_2_222DeepScanLineOutputPart11writePixelsEi@Base 2.2
 _ZN7Imf_2_222DeepScanLineOutputPart14setFrameBufferERKNS_15DeepFrameBufferE@Base 2.2
 _ZN7Imf_2_222DeepScanLineOutputPart18updatePreviewImageEPKNS_11PreviewRgbaE@Base 2.2
 _ZN7Imf_2_222DeepScanLineOutputPartC1ERNS_19MultiPartOutputFileEi@Base 2.2
 _ZN7Imf_2_222DeepScanLineOutputPartC2ERNS_19MultiPartOutputFileEi@Base 2.2
 _ZN7Imf_2_222addDwaCompressionLevelERNS_6HeaderERKf@Base 2.2
 _ZN7Imf_2_222calculateBytesPerPixelERKNS_6HeaderE@Base 2.2
 _ZN7Imf_2_222hasDwaCompressionLevelERKNS_6HeaderE@Base 2.2
 _ZN7Imf_2_222isMultiPartOpenExrFileEPKc@Base 2.2
 _ZN7Imf_2_222isMultiPartOpenExrFileERNS_7IStreamE@Base 2.2
 _ZN7Imf_2_222isValidDeepCompressionENS_11CompressionE@Base 2.2
 _ZN7Imf_2_222worldToCameraAttributeERKNS_6HeaderE@Base 2.2
 _ZN7Imf_2_222worldToCameraAttributeERNS_6HeaderE@Base 2.2
 _ZN7Imf_2_223adoptedNeutralAttributeERKNS_6HeaderE@Base 2.2
 _ZN7Imf_2_223adoptedNeutralAttributeERNS_6HeaderE@Base 2.2
 _ZN7Imf_2_223chromaticitiesAttributeERKNS_6HeaderE@Base 2.2
 _ZN7Imf_2_223chromaticitiesAttributeERNS_6HeaderE@Base 2.2
 _ZN7Imf_2_223copyFromDeepFrameBufferERPcPKcS0_lliiiiiiilllNS_10Compressor6FormatENS_9PixelTypeE@Base 2.2.0
 _ZN7Imf_2_223copyIntoDeepFrameBufferERPKcPcS1_lliiiiiiilllbdNS_10Compressor6FormatENS_9PixelTypeES6_@Base 2.2.0
 _ZN7Imf_2_223deepImageStateAttributeERKNS_6HeaderE@Base 2.2
 _ZN7Imf_2_223deepImageStateAttributeERNS_6HeaderE@Base 2.2
 _ZN7Imf_2_223getChunkOffsetTableSizeERKNS_6HeaderEb@Base 2.2
 _ZN7Imf_2_223offsetInLineBufferTableERKSt6vectorImSaImEEiRS2_@Base 2.2.0
 _ZN7Imf_2_223offsetInLineBufferTableERKSt6vectorImSaImEEiiiRS2_@Base 2.2.0
 _ZN7Imf_2_223whiteLuminanceAttributeERKNS_6HeaderE@Base 2.2
 _ZN7Imf_2_223whiteLuminanceAttributeERNS_6HeaderE@Base 2.2
 _ZN7Imf_2_224framesPerSecondAttributeERKNS_6HeaderE@Base 2.2
 _ZN7Imf_2_224framesPerSecondAttributeERNS_6HeaderE@Base 2.2
 _ZN7Imf_2_225lookModTransformAttributeB5cxx11ERKNS_6HeaderE@Base 2.2.0
 _ZN7Imf_2_225lookModTransformAttributeB5cxx11ERNS_6HeaderE@Base 2.2.0
 _ZN7Imf_2_227originalDataWindowAttributeERKNS_6HeaderE@Base 2.2
 _ZN7Imf_2_227originalDataWindowAttributeERNS_6HeaderE@Base 2.2
 _ZN7Imf_2_227renderingTransformAttributeB5cxx11ERKNS_6HeaderE@Base 2.2.0
 _ZN7Imf_2_227renderingTransformAttributeB5cxx11ERNS_6HeaderE@Base 2.2.0
 _ZN7Imf_2_228dwaCompressionLevelAttributeERKNS_6HeaderE@Base 2.2
 _ZN7Imf_2_228dwaCompressionLevelAttributeERNS_6HeaderE@Base 2.2
 _ZN7Imf_2_228getTiledChunkOffsetTableSizeERKNS_6HeaderE@Base 2.2
 _ZN7Imf_2_231getScanlineChunkOffsetTableSizeERKNS_6HeaderE@Base 2.2
 _ZN7Imf_2_23Xdr4readINS_8StreamIOENS_11StdIFStreamEEEvRT0_Ri@Base 2.2
 _ZN7Imf_2_23Xdr4readINS_8StreamIOENS_7IStreamEEEvRT0_Rd@Base 2.2
 _ZN7Imf_2_23Xdr4readINS_8StreamIOENS_7IStreamEEEvRT0_Rf@Base 2.2
 _ZN7Imf_2_23Xdr4readINS_8StreamIOENS_7IStreamEEEvRT0_Ri@Base 2.2
 _ZN7Imf_2_23Xdr4readINS_8StreamIOENS_7IStreamEEEvRT0_Rj@Base 2.2
 _ZN7Imf_2_23Xdr4readINS_8StreamIOENS_7IStreamEEEvRT0_Rm@Base 2.2.0
 _ZN7Imf_2_23Xdr4readINS_9CharPtrIOEPKcEEvRT0_Rf@Base 2.2
 _ZN7Imf_2_23Xdr4readINS_9CharPtrIOEPKcEEvRT0_Ri@Base 2.2
 _ZN7Imf_2_23Xdr4readINS_9CharPtrIOEPKcEEvRT0_Rj@Base 2.2
 _ZN7Imf_2_23Xdr4readINS_9CharPtrIOEPKcEEvRT0_Rm@Base 2.2.0
 _ZN7Imf_2_23Xdr4skipINS_8StreamIOENS_7IStreamEEEvRT0_i@Base 2.2
 _ZN7Imf_2_23Xdr4skipINS_9CharPtrIOEPKcEEvRT0_i@Base 2.2
 _ZN7Imf_2_23Xdr5writeINS_8StreamIOENS_7OStreamEEEvRT0_PKc@Base 2.2
 _ZN7Imf_2_23Xdr5writeINS_8StreamIOENS_7OStreamEEEvRT0_d@Base 2.2
 _ZN7Imf_2_23Xdr5writeINS_8StreamIOENS_7OStreamEEEvRT0_m@Base 2.2.0
 _ZN7Imf_2_23Zip10maxRawSizeEv@Base 2.2
 _ZN7Imf_2_23Zip10uncompressEPKciPc@Base 2.2
 _ZN7Imf_2_23Zip17maxCompressedSizeEv@Base 2.2
 _ZN7Imf_2_23Zip8compressEPKciPc@Base 2.2
 _ZN7Imf_2_23ZipC1Em@Base 2.2.0
 _ZN7Imf_2_23ZipC1Emm@Base 2.2.0
 _ZN7Imf_2_23ZipC2Em@Base 2.2.0
 _ZN7Imf_2_23ZipC2Emm@Base 2.2.0
 _ZN7Imf_2_23ZipD1Ev@Base 2.2
 _ZN7Imf_2_23ZipD2Ev@Base 2.2
 _ZN7Imf_2_25ArrayINS0_IcEEED1Ev@Base 2.2
 _ZN7Imf_2_25ArrayINS0_IcEEED2Ev@Base 2.2
 _ZN7Imf_2_25CpuIdC1Ev@Base 2.2
 _ZN7Imf_2_25CpuIdC2Ev@Base 2.2
 _ZN7Imf_2_25SliceC1ENS_9PixelTypeEPcmmiidbb@Base 2.2.0
 _ZN7Imf_2_25SliceC2ENS_9PixelTypeEPcmmiidbb@Base 2.2.0
 _ZN7Imf_2_25focusERKNS_6HeaderE@Base 2.2
 _ZN7Imf_2_25focusERNS_6HeaderE@Base 2.2
 _ZN7Imf_2_25ownerB5cxx11ERKNS_6HeaderE@Base 2.2.0
 _ZN7Imf_2_25ownerB5cxx11ERNS_6HeaderE@Base 2.2.0
 _ZN7Imf_2_26Header10chunkCountEv@Base 2.2
 _ZN7Imf_2_26Header10dataWindowEv@Base 2.2
 _ZN7Imf_2_26Header10setVersionEi@Base 2.2
 _ZN7Imf_2_26Header11compressionEv@Base 2.2
 _ZN7Imf_2_26Header12previewImageEv@Base 2.2
 _ZN7Imf_2_26Header12readsNothingEv@Base 2.2
 _ZN7Imf_2_26Header13displayWindowEv@Base 2.2
 _ZN7Imf_2_26Header13setChunkCountEi@Base 2.2
 _ZN7Imf_2_26Header14setMaxTileSizeEii@Base 2.2
 _ZN7Imf_2_26Header14typedAttributeINS_14TypedAttributeIN9Imath_2_28Matrix44IfEEEEEERT_PKc@Base 2.2
 _ZN7Imf_2_26Header14typedAttributeINS_14TypedAttributeINSt7__cxx1112basic_stringIcSt11char_traitsIcESaIcEEEEEEERT_PKc@Base 2.2.0
 _ZN7Imf_2_26Header14typedAttributeINS_14TypedAttributeIfEEEERT_PKc@Base 2.2
 _ZN7Imf_2_26Header14typedAttributeINS_14TypedAttributeIiEEEERT_PKc@Base 2.2
 _ZN7Imf_2_26Header15setMaxImageSizeEii@Base 2.2
 _ZN7Imf_2_26Header15setPreviewImageERKNS_12PreviewImageE@Base 2.2
 _ZN7Imf_2_26Header15tileDescriptionEv@Base 2.2
 _ZN7Imf_2_26Header16pixelAspectRatioEv@Base 2.2
 _ZN7Imf_2_26Header17screenWindowWidthEv@Base 2.2
 _ZN7Imf_2_26Header18screenWindowCenterEv@Base 2.2
 _ZN7Imf_2_26Header18setTileDescriptionERKNS_15TileDescriptionE@Base 2.2
 _ZN7Imf_2_26Header3endEv@Base 2.2
 _ZN7Imf_2_26Header4findEPKc@Base 2.2
 _ZN7Imf_2_26Header4findERKNSt7__cxx1112basic_stringIcSt11char_traitsIcESaIcEEE@Base 2.2.0
 _ZN7Imf_2_26Header4nameB5cxx11Ev@Base 2.2.0
 _ZN7Imf_2_26Header4typeB5cxx11Ev@Base 2.2.0
 _ZN7Imf_2_26Header4viewB5cxx11Ev@Base 2.2.0
 _ZN7Imf_2_26Header5beginEv@Base 2.2
 _ZN7Imf_2_26Header5eraseEPKc@Base 2.2
 _ZN7Imf_2_26Header5eraseERKNSt7__cxx1112basic_stringIcSt11char_traitsIcESaIcEEE@Base 2.2.0
 _ZN7Imf_2_26Header6insertEPKcRKNS_9AttributeE@Base 2.2
 _ZN7Imf_2_26Header6insertERKNSt7__cxx1112basic_stringIcSt11char_traitsIcESaIcEEERKNS_9AttributeE@Base 2.2.0
 _ZN7Imf_2_26Header7setNameERKNSt7__cxx1112basic_stringIcSt11char_traitsIcESaIcEEE@Base 2.2.0
 _ZN7Imf_2_26Header7setTypeERKNSt7__cxx1112basic_stringIcSt11char_traitsIcESaIcEEE@Base 2.2.0
 _ZN7Imf_2_26Header7setViewERKNSt7__cxx1112basic_stringIcSt11char_traitsIcESaIcEEE@Base 2.2.0
 _ZN7Imf_2_26Header7versionEv@Base 2.2
 _ZN7Imf_2_26Header8channelsEv@Base 2.2
 _ZN7Imf_2_26Header8readFromERNS_7IStreamERi@Base 2.2
 _ZN7Imf_2_26Header9lineOrderEv@Base 2.2
 _ZN7Imf_2_26HeaderC1ERKN9Imath_2_23BoxINS1_4Vec2IiEEEES7_fRKNS3_IfEEfNS_9LineOrderENS_11CompressionE@Base 2.2
 _ZN7Imf_2_26HeaderC1ERKS0_@Base 2.2
 _ZN7Imf_2_26HeaderC1EiiRKN9Imath_2_23BoxINS1_4Vec2IiEEEEfRKNS3_IfEEfNS_9LineOrderENS_11CompressionE@Base 2.2
 _ZN7Imf_2_26HeaderC1EiifRKN9Imath_2_24Vec2IfEEfNS_9LineOrderENS_11CompressionE@Base 2.2
 _ZN7Imf_2_26HeaderC2ERKN9Imath_2_23BoxINS1_4Vec2IiEEEES7_fRKNS3_IfEEfNS_9LineOrderENS_11CompressionE@Base 2.2
 _ZN7Imf_2_26HeaderC2ERKS0_@Base 2.2
 _ZN7Imf_2_26HeaderC2EiiRKN9Imath_2_23BoxINS1_4Vec2IiEEEEfRKNS3_IfEEfNS_9LineOrderENS_11CompressionE@Base 2.2
 _ZN7Imf_2_26HeaderC2EiifRKN9Imath_2_24Vec2IfEEfNS_9LineOrderENS_11CompressionE@Base 2.2
 _ZN7Imf_2_26HeaderD1Ev@Base 2.2
 _ZN7Imf_2_26HeaderD2Ev@Base 2.2
 _ZN7Imf_2_26HeaderaSERKS0_@Base 2.2
 _ZN7Imf_2_26HeaderixEPKc@Base 2.2
 _ZN7Imf_2_26HeaderixERKNSt7__cxx1112basic_stringIcSt11char_traitsIcESaIcEEE@Base 2.2.0
 _ZN7Imf_2_26envmapERKNS_6HeaderE@Base 2.2
 _ZN7Imf_2_26envmapERNS_6HeaderE@Base 2.2
 _ZN7Imf_2_27ChannelC1ENS_9PixelTypeEiib@Base 2.2
 _ZN7Imf_2_27ChannelC2ENS_9PixelTypeEiib@Base 2.2
 _ZN7Imf_2_27CubeMap10sizeOfFaceERKN9Imath_2_23BoxINS1_4Vec2IiEEEE@Base 2.2
 _ZN7Imf_2_27CubeMap13pixelPositionENS_11CubeMapFaceERKN9Imath_2_23BoxINS2_4Vec2IiEEEENS4_IfEE@Base 2.2
 _ZN7Imf_2_27CubeMap17dataWindowForFaceENS_11CubeMapFaceERKN9Imath_2_23BoxINS2_4Vec2IiEEEE@Base 2.2
 _ZN7Imf_2_27CubeMap20faceAndPixelPositionERKN9Imath_2_24Vec3IfEERKNS1_3BoxINS1_4Vec2IiEEEERNS_11CubeMapFaceERNS7_IfEE@Base 2.2
 _ZN7Imf_2_27CubeMap9directionENS_11CubeMapFaceERKN9Imath_2_23BoxINS2_4Vec2IiEEEERKNS4_IfEE@Base 2.2
 _ZN7Imf_2_27IStream16readMemoryMappedEi@Base 2.2
 _ZN7Imf_2_27IStream5clearEv@Base 2.2
 _ZN7Imf_2_27IStreamC1EPKc@Base 2.2
 _ZN7Imf_2_27IStreamC2EPKc@Base 2.2
 _ZN7Imf_2_27IStreamD0Ev@Base 2.2
 _ZN7Imf_2_27IStreamD1Ev@Base 2.2
 _ZN7Imf_2_27IStreamD2Ev@Base 2.2
 _ZN7Imf_2_27KeyCode11setFilmTypeEi@Base 2.2
 _ZN7Imf_2_27KeyCode13setPerfOffsetEi@Base 2.2
 _ZN7Imf_2_27KeyCode14setFilmMfcCodeEi@Base 2.2
 _ZN7Imf_2_27KeyCode16setPerfsPerCountEi@Base 2.2
 _ZN7Imf_2_27KeyCode16setPerfsPerFrameEi@Base 2.2
 _ZN7Imf_2_27KeyCode8setCountEi@Base 2.2
 _ZN7Imf_2_27KeyCode9setPrefixEi@Base 2.2
 _ZN7Imf_2_27KeyCodeC1ERKS0_@Base 2.2
 _ZN7Imf_2_27KeyCodeC1Eiiiiiii@Base 2.2
 _ZN7Imf_2_27KeyCodeC2ERKS0_@Base 2.2
 _ZN7Imf_2_27KeyCodeC2Eiiiiiii@Base 2.2
 _ZN7Imf_2_27KeyCodeaSERKS0_@Base 2.2
 _ZN7Imf_2_27OStreamC1EPKc@Base 2.2
 _ZN7Imf_2_27OStreamC2EPKc@Base 2.2
 _ZN7Imf_2_27OStreamD0Ev@Base 2.2
 _ZN7Imf_2_27OStreamD1Ev@Base 2.2
 _ZN7Imf_2_27OStreamD2Ev@Base 2.2
 _ZN7Imf_2_27RgbaLutC1INS_9roundNBitEEET_NS_12RgbaChannelsE@Base 2.2.0
 _ZN7Imf_2_27RgbaLutC1IPF4halfS2_EEET_NS_12RgbaChannelsE@Base 2.2.0
 _ZN7Imf_2_27RgbaLutC2INS_9roundNBitEEET_NS_12RgbaChannelsE@Base 2.2.0
 _ZN7Imf_2_27RgbaLutC2IPF4halfS2_EEET_NS_12RgbaChannelsE@Base 2.2.0
 _ZN7Imf_2_27RgbaYca13fixSaturationERKN9Imath_2_24Vec3IfEEiPKPKNS_4RgbaEPS6_@Base 2.2
 _ZN7Imf_2_27RgbaYca18decimateChromaVertEiPKPKNS_4RgbaEPS1_@Base 2.2
 _ZN7Imf_2_27RgbaYca19decimateChromaHorizEiPKNS_4RgbaEPS1_@Base 2.2
 _ZN7Imf_2_27RgbaYca21reconstructChromaVertEiPKPKNS_4RgbaEPS1_@Base 2.2
 _ZN7Imf_2_27RgbaYca22reconstructChromaHorizEiPKNS_4RgbaEPS1_@Base 2.2
 _ZN7Imf_2_27RgbaYca8roundYCAEijjPKNS_4RgbaEPS1_@Base 2.2
 _ZN7Imf_2_27RgbaYca9RGBAtoYCAERKN9Imath_2_24Vec3IfEEibPKNS_4RgbaEPS6_@Base 2.2
 _ZN7Imf_2_27RgbaYca9YCAtoRGBAERKN9Imath_2_24Vec3IfEEiPKNS_4RgbaEPS6_@Base 2.2
 _ZN7Imf_2_27RgbaYca9computeYwERKNS_14ChromaticitiesE@Base 2.2
 _ZN7Imf_2_27capDateB5cxx11ERKNS_6HeaderE@Base 2.2.0
 _ZN7Imf_2_27capDateB5cxx11ERNS_6HeaderE@Base 2.2.0
 _ZN7Imf_2_27expTimeERKNS_6HeaderE@Base 2.2
 _ZN7Imf_2_27expTimeERNS_6HeaderE@Base 2.2
 _ZN7Imf_2_27isImageERKNSt7__cxx1112basic_stringIcSt11char_traitsIcESaIcEEE@Base 2.2.0
 _ZN7Imf_2_27isTiledERKNSt7__cxx1112basic_stringIcSt11char_traitsIcESaIcEEE@Base 2.2.0
 _ZN7Imf_2_27keyCodeERKNS_6HeaderE@Base 2.2
 _ZN7Imf_2_27keyCodeERNS_6HeaderE@Base 2.2
 _ZN7Imf_2_28RGBtoXYZENS_14ChromaticitiesEf@Base 2.2
 _ZN7Imf_2_28RationalC1Ed@Base 2.2
 _ZN7Imf_2_28RationalC2Ed@Base 2.2
 _ZN7Imf_2_28TimeCode10setMinutesEi@Base 2.2
 _ZN7Imf_2_28TimeCode10setSecondsEi@Base 2.2
 _ZN7Imf_2_28TimeCode11setUserDataEj@Base 2.2
 _ZN7Imf_2_28TimeCode12setDropFrameEb@Base 2.2
 _ZN7Imf_2_28TimeCode13setColorFrameEb@Base 2.2
 _ZN7Imf_2_28TimeCode13setFieldPhaseEb@Base 2.2
 _ZN7Imf_2_28TimeCode14setBinaryGroupEii@Base 2.2
 _ZN7Imf_2_28TimeCode15setTimeAndFlagsEjNS0_7PackingE@Base 2.2
 _ZN7Imf_2_28TimeCode7setBgf0Eb@Base 2.2
 _ZN7Imf_2_28TimeCode7setBgf1Eb@Base 2.2
 _ZN7Imf_2_28TimeCode7setBgf2Eb@Base 2.2
 _ZN7Imf_2_28TimeCode8setFrameEi@Base 2.2
 _ZN7Imf_2_28TimeCode8setHoursEi@Base 2.2
 _ZN7Imf_2_28TimeCodeC1ERKS0_@Base 2.2
 _ZN7Imf_2_28TimeCodeC1Eiiiibbbbbbiiiiiiii@Base 2.2
 _ZN7Imf_2_28TimeCodeC1EjjNS0_7PackingE@Base 2.2
 _ZN7Imf_2_28TimeCodeC1Ev@Base 2.2
 _ZN7Imf_2_28TimeCodeC2ERKS0_@Base 2.2
 _ZN7Imf_2_28TimeCodeC2Eiiiibbbbbbiiiiiiii@Base 2.2
 _ZN7Imf_2_28TimeCodeC2EjjNS0_7PackingE@Base 2.2
 _ZN7Imf_2_28TimeCodeC2Ev@Base 2.2
 _ZN7Imf_2_28TimeCodeaSERKS0_@Base 2.2
 _ZN7Imf_2_28XYZtoRGBENS_14ChromaticitiesEf@Base 2.2
 _ZN7Imf_2_28addFocusERNS_6HeaderERKf@Base 2.2
 _ZN7Imf_2_28addOwnerERNS_6HeaderERKNSt7__cxx1112basic_stringIcSt11char_traitsIcESaIcEEE@Base 2.2.0
 _ZN7Imf_2_28altitudeERKNS_6HeaderE@Base 2.2
 _ZN7Imf_2_28altitudeERNS_6HeaderE@Base 2.2
 _ZN7Imf_2_28apertureERKNS_6HeaderE@Base 2.2
 _ZN7Imf_2_28apertureERNS_6HeaderE@Base 2.2
 _ZN7Imf_2_28commentsB5cxx11ERKNS_6HeaderE@Base 2.2.0
 _ZN7Imf_2_28commentsB5cxx11ERNS_6HeaderE@Base 2.2.0
 _ZN7Imf_2_28hasFocusERKNS_6HeaderE@Base 2.2
 _ZN7Imf_2_28hasOwnerERKNS_6HeaderE@Base 2.2
 _ZN7Imf_2_28isoSpeedERKNS_6HeaderE@Base 2.2
 _ZN7Imf_2_28isoSpeedERNS_6HeaderE@Base 2.2
 _ZN7Imf_2_28latitudeERKNS_6HeaderE@Base 2.2
 _ZN7Imf_2_28latitudeERNS_6HeaderE@Base 2.2
 _ZN7Imf_2_28timeCodeERKNS_6HeaderE@Base 2.2
 _ZN7Imf_2_28timeCodeERNS_6HeaderE@Base 2.2
 _ZN7Imf_2_28xDensityERKNS_6HeaderE@Base 2.2
 _ZN7Imf_2_28xDensityERNS_6HeaderE@Base 2.2
 _ZN7Imf_2_29Attribute12newAttributeEPKc@Base 2.2
 _ZN7Imf_2_29Attribute21registerAttributeTypeEPKcPFPS0_vE@Base 2.2
 _ZN7Imf_2_29Attribute23unRegisterAttributeTypeEPKc@Base 2.2
 _ZN7Imf_2_29Attribute9knownTypeEPKc@Base 2.2
 _ZN7Imf_2_29AttributeC1Ev@Base 2.2
 _ZN7Imf_2_29AttributeC2Ev@Base 2.2
 _ZN7Imf_2_29AttributeD0Ev@Base 2.2
 _ZN7Imf_2_29AttributeD1Ev@Base 2.2
 _ZN7Imf_2_29AttributeD2Ev@Base 2.2
 _ZN7Imf_2_29DeepSliceC1ENS_9PixelTypeEPcmmmiidbb@Base 2.2.0
 _ZN7Imf_2_29DeepSliceC2ENS_9PixelTypeEPcmmmiidbb@Base 2.2.0
 _ZN7Imf_2_29InputFile10initializeEv@Base 2.2
 _ZN7Imf_2_29InputFile10readPixelsEi@Base 2.2
 _ZN7Imf_2_29InputFile10readPixelsEii@Base 2.2
 _ZN7Imf_2_29InputFile11rawTileDataERiS1_S1_S1_RPKcS1_@Base 2.2
 _ZN7Imf_2_29InputFile12rawPixelDataEiRPKcRi@Base 2.2
 _ZN7Imf_2_29InputFile14setFrameBufferERKNS_11FrameBufferE@Base 2.2
 _ZN7Imf_2_29InputFile19multiPartInitializeEPNS_13InputPartDataE@Base 2.2
 _ZN7Imf_2_29InputFile23compatibilityInitializeERNS_7IStreamE@Base 2.2
 _ZN7Imf_2_29InputFile4Data18deleteCachedBufferEv@Base 2.2
 _ZN7Imf_2_29InputFile4DataC1Ei@Base 2.2
 _ZN7Imf_2_29InputFile4DataC2Ei@Base 2.2
 _ZN7Imf_2_29InputFile4DataD0Ev@Base 2.2
 _ZN7Imf_2_29InputFile4DataD1Ev@Base 2.2
 _ZN7Imf_2_29InputFile4DataD2Ev@Base 2.2
 _ZN7Imf_2_29InputFile5tFileEv@Base 2.2
 _ZN7Imf_2_29InputFileC1EPKci@Base 2.2
 _ZN7Imf_2_29InputFileC1EPNS_13InputPartDataE@Base 2.2
 _ZN7Imf_2_29InputFileC1ERNS_7IStreamEi@Base 2.2
 _ZN7Imf_2_29InputFileC2EPKci@Base 2.2
 _ZN7Imf_2_29InputFileC2EPNS_13InputPartDataE@Base 2.2
 _ZN7Imf_2_29InputFileC2ERNS_7IStreamEi@Base 2.2
 _ZN7Imf_2_29InputFileD0Ev@Base 2.2
 _ZN7Imf_2_29InputFileD1Ev@Base 2.2
 _ZN7Imf_2_29InputFileD2Ev@Base 2.2
 _ZN7Imf_2_29InputPart10readPixelsEi@Base 2.2
 _ZN7Imf_2_29InputPart10readPixelsEii@Base 2.2
 _ZN7Imf_2_29InputPart11rawTileDataERiS1_S1_S1_RPKcS1_@Base 2.2
 _ZN7Imf_2_29InputPart12rawPixelDataEiRPKcRi@Base 2.2
 _ZN7Imf_2_29InputPart14setFrameBufferERKNS_11FrameBufferE@Base 2.2
 _ZN7Imf_2_29InputPartC1ERNS_18MultiPartInputFileEi@Base 2.2
 _ZN7Imf_2_29InputPartC2ERNS_18MultiPartInputFileEi@Base 2.2
 _ZN7Imf_2_29addEnvmapERNS_6HeaderERKNS_6EnvmapE@Base 2.2
 _ZN7Imf_2_29hasEnvmapERKNS_6HeaderE@Base 2.2
 _ZN7Imf_2_29levelSizeEiiiNS_17LevelRoundingModeE@Base 2.2
 _ZN7Imf_2_29longitudeERKNS_6HeaderE@Base 2.2
 _ZN7Imf_2_29longitudeERNS_6HeaderE@Base 2.2
 _ZN7Imf_2_29multiViewB5cxx11ERKNS_6HeaderE@Base 2.2.0
 _ZN7Imf_2_29multiViewB5cxx11ERNS_6HeaderE@Base 2.2.0
 _ZN7Imf_2_29utcOffsetERKNS_6HeaderE@Base 2.2
 _ZN7Imf_2_29utcOffsetERNS_6HeaderE@Base 2.2
 _ZN7Imf_2_29wrapmodesB5cxx11ERKNS_6HeaderE@Base 2.2.0
 _ZN7Imf_2_29wrapmodesB5cxx11ERNS_6HeaderE@Base 2.2.0
 _ZN9Imath_2_213SingMatrixExcD0Ev@Base 2.2
 _ZN9Imath_2_213SingMatrixExcD1Ev@Base 2.2
 _ZN9Imath_2_213SingMatrixExcD2Ev@Base 2.2
 _ZN9Imath_2_28Matrix44IfE8multiplyERKS1_S3_RS1_@Base 2.2
 _ZNK7Imf_2_210Compressor6formatEv@Base 2.2
 _ZNK7Imf_2_210OutputFile11frameBufferEv@Base 2.2
 _ZNK7Imf_2_210OutputFile15currentScanLineEv@Base 2.2
 _ZNK7Imf_2_210OutputFile6headerEv@Base 2.2
 _ZNK7Imf_2_210OutputFile8fileNameEv@Base 2.2
 _ZNK7Imf_2_210OutputPart11frameBufferEv@Base 2.2
 _ZNK7Imf_2_210OutputPart15currentScanLineEv@Base 2.2
 _ZNK7Imf_2_210OutputPart6headerEv@Base 2.2
 _ZNK7Imf_2_210OutputPart8fileNameEv@Base 2.2
 _ZNK7Imf_2_211ChannelList11findChannelEPKc@Base 2.2
 _ZNK7Imf_2_211ChannelList11findChannelERKNSt7__cxx1112basic_stringIcSt11char_traitsIcESaIcEEE@Base 2.2.0
 _ZNK7Imf_2_211ChannelList15channelsInLayerERKNSt7__cxx1112basic_stringIcSt11char_traitsIcESaIcEEERNS0_13ConstIteratorESA_@Base 2.2.0
 _ZNK7Imf_2_211ChannelList18channelsWithPrefixEPKcRNS0_13ConstIteratorES4_@Base 2.2
 _ZNK7Imf_2_211ChannelList18channelsWithPrefixERKNSt7__cxx1112basic_stringIcSt11char_traitsIcESaIcEEERNS0_13ConstIteratorESA_@Base 2.2.0
 _ZNK7Imf_2_211ChannelList3endEv@Base 2.2
 _ZNK7Imf_2_211ChannelList4findEPKc@Base 2.2
 _ZNK7Imf_2_211ChannelList4findERKNSt7__cxx1112basic_stringIcSt11char_traitsIcESaIcEEE@Base 2.2.0
 _ZNK7Imf_2_211ChannelList5beginEv@Base 2.2
 _ZNK7Imf_2_211ChannelList6layersERSt3setINSt7__cxx1112basic_stringIcSt11char_traitsIcESaIcEEESt4lessIS7_ESaIS7_EE@Base 2.2.0
 _ZNK7Imf_2_211ChannelListeqERKS0_@Base 2.2
 _ZNK7Imf_2_211ChannelListixEPKc@Base 2.2
 _ZNK7Imf_2_211ChannelListixERKNSt7__cxx1112basic_stringIcSt11char_traitsIcESaIcEEE@Base 2.2.0
 _ZNK7Imf_2_211FrameBuffer3endEv@Base 2.2
 _ZNK7Imf_2_211FrameBuffer4findEPKc@Base 2.2
 _ZNK7Imf_2_211FrameBuffer4findERKNSt7__cxx1112basic_stringIcSt11char_traitsIcESaIcEEE@Base 2.2.0
 _ZNK7Imf_2_211FrameBuffer5beginEv@Base 2.2
 _ZNK7Imf_2_211FrameBuffer9findSliceEPKc@Base 2.2
 _ZNK7Imf_2_211FrameBuffer9findSliceERKNSt7__cxx1112basic_stringIcSt11char_traitsIcESaIcEEE@Base 2.2.0
 _ZNK7Imf_2_211FrameBufferixEPKc@Base 2.2
 _ZNK7Imf_2_211FrameBufferixERKNSt7__cxx1112basic_stringIcSt11char_traitsIcESaIcEEE@Base 2.2.0
 _ZNK7Imf_2_211TileOffsets10getOffsetsEv@Base 2.2
 _ZNK7Imf_2_211TileOffsets11isValidTileEiiii@Base 2.2
 _ZNK7Imf_2_211TileOffsets12getTileOrderEPiS1_S1_S1_@Base 2.2
 _ZNK7Imf_2_211TileOffsets20anyOffsetsAreInvalidEv@Base 2.2
 _ZNK7Imf_2_211TileOffsets7isEmptyEv@Base 2.2
 _ZNK7Imf_2_211TileOffsets7writeToERNS_7OStreamE@Base 2.2
 _ZNK7Imf_2_211TileOffsetsclEiii@Base 2.2
 _ZNK7Imf_2_211TileOffsetsclEiiii@Base 2.2
 _ZNK7Imf_2_213AcesInputFile10dataWindowEv@Base 2.2
 _ZNK7Imf_2_213AcesInputFile10isCompleteEv@Base 2.2
 _ZNK7Imf_2_213AcesInputFile11compressionEv@Base 2.2
 _ZNK7Imf_2_213AcesInputFile13displayWindowEv@Base 2.2
 _ZNK7Imf_2_213AcesInputFile16pixelAspectRatioEv@Base 2.2
 _ZNK7Imf_2_213AcesInputFile17screenWindowWidthEv@Base 2.2
 _ZNK7Imf_2_213AcesInputFile18screenWindowCenterEv@Base 2.2
 _ZNK7Imf_2_213AcesInputFile6headerEv@Base 2.2
 _ZNK7Imf_2_213AcesInputFile7versionEv@Base 2.2
 _ZNK7Imf_2_213AcesInputFile8channelsEv@Base 2.2
 _ZNK7Imf_2_213AcesInputFile8fileNameEv@Base 2.2
 _ZNK7Imf_2_213AcesInputFile9lineOrderEv@Base 2.2
 _ZNK7Imf_2_213B44Compressor12numScanLinesEv@Base 2.2
 _ZNK7Imf_2_213B44Compressor6formatEv@Base 2.2
 _ZNK7Imf_2_213DwaCompressor12numScanLinesEv@Base 2.2
 _ZNK7Imf_2_213DwaCompressor20relevantChannelRulesERSt6vectorINS0_10ClassifierESaIS2_EE@Base 2.2
 _ZNK7Imf_2_213DwaCompressor6formatEv@Base 2.2
 _ZNK7Imf_2_213PizCompressor12numScanLinesEv@Base 2.2
 _ZNK7Imf_2_213PizCompressor6formatEv@Base 2.2
 _ZNK7Imf_2_213RgbaInputFile10dataWindowEv@Base 2.2
 _ZNK7Imf_2_213RgbaInputFile10isCompleteEv@Base 2.2
 _ZNK7Imf_2_213RgbaInputFile11compressionEv@Base 2.2
 _ZNK7Imf_2_213RgbaInputFile11frameBufferEv@Base 2.2
 _ZNK7Imf_2_213RgbaInputFile13displayWindowEv@Base 2.2
 _ZNK7Imf_2_213RgbaInputFile16pixelAspectRatioEv@Base 2.2
 _ZNK7Imf_2_213RgbaInputFile17screenWindowWidthEv@Base 2.2
 _ZNK7Imf_2_213RgbaInputFile18screenWindowCenterEv@Base 2.2
 _ZNK7Imf_2_213RgbaInputFile6headerEv@Base 2.2
 _ZNK7Imf_2_213RgbaInputFile7versionEv@Base 2.2
 _ZNK7Imf_2_213RgbaInputFile8channelsEv@Base 2.2
 _ZNK7Imf_2_213RgbaInputFile8fileNameEv@Base 2.2
 _ZNK7Imf_2_213RgbaInputFile9lineOrderEv@Base 2.2
 _ZNK7Imf_2_213RleCompressor12numScanLinesEv@Base 2.2
 _ZNK7Imf_2_213ZipCompressor12numScanLinesEv@Base 2.2
 _ZNK7Imf_2_214AcesOutputFile10dataWindowEv@Base 2.2
 _ZNK7Imf_2_214AcesOutputFile11compressionEv@Base 2.2
 _ZNK7Imf_2_214AcesOutputFile13displayWindowEv@Base 2.2
 _ZNK7Imf_2_214AcesOutputFile15currentScanLineEv@Base 2.2
 _ZNK7Imf_2_214AcesOutputFile16pixelAspectRatioEv@Base 2.2
 _ZNK7Imf_2_214AcesOutputFile17screenWindowWidthEv@Base 2.2
 _ZNK7Imf_2_214AcesOutputFile18screenWindowCenterEv@Base 2.2
 _ZNK7Imf_2_214AcesOutputFile6headerEv@Base 2.2
 _ZNK7Imf_2_214AcesOutputFile8channelsEv@Base 2.2
 _ZNK7Imf_2_214AcesOutputFile9lineOrderEv@Base 2.2
 _ZNK7Imf_2_214ChromaticitieseqERKS0_@Base 2.2
 _ZNK7Imf_2_214ChromaticitiesneERKS0_@Base 2.2
 _ZNK7Imf_2_214RgbaOutputFile10dataWindowEv@Base 2.2
 _ZNK7Imf_2_214RgbaOutputFile11compressionEv@Base 2.2
 _ZNK7Imf_2_214RgbaOutputFile11frameBufferEv@Base 2.2
 _ZNK7Imf_2_214RgbaOutputFile13displayWindowEv@Base 2.2
 _ZNK7Imf_2_214RgbaOutputFile15currentScanLineEv@Base 2.2
 _ZNK7Imf_2_214RgbaOutputFile16pixelAspectRatioEv@Base 2.2
 _ZNK7Imf_2_214RgbaOutputFile17screenWindowWidthEv@Base 2.2
 _ZNK7Imf_2_214RgbaOutputFile18screenWindowCenterEv@Base 2.2
 _ZNK7Imf_2_214RgbaOutputFile5ToYca15currentScanLineEv@Base 2.2
 _ZNK7Imf_2_214RgbaOutputFile6headerEv@Base 2.2
 _ZNK7Imf_2_214RgbaOutputFile8channelsEv@Base 2.2
 _ZNK7Imf_2_214RgbaOutputFile9lineOrderEv@Base 2.2
 _ZNK7Imf_2_214TiledInputFile10isCompleteEv@Base 2.2
 _ZNK7Imf_2_214TiledInputFile10levelWidthEi@Base 2.2
 _ZNK7Imf_2_214TiledInputFile10numXLevelsEv@Base 2.2
 _ZNK7Imf_2_214TiledInputFile10numYLevelsEv@Base 2.2
 _ZNK7Imf_2_214TiledInputFile11frameBufferEv@Base 2.2
 _ZNK7Imf_2_214TiledInputFile11isValidTileEiiii@Base 2.2
 _ZNK7Imf_2_214TiledInputFile11levelHeightEi@Base 2.2
 _ZNK7Imf_2_214TiledInputFile12isValidLevelEii@Base 2.2
 _ZNK7Imf_2_214TiledInputFile17dataWindowForTileEiii@Base 2.2
 _ZNK7Imf_2_214TiledInputFile17dataWindowForTileEiiii@Base 2.2
 _ZNK7Imf_2_214TiledInputFile17levelRoundingModeEv@Base 2.2
 _ZNK7Imf_2_214TiledInputFile18dataWindowForLevelEi@Base 2.2
 _ZNK7Imf_2_214TiledInputFile18dataWindowForLevelEii@Base 2.2
 _ZNK7Imf_2_214TiledInputFile6headerEv@Base 2.2
 _ZNK7Imf_2_214TiledInputFile7versionEv@Base 2.2
 _ZNK7Imf_2_214TiledInputFile8fileNameEv@Base 2.2
 _ZNK7Imf_2_214TiledInputFile9levelModeEv@Base 2.2
 _ZNK7Imf_2_214TiledInputFile9numLevelsEv@Base 2.2
 _ZNK7Imf_2_214TiledInputFile9numXTilesEi@Base 2.2
 _ZNK7Imf_2_214TiledInputFile9numYTilesEi@Base 2.2
 _ZNK7Imf_2_214TiledInputFile9tileOrderEPiS1_S1_S1_@Base 2.2
 _ZNK7Imf_2_214TiledInputFile9tileXSizeEv@Base 2.2
 _ZNK7Imf_2_214TiledInputFile9tileYSizeEv@Base 2.2
 _ZNK7Imf_2_214TiledInputPart10isCompleteEv@Base 2.2
 _ZNK7Imf_2_214TiledInputPart10levelWidthEi@Base 2.2
 _ZNK7Imf_2_214TiledInputPart10numXLevelsEv@Base 2.2
 _ZNK7Imf_2_214TiledInputPart10numYLevelsEv@Base 2.2
 _ZNK7Imf_2_214TiledInputPart11frameBufferEv@Base 2.2
 _ZNK7Imf_2_214TiledInputPart11levelHeightEi@Base 2.2
 _ZNK7Imf_2_214TiledInputPart12isValidLevelEii@Base 2.2
 _ZNK7Imf_2_214TiledInputPart17dataWindowForTileEiii@Base 2.2
 _ZNK7Imf_2_214TiledInputPart17dataWindowForTileEiiii@Base 2.2
 _ZNK7Imf_2_214TiledInputPart17levelRoundingModeEv@Base 2.2
 _ZNK7Imf_2_214TiledInputPart18dataWindowForLevelEi@Base 2.2
 _ZNK7Imf_2_214TiledInputPart18dataWindowForLevelEii@Base 2.2
 _ZNK7Imf_2_214TiledInputPart6headerEv@Base 2.2
 _ZNK7Imf_2_214TiledInputPart7versionEv@Base 2.2
 _ZNK7Imf_2_214TiledInputPart8fileNameEv@Base 2.2
 _ZNK7Imf_2_214TiledInputPart9levelModeEv@Base 2.2
 _ZNK7Imf_2_214TiledInputPart9numLevelsEv@Base 2.2
 _ZNK7Imf_2_214TiledInputPart9numXTilesEi@Base 2.2
 _ZNK7Imf_2_214TiledInputPart9numYTilesEi@Base 2.2
 _ZNK7Imf_2_214TiledInputPart9tileXSizeEv@Base 2.2
 _ZNK7Imf_2_214TiledInputPart9tileYSizeEv@Base 2.2
 _ZNK7Imf_2_214TypedAttributeIN9Imath_2_23BoxINS1_4Vec2IfEEEEE12writeValueToERNS_7OStreamEi@Base 2.2
 _ZNK7Imf_2_214TypedAttributeIN9Imath_2_23BoxINS1_4Vec2IfEEEEE4copyEv@Base 2.2
 _ZNK7Imf_2_214TypedAttributeIN9Imath_2_23BoxINS1_4Vec2IfEEEEE8typeNameEv@Base 2.2
 _ZNK7Imf_2_214TypedAttributeIN9Imath_2_23BoxINS1_4Vec2IiEEEEE12writeValueToERNS_7OStreamEi@Base 2.2
 _ZNK7Imf_2_214TypedAttributeIN9Imath_2_23BoxINS1_4Vec2IiEEEEE4copyEv@Base 2.2
 _ZNK7Imf_2_214TypedAttributeIN9Imath_2_23BoxINS1_4Vec2IiEEEEE8typeNameEv@Base 2.2
 _ZNK7Imf_2_214TypedAttributeIN9Imath_2_24Vec2IdEEE12writeValueToERNS_7OStreamEi@Base 2.2
 _ZNK7Imf_2_214TypedAttributeIN9Imath_2_24Vec2IdEEE4copyEv@Base 2.2
 _ZNK7Imf_2_214TypedAttributeIN9Imath_2_24Vec2IdEEE8typeNameEv@Base 2.2
 _ZNK7Imf_2_214TypedAttributeIN9Imath_2_24Vec2IfEEE12writeValueToERNS_7OStreamEi@Base 2.2
 _ZNK7Imf_2_214TypedAttributeIN9Imath_2_24Vec2IfEEE4copyEv@Base 2.2
 _ZNK7Imf_2_214TypedAttributeIN9Imath_2_24Vec2IfEEE8typeNameEv@Base 2.2
 _ZNK7Imf_2_214TypedAttributeIN9Imath_2_24Vec2IiEEE12writeValueToERNS_7OStreamEi@Base 2.2
 _ZNK7Imf_2_214TypedAttributeIN9Imath_2_24Vec2IiEEE4copyEv@Base 2.2
 _ZNK7Imf_2_214TypedAttributeIN9Imath_2_24Vec2IiEEE8typeNameEv@Base 2.2
 _ZNK7Imf_2_214TypedAttributeIN9Imath_2_24Vec3IdEEE12writeValueToERNS_7OStreamEi@Base 2.2
 _ZNK7Imf_2_214TypedAttributeIN9Imath_2_24Vec3IdEEE4copyEv@Base 2.2
 _ZNK7Imf_2_214TypedAttributeIN9Imath_2_24Vec3IdEEE8typeNameEv@Base 2.2
 _ZNK7Imf_2_214TypedAttributeIN9Imath_2_24Vec3IfEEE12writeValueToERNS_7OStreamEi@Base 2.2
 _ZNK7Imf_2_214TypedAttributeIN9Imath_2_24Vec3IfEEE4copyEv@Base 2.2
 _ZNK7Imf_2_214TypedAttributeIN9Imath_2_24Vec3IfEEE8typeNameEv@Base 2.2
 _ZNK7Imf_2_214TypedAttributeIN9Imath_2_24Vec3IiEEE12writeValueToERNS_7OStreamEi@Base 2.2
 _ZNK7Imf_2_214TypedAttributeIN9Imath_2_24Vec3IiEEE4copyEv@Base 2.2
 _ZNK7Imf_2_214TypedAttributeIN9Imath_2_24Vec3IiEEE8typeNameEv@Base 2.2
 _ZNK7Imf_2_214TypedAttributeIN9Imath_2_28Matrix33IdEEE12writeValueToERNS_7OStreamEi@Base 2.2
 _ZNK7Imf_2_214TypedAttributeIN9Imath_2_28Matrix33IdEEE4copyEv@Base 2.2
 _ZNK7Imf_2_214TypedAttributeIN9Imath_2_28Matrix33IdEEE8typeNameEv@Base 2.2
 _ZNK7Imf_2_214TypedAttributeIN9Imath_2_28Matrix33IfEEE12writeValueToERNS_7OStreamEi@Base 2.2
 _ZNK7Imf_2_214TypedAttributeIN9Imath_2_28Matrix33IfEEE4copyEv@Base 2.2
 _ZNK7Imf_2_214TypedAttributeIN9Imath_2_28Matrix33IfEEE8typeNameEv@Base 2.2
 _ZNK7Imf_2_214TypedAttributeIN9Imath_2_28Matrix44IdEEE12writeValueToERNS_7OStreamEi@Base 2.2
 _ZNK7Imf_2_214TypedAttributeIN9Imath_2_28Matrix44IdEEE4copyEv@Base 2.2
 _ZNK7Imf_2_214TypedAttributeIN9Imath_2_28Matrix44IdEEE8typeNameEv@Base 2.2
 _ZNK7Imf_2_214TypedAttributeIN9Imath_2_28Matrix44IfEEE12writeValueToERNS_7OStreamEi@Base 2.2
 _ZNK7Imf_2_214TypedAttributeIN9Imath_2_28Matrix44IfEEE4copyEv@Base 2.2
 _ZNK7Imf_2_214TypedAttributeIN9Imath_2_28Matrix44IfEEE8typeNameEv@Base 2.2
 _ZNK7Imf_2_214TypedAttributeINS_11ChannelListEE12writeValueToERNS_7OStreamEi@Base 2.2
 _ZNK7Imf_2_214TypedAttributeINS_11ChannelListEE4copyEv@Base 2.2
 _ZNK7Imf_2_214TypedAttributeINS_11ChannelListEE8typeNameEv@Base 2.2
 _ZNK7Imf_2_214TypedAttributeINS_11CompressionEE12writeValueToERNS_7OStreamEi@Base 2.2
 _ZNK7Imf_2_214TypedAttributeINS_11CompressionEE4copyEv@Base 2.2
 _ZNK7Imf_2_214TypedAttributeINS_11CompressionEE8typeNameEv@Base 2.2
 _ZNK7Imf_2_214TypedAttributeINS_12PreviewImageEE12writeValueToERNS_7OStreamEi@Base 2.2
 _ZNK7Imf_2_214TypedAttributeINS_12PreviewImageEE4copyEv@Base 2.2
 _ZNK7Imf_2_214TypedAttributeINS_12PreviewImageEE8typeNameEv@Base 2.2
 _ZNK7Imf_2_214TypedAttributeINS_14ChromaticitiesEE12writeValueToERNS_7OStreamEi@Base 2.2
 _ZNK7Imf_2_214TypedAttributeINS_14ChromaticitiesEE4copyEv@Base 2.2
 _ZNK7Imf_2_214TypedAttributeINS_14ChromaticitiesEE8typeNameEv@Base 2.2
 _ZNK7Imf_2_214TypedAttributeINS_14DeepImageStateEE12writeValueToERNS_7OStreamEi@Base 2.2
 _ZNK7Imf_2_214TypedAttributeINS_14DeepImageStateEE4copyEv@Base 2.2
 _ZNK7Imf_2_214TypedAttributeINS_14DeepImageStateEE8typeNameEv@Base 2.2
 _ZNK7Imf_2_214TypedAttributeINS_15TileDescriptionEE12writeValueToERNS_7OStreamEi@Base 2.2
 _ZNK7Imf_2_214TypedAttributeINS_15TileDescriptionEE4copyEv@Base 2.2
 _ZNK7Imf_2_214TypedAttributeINS_15TileDescriptionEE8typeNameEv@Base 2.2
 _ZNK7Imf_2_214TypedAttributeINS_6EnvmapEE12writeValueToERNS_7OStreamEi@Base 2.2
 _ZNK7Imf_2_214TypedAttributeINS_6EnvmapEE4copyEv@Base 2.2
 _ZNK7Imf_2_214TypedAttributeINS_6EnvmapEE8typeNameEv@Base 2.2
 _ZNK7Imf_2_214TypedAttributeINS_7KeyCodeEE12writeValueToERNS_7OStreamEi@Base 2.2
 _ZNK7Imf_2_214TypedAttributeINS_7KeyCodeEE4copyEv@Base 2.2
 _ZNK7Imf_2_214TypedAttributeINS_7KeyCodeEE8typeNameEv@Base 2.2
 _ZNK7Imf_2_214TypedAttributeINS_8RationalEE12writeValueToERNS_7OStreamEi@Base 2.2
 _ZNK7Imf_2_214TypedAttributeINS_8RationalEE4copyEv@Base 2.2
 _ZNK7Imf_2_214TypedAttributeINS_8RationalEE8typeNameEv@Base 2.2
 _ZNK7Imf_2_214TypedAttributeINS_8TimeCodeEE12writeValueToERNS_7OStreamEi@Base 2.2
 _ZNK7Imf_2_214TypedAttributeINS_8TimeCodeEE4copyEv@Base 2.2
 _ZNK7Imf_2_214TypedAttributeINS_8TimeCodeEE8typeNameEv@Base 2.2
 _ZNK7Imf_2_214TypedAttributeINS_9LineOrderEE12writeValueToERNS_7OStreamEi@Base 2.2
 _ZNK7Imf_2_214TypedAttributeINS_9LineOrderEE4copyEv@Base 2.2
 _ZNK7Imf_2_214TypedAttributeINS_9LineOrderEE8typeNameEv@Base 2.2
 _ZNK7Imf_2_214TypedAttributeINSt7__cxx1112basic_stringIcSt11char_traitsIcESaIcEEEE12writeValueToERNS_7OStreamEi@Base 2.2.0
 _ZNK7Imf_2_214TypedAttributeINSt7__cxx1112basic_stringIcSt11char_traitsIcESaIcEEEE4copyEv@Base 2.2.0
 _ZNK7Imf_2_214TypedAttributeINSt7__cxx1112basic_stringIcSt11char_traitsIcESaIcEEEE8typeNameEv@Base 2.2.0
 _ZNK7Imf_2_214TypedAttributeISt6vectorINSt7__cxx1112basic_stringIcSt11char_traitsIcESaIcEEESaIS7_EEE12writeValueToERNS_7OStreamEi@Base 2.2.0
 _ZNK7Imf_2_214TypedAttributeISt6vectorINSt7__cxx1112basic_stringIcSt11char_traitsIcESaIcEEESaIS7_EEE4copyEv@Base 2.2.0
 _ZNK7Imf_2_214TypedAttributeISt6vectorINSt7__cxx1112basic_stringIcSt11char_traitsIcESaIcEEESaIS7_EEE8typeNameEv@Base 2.2.0
 _ZNK7Imf_2_214TypedAttributeISt6vectorIfSaIfEEE12writeValueToERNS_7OStreamEi@Base 2.2
 _ZNK7Imf_2_214TypedAttributeISt6vectorIfSaIfEEE4copyEv@Base 2.2
 _ZNK7Imf_2_214TypedAttributeISt6vectorIfSaIfEEE8typeNameEv@Base 2.2
 _ZNK7Imf_2_214TypedAttributeIdE12writeValueToERNS_7OStreamEi@Base 2.2
 _ZNK7Imf_2_214TypedAttributeIdE4copyEv@Base 2.2
 _ZNK7Imf_2_214TypedAttributeIdE8typeNameEv@Base 2.2
 _ZNK7Imf_2_214TypedAttributeIfE12writeValueToERNS_7OStreamEi@Base 2.2
 _ZNK7Imf_2_214TypedAttributeIfE4copyEv@Base 2.2
 _ZNK7Imf_2_214TypedAttributeIfE8typeNameEv@Base 2.2
 _ZNK7Imf_2_214TypedAttributeIiE12writeValueToERNS_7OStreamEi@Base 2.2
 _ZNK7Imf_2_214TypedAttributeIiE4copyEv@Base 2.2
 _ZNK7Imf_2_214TypedAttributeIiE8typeNameEv@Base 2.2
 _ZNK7Imf_2_215DeepFrameBuffer19getSampleCountSliceEv@Base 2.2
 _ZNK7Imf_2_215DeepFrameBuffer3endEv@Base 2.2
 _ZNK7Imf_2_215DeepFrameBuffer4findEPKc@Base 2.2
 _ZNK7Imf_2_215DeepFrameBuffer4findERKNSt7__cxx1112basic_stringIcSt11char_traitsIcESaIcEEE@Base 2.2.0
 _ZNK7Imf_2_215DeepFrameBuffer5beginEv@Base 2.2
 _ZNK7Imf_2_215DeepFrameBuffer9findSliceEPKc@Base 2.2
 _ZNK7Imf_2_215DeepFrameBuffer9findSliceERKNSt7__cxx1112basic_stringIcSt11char_traitsIcESaIcEEE@Base 2.2.0
 _ZNK7Imf_2_215DeepFrameBufferixEPKc@Base 2.2
 _ZNK7Imf_2_215DeepFrameBufferixERKNSt7__cxx1112basic_stringIcSt11char_traitsIcESaIcEEE@Base 2.2.0
 _ZNK7Imf_2_215OpaqueAttribute12writeValueToERNS_7OStreamEi@Base 2.2
 _ZNK7Imf_2_215OpaqueAttribute4copyEv@Base 2.2
 _ZNK7Imf_2_215OpaqueAttribute8typeNameEv@Base 2.2
 _ZNK7Imf_2_215Pxr24Compressor12numScanLinesEv@Base 2.2
 _ZNK7Imf_2_215Pxr24Compressor6formatEv@Base 2.2
 _ZNK7Imf_2_215TiledOutputFile10levelWidthEi@Base 2.2
 _ZNK7Imf_2_215TiledOutputFile10numXLevelsEv@Base 2.2
 _ZNK7Imf_2_215TiledOutputFile10numYLevelsEv@Base 2.2
 _ZNK7Imf_2_215TiledOutputFile11frameBufferEv@Base 2.2
 _ZNK7Imf_2_215TiledOutputFile11isValidTileEiiii@Base 2.2
 _ZNK7Imf_2_215TiledOutputFile11levelHeightEi@Base 2.2
 _ZNK7Imf_2_215TiledOutputFile12isValidLevelEii@Base 2.2
 _ZNK7Imf_2_215TiledOutputFile17dataWindowForTileEiii@Base 2.2
 _ZNK7Imf_2_215TiledOutputFile17dataWindowForTileEiiii@Base 2.2
 _ZNK7Imf_2_215TiledOutputFile17levelRoundingModeEv@Base 2.2
 _ZNK7Imf_2_215TiledOutputFile18dataWindowForLevelEi@Base 2.2
 _ZNK7Imf_2_215TiledOutputFile18dataWindowForLevelEii@Base 2.2
 _ZNK7Imf_2_215TiledOutputFile6headerEv@Base 2.2
 _ZNK7Imf_2_215TiledOutputFile8fileNameEv@Base 2.2
 _ZNK7Imf_2_215TiledOutputFile9levelModeEv@Base 2.2
 _ZNK7Imf_2_215TiledOutputFile9numLevelsEv@Base 2.2
 _ZNK7Imf_2_215TiledOutputFile9numXTilesEi@Base 2.2
 _ZNK7Imf_2_215TiledOutputFile9numYTilesEi@Base 2.2
 _ZNK7Imf_2_215TiledOutputFile9tileXSizeEv@Base 2.2
 _ZNK7Imf_2_215TiledOutputFile9tileYSizeEv@Base 2.2
 _ZNK7Imf_2_215TiledOutputPart10levelWidthEi@Base 2.2
 _ZNK7Imf_2_215TiledOutputPart10numXLevelsEv@Base 2.2
 _ZNK7Imf_2_215TiledOutputPart10numYLevelsEv@Base 2.2
 _ZNK7Imf_2_215TiledOutputPart11frameBufferEv@Base 2.2
 _ZNK7Imf_2_215TiledOutputPart11levelHeightEi@Base 2.2
 _ZNK7Imf_2_215TiledOutputPart12isValidLevelEii@Base 2.2
 _ZNK7Imf_2_215TiledOutputPart17dataWindowForTileEiii@Base 2.2
 _ZNK7Imf_2_215TiledOutputPart17dataWindowForTileEiiii@Base 2.2
 _ZNK7Imf_2_215TiledOutputPart17levelRoundingModeEv@Base 2.2
 _ZNK7Imf_2_215TiledOutputPart18dataWindowForLevelEi@Base 2.2
 _ZNK7Imf_2_215TiledOutputPart18dataWindowForLevelEii@Base 2.2
 _ZNK7Imf_2_215TiledOutputPart6headerEv@Base 2.2
 _ZNK7Imf_2_215TiledOutputPart8fileNameEv@Base 2.2
 _ZNK7Imf_2_215TiledOutputPart9levelModeEv@Base 2.2
 _ZNK7Imf_2_215TiledOutputPart9numLevelsEv@Base 2.2
 _ZNK7Imf_2_215TiledOutputPart9numXTilesEi@Base 2.2
 _ZNK7Imf_2_215TiledOutputPart9numYTilesEi@Base 2.2
 _ZNK7Imf_2_215TiledOutputPart9tileXSizeEv@Base 2.2
 _ZNK7Imf_2_215TiledOutputPart9tileYSizeEv@Base 2.2
 _ZNK7Imf_2_217ScanLineInputFile10isCompleteEv@Base 2.2
 _ZNK7Imf_2_217ScanLineInputFile11frameBufferEv@Base 2.2
 _ZNK7Imf_2_217ScanLineInputFile21isOptimizationEnabledEv@Base 2.2
 _ZNK7Imf_2_217ScanLineInputFile6headerEv@Base 2.2
 _ZNK7Imf_2_217ScanLineInputFile7versionEv@Base 2.2
 _ZNK7Imf_2_217ScanLineInputFile8fileNameEv@Base 2.2
 _ZNK7Imf_2_218DeepTiledInputFile10isCompleteEv@Base 2.2
 _ZNK7Imf_2_218DeepTiledInputFile10levelWidthEi@Base 2.2
 _ZNK7Imf_2_218DeepTiledInputFile10numXLevelsEv@Base 2.2
 _ZNK7Imf_2_218DeepTiledInputFile10numYLevelsEv@Base 2.2
 _ZNK7Imf_2_218DeepTiledInputFile10totalTilesEv@Base 2.2
 _ZNK7Imf_2_218DeepTiledInputFile11frameBufferEv@Base 2.2
 _ZNK7Imf_2_218DeepTiledInputFile11isValidTileEiiii@Base 2.2
 _ZNK7Imf_2_218DeepTiledInputFile11levelHeightEi@Base 2.2
 _ZNK7Imf_2_218DeepTiledInputFile11rawTileDataERiS1_S1_S1_PcRm@Base 2.2.0
 _ZNK7Imf_2_218DeepTiledInputFile12getTileOrderEPiS1_S1_S1_@Base 2.2
 _ZNK7Imf_2_218DeepTiledInputFile12isValidLevelEii@Base 2.2
 _ZNK7Imf_2_218DeepTiledInputFile17dataWindowForTileEiii@Base 2.2
 _ZNK7Imf_2_218DeepTiledInputFile17dataWindowForTileEiiii@Base 2.2
 _ZNK7Imf_2_218DeepTiledInputFile17levelRoundingModeEv@Base 2.2
 _ZNK7Imf_2_218DeepTiledInputFile18dataWindowForLevelEi@Base 2.2
 _ZNK7Imf_2_218DeepTiledInputFile18dataWindowForLevelEii@Base 2.2
 _ZNK7Imf_2_218DeepTiledInputFile6headerEv@Base 2.2
 _ZNK7Imf_2_218DeepTiledInputFile7versionEv@Base 2.2
 _ZNK7Imf_2_218DeepTiledInputFile8fileNameEv@Base 2.2
 _ZNK7Imf_2_218DeepTiledInputFile9levelModeEv@Base 2.2
 _ZNK7Imf_2_218DeepTiledInputFile9numLevelsEv@Base 2.2
 _ZNK7Imf_2_218DeepTiledInputFile9numXTilesEi@Base 2.2
 _ZNK7Imf_2_218DeepTiledInputFile9numYTilesEi@Base 2.2
 _ZNK7Imf_2_218DeepTiledInputFile9tileXSizeEv@Base 2.2
 _ZNK7Imf_2_218DeepTiledInputFile9tileYSizeEv@Base 2.2
 _ZNK7Imf_2_218DeepTiledInputPart10isCompleteEv@Base 2.2
 _ZNK7Imf_2_218DeepTiledInputPart10levelWidthEi@Base 2.2
 _ZNK7Imf_2_218DeepTiledInputPart10numXLevelsEv@Base 2.2
 _ZNK7Imf_2_218DeepTiledInputPart10numYLevelsEv@Base 2.2
 _ZNK7Imf_2_218DeepTiledInputPart11frameBufferEv@Base 2.2
 _ZNK7Imf_2_218DeepTiledInputPart11levelHeightEi@Base 2.2
 _ZNK7Imf_2_218DeepTiledInputPart11rawTileDataERiS1_S1_S1_PcRm@Base 2.2.0
 _ZNK7Imf_2_218DeepTiledInputPart12isValidLevelEii@Base 2.2
 _ZNK7Imf_2_218DeepTiledInputPart17dataWindowForTileEiii@Base 2.2
 _ZNK7Imf_2_218DeepTiledInputPart17dataWindowForTileEiiii@Base 2.2
 _ZNK7Imf_2_218DeepTiledInputPart17levelRoundingModeEv@Base 2.2
 _ZNK7Imf_2_218DeepTiledInputPart18dataWindowForLevelEi@Base 2.2
 _ZNK7Imf_2_218DeepTiledInputPart18dataWindowForLevelEii@Base 2.2
 _ZNK7Imf_2_218DeepTiledInputPart6headerEv@Base 2.2
 _ZNK7Imf_2_218DeepTiledInputPart7versionEv@Base 2.2
 _ZNK7Imf_2_218DeepTiledInputPart8fileNameEv@Base 2.2
 _ZNK7Imf_2_218DeepTiledInputPart9levelModeEv@Base 2.2
 _ZNK7Imf_2_218DeepTiledInputPart9numLevelsEv@Base 2.2
 _ZNK7Imf_2_218DeepTiledInputPart9numXTilesEi@Base 2.2
 _ZNK7Imf_2_218DeepTiledInputPart9numYTilesEi@Base 2.2
 _ZNK7Imf_2_218DeepTiledInputPart9tileXSizeEv@Base 2.2
 _ZNK7Imf_2_218DeepTiledInputPart9tileYSizeEv@Base 2.2
 _ZNK7Imf_2_218MultiPartInputFile12partCompleteEi@Base 2.2
 _ZNK7Imf_2_218MultiPartInputFile4Data27checkSharedAttributesValuesERKNS_6HeaderES4_RSt6vectorINSt7__cxx1112basic_stringIcSt11char_traitsIcESaIcEEESaISB_EE@Base 2.2.0
 _ZNK7Imf_2_218MultiPartInputFile5partsEv@Base 2.2
 _ZNK7Imf_2_218MultiPartInputFile6headerEi@Base 2.2
 _ZNK7Imf_2_218MultiPartInputFile7versionEv@Base 2.2
 _ZNK7Imf_2_218TiledRgbaInputFile10dataWindowEv@Base 2.2
 _ZNK7Imf_2_218TiledRgbaInputFile10isCompleteEv@Base 2.2
 _ZNK7Imf_2_218TiledRgbaInputFile10levelWidthEi@Base 2.2
 _ZNK7Imf_2_218TiledRgbaInputFile10numXLevelsEv@Base 2.2
 _ZNK7Imf_2_218TiledRgbaInputFile10numYLevelsEv@Base 2.2
 _ZNK7Imf_2_218TiledRgbaInputFile11compressionEv@Base 2.2
 _ZNK7Imf_2_218TiledRgbaInputFile11frameBufferEv@Base 2.2
 _ZNK7Imf_2_218TiledRgbaInputFile11levelHeightEi@Base 2.2
 _ZNK7Imf_2_218TiledRgbaInputFile12isValidLevelEii@Base 2.2
 _ZNK7Imf_2_218TiledRgbaInputFile13displayWindowEv@Base 2.2
 _ZNK7Imf_2_218TiledRgbaInputFile16pixelAspectRatioEv@Base 2.2
 _ZNK7Imf_2_218TiledRgbaInputFile17dataWindowForTileEiii@Base 2.2
 _ZNK7Imf_2_218TiledRgbaInputFile17dataWindowForTileEiiii@Base 2.2
 _ZNK7Imf_2_218TiledRgbaInputFile17levelRoundingModeEv@Base 2.2
 _ZNK7Imf_2_218TiledRgbaInputFile17screenWindowWidthEv@Base 2.2
 _ZNK7Imf_2_218TiledRgbaInputFile18dataWindowForLevelEi@Base 2.2
 _ZNK7Imf_2_218TiledRgbaInputFile18dataWindowForLevelEii@Base 2.2
 _ZNK7Imf_2_218TiledRgbaInputFile18screenWindowCenterEv@Base 2.2
 _ZNK7Imf_2_218TiledRgbaInputFile6headerEv@Base 2.2
 _ZNK7Imf_2_218TiledRgbaInputFile7versionEv@Base 2.2
 _ZNK7Imf_2_218TiledRgbaInputFile8channelsEv@Base 2.2
 _ZNK7Imf_2_218TiledRgbaInputFile8fileNameEv@Base 2.2
 _ZNK7Imf_2_218TiledRgbaInputFile9levelModeEv@Base 2.2
 _ZNK7Imf_2_218TiledRgbaInputFile9lineOrderEv@Base 2.2
 _ZNK7Imf_2_218TiledRgbaInputFile9numLevelsEv@Base 2.2
 _ZNK7Imf_2_218TiledRgbaInputFile9numXTilesEi@Base 2.2
 _ZNK7Imf_2_218TiledRgbaInputFile9numYTilesEi@Base 2.2
 _ZNK7Imf_2_218TiledRgbaInputFile9tileXSizeEv@Base 2.2
 _ZNK7Imf_2_218TiledRgbaInputFile9tileYSizeEv@Base 2.2
 _ZNK7Imf_2_219DeepTiledOutputFile10levelWidthEi@Base 2.2
 _ZNK7Imf_2_219DeepTiledOutputFile10numXLevelsEv@Base 2.2
 _ZNK7Imf_2_219DeepTiledOutputFile10numYLevelsEv@Base 2.2
 _ZNK7Imf_2_219DeepTiledOutputFile11frameBufferEv@Base 2.2
 _ZNK7Imf_2_219DeepTiledOutputFile11isValidTileEiiii@Base 2.2
 _ZNK7Imf_2_219DeepTiledOutputFile11levelHeightEi@Base 2.2
 _ZNK7Imf_2_219DeepTiledOutputFile12isValidLevelEii@Base 2.2
 _ZNK7Imf_2_219DeepTiledOutputFile17dataWindowForTileEiii@Base 2.2
 _ZNK7Imf_2_219DeepTiledOutputFile17dataWindowForTileEiiii@Base 2.2
 _ZNK7Imf_2_219DeepTiledOutputFile17levelRoundingModeEv@Base 2.2
 _ZNK7Imf_2_219DeepTiledOutputFile18dataWindowForLevelEi@Base 2.2
 _ZNK7Imf_2_219DeepTiledOutputFile18dataWindowForLevelEii@Base 2.2
 _ZNK7Imf_2_219DeepTiledOutputFile6headerEv@Base 2.2
 _ZNK7Imf_2_219DeepTiledOutputFile8fileNameEv@Base 2.2
 _ZNK7Imf_2_219DeepTiledOutputFile9levelModeEv@Base 2.2
 _ZNK7Imf_2_219DeepTiledOutputFile9numLevelsEv@Base 2.2
 _ZNK7Imf_2_219DeepTiledOutputFile9numXTilesEi@Base 2.2
 _ZNK7Imf_2_219DeepTiledOutputFile9numYTilesEi@Base 2.2
 _ZNK7Imf_2_219DeepTiledOutputFile9tileXSizeEv@Base 2.2
 _ZNK7Imf_2_219DeepTiledOutputFile9tileYSizeEv@Base 2.2
 _ZNK7Imf_2_219DeepTiledOutputPart10levelWidthEi@Base 2.2
 _ZNK7Imf_2_219DeepTiledOutputPart10numXLevelsEv@Base 2.2
 _ZNK7Imf_2_219DeepTiledOutputPart10numYLevelsEv@Base 2.2
 _ZNK7Imf_2_219DeepTiledOutputPart11frameBufferEv@Base 2.2
 _ZNK7Imf_2_219DeepTiledOutputPart11levelHeightEi@Base 2.2
 _ZNK7Imf_2_219DeepTiledOutputPart12isValidLevelEii@Base 2.2
 _ZNK7Imf_2_219DeepTiledOutputPart17dataWindowForTileEiii@Base 2.2
 _ZNK7Imf_2_219DeepTiledOutputPart17dataWindowForTileEiiii@Base 2.2
 _ZNK7Imf_2_219DeepTiledOutputPart17levelRoundingModeEv@Base 2.2
 _ZNK7Imf_2_219DeepTiledOutputPart18dataWindowForLevelEi@Base 2.2
 _ZNK7Imf_2_219DeepTiledOutputPart18dataWindowForLevelEii@Base 2.2
 _ZNK7Imf_2_219DeepTiledOutputPart6headerEv@Base 2.2
 _ZNK7Imf_2_219DeepTiledOutputPart8fileNameEv@Base 2.2
 _ZNK7Imf_2_219DeepTiledOutputPart9levelModeEv@Base 2.2
 _ZNK7Imf_2_219DeepTiledOutputPart9numLevelsEv@Base 2.2
 _ZNK7Imf_2_219DeepTiledOutputPart9numXTilesEi@Base 2.2
 _ZNK7Imf_2_219DeepTiledOutputPart9numYTilesEi@Base 2.2
 _ZNK7Imf_2_219DeepTiledOutputPart9tileXSizeEv@Base 2.2
 _ZNK7Imf_2_219DeepTiledOutputPart9tileYSizeEv@Base 2.2
 _ZNK7Imf_2_219MultiPartOutputFile4Data27checkSharedAttributesValuesERKNS_6HeaderES4_RSt6vectorINSt7__cxx1112basic_stringIcSt11char_traitsIcESaIcEEESaISB_EE@Base 2.2.0
 _ZNK7Imf_2_219MultiPartOutputFile5partsEv@Base 2.2
 _ZNK7Imf_2_219MultiPartOutputFile6headerEi@Base 2.2
 _ZNK7Imf_2_219TiledRgbaOutputFile10dataWindowEv@Base 2.2
 _ZNK7Imf_2_219TiledRgbaOutputFile10levelWidthEi@Base 2.2
 _ZNK7Imf_2_219TiledRgbaOutputFile10numXLevelsEv@Base 2.2
 _ZNK7Imf_2_219TiledRgbaOutputFile10numYLevelsEv@Base 2.2
 _ZNK7Imf_2_219TiledRgbaOutputFile11compressionEv@Base 2.2
 _ZNK7Imf_2_219TiledRgbaOutputFile11frameBufferEv@Base 2.2
 _ZNK7Imf_2_219TiledRgbaOutputFile11levelHeightEi@Base 2.2
 _ZNK7Imf_2_219TiledRgbaOutputFile12isValidLevelEii@Base 2.2
 _ZNK7Imf_2_219TiledRgbaOutputFile13displayWindowEv@Base 2.2
 _ZNK7Imf_2_219TiledRgbaOutputFile16pixelAspectRatioEv@Base 2.2
 _ZNK7Imf_2_219TiledRgbaOutputFile17dataWindowForTileEiii@Base 2.2
 _ZNK7Imf_2_219TiledRgbaOutputFile17dataWindowForTileEiiii@Base 2.2
 _ZNK7Imf_2_219TiledRgbaOutputFile17levelRoundingModeEv@Base 2.2
 _ZNK7Imf_2_219TiledRgbaOutputFile17screenWindowWidthEv@Base 2.2
 _ZNK7Imf_2_219TiledRgbaOutputFile18dataWindowForLevelEi@Base 2.2
 _ZNK7Imf_2_219TiledRgbaOutputFile18dataWindowForLevelEii@Base 2.2
 _ZNK7Imf_2_219TiledRgbaOutputFile18screenWindowCenterEv@Base 2.2
 _ZNK7Imf_2_219TiledRgbaOutputFile6headerEv@Base 2.2
 _ZNK7Imf_2_219TiledRgbaOutputFile8channelsEv@Base 2.2
 _ZNK7Imf_2_219TiledRgbaOutputFile9levelModeEv@Base 2.2
 _ZNK7Imf_2_219TiledRgbaOutputFile9lineOrderEv@Base 2.2
 _ZNK7Imf_2_219TiledRgbaOutputFile9numLevelsEv@Base 2.2
 _ZNK7Imf_2_219TiledRgbaOutputFile9numXTilesEi@Base 2.2
 _ZNK7Imf_2_219TiledRgbaOutputFile9numYTilesEi@Base 2.2
 _ZNK7Imf_2_219TiledRgbaOutputFile9tileXSizeEv@Base 2.2
 _ZNK7Imf_2_219TiledRgbaOutputFile9tileYSizeEv@Base 2.2
 _ZNK7Imf_2_221CompositeDeepScanLine10dataWindowEv@Base 2.2
 _ZNK7Imf_2_221CompositeDeepScanLine11frameBufferEv@Base 2.2
 _ZNK7Imf_2_221CompositeDeepScanLine7sourcesEv@Base 2.2
 _ZNK7Imf_2_221DeepScanLineInputFile10isCompleteEv@Base 2.2
 _ZNK7Imf_2_221DeepScanLineInputFile10readPixelsEPKcRKNS_15DeepFrameBufferEii@Base 2.2
 _ZNK7Imf_2_221DeepScanLineInputFile11frameBufferEv@Base 2.2
 _ZNK7Imf_2_221DeepScanLineInputFile19lastScanLineInChunkEi@Base 2.2
 _ZNK7Imf_2_221DeepScanLineInputFile20firstScanLineInChunkEi@Base 2.2
 _ZNK7Imf_2_221DeepScanLineInputFile21readPixelSampleCountsEPKcRKNS_15DeepFrameBufferEii@Base 2.2
 _ZNK7Imf_2_221DeepScanLineInputFile6headerEv@Base 2.2
 _ZNK7Imf_2_221DeepScanLineInputFile7versionEv@Base 2.2
 _ZNK7Imf_2_221DeepScanLineInputFile8fileNameEv@Base 2.2
 _ZNK7Imf_2_221DeepScanLineInputPart10isCompleteEv@Base 2.2
 _ZNK7Imf_2_221DeepScanLineInputPart10readPixelsEPKcRKNS_15DeepFrameBufferEii@Base 2.2
 _ZNK7Imf_2_221DeepScanLineInputPart11frameBufferEv@Base 2.2
 _ZNK7Imf_2_221DeepScanLineInputPart19lastScanLineInChunkEi@Base 2.2
 _ZNK7Imf_2_221DeepScanLineInputPart20firstScanLineInChunkEi@Base 2.2
 _ZNK7Imf_2_221DeepScanLineInputPart21readPixelSampleCountsEPKcRKNS_15DeepFrameBufferEii@Base 2.2
 _ZNK7Imf_2_221DeepScanLineInputPart6headerEv@Base 2.2
 _ZNK7Imf_2_221DeepScanLineInputPart7versionEv@Base 2.2
 _ZNK7Imf_2_221DeepScanLineInputPart8fileNameEv@Base 2.2
 _ZNK7Imf_2_222DeepScanLineOutputFile11frameBufferEv@Base 2.2
 _ZNK7Imf_2_222DeepScanLineOutputFile15currentScanLineEv@Base 2.2
 _ZNK7Imf_2_222DeepScanLineOutputFile6headerEv@Base 2.2
 _ZNK7Imf_2_222DeepScanLineOutputFile8fileNameEv@Base 2.2
 _ZNK7Imf_2_222DeepScanLineOutputPart11frameBufferEv@Base 2.2
 _ZNK7Imf_2_222DeepScanLineOutputPart15currentScanLineEv@Base 2.2
 _ZNK7Imf_2_222DeepScanLineOutputPart6headerEv@Base 2.2
 _ZNK7Imf_2_222DeepScanLineOutputPart8fileNameEv@Base 2.2
 _ZNK7Imf_2_26Header10chunkCountEv@Base 2.2
 _ZNK7Imf_2_26Header10dataWindowEv@Base 2.2
 _ZNK7Imf_2_26Header10hasVersionEv@Base 2.2
 _ZNK7Imf_2_26Header11compressionEv@Base 2.2
 _ZNK7Imf_2_26Header11sanityCheckEbb@Base 2.2
 _ZNK7Imf_2_26Header12previewImageEv@Base 2.2
 _ZNK7Imf_2_26Header13displayWindowEv@Base 2.2
 _ZNK7Imf_2_26Header13hasChunkCountEv@Base 2.2
 _ZNK7Imf_2_26Header14typedAttributeINS_14TypedAttributeIN9Imath_2_28Matrix44IfEEEEEERKT_PKc@Base 2.2
 _ZNK7Imf_2_26Header14typedAttributeINS_14TypedAttributeINSt7__cxx1112basic_stringIcSt11char_traitsIcESaIcEEEEEEERKT_PKc@Base 2.2.0
 _ZNK7Imf_2_26Header14typedAttributeINS_14TypedAttributeIfEEEERKT_PKc@Base 2.2
 _ZNK7Imf_2_26Header14typedAttributeINS_14TypedAttributeIiEEEERKT_PKc@Base 2.2
 _ZNK7Imf_2_26Header15hasPreviewImageEv@Base 2.2
 _ZNK7Imf_2_26Header15tileDescriptionEv@Base 2.2
 _ZNK7Imf_2_26Header16pixelAspectRatioEv@Base 2.2
 _ZNK7Imf_2_26Header17screenWindowWidthEv@Base 2.2
 _ZNK7Imf_2_26Header18findTypedAttributeINS_14TypedAttributeIN9Imath_2_28Matrix44IfEEEEEEPKT_PKc@Base 2.2
 _ZNK7Imf_2_26Header18findTypedAttributeINS_14TypedAttributeINS_12PreviewImageEEEEEPKT_PKc@Base 2.2
 _ZNK7Imf_2_26Header18findTypedAttributeINS_14TypedAttributeINS_14ChromaticitiesEEEEEPKT_PKc@Base 2.2
 _ZNK7Imf_2_26Header18findTypedAttributeINS_14TypedAttributeINS_8TimeCodeEEEEEPKT_PKc@Base 2.2
 _ZNK7Imf_2_26Header18findTypedAttributeINS_14TypedAttributeINSt7__cxx1112basic_stringIcSt11char_traitsIcESaIcEEEEEEEPKT_PKc@Base 2.2.0
 _ZNK7Imf_2_26Header18findTypedAttributeINS_14TypedAttributeIfEEEEPKT_PKc@Base 2.2
 _ZNK7Imf_2_26Header18findTypedAttributeINS_14TypedAttributeIiEEEEPKT_PKc@Base 2.2
 _ZNK7Imf_2_26Header18hasTileDescriptionEv@Base 2.2
 _ZNK7Imf_2_26Header18screenWindowCenterEv@Base 2.2
 _ZNK7Imf_2_26Header3endEv@Base 2.2
 _ZNK7Imf_2_26Header4findEPKc@Base 2.2
 _ZNK7Imf_2_26Header4findERKNSt7__cxx1112basic_stringIcSt11char_traitsIcESaIcEEE@Base 2.2.0
 _ZNK7Imf_2_26Header4nameB5cxx11Ev@Base 2.2.0
 _ZNK7Imf_2_26Header4typeB5cxx11Ev@Base 2.2.0
 _ZNK7Imf_2_26Header4viewB5cxx11Ev@Base 2.2.0
 _ZNK7Imf_2_26Header5beginEv@Base 2.2
 _ZNK7Imf_2_26Header7hasNameEv@Base 2.2
 _ZNK7Imf_2_26Header7hasTypeEv@Base 2.2
 _ZNK7Imf_2_26Header7hasViewEv@Base 2.2
 _ZNK7Imf_2_26Header7versionEv@Base 2.2
 _ZNK7Imf_2_26Header7writeToERNS_7OStreamEb@Base 2.2
 _ZNK7Imf_2_26Header8channelsEv@Base 2.2
 _ZNK7Imf_2_26Header9lineOrderEv@Base 2.2
 _ZNK7Imf_2_26HeaderixEPKc@Base 2.2
 _ZNK7Imf_2_26HeaderixERKNSt7__cxx1112basic_stringIcSt11char_traitsIcESaIcEEE@Base 2.2.0
 _ZNK7Imf_2_27ChanneleqERKS0_@Base 2.2
 _ZNK7Imf_2_27HalfLut5applyEP4halfii@Base 2.2
 _ZNK7Imf_2_27HalfLut5applyERKNS_5SliceERKN9Imath_2_23BoxINS4_4Vec2IiEEEE@Base 2.2
 _ZNK7Imf_2_27IStream14isMemoryMappedEv@Base 2.2
 _ZNK7Imf_2_27IStream8fileNameEv@Base 2.2
 _ZNK7Imf_2_27KeyCode10perfOffsetEv@Base 2.2
 _ZNK7Imf_2_27KeyCode11filmMfcCodeEv@Base 2.2
 _ZNK7Imf_2_27KeyCode13perfsPerCountEv@Base 2.2
 _ZNK7Imf_2_27KeyCode13perfsPerFrameEv@Base 2.2
 _ZNK7Imf_2_27KeyCode5countEv@Base 2.2
 _ZNK7Imf_2_27KeyCode6prefixEv@Base 2.2
 _ZNK7Imf_2_27KeyCode8filmTypeEv@Base 2.2
 _ZNK7Imf_2_27OStream8fileNameEv@Base 2.2
 _ZNK7Imf_2_27RgbaLut5applyEPNS_4RgbaEii@Base 2.2
 _ZNK7Imf_2_27RgbaLut5applyEPNS_4RgbaEiiRKN9Imath_2_23BoxINS3_4Vec2IiEEEE@Base 2.2
 _ZNK7Imf_2_28TimeCode10colorFrameEv@Base 2.2
 _ZNK7Imf_2_28TimeCode10fieldPhaseEv@Base 2.2
 _ZNK7Imf_2_28TimeCode11binaryGroupEi@Base 2.2
 _ZNK7Imf_2_28TimeCode12timeAndFlagsENS0_7PackingE@Base 2.2
 _ZNK7Imf_2_28TimeCode4bgf0Ev@Base 2.2
 _ZNK7Imf_2_28TimeCode4bgf1Ev@Base 2.2
 _ZNK7Imf_2_28TimeCode4bgf2Ev@Base 2.2
 _ZNK7Imf_2_28TimeCode5frameEv@Base 2.2
 _ZNK7Imf_2_28TimeCode5hoursEv@Base 2.2
 _ZNK7Imf_2_28TimeCode7minutesEv@Base 2.2
 _ZNK7Imf_2_28TimeCode7secondsEv@Base 2.2
 _ZNK7Imf_2_28TimeCode8userDataEv@Base 2.2
 _ZNK7Imf_2_28TimeCode9dropFrameEv@Base 2.2
 _ZNK7Imf_2_28TimeCodeeqERKS0_@Base 2.2
 _ZNK7Imf_2_28TimeCodeneERKS0_@Base 2.2
 _ZNK7Imf_2_29InputFile10isCompleteEv@Base 2.2
 _ZNK7Imf_2_29InputFile11frameBufferEv@Base 2.2
 _ZNK7Imf_2_29InputFile21isOptimizationEnabledEv@Base 2.2
 _ZNK7Imf_2_29InputFile6headerEv@Base 2.2
 _ZNK7Imf_2_29InputFile7versionEv@Base 2.2
 _ZNK7Imf_2_29InputFile8fileNameEv@Base 2.2
 _ZNK7Imf_2_29InputPart10isCompleteEv@Base 2.2
 _ZNK7Imf_2_29InputPart11frameBufferEv@Base 2.2
 _ZNK7Imf_2_29InputPart21isOptimizationEnabledEv@Base 2.2
 _ZNK7Imf_2_29InputPart6headerEv@Base 2.2
 _ZNK7Imf_2_29InputPart7versionEv@Base 2.2
 _ZNK7Imf_2_29InputPart8fileNameEv@Base 2.2
 _ZNK9Imath_2_24Vec3IfE10lengthTinyEv@Base 2.2.0
 _ZNK9Imath_2_28Matrix44IfE7inverseEb@Base 2.2
 _ZNK9Imath_2_28Matrix44IfE9gjInverseEb@Base 2.2
 _ZNKSt8_Rb_treeIN7Imf_2_24NameESt4pairIKS1_NS0_5SliceEESt10_Select1stIS5_ESt4lessIS1_ESaIS5_EE4findERS3_@Base 2.2
 _ZNKSt8_Rb_treeIN7Imf_2_24NameESt4pairIKS1_NS0_7ChannelEESt10_Select1stIS5_ESt4lessIS1_ESaIS5_EE4findERS3_@Base 2.2
 _ZNKSt8_Rb_treeIN7Imf_2_24NameESt4pairIKS1_NS0_9DeepSliceEESt10_Select1stIS5_ESt4lessIS1_ESaIS5_EE4findERS3_@Base 2.2
 _ZNKSt8_Rb_treeIN7Imf_2_24NameESt4pairIKS1_PNS0_9AttributeEESt10_Select1stIS6_ESt4lessIS1_ESaIS6_EE4findERS3_@Base 2.2
 _ZNSt13_Bvector_baseISaIbEE13_M_deallocateEv@Base 2.2.0
 _ZNSt6vectorIN7Imf_2_213DwaCompressor10ClassifierESaIS2_EE13_M_insert_auxEN9__gnu_cxx17__normal_iteratorIPS2_S4_EERKS2_@Base 2.2
 _ZNSt6vectorIN7Imf_2_213DwaCompressor10ClassifierESaIS2_EED1Ev@Base 2.2
 _ZNSt6vectorIN7Imf_2_213DwaCompressor10ClassifierESaIS2_EED2Ev@Base 2.2
 _ZNSt6vectorIN7Imf_2_213DwaCompressor11ChannelDataESaIS2_EE14_M_fill_insertEN9__gnu_cxx17__normal_iteratorIPS2_S4_EEmRKS2_@Base 2.2.0
 _ZNSt6vectorIN7Imf_2_213DwaCompressor11ChannelDataESaIS2_EED1Ev@Base 2.2
 _ZNSt6vectorIN7Imf_2_213DwaCompressor11ChannelDataESaIS2_EED2Ev@Base 2.2
 _ZNSt6vectorIN7Imf_2_213DwaCompressor13CscChannelSetESaIS2_EE13_M_insert_auxEN9__gnu_cxx17__normal_iteratorIPS2_S4_EERKS2_@Base 2.2
 _ZNSt6vectorIN7Imf_2_213DwaCompressor13CscChannelSetESaIS2_EE14_M_fill_insertEN9__gnu_cxx17__normal_iteratorIPS2_S4_EEmRKS2_@Base 2.2.0
 _ZNSt6vectorIN7Imf_2_219SimdAlignedBuffer64IfEESaIS2_EE14_M_fill_insertEN9__gnu_cxx17__normal_iteratorIPS2_S4_EEmRKS2_@Base 2.2.0
 _ZNSt6vectorIN7Imf_2_26HeaderESaIS1_EE13_M_insert_auxEN9__gnu_cxx17__normal_iteratorIPS1_S3_EERKS1_@Base 2.2
 _ZNSt6vectorIN7Imf_2_26HeaderESaIS1_EE14_M_fill_insertEN9__gnu_cxx17__normal_iteratorIPS1_S3_EEmRKS1_@Base 2.2.0
 _ZNSt6vectorIN7Imf_2_26HeaderESaIS1_EED1Ev@Base 2.2
 _ZNSt6vectorIN7Imf_2_26HeaderESaIS1_EED2Ev@Base 2.2
 _ZNSt6vectorIN7Imf_2_29PixelTypeESaIS1_EE13_M_insert_auxEN9__gnu_cxx17__normal_iteratorIPS1_S3_EERKS1_@Base 2.2
 _ZNSt6vectorINSt7__cxx1112basic_stringIcSt11char_traitsIcESaIcEEESaIS5_EE13_M_insert_auxEN9__gnu_cxx17__normal_iteratorIPS5_S7_EERKS5_@Base 2.2.0
 _ZNSt6vectorINSt7__cxx1112basic_stringIcSt11char_traitsIcESaIcEEESaIS5_EE14_M_fill_insertEN9__gnu_cxx17__normal_iteratorIPS5_S7_EEmRKS5_@Base 2.2.0
 _ZNSt6vectorINSt7__cxx1112basic_stringIcSt11char_traitsIcESaIcEEESaIS5_EED1Ev@Base 2.2.0
 _ZNSt6vectorINSt7__cxx1112basic_stringIcSt11char_traitsIcESaIcEEESaIS5_EED2Ev@Base 2.2.0
 _ZNSt6vectorINSt7__cxx1112basic_stringIcSt11char_traitsIcESaIcEEESaIS5_EEaSERKS7_@Base 2.2.0
 _ZNSt6vectorIPKcSaIS1_EEaSERKS3_@Base 2.2
 _ZNSt6vectorIPN7Imf_2_213InputPartDataESaIS2_EE13_M_insert_auxEN9__gnu_cxx17__normal_iteratorIPS2_S4_EERKS2_@Base 2.2
 _ZNSt6vectorIPN7Imf_2_214OutputPartDataESaIS2_EE13_M_insert_auxEN9__gnu_cxx17__normal_iteratorIPS2_S4_EERKS2_@Base 2.2
 _ZNSt6vectorIPcSaIS0_EE13_M_insert_auxEN9__gnu_cxx17__normal_iteratorIPS0_S2_EERKS0_@Base 2.2
 _ZNSt6vectorIPcSaIS0_EEaSERKS2_@Base 2.2
 _ZNSt6vectorIPfSaIS0_EE14_M_fill_insertEN9__gnu_cxx17__normal_iteratorIPS0_S2_EEmRKS0_@Base 2.2.0
 _ZNSt6vectorIPfSaIS0_EEaSERKS2_@Base 2.2
 _ZNSt6vectorIS_IPKcSaIS1_EESaIS3_EE13_M_insert_auxEN9__gnu_cxx17__normal_iteratorIPS3_S5_EERKS3_@Base 2.2
 _ZNSt6vectorIS_IPKcSaIS1_EESaIS3_EED1Ev@Base 2.2
 _ZNSt6vectorIS_IPKcSaIS1_EESaIS3_EED2Ev@Base 2.2
 _ZNSt6vectorIS_IPcSaIS0_EESaIS2_EE13_M_insert_auxEN9__gnu_cxx17__normal_iteratorIPS2_S4_EERKS2_@Base 2.2
 _ZNSt6vectorIS_IPfSaIS0_EESaIS2_EE14_M_fill_insertEN9__gnu_cxx17__normal_iteratorIPS2_S4_EEmRKS2_@Base 2.2.0
 _ZNSt6vectorIS_IPfSaIS0_EESaIS2_EED1Ev@Base 2.2
 _ZNSt6vectorIS_IPfSaIS0_EESaIS2_EED2Ev@Base 2.2
 _ZNSt6vectorIS_IS_ImSaImEESaIS1_EESaIS3_EE14_M_fill_insertEN9__gnu_cxx17__normal_iteratorIPS3_S5_EEmRKS3_@Base 1.6.1
 _ZNSt6vectorIS_IS_ImSaImEESaIS1_EESaIS3_EE6resizeEmS3_@Base 1.6.1
 _ZNSt6vectorIS_IS_ImSaImEESaIS1_EESaIS3_EED1Ev@Base 1.6.1
 _ZNSt6vectorIS_IS_ImSaImEESaIS1_EESaIS3_EED2Ev@Base 1.6.1
 _ZNSt6vectorIS_IS_ImSaImEESaIS1_EESaIS3_EEaSERKS5_@Base 1.6.1
 _ZNSt6vectorIS_ImSaImEESaIS1_EE14_M_fill_insertEN9__gnu_cxx17__normal_iteratorIPS1_S3_EEmRKS1_@Base 1.6.1
 _ZNSt6vectorIS_ImSaImEESaIS1_EED1Ev@Base 1.6.1
 _ZNSt6vectorIS_ImSaImEESaIS1_EED2Ev@Base 1.6.1
 _ZNSt6vectorIS_ImSaImEESaIS1_EEaSERKS3_@Base 1.6.1
 _ZNSt6vectorIcSaIcEE14_M_fill_insertEN9__gnu_cxx17__normal_iteratorIPcS1_EEmRKc@Base 2.2.0
 _ZNSt6vectorIfSaIfEE14_M_fill_insertEN9__gnu_cxx17__normal_iteratorIPfS1_EEmRKf@Base 2.2.0
 _ZNSt6vectorIfSaIfEEaSERKS1_@Base 2.2
 _ZNSt6vectorIiSaIiEE13_M_insert_auxEN9__gnu_cxx17__normal_iteratorIPiS1_EERKi@Base 2.2
 _ZNSt6vectorIiSaIiEE14_M_fill_insertEN9__gnu_cxx17__normal_iteratorIPiS1_EEmRKi@Base 2.2.0
 _ZNSt6vectorIjSaIjEE14_M_fill_insertEN9__gnu_cxx17__normal_iteratorIPjS1_EEmRKj@Base 2.2.0
 _ZNSt6vectorImSaImEE13_M_insert_auxEN9__gnu_cxx17__normal_iteratorIPmS1_EERKm@Base 2.2.0
 _ZNSt6vectorImSaImEE14_M_fill_insertEN9__gnu_cxx17__normal_iteratorIPmS1_EEmRKm@Base 1.6.1
 _ZNSt6vectorImSaImEEaSERKS1_@Base 1.6.1
 _ZNSt7__cxx1115basic_stringbufIcSt11char_traitsIcESaIcEED0Ev@Base 2.2.0
 _ZNSt7__cxx1115basic_stringbufIcSt11char_traitsIcESaIcEED1Ev@Base 2.2.0
 _ZNSt7__cxx1115basic_stringbufIcSt11char_traitsIcESaIcEED2Ev@Base 2.2.0
 _ZNSt8_Rb_treeIN7Imf_2_24NameESt4pairIKS1_NS0_5SliceEESt10_Select1stIS5_ESt4lessIS1_ESaIS5_EE24_M_get_insert_unique_posERS3_@Base 2.2
 _ZNSt8_Rb_treeIN7Imf_2_24NameESt4pairIKS1_NS0_5SliceEESt10_Select1stIS5_ESt4lessIS1_ESaIS5_EE29_M_get_insert_hint_unique_posESt23_Rb_tree_const_iteratorIS5_ERS3_@Base 2.2.0-10ubuntu2
 _ZNSt8_Rb_treeIN7Imf_2_24NameESt4pairIKS1_NS0_5SliceEESt10_Select1stIS5_ESt4lessIS1_ESaIS5_EE4findERS3_@Base 2.2
 _ZNSt8_Rb_treeIN7Imf_2_24NameESt4pairIKS1_NS0_5SliceEESt10_Select1stIS5_ESt4lessIS1_ESaIS5_EE7_M_copyINSB_20_Reuse_or_alloc_nodeEEEPSt13_Rb_tree_nodeIS5_EPKSF_SG_RT_@Base 2.2.0
 _ZNSt8_Rb_treeIN7Imf_2_24NameESt4pairIKS1_NS0_5SliceEESt10_Select1stIS5_ESt4lessIS1_ESaIS5_EE8_M_eraseEPSt13_Rb_tree_nodeIS5_E@Base 2.2
 _ZNSt8_Rb_treeIN7Imf_2_24NameESt4pairIKS1_NS0_5SliceEESt10_Select1stIS5_ESt4lessIS1_ESaIS5_EEaSERKSB_@Base 2.2
 _ZNSt8_Rb_treeIN7Imf_2_24NameESt4pairIKS1_NS0_7ChannelEESt10_Select1stIS5_ESt4lessIS1_ESaIS5_EE24_M_get_insert_unique_posERS3_@Base 2.2
 _ZNSt8_Rb_treeIN7Imf_2_24NameESt4pairIKS1_NS0_7ChannelEESt10_Select1stIS5_ESt4lessIS1_ESaIS5_EE29_M_get_insert_hint_unique_posESt23_Rb_tree_const_iteratorIS5_ERS3_@Base 2.2.0-10ubuntu2
 _ZNSt8_Rb_treeIN7Imf_2_24NameESt4pairIKS1_NS0_7ChannelEESt10_Select1stIS5_ESt4lessIS1_ESaIS5_EE4findERS3_@Base 2.2
 _ZNSt8_Rb_treeIN7Imf_2_24NameESt4pairIKS1_NS0_7ChannelEESt10_Select1stIS5_ESt4lessIS1_ESaIS5_EE7_M_copyINSB_11_Alloc_nodeEEEPSt13_Rb_tree_nodeIS5_EPKSF_SG_RT_@Base 2.2.0
 _ZNSt8_Rb_treeIN7Imf_2_24NameESt4pairIKS1_NS0_7ChannelEESt10_Select1stIS5_ESt4lessIS1_ESaIS5_EE7_M_copyINSB_20_Reuse_or_alloc_nodeEEEPSt13_Rb_tree_nodeIS5_EPKSF_SG_RT_@Base 2.2.0
 _ZNSt8_Rb_treeIN7Imf_2_24NameESt4pairIKS1_NS0_7ChannelEESt10_Select1stIS5_ESt4lessIS1_ESaIS5_EE8_M_eraseEPSt13_Rb_tree_nodeIS5_E@Base 2.2
 _ZNSt8_Rb_treeIN7Imf_2_24NameESt4pairIKS1_NS0_9DeepSliceEESt10_Select1stIS5_ESt4lessIS1_ESaIS5_EE24_M_get_insert_unique_posERS3_@Base 2.2
 _ZNSt8_Rb_treeIN7Imf_2_24NameESt4pairIKS1_NS0_9DeepSliceEESt10_Select1stIS5_ESt4lessIS1_ESaIS5_EE29_M_get_insert_hint_unique_posESt23_Rb_tree_const_iteratorIS5_ERS3_@Base 2.2.0-10ubuntu2
 _ZNSt8_Rb_treeIN7Imf_2_24NameESt4pairIKS1_NS0_9DeepSliceEESt10_Select1stIS5_ESt4lessIS1_ESaIS5_EE4findERS3_@Base 2.2
 _ZNSt8_Rb_treeIN7Imf_2_24NameESt4pairIKS1_NS0_9DeepSliceEESt10_Select1stIS5_ESt4lessIS1_ESaIS5_EE7_M_copyINSB_11_Alloc_nodeEEEPSt13_Rb_tree_nodeIS5_EPKSF_SG_RT_@Base 2.2.0
 _ZNSt8_Rb_treeIN7Imf_2_24NameESt4pairIKS1_NS0_9DeepSliceEESt10_Select1stIS5_ESt4lessIS1_ESaIS5_EE7_M_copyINSB_20_Reuse_or_alloc_nodeEEEPSt13_Rb_tree_nodeIS5_EPKSF_SG_RT_@Base 2.2.0
 _ZNSt8_Rb_treeIN7Imf_2_24NameESt4pairIKS1_NS0_9DeepSliceEESt10_Select1stIS5_ESt4lessIS1_ESaIS5_EE8_M_eraseEPSt13_Rb_tree_nodeIS5_E@Base 2.2
 _ZNSt8_Rb_treeIN7Imf_2_24NameESt4pairIKS1_PNS0_9AttributeEESt10_Select1stIS6_ESt4lessIS1_ESaIS6_EE24_M_get_insert_unique_posERS3_@Base 2.2
 _ZNSt8_Rb_treeIN7Imf_2_24NameESt4pairIKS1_PNS0_9AttributeEESt10_Select1stIS6_ESt4lessIS1_ESaIS6_EE29_M_get_insert_hint_unique_posESt23_Rb_tree_const_iteratorIS6_ERS3_@Base 2.2.0-10ubuntu2
 _ZNSt8_Rb_treeIN7Imf_2_24NameESt4pairIKS1_PNS0_9AttributeEESt10_Select1stIS6_ESt4lessIS1_ESaIS6_EE4findERS3_@Base 2.2
 _ZNSt8_Rb_treeIN7Imf_2_24NameESt4pairIKS1_PNS0_9AttributeEESt10_Select1stIS6_ESt4lessIS1_ESaIS6_EE8_M_eraseEPSt13_Rb_tree_nodeIS6_E@Base 2.2
 _ZNSt8_Rb_treeINSt7__cxx1112basic_stringIcSt11char_traitsIcESaIcEEES5_St9_IdentityIS5_ESt4lessIS5_ESaIS5_EE8_M_eraseEPSt13_Rb_tree_nodeIS5_E@Base 2.2.0
 _ZNSt8_Rb_treeINSt7__cxx1112basic_stringIcSt11char_traitsIcESaIcEEESt4pairIKS5_N7Imf_2_213DwaCompressor13CscChannelSetEESt10_Select1stISB_ESt4lessIS5_ESaISB_EE24_M_get_insert_unique_posERS7_@Base 2.2.0
 _ZNSt8_Rb_treeINSt7__cxx1112basic_stringIcSt11char_traitsIcESaIcEEESt4pairIKS5_N7Imf_2_213DwaCompressor13CscChannelSetEESt10_Select1stISB_ESt4lessIS5_ESaISB_EE29_M_get_insert_hint_unique_posESt23_Rb_tree_const_iteratorISB_ERS7_@Base 2.2.0-10ubuntu2
 _ZNSt8_Rb_treeINSt7__cxx1112basic_stringIcSt11char_traitsIcESaIcEEESt4pairIKS5_N7Imf_2_213DwaCompressor13CscChannelSetEESt10_Select1stISB_ESt4lessIS5_ESaISB_EE8_M_eraseEPSt13_Rb_tree_nodeISB_E@Base 2.2.0
 _ZNSt8_Rb_treeIiSt4pairIKiPN7Imf_2_216GenericInputFileEESt10_Select1stIS5_ESt4lessIiESaIS5_EE16_M_insert_uniqueERKS5_@Base 2.2
 _ZNSt8_Rb_treeIiSt4pairIKiPN7Imf_2_216GenericInputFileEESt10_Select1stIS5_ESt4lessIiESaIS5_EE24_M_get_insert_unique_posERS1_@Base 2.2
 _ZNSt8_Rb_treeIiSt4pairIKiPN7Imf_2_216GenericInputFileEESt10_Select1stIS5_ESt4lessIiESaIS5_EE29_M_get_insert_hint_unique_posESt23_Rb_tree_const_iteratorIS5_ERS1_@Base 2.2.0-10ubuntu2
 _ZNSt8_Rb_treeIiSt4pairIKiPN7Imf_2_216GenericInputFileEESt10_Select1stIS5_ESt4lessIiESaIS5_EE8_M_eraseEPSt13_Rb_tree_nodeIS5_E@Base 2.2
 _ZNSt8_Rb_treeIiSt4pairIKiPN7Imf_2_217GenericOutputFileEESt10_Select1stIS5_ESt4lessIiESaIS5_EE16_M_insert_uniqueERKS5_@Base 2.2
 _ZNSt8_Rb_treeIiSt4pairIKiPN7Imf_2_217GenericOutputFileEESt10_Select1stIS5_ESt4lessIiESaIS5_EE24_M_get_insert_unique_posERS1_@Base 2.2
 _ZNSt8_Rb_treeIiSt4pairIKiPN7Imf_2_217GenericOutputFileEESt10_Select1stIS5_ESt4lessIiESaIS5_EE29_M_get_insert_hint_unique_posESt23_Rb_tree_const_iteratorIS5_ERS1_@Base 2.2.0-10ubuntu2
 _ZNSt8_Rb_treeIiSt4pairIKiPN7Imf_2_217GenericOutputFileEESt10_Select1stIS5_ESt4lessIiESaIS5_EE8_M_eraseEPSt13_Rb_tree_nodeIS5_E@Base 2.2
 _ZSt13__adjust_heapIPiliN9__gnu_cxx5__ops15_Iter_comp_iterIN7Imf_2_211sort_helperEEEEvT_T0_S8_T1_T2_@Base 2.2.0-10ubuntu2
 _ZSt13__heap_selectIPiN9__gnu_cxx5__ops15_Iter_comp_iterIN7Imf_2_211sort_helperEEEEvT_S7_S7_T0_@Base 2.2
 _ZSt16__insertion_sortIPiN9__gnu_cxx5__ops15_Iter_comp_iterIN7Imf_2_211sort_helperEEEEvT_S7_T0_@Base 2.2
 _ZSt16__introsort_loopIPilN9__gnu_cxx5__ops15_Iter_comp_iterIN7Imf_2_211sort_helperEEEEvT_S7_T0_T1_@Base 2.2.0-10ubuntu2
 _ZSt22__final_insertion_sortIPiN9__gnu_cxx5__ops15_Iter_comp_iterIN7Imf_2_211sort_helperEEEEvT_S7_T0_@Base 2.2
 _ZSt25__unguarded_linear_insertIPiN9__gnu_cxx5__ops14_Val_comp_iterIN7Imf_2_211sort_helperEEEEvT_T0_@Base 2.2
 _ZStplIcSt11char_traitsIcESaIcEENSt7__cxx1112basic_stringIT_T0_T1_EEPKS5_RKS8_@Base 2.2.0
 _ZStplIcSt11char_traitsIcESaIcEENSt7__cxx1112basic_stringIT_T0_T1_EERKS8_PKS5_@Base 2.2.0
 _ZStplIcSt11char_traitsIcESaIcEENSt7__cxx1112basic_stringIT_T0_T1_EERKS8_SA_@Base 2.2.0
 _ZTIN7Iex_2_211OverflowExcE@Base 2.2
 _ZTIN7Iex_2_25IoExcE@Base 2.2
 _ZTIN7Iex_2_26ArgExcE@Base 2.2
 _ZTIN7Iex_2_27MathExcE@Base 2.2
 _ZTIN7Iex_2_27TypeExcE@Base 2.2
 _ZTIN7Iex_2_28ErrnoExcE@Base 2.2
 _ZTIN7Iex_2_28InputExcE@Base 2.2
 _ZTIN7Iex_2_28LogicExcE@Base 2.2
 _ZTIN7Iex_2_29NoImplExcE@Base 2.2
 _ZTIN7Imf_2_210CompressorE@Base 2.2
 _ZTIN7Imf_2_210OutputFileE@Base 2.2
 _ZTIN7Imf_2_211StdIFStreamE@Base 2.2
 _ZTIN7Imf_2_211StdOFStreamE@Base 2.2
 _ZTIN7Imf_2_211StdOSStreamE@Base 2.2
 _ZTIN7Imf_2_213AcesInputFileE@Base 2.2
 _ZTIN7Imf_2_213B44CompressorE@Base 2.2
 _ZTIN7Imf_2_213DwaCompressor15LossyDctDecoderE@Base 2.2
 _ZTIN7Imf_2_213DwaCompressor15LossyDctEncoderE@Base 2.2
 _ZTIN7Imf_2_213DwaCompressor18LossyDctDecoderCscE@Base 2.2
 _ZTIN7Imf_2_213DwaCompressor18LossyDctEncoderCscE@Base 2.2
 _ZTIN7Imf_2_213DwaCompressor19LossyDctDecoderBaseE@Base 2.2
 _ZTIN7Imf_2_213DwaCompressor19LossyDctEncoderBaseE@Base 2.2
 _ZTIN7Imf_2_213DwaCompressorE@Base 2.2
 _ZTIN7Imf_2_213PizCompressorE@Base 2.2
 _ZTIN7Imf_2_213RgbaInputFile7FromYcaE@Base 2.2
 _ZTIN7Imf_2_213RgbaInputFileE@Base 2.2
 _ZTIN7Imf_2_213RleCompressorE@Base 2.2
 _ZTIN7Imf_2_213ZipCompressorE@Base 2.2
 _ZTIN7Imf_2_214AcesOutputFileE@Base 2.2
 _ZTIN7Imf_2_214RgbaOutputFile5ToYcaE@Base 2.2
 _ZTIN7Imf_2_214RgbaOutputFileE@Base 2.2
 _ZTIN7Imf_2_214TiledInputFile4DataE@Base 2.2
 _ZTIN7Imf_2_214TiledInputFileE@Base 2.2
 _ZTIN7Imf_2_214TypedAttributeIN9Imath_2_23BoxINS1_4Vec2IfEEEEEE@Base 2.2
 _ZTIN7Imf_2_214TypedAttributeIN9Imath_2_23BoxINS1_4Vec2IiEEEEEE@Base 2.2
 _ZTIN7Imf_2_214TypedAttributeIN9Imath_2_24Vec2IdEEEE@Base 2.2
 _ZTIN7Imf_2_214TypedAttributeIN9Imath_2_24Vec2IfEEEE@Base 2.2
 _ZTIN7Imf_2_214TypedAttributeIN9Imath_2_24Vec2IiEEEE@Base 2.2
 _ZTIN7Imf_2_214TypedAttributeIN9Imath_2_24Vec3IdEEEE@Base 2.2
 _ZTIN7Imf_2_214TypedAttributeIN9Imath_2_24Vec3IfEEEE@Base 2.2
 _ZTIN7Imf_2_214TypedAttributeIN9Imath_2_24Vec3IiEEEE@Base 2.2
 _ZTIN7Imf_2_214TypedAttributeIN9Imath_2_28Matrix33IdEEEE@Base 2.2
 _ZTIN7Imf_2_214TypedAttributeIN9Imath_2_28Matrix33IfEEEE@Base 2.2
 _ZTIN7Imf_2_214TypedAttributeIN9Imath_2_28Matrix44IdEEEE@Base 2.2
 _ZTIN7Imf_2_214TypedAttributeIN9Imath_2_28Matrix44IfEEEE@Base 2.2
 _ZTIN7Imf_2_214TypedAttributeINS_11ChannelListEEE@Base 2.2
 _ZTIN7Imf_2_214TypedAttributeINS_11CompressionEEE@Base 2.2
 _ZTIN7Imf_2_214TypedAttributeINS_12PreviewImageEEE@Base 2.2
 _ZTIN7Imf_2_214TypedAttributeINS_14ChromaticitiesEEE@Base 2.2
 _ZTIN7Imf_2_214TypedAttributeINS_14DeepImageStateEEE@Base 2.2
 _ZTIN7Imf_2_214TypedAttributeINS_15TileDescriptionEEE@Base 2.2
 _ZTIN7Imf_2_214TypedAttributeINS_6EnvmapEEE@Base 2.2
 _ZTIN7Imf_2_214TypedAttributeINS_7KeyCodeEEE@Base 2.2
 _ZTIN7Imf_2_214TypedAttributeINS_8RationalEEE@Base 2.2
 _ZTIN7Imf_2_214TypedAttributeINS_8TimeCodeEEE@Base 2.2
 _ZTIN7Imf_2_214TypedAttributeINS_9LineOrderEEE@Base 2.2
 _ZTIN7Imf_2_214TypedAttributeINSt7__cxx1112basic_stringIcSt11char_traitsIcESaIcEEEEE@Base 2.2.0
 _ZTIN7Imf_2_214TypedAttributeISt6vectorINSt7__cxx1112basic_stringIcSt11char_traitsIcESaIcEEESaIS7_EEEE@Base 2.2.0
 _ZTIN7Imf_2_214TypedAttributeISt6vectorIfSaIfEEEE@Base 2.2
 _ZTIN7Imf_2_214TypedAttributeIdEE@Base 2.2
 _ZTIN7Imf_2_214TypedAttributeIfEE@Base 2.2
 _ZTIN7Imf_2_214TypedAttributeIiEE@Base 2.2
 _ZTIN7Imf_2_215DeepCompositingE@Base 2.2
 _ZTIN7Imf_2_215OpaqueAttributeE@Base 2.2
 _ZTIN7Imf_2_215Pxr24CompressorE@Base 2.2
 _ZTIN7Imf_2_215TiledOutputFileE@Base 2.2
 _ZTIN7Imf_2_216GenericInputFileE@Base 2.2
 _ZTIN7Imf_2_216InputStreamMutexE@Base 2.2
 _ZTIN7Imf_2_217GenericOutputFileE@Base 2.2
 _ZTIN7Imf_2_217OutputStreamMutexE@Base 2.2
 _ZTIN7Imf_2_217ScanLineInputFile4DataE@Base 2.2
 _ZTIN7Imf_2_217ScanLineInputFileE@Base 2.2
 _ZTIN7Imf_2_218DeepTiledInputFile4DataE@Base 2.2
 _ZTIN7Imf_2_218DeepTiledInputFileE@Base 2.2
 _ZTIN7Imf_2_218MultiPartInputFile4DataE@Base 2.2
 _ZTIN7Imf_2_218MultiPartInputFileE@Base 2.2
 _ZTIN7Imf_2_218TiledRgbaInputFile6FromYaE@Base 2.2
 _ZTIN7Imf_2_218TiledRgbaInputFileE@Base 2.2
 _ZTIN7Imf_2_219DeepTiledOutputFileE@Base 2.2
 _ZTIN7Imf_2_219MultiPartOutputFile4DataE@Base 2.2
 _ZTIN7Imf_2_219MultiPartOutputFileE@Base 2.2
 _ZTIN7Imf_2_219TiledRgbaOutputFile4ToYaE@Base 2.2
 _ZTIN7Imf_2_219TiledRgbaOutputFileE@Base 2.2
 _ZTIN7Imf_2_221CompositeDeepScanLineE@Base 2.2
 _ZTIN7Imf_2_221DeepScanLineInputFile4DataE@Base 2.2
 _ZTIN7Imf_2_221DeepScanLineInputFileE@Base 2.2
 _ZTIN7Imf_2_222DeepScanLineOutputFileE@Base 2.2
 _ZTIN7Imf_2_27IStreamE@Base 2.2
 _ZTIN7Imf_2_27OStreamE@Base 2.2
 _ZTIN7Imf_2_29AttributeE@Base 2.2
 _ZTIN7Imf_2_29InputFile4DataE@Base 2.2
 _ZTIN7Imf_2_29InputFileE@Base 2.2
 _ZTIN9Imath_2_213SingMatrixExcE@Base 2.2
 _ZTSN7Iex_2_211OverflowExcE@Base 2.2
 _ZTSN7Iex_2_25IoExcE@Base 2.2
 _ZTSN7Iex_2_26ArgExcE@Base 2.2
 _ZTSN7Iex_2_27MathExcE@Base 2.2
 _ZTSN7Iex_2_27TypeExcE@Base 2.2
 _ZTSN7Iex_2_28ErrnoExcE@Base 2.2
 _ZTSN7Iex_2_28InputExcE@Base 2.2
 _ZTSN7Iex_2_28LogicExcE@Base 2.2
 _ZTSN7Iex_2_29NoImplExcE@Base 2.2
 _ZTSN7Imf_2_210CompressorE@Base 2.2
 _ZTSN7Imf_2_210OutputFileE@Base 2.2
 _ZTSN7Imf_2_211StdIFStreamE@Base 2.2
 _ZTSN7Imf_2_211StdOFStreamE@Base 2.2
 _ZTSN7Imf_2_211StdOSStreamE@Base 2.2
 _ZTSN7Imf_2_213AcesInputFileE@Base 2.2
 _ZTSN7Imf_2_213B44CompressorE@Base 2.2
 _ZTSN7Imf_2_213DwaCompressor15LossyDctDecoderE@Base 2.2
 _ZTSN7Imf_2_213DwaCompressor15LossyDctEncoderE@Base 2.2
 _ZTSN7Imf_2_213DwaCompressor18LossyDctDecoderCscE@Base 2.2
 _ZTSN7Imf_2_213DwaCompressor18LossyDctEncoderCscE@Base 2.2
 _ZTSN7Imf_2_213DwaCompressor19LossyDctDecoderBaseE@Base 2.2
 _ZTSN7Imf_2_213DwaCompressor19LossyDctEncoderBaseE@Base 2.2
 _ZTSN7Imf_2_213DwaCompressorE@Base 2.2
 _ZTSN7Imf_2_213PizCompressorE@Base 2.2
 _ZTSN7Imf_2_213RgbaInputFile7FromYcaE@Base 2.2
 _ZTSN7Imf_2_213RgbaInputFileE@Base 2.2
 _ZTSN7Imf_2_213RleCompressorE@Base 2.2
 _ZTSN7Imf_2_213ZipCompressorE@Base 2.2
 _ZTSN7Imf_2_214AcesOutputFileE@Base 2.2
 _ZTSN7Imf_2_214RgbaOutputFile5ToYcaE@Base 2.2
 _ZTSN7Imf_2_214RgbaOutputFileE@Base 2.2
 _ZTSN7Imf_2_214TiledInputFile4DataE@Base 2.2
 _ZTSN7Imf_2_214TiledInputFileE@Base 2.2
 _ZTSN7Imf_2_214TypedAttributeIN9Imath_2_23BoxINS1_4Vec2IfEEEEEE@Base 2.2
 _ZTSN7Imf_2_214TypedAttributeIN9Imath_2_23BoxINS1_4Vec2IiEEEEEE@Base 2.2
 _ZTSN7Imf_2_214TypedAttributeIN9Imath_2_24Vec2IdEEEE@Base 2.2
 _ZTSN7Imf_2_214TypedAttributeIN9Imath_2_24Vec2IfEEEE@Base 2.2
 _ZTSN7Imf_2_214TypedAttributeIN9Imath_2_24Vec2IiEEEE@Base 2.2
 _ZTSN7Imf_2_214TypedAttributeIN9Imath_2_24Vec3IdEEEE@Base 2.2
 _ZTSN7Imf_2_214TypedAttributeIN9Imath_2_24Vec3IfEEEE@Base 2.2
 _ZTSN7Imf_2_214TypedAttributeIN9Imath_2_24Vec3IiEEEE@Base 2.2
 _ZTSN7Imf_2_214TypedAttributeIN9Imath_2_28Matrix33IdEEEE@Base 2.2
 _ZTSN7Imf_2_214TypedAttributeIN9Imath_2_28Matrix33IfEEEE@Base 2.2
 _ZTSN7Imf_2_214TypedAttributeIN9Imath_2_28Matrix44IdEEEE@Base 2.2
 _ZTSN7Imf_2_214TypedAttributeIN9Imath_2_28Matrix44IfEEEE@Base 2.2
 _ZTSN7Imf_2_214TypedAttributeINS_11ChannelListEEE@Base 2.2
 _ZTSN7Imf_2_214TypedAttributeINS_11CompressionEEE@Base 2.2
 _ZTSN7Imf_2_214TypedAttributeINS_12PreviewImageEEE@Base 2.2
 _ZTSN7Imf_2_214TypedAttributeINS_14ChromaticitiesEEE@Base 2.2
 _ZTSN7Imf_2_214TypedAttributeINS_14DeepImageStateEEE@Base 2.2
 _ZTSN7Imf_2_214TypedAttributeINS_15TileDescriptionEEE@Base 2.2
 _ZTSN7Imf_2_214TypedAttributeINS_6EnvmapEEE@Base 2.2
 _ZTSN7Imf_2_214TypedAttributeINS_7KeyCodeEEE@Base 2.2
 _ZTSN7Imf_2_214TypedAttributeINS_8RationalEEE@Base 2.2
 _ZTSN7Imf_2_214TypedAttributeINS_8TimeCodeEEE@Base 2.2
 _ZTSN7Imf_2_214TypedAttributeINS_9LineOrderEEE@Base 2.2
 _ZTSN7Imf_2_214TypedAttributeINSt7__cxx1112basic_stringIcSt11char_traitsIcESaIcEEEEE@Base 2.2.0
 _ZTSN7Imf_2_214TypedAttributeISt6vectorINSt7__cxx1112basic_stringIcSt11char_traitsIcESaIcEEESaIS7_EEEE@Base 2.2.0
 _ZTSN7Imf_2_214TypedAttributeISt6vectorIfSaIfEEEE@Base 2.2
 _ZTSN7Imf_2_214TypedAttributeIdEE@Base 2.2
 _ZTSN7Imf_2_214TypedAttributeIfEE@Base 2.2
 _ZTSN7Imf_2_214TypedAttributeIiEE@Base 2.2
 _ZTSN7Imf_2_215DeepCompositingE@Base 2.2
 _ZTSN7Imf_2_215OpaqueAttributeE@Base 2.2
 _ZTSN7Imf_2_215Pxr24CompressorE@Base 2.2
 _ZTSN7Imf_2_215TiledOutputFileE@Base 2.2
 _ZTSN7Imf_2_216GenericInputFileE@Base 2.2
 _ZTSN7Imf_2_216InputStreamMutexE@Base 2.2
 _ZTSN7Imf_2_217GenericOutputFileE@Base 2.2
 _ZTSN7Imf_2_217OutputStreamMutexE@Base 2.2
 _ZTSN7Imf_2_217ScanLineInputFile4DataE@Base 2.2
 _ZTSN7Imf_2_217ScanLineInputFileE@Base 2.2
 _ZTSN7Imf_2_218DeepTiledInputFile4DataE@Base 2.2
 _ZTSN7Imf_2_218DeepTiledInputFileE@Base 2.2
 _ZTSN7Imf_2_218MultiPartInputFile4DataE@Base 2.2
 _ZTSN7Imf_2_218MultiPartInputFileE@Base 2.2
 _ZTSN7Imf_2_218TiledRgbaInputFile6FromYaE@Base 2.2
 _ZTSN7Imf_2_218TiledRgbaInputFileE@Base 2.2
 _ZTSN7Imf_2_219DeepTiledOutputFileE@Base 2.2
 _ZTSN7Imf_2_219MultiPartOutputFile4DataE@Base 2.2
 _ZTSN7Imf_2_219MultiPartOutputFileE@Base 2.2
 _ZTSN7Imf_2_219TiledRgbaOutputFile4ToYaE@Base 2.2
 _ZTSN7Imf_2_219TiledRgbaOutputFileE@Base 2.2
 _ZTSN7Imf_2_221CompositeDeepScanLineE@Base 2.2
 _ZTSN7Imf_2_221DeepScanLineInputFile4DataE@Base 2.2
 _ZTSN7Imf_2_221DeepScanLineInputFileE@Base 2.2
 _ZTSN7Imf_2_222DeepScanLineOutputFileE@Base 2.2
 _ZTSN7Imf_2_27IStreamE@Base 2.2
 _ZTSN7Imf_2_27OStreamE@Base 2.2
 _ZTSN7Imf_2_29AttributeE@Base 2.2
 _ZTSN7Imf_2_29InputFile4DataE@Base 2.2
 _ZTSN7Imf_2_29InputFileE@Base 2.2
 _ZTSN9Imath_2_213SingMatrixExcE@Base 2.2
 _ZTVN7Iex_2_211OverflowExcE@Base 2.2
 _ZTVN7Iex_2_25IoExcE@Base 2.2
 _ZTVN7Iex_2_26ArgExcE@Base 2.2
 _ZTVN7Iex_2_27MathExcE@Base 2.2
 _ZTVN7Iex_2_27TypeExcE@Base 2.2
 _ZTVN7Iex_2_28ErrnoExcE@Base 2.2
 _ZTVN7Iex_2_28InputExcE@Base 2.2
 _ZTVN7Iex_2_28LogicExcE@Base 2.2
 _ZTVN7Iex_2_29NoImplExcE@Base 2.2
 _ZTVN7Imf_2_210CompressorE@Base 2.2
 _ZTVN7Imf_2_210OutputFileE@Base 2.2
 _ZTVN7Imf_2_211StdIFStreamE@Base 2.2
 _ZTVN7Imf_2_211StdOFStreamE@Base 2.2
 _ZTVN7Imf_2_211StdOSStreamE@Base 2.2
 _ZTVN7Imf_2_213AcesInputFileE@Base 2.2
 _ZTVN7Imf_2_213B44CompressorE@Base 2.2
 _ZTVN7Imf_2_213DwaCompressor15LossyDctDecoderE@Base 2.2
 _ZTVN7Imf_2_213DwaCompressor15LossyDctEncoderE@Base 2.2
 _ZTVN7Imf_2_213DwaCompressor18LossyDctDecoderCscE@Base 2.2
 _ZTVN7Imf_2_213DwaCompressor18LossyDctEncoderCscE@Base 2.2
 _ZTVN7Imf_2_213DwaCompressor19LossyDctDecoderBaseE@Base 2.2
 _ZTVN7Imf_2_213DwaCompressor19LossyDctEncoderBaseE@Base 2.2
 _ZTVN7Imf_2_213DwaCompressorE@Base 2.2
 _ZTVN7Imf_2_213PizCompressorE@Base 2.2
 _ZTVN7Imf_2_213RgbaInputFile7FromYcaE@Base 2.2
 _ZTVN7Imf_2_213RgbaInputFileE@Base 2.2
 _ZTVN7Imf_2_213RleCompressorE@Base 2.2
 _ZTVN7Imf_2_213ZipCompressorE@Base 2.2
 _ZTVN7Imf_2_214AcesOutputFileE@Base 2.2
 _ZTVN7Imf_2_214RgbaOutputFile5ToYcaE@Base 2.2
 _ZTVN7Imf_2_214RgbaOutputFileE@Base 2.2
 _ZTVN7Imf_2_214TiledInputFile4DataE@Base 2.2
 _ZTVN7Imf_2_214TiledInputFileE@Base 2.2
 _ZTVN7Imf_2_214TypedAttributeIN9Imath_2_23BoxINS1_4Vec2IfEEEEEE@Base 2.2
 _ZTVN7Imf_2_214TypedAttributeIN9Imath_2_23BoxINS1_4Vec2IiEEEEEE@Base 2.2
 _ZTVN7Imf_2_214TypedAttributeIN9Imath_2_24Vec2IdEEEE@Base 2.2
 _ZTVN7Imf_2_214TypedAttributeIN9Imath_2_24Vec2IfEEEE@Base 2.2
 _ZTVN7Imf_2_214TypedAttributeIN9Imath_2_24Vec2IiEEEE@Base 2.2
 _ZTVN7Imf_2_214TypedAttributeIN9Imath_2_24Vec3IdEEEE@Base 2.2
 _ZTVN7Imf_2_214TypedAttributeIN9Imath_2_24Vec3IfEEEE@Base 2.2
 _ZTVN7Imf_2_214TypedAttributeIN9Imath_2_24Vec3IiEEEE@Base 2.2
 _ZTVN7Imf_2_214TypedAttributeIN9Imath_2_28Matrix33IdEEEE@Base 2.2
 _ZTVN7Imf_2_214TypedAttributeIN9Imath_2_28Matrix33IfEEEE@Base 2.2
 _ZTVN7Imf_2_214TypedAttributeIN9Imath_2_28Matrix44IdEEEE@Base 2.2
 _ZTVN7Imf_2_214TypedAttributeIN9Imath_2_28Matrix44IfEEEE@Base 2.2
 _ZTVN7Imf_2_214TypedAttributeINS_11ChannelListEEE@Base 2.2
 _ZTVN7Imf_2_214TypedAttributeINS_11CompressionEEE@Base 2.2
 _ZTVN7Imf_2_214TypedAttributeINS_12PreviewImageEEE@Base 2.2
 _ZTVN7Imf_2_214TypedAttributeINS_14ChromaticitiesEEE@Base 2.2
 _ZTVN7Imf_2_214TypedAttributeINS_14DeepImageStateEEE@Base 2.2
 _ZTVN7Imf_2_214TypedAttributeINS_15TileDescriptionEEE@Base 2.2
 _ZTVN7Imf_2_214TypedAttributeINS_6EnvmapEEE@Base 2.2
 _ZTVN7Imf_2_214TypedAttributeINS_7KeyCodeEEE@Base 2.2
 _ZTVN7Imf_2_214TypedAttributeINS_8RationalEEE@Base 2.2
 _ZTVN7Imf_2_214TypedAttributeINS_8TimeCodeEEE@Base 2.2
 _ZTVN7Imf_2_214TypedAttributeINS_9LineOrderEEE@Base 2.2
 _ZTVN7Imf_2_214TypedAttributeINSt7__cxx1112basic_stringIcSt11char_traitsIcESaIcEEEEE@Base 2.2.0
 _ZTVN7Imf_2_214TypedAttributeISt6vectorINSt7__cxx1112basic_stringIcSt11char_traitsIcESaIcEEESaIS7_EEEE@Base 2.2.0
 _ZTVN7Imf_2_214TypedAttributeISt6vectorIfSaIfEEEE@Base 2.2
 _ZTVN7Imf_2_214TypedAttributeIdEE@Base 2.2
 _ZTVN7Imf_2_214TypedAttributeIfEE@Base 2.2
 _ZTVN7Imf_2_214TypedAttributeIiEE@Base 2.2
 _ZTVN7Imf_2_215DeepCompositingE@Base 2.2
 _ZTVN7Imf_2_215OpaqueAttributeE@Base 2.2
 _ZTVN7Imf_2_215Pxr24CompressorE@Base 2.2
 _ZTVN7Imf_2_215TiledOutputFileE@Base 2.2
 _ZTVN7Imf_2_216InputStreamMutexE@Base 2.2
 _ZTVN7Imf_2_217OutputStreamMutexE@Base 2.2
 _ZTVN7Imf_2_217ScanLineInputFile4DataE@Base 2.2
 _ZTVN7Imf_2_217ScanLineInputFileE@Base 2.2
 _ZTVN7Imf_2_218DeepTiledInputFile4DataE@Base 2.2
 _ZTVN7Imf_2_218DeepTiledInputFileE@Base 2.2
 _ZTVN7Imf_2_218MultiPartInputFile4DataE@Base 2.2
 _ZTVN7Imf_2_218MultiPartInputFileE@Base 2.2
 _ZTVN7Imf_2_218TiledRgbaInputFile6FromYaE@Base 2.2
 _ZTVN7Imf_2_218TiledRgbaInputFileE@Base 2.2
 _ZTVN7Imf_2_219DeepTiledOutputFileE@Base 2.2
 _ZTVN7Imf_2_219MultiPartOutputFile4DataE@Base 2.2
 _ZTVN7Imf_2_219MultiPartOutputFileE@Base 2.2
 _ZTVN7Imf_2_219TiledRgbaOutputFile4ToYaE@Base 2.2
 _ZTVN7Imf_2_219TiledRgbaOutputFileE@Base 2.2
 _ZTVN7Imf_2_221CompositeDeepScanLineE@Base 2.2
 _ZTVN7Imf_2_221DeepScanLineInputFile4DataE@Base 2.2
 _ZTVN7Imf_2_221DeepScanLineInputFileE@Base 2.2
 _ZTVN7Imf_2_222DeepScanLineOutputFileE@Base 2.2
 _ZTVN7Imf_2_27IStreamE@Base 2.2
 _ZTVN7Imf_2_27OStreamE@Base 2.2
 _ZTVN7Imf_2_29AttributeE@Base 2.2
 _ZTVN7Imf_2_29InputFile4DataE@Base 2.2
 _ZTVN7Imf_2_29InputFileE@Base 2.2
 _ZTVN9Imath_2_213SingMatrixExcE@Base 2.2
libIlmImfUtil-2_2.so.22 libopenexr22 #MINVER#
 _ZN7Iex_2_26ArgExcD0Ev@Base 2.2
 _ZN7Iex_2_26ArgExcD1Ev@Base 2.2
 _ZN7Iex_2_26ArgExcD2Ev@Base 2.2
 _ZN7Iex_2_28LogicExcD0Ev@Base 2.2
 _ZN7Iex_2_28LogicExcD1Ev@Base 2.2
 _ZN7Iex_2_28LogicExcD2Ev@Base 2.2
 _ZN7Imf_2_210ImageLevel11shiftPixelsEii@Base 2.2
 _ZN7Imf_2_210ImageLevel6resizeERKN9Imath_2_23BoxINS1_4Vec2IiEEEE@Base 2.2
 _ZN7Imf_2_210ImageLevelC1ERNS_5ImageEii@Base 2.2
 _ZN7Imf_2_210ImageLevelC2ERNS_5ImageEii@Base 2.2
 _ZN7Imf_2_210ImageLevelD0Ev@Base 2.2
 _ZN7Imf_2_210ImageLevelD1Ev@Base 2.2
 _ZN7Imf_2_210ImageLevelD2Ev@Base 2.2
 _ZN7Imf_2_212ImageChannel6resizeEv@Base 2.2
 _ZN7Imf_2_212ImageChannelC1ERNS_10ImageLevelEiib@Base 2.2
 _ZN7Imf_2_212ImageChannelC2ERNS_10ImageLevelEiib@Base 2.2
 _ZN7Imf_2_212ImageChannelD0Ev@Base 2.2
 _ZN7Imf_2_212ImageChannelD1Ev@Base 2.2
 _ZN7Imf_2_212ImageChannelD2Ev@Base 2.2
 _ZN7Imf_2_213loadDeepImageERKNSt7__cxx1112basic_stringIcSt11char_traitsIcESaIcEEERNS_6HeaderERNS_9DeepImageE@Base 2.2.0
 _ZN7Imf_2_213loadDeepImageERKNSt7__cxx1112basic_stringIcSt11char_traitsIcESaIcEEERNS_9DeepImageE@Base 2.2.0
 _ZN7Imf_2_213loadFlatImageERKNSt7__cxx1112basic_stringIcSt11char_traitsIcESaIcEEERNS_6HeaderERNS_9FlatImageE@Base 2.2.0
 _ZN7Imf_2_213loadFlatImageERKNSt7__cxx1112basic_stringIcSt11char_traitsIcESaIcEEERNS_9FlatImageE@Base 2.2.0
 _ZN7Imf_2_213saveDeepImageERKNSt7__cxx1112basic_stringIcSt11char_traitsIcESaIcEEERKNS_6HeaderERKNS_9DeepImageENS_16DataWindowSourceE@Base 2.2.0
 _ZN7Imf_2_213saveDeepImageERKNSt7__cxx1112basic_stringIcSt11char_traitsIcESaIcEEERKNS_9DeepImageE@Base 2.2.0
 _ZN7Imf_2_213saveFlatImageERKNSt7__cxx1112basic_stringIcSt11char_traitsIcESaIcEEERKNS_6HeaderERKNS_9FlatImageENS_16DataWindowSourceE@Base 2.2.0
 _ZN7Imf_2_213saveFlatImageERKNSt7__cxx1112basic_stringIcSt11char_traitsIcESaIcEEERKNS_9FlatImageE@Base 2.2.0
 _ZN7Imf_2_214DeepImageLevel11findChannelERKNSt7__cxx1112basic_stringIcSt11char_traitsIcESaIcEEE@Base 2.2.0
 _ZN7Imf_2_214DeepImageLevel11shiftPixelsEii@Base 2.2
 _ZN7Imf_2_214DeepImageLevel12eraseChannelERKNSt7__cxx1112basic_stringIcSt11char_traitsIcESaIcEEE@Base 2.2.0
 _ZN7Imf_2_214DeepImageLevel13clearChannelsEv@Base 2.2
 _ZN7Imf_2_214DeepImageLevel13insertChannelERKNSt7__cxx1112basic_stringIcSt11char_traitsIcESaIcEEENS_9PixelTypeEiib@Base 2.2.0
 _ZN7Imf_2_214DeepImageLevel13renameChannelERKNSt7__cxx1112basic_stringIcSt11char_traitsIcESaIcEEES8_@Base 2.2.0
 _ZN7Imf_2_214DeepImageLevel14moveSampleListEmjjm@Base 2.2.0
 _ZN7Imf_2_214DeepImageLevel14renameChannelsERKSt3mapINSt7__cxx1112basic_stringIcSt11char_traitsIcESaIcEEES7_St4lessIS7_ESaISt4pairIKS7_S7_EEE@Base 2.2.0
 _ZN7Imf_2_214DeepImageLevel16setSamplesToZeroEmjj@Base 2.2.0
 _ZN7Imf_2_214DeepImageLevel21initializeSampleListsEv@Base 2.2
 _ZN7Imf_2_214DeepImageLevel22moveSamplesToNewBufferEPKjS2_PKm@Base 2.2.0
 _ZN7Imf_2_214DeepImageLevel3endEv@Base 2.2
 _ZN7Imf_2_214DeepImageLevel5beginEv@Base 2.2
 _ZN7Imf_2_214DeepImageLevel6resizeERKN9Imath_2_23BoxINS1_4Vec2IiEEEE@Base 2.2
 _ZN7Imf_2_214DeepImageLevel7channelERKNSt7__cxx1112basic_stringIcSt11char_traitsIcESaIcEEE@Base 2.2.0
 _ZN7Imf_2_214DeepImageLevel9deepImageEv@Base 2.2
 _ZN7Imf_2_214DeepImageLevelC1ERNS_9DeepImageEiiRKN9Imath_2_23BoxINS3_4Vec2IiEEEE@Base 2.2
 _ZN7Imf_2_214DeepImageLevelC2ERNS_9DeepImageEiiRKN9Imath_2_23BoxINS3_4Vec2IiEEEE@Base 2.2
 _ZN7Imf_2_214DeepImageLevelD0Ev@Base 2.2
 _ZN7Imf_2_214DeepImageLevelD1Ev@Base 2.2
 _ZN7Imf_2_214DeepImageLevelD2Ev@Base 2.2
 _ZN7Imf_2_214FlatImageLevel11findChannelERKNSt7__cxx1112basic_stringIcSt11char_traitsIcESaIcEEE@Base 2.2.0
 _ZN7Imf_2_214FlatImageLevel11shiftPixelsEii@Base 2.2
 _ZN7Imf_2_214FlatImageLevel12eraseChannelERKNSt7__cxx1112basic_stringIcSt11char_traitsIcESaIcEEE@Base 2.2.0
 _ZN7Imf_2_214FlatImageLevel13clearChannelsEv@Base 2.2
 _ZN7Imf_2_214FlatImageLevel13insertChannelERKNSt7__cxx1112basic_stringIcSt11char_traitsIcESaIcEEENS_9PixelTypeEiib@Base 2.2.0
 _ZN7Imf_2_214FlatImageLevel13renameChannelERKNSt7__cxx1112basic_stringIcSt11char_traitsIcESaIcEEES8_@Base 2.2.0
 _ZN7Imf_2_214FlatImageLevel14renameChannelsERKSt3mapINSt7__cxx1112basic_stringIcSt11char_traitsIcESaIcEEES7_St4lessIS7_ESaISt4pairIKS7_S7_EEE@Base 2.2.0
 _ZN7Imf_2_214FlatImageLevel3endEv@Base 2.2
 _ZN7Imf_2_214FlatImageLevel5beginEv@Base 2.2
 _ZN7Imf_2_214FlatImageLevel6resizeERKN9Imath_2_23BoxINS1_4Vec2IiEEEE@Base 2.2
 _ZN7Imf_2_214FlatImageLevel7channelERKNSt7__cxx1112basic_stringIcSt11char_traitsIcESaIcEEE@Base 2.2.0
 _ZN7Imf_2_214FlatImageLevel9flatImageEv@Base 2.2
 _ZN7Imf_2_214FlatImageLevelC1ERNS_9FlatImageEiiRKN9Imath_2_23BoxINS3_4Vec2IiEEEE@Base 2.2
 _ZN7Imf_2_214FlatImageLevelC2ERNS_9FlatImageEiiRKN9Imath_2_23BoxINS3_4Vec2IiEEEE@Base 2.2
 _ZN7Imf_2_214FlatImageLevelD0Ev@Base 2.2
 _ZN7Imf_2_214FlatImageLevelD1Ev@Base 2.2
 _ZN7Imf_2_214FlatImageLevelD2Ev@Base 2.2
 _ZN7Imf_2_216DeepImageChannel12sampleCountsEv@Base 2.2
 _ZN7Imf_2_216DeepImageChannel6resizeEv@Base 2.2
 _ZN7Imf_2_216DeepImageChannel9deepLevelEv@Base 2.2
 _ZN7Imf_2_216DeepImageChannelC1ERNS_14DeepImageLevelEb@Base 2.2
 _ZN7Imf_2_216DeepImageChannelC2ERNS_14DeepImageLevelEb@Base 2.2
 _ZN7Imf_2_216DeepImageChannelD0Ev@Base 2.2
 _ZN7Imf_2_216DeepImageChannelD1Ev@Base 2.2
 _ZN7Imf_2_216DeepImageChannelD2Ev@Base 2.2
 _ZN7Imf_2_216FlatImageChannel6resizeEv@Base 2.2
 _ZN7Imf_2_216FlatImageChannel9flatLevelEv@Base 2.2
 _ZN7Imf_2_216FlatImageChannelC1ERNS_14FlatImageLevelEiib@Base 2.2
 _ZN7Imf_2_216FlatImageChannelC2ERNS_14FlatImageLevelEiib@Base 2.2
 _ZN7Imf_2_216FlatImageChannelD0Ev@Base 2.2
 _ZN7Imf_2_216FlatImageChannelD1Ev@Base 2.2
 _ZN7Imf_2_216FlatImageChannelD2Ev@Base 2.2
 _ZN7Imf_2_217dataWindowForFileERKNS_6HeaderERKNS_5ImageENS_16DataWindowSourceE@Base 2.2
 _ZN7Imf_2_218SampleCountChannel16resetBasePointerEv@Base 2.2
 _ZN7Imf_2_218SampleCountChannel3setEiPj@Base 2.2
 _ZN7Imf_2_218SampleCountChannel3setEiij@Base 2.2
 _ZN7Imf_2_218SampleCountChannel5clearEv@Base 2.2
 _ZN7Imf_2_218SampleCountChannel6resizeEv@Base 2.2
 _ZN7Imf_2_218SampleCountChannel7endEditEv@Base 2.2
 _ZN7Imf_2_218SampleCountChannel9beginEditEv@Base 2.2
 _ZN7Imf_2_218SampleCountChannel9deepLevelEv@Base 2.2
 _ZN7Imf_2_218SampleCountChannelC1ERNS_14DeepImageLevelE@Base 2.2
 _ZN7Imf_2_218SampleCountChannelC2ERNS_14DeepImageLevelE@Base 2.2
 _ZN7Imf_2_218SampleCountChannelD0Ev@Base 2.2
 _ZN7Imf_2_218SampleCountChannelD1Ev@Base 2.2
 _ZN7Imf_2_218SampleCountChannelD2Ev@Base 2.2
 _ZN7Imf_2_218loadDeepTiledImageERKNSt7__cxx1112basic_stringIcSt11char_traitsIcESaIcEEERNS_6HeaderERNS_9DeepImageE@Base 2.2.0
 _ZN7Imf_2_218loadDeepTiledImageERKNSt7__cxx1112basic_stringIcSt11char_traitsIcESaIcEEERNS_9DeepImageE@Base 2.2.0
 _ZN7Imf_2_218loadFlatTiledImageERKNSt7__cxx1112basic_stringIcSt11char_traitsIcESaIcEEERNS_6HeaderERNS_9FlatImageE@Base 2.2.0
 _ZN7Imf_2_218loadFlatTiledImageERKNSt7__cxx1112basic_stringIcSt11char_traitsIcESaIcEEERNS_9FlatImageE@Base 2.2.0
 _ZN7Imf_2_218saveDeepTiledImageERKNSt7__cxx1112basic_stringIcSt11char_traitsIcESaIcEEERKNS_6HeaderERKNS_9DeepImageENS_16DataWindowSourceE@Base 2.2.0
 _ZN7Imf_2_218saveDeepTiledImageERKNSt7__cxx1112basic_stringIcSt11char_traitsIcESaIcEEERKNS_9DeepImageE@Base 2.2.0
 _ZN7Imf_2_218saveFlatTiledImageERKNSt7__cxx1112basic_stringIcSt11char_traitsIcESaIcEEERKNS_6HeaderERKNS_9FlatImageENS_16DataWindowSourceE@Base 2.2.0
 _ZN7Imf_2_218saveFlatTiledImageERKNSt7__cxx1112basic_stringIcSt11char_traitsIcESaIcEEERKNS_9FlatImageE@Base 2.2.0
 _ZN7Imf_2_219renameChannelsInMapISt3mapINSt7__cxx1112basic_stringIcSt11char_traitsIcESaIcEEENS_5Image11ChannelInfoESt4lessIS7_ESaISt4pairIKS7_S9_EEEEEvS1_IS7_S7_SB_SaISC_ISD_S7_EEERT_@Base 2.2.0
 _ZN7Imf_2_219renameChannelsInMapISt3mapINSt7__cxx1112basic_stringIcSt11char_traitsIcESaIcEEEPNS_16DeepImageChannelESt4lessIS7_ESaISt4pairIKS7_S9_EEEEEvS1_IS7_S7_SB_SaISC_ISD_S7_EEERT_@Base 2.2.0
 _ZN7Imf_2_219renameChannelsInMapISt3mapINSt7__cxx1112basic_stringIcSt11char_traitsIcESaIcEEEPNS_16FlatImageChannelESt4lessIS7_ESaISt4pairIKS7_S9_EEEEEvS1_IS7_S7_SB_SaISC_ISD_S7_EEERT_@Base 2.2.0
 _ZN7Imf_2_221TypedDeepImageChannelI4halfE14moveSampleListEmjjm@Base 2.2.0
 _ZN7Imf_2_221TypedDeepImageChannelI4halfE16resetBasePointerEv@Base 2.2
 _ZN7Imf_2_221TypedDeepImageChannelI4halfE16setSamplesToZeroEmjj@Base 2.2.0
 _ZN7Imf_2_221TypedDeepImageChannelI4halfE21initializeSampleListsEv@Base 2.2
 _ZN7Imf_2_221TypedDeepImageChannelI4halfE22moveSamplesToNewBufferEPKjS4_PKm@Base 2.2.0
 _ZN7Imf_2_221TypedDeepImageChannelI4halfE6resizeEv@Base 2.2
 _ZN7Imf_2_221TypedDeepImageChannelI4halfED0Ev@Base 2.2
 _ZN7Imf_2_221TypedDeepImageChannelI4halfED1Ev@Base 2.2
 _ZN7Imf_2_221TypedDeepImageChannelI4halfED2Ev@Base 2.2
 _ZN7Imf_2_221TypedDeepImageChannelIfE14moveSampleListEmjjm@Base 2.2.0
 _ZN7Imf_2_221TypedDeepImageChannelIfE16resetBasePointerEv@Base 2.2
 _ZN7Imf_2_221TypedDeepImageChannelIfE16setSamplesToZeroEmjj@Base 2.2.0
 _ZN7Imf_2_221TypedDeepImageChannelIfE21initializeSampleListsEv@Base 2.2
 _ZN7Imf_2_221TypedDeepImageChannelIfE22moveSamplesToNewBufferEPKjS3_PKm@Base 2.2.0
 _ZN7Imf_2_221TypedDeepImageChannelIfE6resizeEv@Base 2.2
 _ZN7Imf_2_221TypedDeepImageChannelIfED0Ev@Base 2.2
 _ZN7Imf_2_221TypedDeepImageChannelIfED1Ev@Base 2.2
 _ZN7Imf_2_221TypedDeepImageChannelIfED2Ev@Base 2.2
 _ZN7Imf_2_221TypedDeepImageChannelIjE14moveSampleListEmjjm@Base 2.2.0
 _ZN7Imf_2_221TypedDeepImageChannelIjE16resetBasePointerEv@Base 2.2
 _ZN7Imf_2_221TypedDeepImageChannelIjE16setSamplesToZeroEmjj@Base 2.2.0
 _ZN7Imf_2_221TypedDeepImageChannelIjE21initializeSampleListsEv@Base 2.2
 _ZN7Imf_2_221TypedDeepImageChannelIjE22moveSamplesToNewBufferEPKjS3_PKm@Base 2.2.0
 _ZN7Imf_2_221TypedDeepImageChannelIjE6resizeEv@Base 2.2
 _ZN7Imf_2_221TypedDeepImageChannelIjED0Ev@Base 2.2
 _ZN7Imf_2_221TypedDeepImageChannelIjED1Ev@Base 2.2
 _ZN7Imf_2_221TypedDeepImageChannelIjED2Ev@Base 2.2
 _ZN7Imf_2_221TypedFlatImageChannelI4halfE16resetBasePointerEv@Base 2.2
 _ZN7Imf_2_221TypedFlatImageChannelI4halfE6resizeEv@Base 2.2
 _ZN7Imf_2_221TypedFlatImageChannelI4halfED0Ev@Base 2.2
 _ZN7Imf_2_221TypedFlatImageChannelI4halfED1Ev@Base 2.2
 _ZN7Imf_2_221TypedFlatImageChannelI4halfED2Ev@Base 2.2
 _ZN7Imf_2_221TypedFlatImageChannelIfE16resetBasePointerEv@Base 2.2
 _ZN7Imf_2_221TypedFlatImageChannelIfE6resizeEv@Base 2.2
 _ZN7Imf_2_221TypedFlatImageChannelIfED0Ev@Base 2.2
 _ZN7Imf_2_221TypedFlatImageChannelIfED1Ev@Base 2.2
 _ZN7Imf_2_221TypedFlatImageChannelIfED2Ev@Base 2.2
 _ZN7Imf_2_221TypedFlatImageChannelIjE16resetBasePointerEv@Base 2.2
 _ZN7Imf_2_221TypedFlatImageChannelIjE6resizeEv@Base 2.2
 _ZN7Imf_2_221TypedFlatImageChannelIjED0Ev@Base 2.2
 _ZN7Imf_2_221TypedFlatImageChannelIjED1Ev@Base 2.2
 _ZN7Imf_2_221TypedFlatImageChannelIjED2Ev@Base 2.2
 _ZN7Imf_2_221loadDeepScanLineImageERKNSt7__cxx1112basic_stringIcSt11char_traitsIcESaIcEEERNS_6HeaderERNS_9DeepImageE@Base 2.2.0
 _ZN7Imf_2_221loadDeepScanLineImageERKNSt7__cxx1112basic_stringIcSt11char_traitsIcESaIcEEERNS_9DeepImageE@Base 2.2.0
 _ZN7Imf_2_221loadFlatScanLineImageERKNSt7__cxx1112basic_stringIcSt11char_traitsIcESaIcEEERNS_6HeaderERNS_9FlatImageE@Base 2.2.0
 _ZN7Imf_2_221loadFlatScanLineImageERKNSt7__cxx1112basic_stringIcSt11char_traitsIcESaIcEEERNS_9FlatImageE@Base 2.2.0
 _ZN7Imf_2_221saveDeepScanLineImageERKNSt7__cxx1112basic_stringIcSt11char_traitsIcESaIcEEERKNS_6HeaderERKNS_9DeepImageENS_16DataWindowSourceE@Base 2.2.0
 _ZN7Imf_2_221saveDeepScanLineImageERKNSt7__cxx1112basic_stringIcSt11char_traitsIcESaIcEEERKNS_9DeepImageE@Base 2.2.0
 _ZN7Imf_2_221saveFlatScanLineImageERKNSt7__cxx1112basic_stringIcSt11char_traitsIcESaIcEEERKNS_6HeaderERKNS_9FlatImageENS_16DataWindowSourceE@Base 2.2.0
 _ZN7Imf_2_221saveFlatScanLineImageERKNSt7__cxx1112basic_stringIcSt11char_traitsIcESaIcEEERKNS_9FlatImageE@Base 2.2.0
 _ZN7Imf_2_25Image11ChannelInfoC1ENS_9PixelTypeEiib@Base 2.2
 _ZN7Imf_2_25Image11ChannelInfoC2ENS_9PixelTypeEiib@Base 2.2
 _ZN7Imf_2_25Image11clearLevelsEv@Base 2.2
 _ZN7Imf_2_25Image11shiftPixelsEii@Base 2.2
 _ZN7Imf_2_25Image12eraseChannelERKNSt7__cxx1112basic_stringIcSt11char_traitsIcESaIcEEE@Base 2.2.0
 _ZN7Imf_2_25Image13clearChannelsEv@Base 2.2
 _ZN7Imf_2_25Image13insertChannelERKNSt7__cxx1112basic_stringIcSt11char_traitsIcESaIcEEENS_9PixelTypeEiib@Base 2.2.0
 _ZN7Imf_2_25Image13insertChannelERKNSt7__cxx1112basic_stringIcSt11char_traitsIcESaIcEEERKNS_7ChannelE@Base 2.2.0
 _ZN7Imf_2_25Image13renameChannelERKNSt7__cxx1112basic_stringIcSt11char_traitsIcESaIcEEES8_@Base 2.2.0
 _ZN7Imf_2_25Image14renameChannelsERKSt3mapINSt7__cxx1112basic_stringIcSt11char_traitsIcESaIcEEES7_St4lessIS7_ESaISt4pairIKS7_S7_EEE@Base 2.2.0
 _ZN7Imf_2_25Image5levelEi@Base 2.2
 _ZN7Imf_2_25Image5levelEii@Base 2.2
 _ZN7Imf_2_25Image6resizeERKN9Imath_2_23BoxINS1_4Vec2IiEEEE@Base 2.2
 _ZN7Imf_2_25Image6resizeERKN9Imath_2_23BoxINS1_4Vec2IiEEEENS_9LevelModeENS_17LevelRoundingModeE@Base 2.2
 _ZN7Imf_2_25ImageC1Ev@Base 2.2
 _ZN7Imf_2_25ImageC2Ev@Base 2.2
 _ZN7Imf_2_25ImageD0Ev@Base 2.2
 _ZN7Imf_2_25ImageD1Ev@Base 2.2
 _ZN7Imf_2_25ImageD2Ev@Base 2.2
 _ZN7Imf_2_29DeepImage5levelEi@Base 2.2
 _ZN7Imf_2_29DeepImage5levelEii@Base 2.2
 _ZN7Imf_2_29DeepImage8newLevelEiiRKN9Imath_2_23BoxINS1_4Vec2IiEEEE@Base 2.2
 _ZN7Imf_2_29DeepImageC1ERKN9Imath_2_23BoxINS1_4Vec2IiEEEENS_9LevelModeENS_17LevelRoundingModeE@Base 2.2
 _ZN7Imf_2_29DeepImageC1Ev@Base 2.2
 _ZN7Imf_2_29DeepImageC2ERKN9Imath_2_23BoxINS1_4Vec2IiEEEENS_9LevelModeENS_17LevelRoundingModeE@Base 2.2
 _ZN7Imf_2_29DeepImageC2Ev@Base 2.2
 _ZN7Imf_2_29DeepImageD0Ev@Base 2.2
 _ZN7Imf_2_29DeepImageD1Ev@Base 2.2
 _ZN7Imf_2_29DeepImageD2Ev@Base 2.2
 _ZN7Imf_2_29FlatImage5levelEi@Base 2.2
 _ZN7Imf_2_29FlatImage5levelEii@Base 2.2
 _ZN7Imf_2_29FlatImage8newLevelEiiRKN9Imath_2_23BoxINS1_4Vec2IiEEEE@Base 2.2
 _ZN7Imf_2_29FlatImageC1ERKN9Imath_2_23BoxINS1_4Vec2IiEEEENS_9LevelModeENS_17LevelRoundingModeE@Base 2.2
 _ZN7Imf_2_29FlatImageC1Ev@Base 2.2
 _ZN7Imf_2_29FlatImageC2ERKN9Imath_2_23BoxINS1_4Vec2IiEEEENS_9LevelModeENS_17LevelRoundingModeE@Base 2.2
 _ZN7Imf_2_29FlatImageC2Ev@Base 2.2
 _ZN7Imf_2_29FlatImageD0Ev@Base 2.2
 _ZN7Imf_2_29FlatImageD1Ev@Base 2.2
 _ZN7Imf_2_29FlatImageD2Ev@Base 2.2
 _ZN7Imf_2_29loadImageERKNSt7__cxx1112basic_stringIcSt11char_traitsIcESaIcEEE@Base 2.2.0
 _ZN7Imf_2_29loadImageERKNSt7__cxx1112basic_stringIcSt11char_traitsIcESaIcEEERNS_6HeaderE@Base 2.2.0
 _ZN7Imf_2_29saveImageERKNSt7__cxx1112basic_stringIcSt11char_traitsIcESaIcEEERKNS_5ImageE@Base 2.2.0
 _ZN7Imf_2_29saveImageERKNSt7__cxx1112basic_stringIcSt11char_traitsIcESaIcEEERKNS_6HeaderERKNS_5ImageENS_16DataWindowSourceE@Base 2.2.0
 _ZNK7Imf_2_210ImageLevel18throwChannelExistsERKNSt7__cxx1112basic_stringIcSt11char_traitsIcESaIcEEE@Base 2.2.0
 _ZNK7Imf_2_210ImageLevel19throwBadChannelNameERKNSt7__cxx1112basic_stringIcSt11char_traitsIcESaIcEEE@Base 2.2.0
 _ZNK7Imf_2_210ImageLevel25throwBadChannelNameOrTypeERKNSt7__cxx1112basic_stringIcSt11char_traitsIcESaIcEEE@Base 2.2.0
 _ZNK7Imf_2_212ImageChannel11boundsCheckEii@Base 2.2
 _ZNK7Imf_2_212ImageChannel7channelEv@Base 2.2
 _ZNK7Imf_2_214DeepImageLevel11findChannelERKNSt7__cxx1112basic_stringIcSt11char_traitsIcESaIcEEE@Base 2.2.0
 _ZNK7Imf_2_214DeepImageLevel3endEv@Base 2.2
 _ZNK7Imf_2_214DeepImageLevel5beginEv@Base 2.2
 _ZNK7Imf_2_214DeepImageLevel7channelERKNSt7__cxx1112basic_stringIcSt11char_traitsIcESaIcEEE@Base 2.2.0
 _ZNK7Imf_2_214DeepImageLevel9deepImageEv@Base 2.2
 _ZNK7Imf_2_214FlatImageLevel11findChannelERKNSt7__cxx1112basic_stringIcSt11char_traitsIcESaIcEEE@Base 2.2.0
 _ZNK7Imf_2_214FlatImageLevel3endEv@Base 2.2
 _ZNK7Imf_2_214FlatImageLevel5beginEv@Base 2.2
 _ZNK7Imf_2_214FlatImageLevel7channelERKNSt7__cxx1112basic_stringIcSt11char_traitsIcESaIcEEE@Base 2.2.0
 _ZNK7Imf_2_214FlatImageLevel9flatImageEv@Base 2.2
 _ZNK7Imf_2_216DeepImageChannel12sampleCountsEv@Base 2.2
 _ZNK7Imf_2_216DeepImageChannel9deepLevelEv@Base 2.2
 _ZNK7Imf_2_216FlatImageChannel9flatLevelEv@Base 2.2
 _ZNK7Imf_2_218SampleCountChannel5sliceEv@Base 2.2
 _ZNK7Imf_2_218SampleCountChannel9deepLevelEv@Base 2.2
 _ZNK7Imf_2_218SampleCountChannel9pixelTypeEv@Base 2.2
 _ZNK7Imf_2_221TypedDeepImageChannelI4halfE5sliceEv@Base 2.2
 _ZNK7Imf_2_221TypedDeepImageChannelI4halfE9pixelTypeEv@Base 2.2
 _ZNK7Imf_2_221TypedDeepImageChannelIfE5sliceEv@Base 2.2
 _ZNK7Imf_2_221TypedDeepImageChannelIfE9pixelTypeEv@Base 2.2
 _ZNK7Imf_2_221TypedDeepImageChannelIjE5sliceEv@Base 2.2
 _ZNK7Imf_2_221TypedDeepImageChannelIjE9pixelTypeEv@Base 2.2
 _ZNK7Imf_2_221TypedFlatImageChannelI4halfE5sliceEv@Base 2.2
 _ZNK7Imf_2_221TypedFlatImageChannelI4halfE9pixelTypeEv@Base 2.2
 _ZNK7Imf_2_221TypedFlatImageChannelIfE5sliceEv@Base 2.2
 _ZNK7Imf_2_221TypedFlatImageChannelIfE9pixelTypeEv@Base 2.2
 _ZNK7Imf_2_221TypedFlatImageChannelIjE5sliceEv@Base 2.2
 _ZNK7Imf_2_221TypedFlatImageChannelIjE9pixelTypeEv@Base 2.2
 _ZNK7Imf_2_25Image10dataWindowEv@Base 2.2
 _ZNK7Imf_2_25Image10levelWidthEi@Base 2.2
 _ZNK7Imf_2_25Image10numXLevelsEv@Base 2.2
 _ZNK7Imf_2_25Image10numYLevelsEv@Base 2.2
 _ZNK7Imf_2_25Image11levelHeightEi@Base 2.2
 _ZNK7Imf_2_25Image17levelRoundingModeEv@Base 2.2
 _ZNK7Imf_2_25Image18dataWindowForLevelEi@Base 2.2
 _ZNK7Imf_2_25Image18dataWindowForLevelEii@Base 2.2
 _ZNK7Imf_2_25Image18levelNumberIsValidEii@Base 2.2
 _ZNK7Imf_2_25Image5levelEi@Base 2.2
 _ZNK7Imf_2_25Image5levelEii@Base 2.2
 _ZNK7Imf_2_25Image9levelModeEv@Base 2.2
 _ZNK7Imf_2_25Image9numLevelsEv@Base 2.2
 _ZNK7Imf_2_29DeepImage5levelEi@Base 2.2
 _ZNK7Imf_2_29DeepImage5levelEii@Base 2.2
 _ZNK7Imf_2_29FlatImage5levelEi@Base 2.2
 _ZNK7Imf_2_29FlatImage5levelEii@Base 2.2
 _ZNKSt8_Rb_treeINSt7__cxx1112basic_stringIcSt11char_traitsIcESaIcEEESt4pairIKS5_PN7Imf_2_216DeepImageChannelEESt10_Select1stISB_ESt4lessIS5_ESaISB_EE4findERS7_@Base 2.2.0
 _ZNKSt8_Rb_treeINSt7__cxx1112basic_stringIcSt11char_traitsIcESaIcEEESt4pairIKS5_PN7Imf_2_216FlatImageChannelEESt10_Select1stISB_ESt4lessIS5_ESaISB_EE4findERS7_@Base 2.2.0
 _ZNKSt8_Rb_treeINSt7__cxx1112basic_stringIcSt11char_traitsIcESaIcEEESt4pairIKS5_S5_ESt10_Select1stIS8_ESt4lessIS5_ESaIS8_EE4findERS7_@Base 2.2.0
 _ZNSt7__cxx1115basic_stringbufIcSt11char_traitsIcESaIcEED0Ev@Base 2.2.0
 _ZNSt7__cxx1115basic_stringbufIcSt11char_traitsIcESaIcEED1Ev@Base 2.2.0
 _ZNSt7__cxx1115basic_stringbufIcSt11char_traitsIcESaIcEED2Ev@Base 2.2.0
 _ZNSt8_Rb_treeIN7Imf_2_24NameESt4pairIKS1_NS0_5SliceEESt10_Select1stIS5_ESt4lessIS1_ESaIS5_EE8_M_eraseEPSt13_Rb_tree_nodeIS5_E@Base 2.2
 _ZNSt8_Rb_treeIN7Imf_2_24NameESt4pairIKS1_NS0_9DeepSliceEESt10_Select1stIS5_ESt4lessIS1_ESaIS5_EE8_M_eraseEPSt13_Rb_tree_nodeIS5_E@Base 2.2
 _ZNSt8_Rb_treeINSt7__cxx1112basic_stringIcSt11char_traitsIcESaIcEEES5_St9_IdentityIS5_ESt4lessIS5_ESaIS5_EE8_M_eraseEPSt13_Rb_tree_nodeIS5_E@Base 2.2.0
 _ZNSt8_Rb_treeINSt7__cxx1112basic_stringIcSt11char_traitsIcESaIcEEESt4pairIKS5_N7Imf_2_25Image11ChannelInfoEESt10_Select1stISB_ESt4lessIS5_ESaISB_EE12_M_erase_auxESt23_Rb_tree_const_iteratorISB_E@Base 2.2.0
 _ZNSt8_Rb_treeINSt7__cxx1112basic_stringIcSt11char_traitsIcESaIcEEESt4pairIKS5_N7Imf_2_25Image11ChannelInfoEESt10_Select1stISB_ESt4lessIS5_ESaISB_EE24_M_get_insert_unique_posERS7_@Base 2.2.0
 _ZNSt8_Rb_treeINSt7__cxx1112basic_stringIcSt11char_traitsIcESaIcEEESt4pairIKS5_N7Imf_2_25Image11ChannelInfoEESt10_Select1stISB_ESt4lessIS5_ESaISB_EE29_M_get_insert_hint_unique_posESt23_Rb_tree_const_iteratorISB_ERS7_@Base 2.2.0
 _ZNSt8_Rb_treeINSt7__cxx1112basic_stringIcSt11char_traitsIcESaIcEEESt4pairIKS5_N7Imf_2_25Image11ChannelInfoEESt10_Select1stISB_ESt4lessIS5_ESaISB_EE4findERS7_@Base 2.2.0
 _ZNSt8_Rb_treeINSt7__cxx1112basic_stringIcSt11char_traitsIcESaIcEEESt4pairIKS5_N7Imf_2_25Image11ChannelInfoEESt10_Select1stISB_ESt4lessIS5_ESaISB_EE7_M_copyINSH_20_Reuse_or_alloc_nodeEEEPSt13_Rb_tree_nodeISB_EPKSL_SM_RT_@Base 2.2.0
 _ZNSt8_Rb_treeINSt7__cxx1112basic_stringIcSt11char_traitsIcESaIcEEESt4pairIKS5_N7Imf_2_25Image11ChannelInfoEESt10_Select1stISB_ESt4lessIS5_ESaISB_EE8_M_eraseEPSt13_Rb_tree_nodeISB_E@Base 2.2.0
 _ZNSt8_Rb_treeINSt7__cxx1112basic_stringIcSt11char_traitsIcESaIcEEESt4pairIKS5_PN7Imf_2_216DeepImageChannelEESt10_Select1stISB_ESt4lessIS5_ESaISB_EE12_M_erase_auxESt23_Rb_tree_const_iteratorISB_E@Base 2.2.0
 _ZNSt8_Rb_treeINSt7__cxx1112basic_stringIcSt11char_traitsIcESaIcEEESt4pairIKS5_PN7Imf_2_216DeepImageChannelEESt10_Select1stISB_ESt4lessIS5_ESaISB_EE24_M_get_insert_unique_posERS7_@Base 2.2.0
 _ZNSt8_Rb_treeINSt7__cxx1112basic_stringIcSt11char_traitsIcESaIcEEESt4pairIKS5_PN7Imf_2_216DeepImageChannelEESt10_Select1stISB_ESt4lessIS5_ESaISB_EE29_M_get_insert_hint_unique_posESt23_Rb_tree_const_iteratorISB_ERS7_@Base 2.2.0
 _ZNSt8_Rb_treeINSt7__cxx1112basic_stringIcSt11char_traitsIcESaIcEEESt4pairIKS5_PN7Imf_2_216DeepImageChannelEESt10_Select1stISB_ESt4lessIS5_ESaISB_EE4findERS7_@Base 2.2.0
 _ZNSt8_Rb_treeINSt7__cxx1112basic_stringIcSt11char_traitsIcESaIcEEESt4pairIKS5_PN7Imf_2_216DeepImageChannelEESt10_Select1stISB_ESt4lessIS5_ESaISB_EE7_M_copyINSH_20_Reuse_or_alloc_nodeEEEPSt13_Rb_tree_nodeISB_EPKSL_SM_RT_@Base 2.2.0
 _ZNSt8_Rb_treeINSt7__cxx1112basic_stringIcSt11char_traitsIcESaIcEEESt4pairIKS5_PN7Imf_2_216DeepImageChannelEESt10_Select1stISB_ESt4lessIS5_ESaISB_EE8_M_eraseEPSt13_Rb_tree_nodeISB_E@Base 2.2.0
 _ZNSt8_Rb_treeINSt7__cxx1112basic_stringIcSt11char_traitsIcESaIcEEESt4pairIKS5_PN7Imf_2_216FlatImageChannelEESt10_Select1stISB_ESt4lessIS5_ESaISB_EE12_M_erase_auxESt23_Rb_tree_const_iteratorISB_E@Base 2.2.0
 _ZNSt8_Rb_treeINSt7__cxx1112basic_stringIcSt11char_traitsIcESaIcEEESt4pairIKS5_PN7Imf_2_216FlatImageChannelEESt10_Select1stISB_ESt4lessIS5_ESaISB_EE24_M_get_insert_unique_posERS7_@Base 2.2.0
 _ZNSt8_Rb_treeINSt7__cxx1112basic_stringIcSt11char_traitsIcESaIcEEESt4pairIKS5_PN7Imf_2_216FlatImageChannelEESt10_Select1stISB_ESt4lessIS5_ESaISB_EE29_M_get_insert_hint_unique_posESt23_Rb_tree_const_iteratorISB_ERS7_@Base 2.2.0
 _ZNSt8_Rb_treeINSt7__cxx1112basic_stringIcSt11char_traitsIcESaIcEEESt4pairIKS5_PN7Imf_2_216FlatImageChannelEESt10_Select1stISB_ESt4lessIS5_ESaISB_EE4findERS7_@Base 2.2.0
 _ZNSt8_Rb_treeINSt7__cxx1112basic_stringIcSt11char_traitsIcESaIcEEESt4pairIKS5_PN7Imf_2_216FlatImageChannelEESt10_Select1stISB_ESt4lessIS5_ESaISB_EE7_M_copyINSH_20_Reuse_or_alloc_nodeEEEPSt13_Rb_tree_nodeISB_EPKSL_SM_RT_@Base 2.2.0
 _ZNSt8_Rb_treeINSt7__cxx1112basic_stringIcSt11char_traitsIcESaIcEEESt4pairIKS5_PN7Imf_2_216FlatImageChannelEESt10_Select1stISB_ESt4lessIS5_ESaISB_EE8_M_eraseEPSt13_Rb_tree_nodeISB_E@Base 2.2.0
 _ZNSt8_Rb_treeINSt7__cxx1112basic_stringIcSt11char_traitsIcESaIcEEESt4pairIKS5_S5_ESt10_Select1stIS8_ESt4lessIS5_ESaIS8_EE7_M_copyINSE_11_Alloc_nodeEEEPSt13_Rb_tree_nodeIS8_EPKSI_SJ_RT_@Base 2.2.0
 _ZNSt8_Rb_treeINSt7__cxx1112basic_stringIcSt11char_traitsIcESaIcEEESt4pairIKS5_S5_ESt10_Select1stIS8_ESt4lessIS5_ESaIS8_EE8_M_eraseEPSt13_Rb_tree_nodeIS8_E@Base 2.2.0
 _ZTIN7Iex_2_26ArgExcE@Base 2.2
 _ZTIN7Iex_2_28LogicExcE@Base 2.2
 _ZTIN7Imf_2_210ImageLevelE@Base 2.2
 _ZTIN7Imf_2_212ImageChannelE@Base 2.2
 _ZTIN7Imf_2_214DeepImageLevelE@Base 2.2
 _ZTIN7Imf_2_214FlatImageLevelE@Base 2.2
 _ZTIN7Imf_2_216DeepImageChannelE@Base 2.2
 _ZTIN7Imf_2_216FlatImageChannelE@Base 2.2
 _ZTIN7Imf_2_218SampleCountChannelE@Base 2.2
 _ZTIN7Imf_2_221TypedDeepImageChannelI4halfEE@Base 2.2
 _ZTIN7Imf_2_221TypedDeepImageChannelIfEE@Base 2.2
 _ZTIN7Imf_2_221TypedDeepImageChannelIjEE@Base 2.2
 _ZTIN7Imf_2_221TypedFlatImageChannelI4halfEE@Base 2.2
 _ZTIN7Imf_2_221TypedFlatImageChannelIfEE@Base 2.2
 _ZTIN7Imf_2_221TypedFlatImageChannelIjEE@Base 2.2
 _ZTIN7Imf_2_25ImageE@Base 2.2
 _ZTIN7Imf_2_29DeepImageE@Base 2.2
 _ZTIN7Imf_2_29FlatImageE@Base 2.2
 _ZTSN7Iex_2_26ArgExcE@Base 2.2
 _ZTSN7Iex_2_28LogicExcE@Base 2.2
 _ZTSN7Imf_2_210ImageLevelE@Base 2.2
 _ZTSN7Imf_2_212ImageChannelE@Base 2.2
 _ZTSN7Imf_2_214DeepImageLevelE@Base 2.2
 _ZTSN7Imf_2_214FlatImageLevelE@Base 2.2
 _ZTSN7Imf_2_216DeepImageChannelE@Base 2.2
 _ZTSN7Imf_2_216FlatImageChannelE@Base 2.2
 _ZTSN7Imf_2_218SampleCountChannelE@Base 2.2
 _ZTSN7Imf_2_221TypedDeepImageChannelI4halfEE@Base 2.2
 _ZTSN7Imf_2_221TypedDeepImageChannelIfEE@Base 2.2
 _ZTSN7Imf_2_221TypedDeepImageChannelIjEE@Base 2.2
 _ZTSN7Imf_2_221TypedFlatImageChannelI4halfEE@Base 2.2
 _ZTSN7Imf_2_221TypedFlatImageChannelIfEE@Base 2.2
 _ZTSN7Imf_2_221TypedFlatImageChannelIjEE@Base 2.2
 _ZTSN7Imf_2_25ImageE@Base 2.2
 _ZTSN7Imf_2_29DeepImageE@Base 2.2
 _ZTSN7Imf_2_29FlatImageE@Base 2.2
 _ZTVN7Iex_2_26ArgExcE@Base 2.2
 _ZTVN7Iex_2_28LogicExcE@Base 2.2
 _ZTVN7Imf_2_210ImageLevelE@Base 2.2
 _ZTVN7Imf_2_212ImageChannelE@Base 2.2
 _ZTVN7Imf_2_214DeepImageLevelE@Base 2.2
 _ZTVN7Imf_2_214FlatImageLevelE@Base 2.2
 _ZTVN7Imf_2_216DeepImageChannelE@Base 2.2
 _ZTVN7Imf_2_216FlatImageChannelE@Base 2.2
 _ZTVN7Imf_2_218SampleCountChannelE@Base 2.2
 _ZTVN7Imf_2_221TypedDeepImageChannelI4halfEE@Base 2.2
 _ZTVN7Imf_2_221TypedDeepImageChannelIfEE@Base 2.2
 _ZTVN7Imf_2_221TypedDeepImageChannelIjEE@Base 2.2
 _ZTVN7Imf_2_221TypedFlatImageChannelI4halfEE@Base 2.2
 _ZTVN7Imf_2_221TypedFlatImageChannelIfEE@Base 2.2
 _ZTVN7Imf_2_221TypedFlatImageChannelIjEE@Base 2.2
 _ZTVN7Imf_2_25ImageE@Base 2.2
 _ZTVN7Imf_2_29DeepImageE@Base 2.2
 _ZTVN7Imf_2_29FlatImageE@Base 2.2
