liborcus-0.10.so.0 liborcus-0.10-0v5 #MINVER#
 _ZN5boost16exception_detail19error_info_injectorINSt8ios_base7failureB5cxx11EEC1ERKS4_@Base 0.9
 _ZN5boost16exception_detail19error_info_injectorINSt8ios_base7failureB5cxx11EEC2ERKS4_@Base 0.9
 _ZN5boost16exception_detail19error_info_injectorINSt8ios_base7failureB5cxx11EED0Ev@Base 0.9
 _ZN5boost16exception_detail19error_info_injectorINSt8ios_base7failureB5cxx11EED1Ev@Base 0.9
 _ZN5boost16exception_detail19error_info_injectorINSt8ios_base7failureB5cxx11EED2Ev@Base 0.9
 _ZN5boost16exception_detail19error_info_injectorISt11logic_errorEC1ERKS3_@Base 0.9
 _ZN5boost16exception_detail19error_info_injectorISt11logic_errorEC2ERKS3_@Base 0.9
 _ZN5boost16exception_detail19error_info_injectorISt11logic_errorED0Ev@Base 0.9
 _ZN5boost16exception_detail19error_info_injectorISt11logic_errorED1Ev@Base 0.9
 _ZN5boost16exception_detail19error_info_injectorISt11logic_errorED2Ev@Base 0.9
 _ZN5orcus10orcus_xlsx10read_sheetERKNSt7__cxx1112basic_stringIcSt11char_traitsIcESaIcEEES8_PNS_19xlsx_rel_sheet_infoE@Base 0.9
 _ZN5orcus10orcus_xlsx10read_tableERKNSt7__cxx1112basic_stringIcSt11char_traitsIcESaIcEEES8_PNS_19xlsx_rel_table_infoE@Base 0.9
 _ZN5orcus10orcus_xlsx11read_stylesERKNSt7__cxx1112basic_stringIcSt11char_traitsIcESaIcEEES8_@Base 0.9
 _ZN5orcus10orcus_xlsx12read_rev_logERKNSt7__cxx1112basic_stringIcSt11char_traitsIcESaIcEEES8_@Base 0.9
 _ZN5orcus10orcus_xlsx13read_workbookERKNSt7__cxx1112basic_stringIcSt11char_traitsIcESaIcEEES8_@Base 0.9
 _ZN5orcus10orcus_xlsx16read_pivot_tableERKNSt7__cxx1112basic_stringIcSt11char_traitsIcESaIcEEES8_@Base 0.9
 _ZN5orcus10orcus_xlsx16read_rev_headersERKNSt7__cxx1112basic_stringIcSt11char_traitsIcESaIcEEES8_@Base 0.9
 _ZN5orcus10orcus_xlsx19read_shared_stringsERKNSt7__cxx1112basic_stringIcSt11char_traitsIcESaIcEEES8_@Base 0.9
 _ZN5orcus10orcus_xlsx19set_formulas_to_docEv@Base 0.9
 _ZN5orcus10orcus_xlsx20read_pivot_cache_defERKNSt7__cxx1112basic_stringIcSt11char_traitsIcESaIcEEES8_@Base 0.9
 _ZN5orcus10orcus_xlsx20read_pivot_cache_recERKNSt7__cxx1112basic_stringIcSt11char_traitsIcESaIcEEES8_@Base 0.9
 _ZN5orcus10orcus_xlsx6detectEPKhm@Base 0.9
 _ZN5orcus10orcus_xlsx9read_fileERKNSt7__cxx1112basic_stringIcSt11char_traitsIcESaIcEEE@Base 0.9
 _ZN5orcus10orcus_xlsxC1EPNS_11spreadsheet5iface14import_factoryE@Base 0.9
 _ZN5orcus10orcus_xlsxC2EPNS_11spreadsheet5iface14import_factoryE@Base 0.9
 _ZN5orcus10orcus_xlsxD0Ev@Base 0.9
 _ZN5orcus10orcus_xlsxD1Ev@Base 0.9
 _ZN5orcus10orcus_xlsxD2Ev@Base 0.9
 _ZN5orcus11import_xlsx10read_tableEPKcmPNS_11spreadsheet5iface12import_tableE@Base 0.9
 _ZN5orcus11spreadsheet22get_default_row_heightEv@Base 0.9
 _ZN5orcus11spreadsheet24get_default_column_widthEv@Base 0.9
 _ZN5orcus11spreadsheet27to_totals_row_function_enumEPKcm@Base 0.9
 _ZN5orcus11spreadsheet5iface12export_sheetD0Ev@Base 0.9
 _ZN5orcus11spreadsheet5iface12export_sheetD1Ev@Base 0.9
 _ZN5orcus11spreadsheet5iface12export_sheetD2Ev@Base 0.9
 _ZN5orcus11spreadsheet5iface12import_sheet14get_data_tableEv@Base 0.9
 _ZN5orcus11spreadsheet5iface12import_sheet15get_auto_filterEv@Base 0.9
 _ZN5orcus11spreadsheet5iface12import_sheet20get_sheet_propertiesEv@Base 0.9
 _ZN5orcus11spreadsheet5iface12import_sheet22get_conditional_formatEv@Base 0.9
 _ZN5orcus11spreadsheet5iface12import_sheet9get_tableEv@Base 0.9
 _ZN5orcus11spreadsheet5iface12import_sheetD0Ev@Base 0.9
 _ZN5orcus11spreadsheet5iface12import_sheetD1Ev@Base 0.9
 _ZN5orcus11spreadsheet5iface12import_sheetD2Ev@Base 0.9
 _ZN5orcus11spreadsheet5iface12import_table15get_auto_filterEv@Base 0.9
 _ZN5orcus11spreadsheet5iface12import_tableD0Ev@Base 0.9
 _ZN5orcus11spreadsheet5iface12import_tableD1Ev@Base 0.9
 _ZN5orcus11spreadsheet5iface12import_tableD2Ev@Base 0.9
 _ZN5orcus11spreadsheet5iface13import_stylesD0Ev@Base 0.9
 _ZN5orcus11spreadsheet5iface13import_stylesD1Ev@Base 0.9
 _ZN5orcus11spreadsheet5iface13import_stylesD2Ev@Base 0.9
 _ZN5orcus11spreadsheet5iface14export_factoryD0Ev@Base 0.9
 _ZN5orcus11spreadsheet5iface14export_factoryD1Ev@Base 0.9
 _ZN5orcus11spreadsheet5iface14export_factoryD2Ev@Base 0.9
 _ZN5orcus11spreadsheet5iface14import_factory10get_stylesEv@Base 0.9
 _ZN5orcus11spreadsheet5iface14import_factory18get_shared_stringsEv@Base 0.9
 _ZN5orcus11spreadsheet5iface14import_factory19get_global_settingsEv@Base 0.9
 _ZN5orcus11spreadsheet5iface14import_factoryD0Ev@Base 0.9
 _ZN5orcus11spreadsheet5iface14import_factoryD1Ev@Base 0.9
 _ZN5orcus11spreadsheet5iface14import_factoryD2Ev@Base 0.9
 _ZN5orcus11spreadsheet5iface17import_data_tableD0Ev@Base 0.9
 _ZN5orcus11spreadsheet5iface17import_data_tableD1Ev@Base 0.9
 _ZN5orcus11spreadsheet5iface17import_data_tableD2Ev@Base 0.9
 _ZN5orcus11spreadsheet5iface18import_auto_filterD0Ev@Base 0.9
 _ZN5orcus11spreadsheet5iface18import_auto_filterD1Ev@Base 0.9
 _ZN5orcus11spreadsheet5iface18import_auto_filterD2Ev@Base 0.9
 _ZN5orcus11spreadsheet5iface21import_shared_stringsD0Ev@Base 0.9
 _ZN5orcus11spreadsheet5iface21import_shared_stringsD1Ev@Base 0.9
 _ZN5orcus11spreadsheet5iface21import_shared_stringsD2Ev@Base 0.9
 _ZN5orcus11spreadsheet5iface22import_global_settingsD0Ev@Base 0.9
 _ZN5orcus11spreadsheet5iface22import_global_settingsD1Ev@Base 0.9
 _ZN5orcus11spreadsheet5iface22import_global_settingsD2Ev@Base 0.9
 _ZN5orcus11spreadsheet5iface23import_sheet_propertiesD0Ev@Base 0.9
 _ZN5orcus11spreadsheet5iface23import_sheet_propertiesD1Ev@Base 0.9
 _ZN5orcus11spreadsheet5iface23import_sheet_propertiesD2Ev@Base 0.9
 _ZN5orcus11spreadsheet5iface25import_conditional_formatD0Ev@Base 0.9
 _ZN5orcus11spreadsheet5iface25import_conditional_formatD1Ev@Base 0.9
 _ZN5orcus11spreadsheet5iface25import_conditional_formatD2Ev@Base 0.9
 _ZN5orcus13orcus_xls_xml6detectEPKhm@Base 0.9
 _ZN5orcus13orcus_xls_xml9read_fileERKNSt7__cxx1112basic_stringIcSt11char_traitsIcESaIcEEE@Base 0.9
 _ZN5orcus13orcus_xls_xmlC1EPNS_11spreadsheet5iface14import_factoryE@Base 0.9
 _ZN5orcus13orcus_xls_xmlC2EPNS_11spreadsheet5iface14import_factoryE@Base 0.9
 _ZN5orcus13orcus_xls_xmlD0Ev@Base 0.9
 _ZN5orcus13orcus_xls_xmlD1Ev@Base 0.9
 _ZN5orcus13orcus_xls_xmlD2Ev@Base 0.9
 _ZN5orcus14css_selector_t5clearEv@Base 0.9
 _ZN5orcus14orcus_gnumeric16read_content_xmlEPKcm@Base 0.9
 _ZN5orcus14orcus_gnumeric6detectEPKhm@Base 0.9
 _ZN5orcus14orcus_gnumeric9read_fileERKNSt7__cxx1112basic_stringIcSt11char_traitsIcESaIcEEE@Base 0.9
 _ZN5orcus14orcus_gnumericC1EPNS_11spreadsheet5iface14import_factoryE@Base 0.9
 _ZN5orcus14orcus_gnumericC2EPNS_11spreadsheet5iface14import_factoryE@Base 0.9
 _ZN5orcus14orcus_gnumericD0Ev@Base 0.9
 _ZN5orcus14orcus_gnumericD1Ev@Base 0.9
 _ZN5orcus14orcus_gnumericD2Ev@Base 0.9
 _ZN5orcus17css_document_tree15insertion_errorC1ERKNSt7__cxx1112basic_stringIcSt11char_traitsIcESaIcEEE@Base 0.9
 _ZN5orcus17css_document_tree15insertion_errorC2ERKNSt7__cxx1112basic_stringIcSt11char_traitsIcESaIcEEE@Base 0.9
 _ZN5orcus17css_document_tree15insertion_errorD0Ev@Base 0.9
 _ZN5orcus17css_document_tree15insertion_errorD1Ev@Base 0.9
 _ZN5orcus17css_document_tree15insertion_errorD2Ev@Base 0.9
 _ZN5orcus17css_document_tree17insert_propertiesERKNS_14css_selector_tEtRKN5boost9unordered13unordered_mapINS_7pstringESt6vectorINS_20css_property_value_tESaIS9_EENS7_4hashESt8equal_toIS7_ESaISt4pairIKS7_SB_EEEE@Base 0.9
 _ZN5orcus17css_document_tree4loadERKNSt7__cxx1112basic_stringIcSt11char_traitsIcESaIcEEE@Base 0.9
 _ZN5orcus17css_document_treeC1Ev@Base 0.9
 _ZN5orcus17css_document_treeC2Ev@Base 0.9
 _ZN5orcus17css_document_treeD1Ev@Base 0.9
 _ZN5orcus17css_document_treeD2Ev@Base 0.9
 _ZN5orcus18xml_structure_tree11entity_nameC1EPKcRKNS_7pstringE@Base 0.9
 _ZN5orcus18xml_structure_tree11entity_nameC1Ev@Base 0.9
 _ZN5orcus18xml_structure_tree11entity_nameC2EPKcRKNS_7pstringE@Base 0.9
 _ZN5orcus18xml_structure_tree11entity_nameC2Ev@Base 0.9
 _ZN5orcus18xml_structure_tree5parseEPKcm@Base 0.9
 _ZN5orcus18xml_structure_tree6walker12get_childrenERSt6vectorINS0_11entity_nameESaIS3_EE@Base 0.9
 _ZN5orcus18xml_structure_tree6walker14get_attributesERSt6vectorINS0_11entity_nameESaIS3_EE@Base 0.9
 _ZN5orcus18xml_structure_tree6walker4rootEv@Base 0.9
 _ZN5orcus18xml_structure_tree6walker6ascendEv@Base 0.9
 _ZN5orcus18xml_structure_tree6walker7descendERKNS0_11entity_nameE@Base 0.9
 _ZN5orcus18xml_structure_tree6walkerC1ERKNS_23xml_structure_tree_implE@Base 0.9
 _ZN5orcus18xml_structure_tree6walkerC1ERKS1_@Base 0.9
 _ZN5orcus18xml_structure_tree6walkerC2ERKNS_23xml_structure_tree_implE@Base 0.9
 _ZN5orcus18xml_structure_tree6walkerC2ERKS1_@Base 0.9
 _ZN5orcus18xml_structure_tree6walkerD1Ev@Base 0.9
 _ZN5orcus18xml_structure_tree6walkerD2Ev@Base 0.9
 _ZN5orcus18xml_structure_tree6walkeraSERKS1_@Base 0.9
 _ZN5orcus18xml_structure_tree7elementC1ERKNS0_11entity_nameEb@Base 0.9
 _ZN5orcus18xml_structure_tree7elementC1Ev@Base 0.9
 _ZN5orcus18xml_structure_tree7elementC2ERKNS0_11entity_nameEb@Base 0.9
 _ZN5orcus18xml_structure_tree7elementC2Ev@Base 0.9
 _ZN5orcus18xml_structure_treeC1ERNS_13xmlns_contextE@Base 0.9
 _ZN5orcus18xml_structure_treeC2ERNS_13xmlns_contextE@Base 0.9
 _ZN5orcus18xml_structure_treeD1Ev@Base 0.9
 _ZN5orcus18xml_structure_treeD2Ev@Base 0.9
 _ZN5orcus20css_property_value_t4swapERS0_@Base 0.9
 _ZN5orcus20css_property_value_tC1ERKNS_7pstringE@Base 0.9
 _ZN5orcus20css_property_value_tC1ERKS0_@Base 0.9
 _ZN5orcus20css_property_value_tC1Ev@Base 0.9
 _ZN5orcus20css_property_value_tC2ERKNS_7pstringE@Base 0.9
 _ZN5orcus20css_property_value_tC2ERKS0_@Base 0.9
 _ZN5orcus20css_property_value_tC2Ev@Base 0.9
 _ZN5orcus20css_property_value_taSERKS0_@Base 0.9
 _ZN5orcus21css_simple_selector_t5clearEv@Base 0.9
 _ZN5orcus21css_simple_selector_tC1Ev@Base 0.9
 _ZN5orcus21css_simple_selector_tC2Ev@Base 0.9
 _ZN5orcus29css_chained_simple_selector_tC1ENS_3css12combinator_tERKNS_21css_simple_selector_tE@Base 0.9
 _ZN5orcus29css_chained_simple_selector_tC1ERKNS_21css_simple_selector_tE@Base 0.9
 _ZN5orcus29css_chained_simple_selector_tC1Ev@Base 0.9
 _ZN5orcus29css_chained_simple_selector_tC2ENS_3css12combinator_tERKNS_21css_simple_selector_tE@Base 0.9
 _ZN5orcus29css_chained_simple_selector_tC2ERKNS_21css_simple_selector_tE@Base 0.9
 _ZN5orcus29css_chained_simple_selector_tC2Ev@Base 0.9
 _ZN5orcus3css11parse_errorD0Ev@Base 0.9
 _ZN5orcus3css11parse_errorD1Ev@Base 0.9
 _ZN5orcus3css11parse_errorD2Ev@Base 0.9
 _ZN5orcus5iface13import_filter10set_configERKNS_6configE@Base 0.9
 _ZN5orcus5iface13import_filterC1Ev@Base 0.9
 _ZN5orcus5iface13import_filterC2Ev@Base 0.9
 _ZN5orcus5iface13import_filterD0Ev@Base 0.9
 _ZN5orcus5iface13import_filterD1Ev@Base 0.9
 _ZN5orcus5iface13import_filterD2Ev@Base 0.9
 _ZN5orcus5iface15document_dumperD0Ev@Base 0.9
 _ZN5orcus5iface15document_dumperD1Ev@Base 0.9
 _ZN5orcus5iface15document_dumperD2Ev@Base 0.9
 _ZN5orcus6configC1Ev@Base 0.9
 _ZN5orcus6configC2Ev@Base 0.9
 _ZN5orcus6detectEPKhm@Base 0.9
 _ZN5orcus6tokensD1Ev@Base 0.9
 _ZN5orcus6tokensD2Ev@Base 0.9
 _ZN5orcus7convertEdNS_13length_unit_tES0_@Base 0.9
 _ZN5orcus7to_boolERKNS_7pstringE@Base 0.9
 _ZN5orcus7to_longEPKcS1_PS1_@Base 0.9
 _ZN5orcus7to_longERKNS_7pstringE@Base 0.9
 _ZN5orcus8dom_tree11end_elementEPKcRKNS_7pstringE@Base 0.9
 _ZN5orcus8dom_tree11entity_nameC1EPKcRKNS_7pstringE@Base 0.9
 _ZN5orcus8dom_tree11entity_nameC1Ev@Base 0.9
 _ZN5orcus8dom_tree11entity_nameC2EPKcRKNS_7pstringE@Base 0.9
 _ZN5orcus8dom_tree11entity_nameC2Ev@Base 0.9
 _ZN5orcus8dom_tree13set_attributeEPKcRKNS_7pstringES5_@Base 0.9
 _ZN5orcus8dom_tree13start_elementEPKcRKNS_7pstringE@Base 0.9
 _ZN5orcus8dom_tree14set_charactersERKNS_7pstringE@Base 0.9
 _ZN5orcus8dom_tree15end_declarationERKNS_7pstringE@Base 0.9
 _ZN5orcus8dom_tree17start_declarationERKNS_7pstringE@Base 0.9
 _ZN5orcus8dom_tree4attrC1EPKcRKNS_7pstringES6_@Base 0.9
 _ZN5orcus8dom_tree4attrC2EPKcRKNS_7pstringES6_@Base 0.9
 _ZN5orcus8dom_tree4nodeD0Ev@Base 0.9
 _ZN5orcus8dom_tree4nodeD1Ev@Base 0.9
 _ZN5orcus8dom_tree4nodeD2Ev@Base 0.9
 _ZN5orcus8dom_tree7contentC1ERKNS_7pstringE@Base 0.9
 _ZN5orcus8dom_tree7contentC2ERKNS_7pstringE@Base 0.9
 _ZN5orcus8dom_tree7contentD0Ev@Base 0.9
 _ZN5orcus8dom_tree7contentD1Ev@Base 0.9
 _ZN5orcus8dom_tree7contentD2Ev@Base 0.9
 _ZN5orcus8dom_tree7elementC1EPKcRKNS_7pstringE@Base 0.9
 _ZN5orcus8dom_tree7elementC2EPKcRKNS_7pstringE@Base 0.9
 _ZN5orcus8dom_tree7elementD0Ev@Base 0.9
 _ZN5orcus8dom_tree7elementD1Ev@Base 0.9
 _ZN5orcus8dom_tree7elementD2Ev@Base 0.9
 _ZN5orcus8dom_treeC1ERNS_13xmlns_contextE@Base 0.9
 _ZN5orcus8dom_treeC2ERNS_13xmlns_contextE@Base 0.9
 _ZN5orcus8dom_treeD1Ev@Base 0.9
 _ZN5orcus8dom_treeD2Ev@Base 0.9
 _ZN5orcus8length_tC1Ev@Base 0.9
 _ZN5orcus8length_tC2Ev@Base 0.9
 _ZN5orcus9orcus_csv5parseERKNSt7__cxx1112basic_stringIcSt11char_traitsIcESaIcEEE@Base 0.9
 _ZN5orcus9orcus_csv9read_fileERKNSt7__cxx1112basic_stringIcSt11char_traitsIcESaIcEEE@Base 0.9
 _ZN5orcus9orcus_csvC1EPNS_11spreadsheet5iface14import_factoryE@Base 0.9
 _ZN5orcus9orcus_csvC2EPNS_11spreadsheet5iface14import_factoryE@Base 0.9
 _ZN5orcus9orcus_csvD0Ev@Base 0.9
 _ZN5orcus9orcus_csvD1Ev@Base 0.9
 _ZN5orcus9orcus_csvD2Ev@Base 0.9
 _ZN5orcus9orcus_ods12list_contentERKNS_11zip_archiveE@Base 0.9
 _ZN5orcus9orcus_ods12read_contentERKNS_11zip_archiveE@Base 0.9
 _ZN5orcus9orcus_ods16read_content_xmlEPKhm@Base 0.9
 _ZN5orcus9orcus_ods6detectEPKhm@Base 0.9
 _ZN5orcus9orcus_ods9read_fileERKNSt7__cxx1112basic_stringIcSt11char_traitsIcESaIcEEE@Base 0.9
 _ZN5orcus9orcus_odsC1EPNS_11spreadsheet5iface14import_factoryE@Base 0.9
 _ZN5orcus9orcus_odsC2EPNS_11spreadsheet5iface14import_factoryE@Base 0.9
 _ZN5orcus9orcus_odsD0Ev@Base 0.9
 _ZN5orcus9orcus_odsD1Ev@Base 0.9
 _ZN5orcus9orcus_odsD2Ev@Base 0.9
 _ZN5orcus9orcus_xml10write_fileEPKc@Base 0.9
 _ZN5orcus9orcus_xml11start_rangeERKNS_7pstringEii@Base 0.9
 _ZN5orcus9orcus_xml12append_sheetERKNS_7pstringE@Base 0.9
 _ZN5orcus9orcus_xml12commit_rangeEv@Base 0.9
 _ZN5orcus9orcus_xml13set_cell_linkERKNS_7pstringES3_ii@Base 0.9
 _ZN5orcus9orcus_xml17append_field_linkERKNS_7pstringE@Base 0.9
 _ZN5orcus9orcus_xml19set_namespace_aliasERKNS_7pstringES3_@Base 0.9
 _ZN5orcus9orcus_xml9read_fileEPKc@Base 0.9
 _ZN5orcus9orcus_xmlC1ERNS_16xmlns_repositoryEPNS_11spreadsheet5iface14import_factoryEPNS4_14export_factoryE@Base 0.9
 _ZN5orcus9orcus_xmlC2ERNS_16xmlns_repositoryEPNS_11spreadsheet5iface14import_factoryEPNS4_14export_factoryE@Base 0.9
 _ZN5orcus9orcus_xmlD1Ev@Base 0.9
 _ZN5orcus9orcus_xmlD2Ev@Base 0.9
 _ZN5orcus9to_doubleEPKcS1_PS1_@Base 0.9
 _ZN5orcus9to_doubleERKNS_7pstringE@Base 0.9
 _ZN5orcus9to_lengthERKNS_7pstringE@Base 0.9
 _ZN5orcuslsERSoRKNS_14css_selector_tE@Base 0.9
 _ZN5orcuslsERSoRKNS_20css_property_value_tE@Base 0.9
 _ZN5orcuslsERSoRKNS_21css_simple_selector_tE@Base 0.9
 _ZNK5orcus10orcus_xlsx8get_nameEv@Base 0.9
 _ZNK5orcus13orcus_xls_xml8get_nameEv@Base 0.9
 _ZNK5orcus14css_selector_teqERKS0_@Base 0.9
 _ZNK5orcus14orcus_gnumeric8get_nameEv@Base 0.9
 _ZNK5orcus17css_document_tree14get_propertiesERKNS_14css_selector_tEt@Base 0.9
 _ZNK5orcus17css_document_tree18get_all_propertiesERKNS_14css_selector_tE@Base 0.9
 _ZNK5orcus17css_document_tree4dumpEv@Base 0.9
 _ZNK5orcus18xml_structure_tree10get_walkerEv@Base 0.9
 _ZNK5orcus18xml_structure_tree11entity_name4hashclERKS1_@Base 0.9
 _ZNK5orcus18xml_structure_tree11entity_nameeqERKS1_@Base 0.9
 _ZNK5orcus18xml_structure_tree11entity_nameltERKS1_@Base 0.9
 _ZNK5orcus18xml_structure_tree12dump_compactERSo@Base 0.9
 _ZNK5orcus18xml_structure_tree6walker15get_xmlns_indexEPKc@Base 0.9
 _ZNK5orcus18xml_structure_tree6walker20get_xmlns_short_nameB5cxx11EPKc@Base 0.9
 _ZNK5orcus21css_simple_selector_t4hashclERKS0_@Base 0.9
 _ZNK5orcus21css_simple_selector_t5emptyEv@Base 0.9
 _ZNK5orcus21css_simple_selector_teqERKS0_@Base 0.9
 _ZNK5orcus21css_simple_selector_tneERKS0_@Base 0.9
 _ZNK5orcus29css_chained_simple_selector_teqERKS0_@Base 0.9
 _ZNK5orcus5iface13import_filter10get_configEv@Base 0.9
 _ZNK5orcus8dom_tree11entity_name5printERSoRKNS_13xmlns_contextE@Base 0.9
 _ZNK5orcus8dom_tree12dump_compactERSo@Base 0.9
 _ZNK5orcus8dom_tree26get_declaration_attributesERKNS_7pstringE@Base 0.9
 _ZNK5orcus8dom_tree4attr5printERSoRKNS_13xmlns_contextE@Base 0.9
 _ZNK5orcus8dom_tree7content5printERSoRKNS_13xmlns_contextE@Base 0.9
 _ZNK5orcus8dom_tree7element5printERSoRKNS_13xmlns_contextE@Base 0.9
 _ZNK5orcus8length_t5printB5cxx11Ev@Base 0.9
 _ZNK5orcus9orcus_csv8get_nameEv@Base 0.9
 _ZNK5orcus9orcus_ods8get_nameEv@Base 0.9
 _ZNKSt5ctypeIcE8do_widenEc@Base 0.9
 _ZNSt6vectorIN5orcus18xml_structure_tree11entity_nameESaIS2_EE13_M_assign_auxIN9__gnu_cxx17__normal_iteratorIPKS2_S4_EEEEvT_SB_St20forward_iterator_tag@Base 0.9
 _ZNSt6vectorIN5orcus18xml_structure_tree11entity_nameESaIS2_EE19_M_emplace_back_auxIIS2_EEEvDpOT_@Base 0.9
 _ZNSt6vectorIN5orcus18xml_structure_tree11entity_nameESaIS2_EE19_M_emplace_back_auxIJS2_EEEvDpOT_@Base 0.9
 _ZNSt6vectorIN5orcus20css_property_value_tESaIS1_EE12emplace_backIIS1_EEEvDpOT_@Base 0.9
 _ZNSt6vectorIN5orcus20css_property_value_tESaIS1_EE12emplace_backIJS1_EEEvDpOT_@Base 0.9
 _ZNSt6vectorIN5orcus20css_property_value_tESaIS1_EE19_M_emplace_back_auxIIS1_EEEvDpOT_@Base 0.9
 _ZNSt6vectorIN5orcus20css_property_value_tESaIS1_EE19_M_emplace_back_auxIJS1_EEEvDpOT_@Base 0.9
 _ZNSt6vectorIN5orcus29css_chained_simple_selector_tESaIS1_EE19_M_emplace_back_auxIIRKS1_EEEvDpOT_@Base 0.9
 _ZNSt6vectorIN5orcus29css_chained_simple_selector_tESaIS1_EE19_M_emplace_back_auxIJRKS1_EEEvDpOT_@Base 0.9
 _ZNSt6vectorIN5orcus29css_chained_simple_selector_tESaIS1_EED1Ev@Base 0.9
 _ZNSt6vectorIN5orcus29css_chained_simple_selector_tESaIS1_EED2Ev@Base 0.9
 _ZNSt6vectorIN5orcus29css_chained_simple_selector_tESaIS1_EEaSERKS3_@Base 0.9
 _ZNSt6vectorIN5orcus7pstringESaIS1_EE12emplace_backIIS1_EEEvDpOT_@Base 0.9
 _ZNSt6vectorIN5orcus7pstringESaIS1_EE12emplace_backIJS1_EEEvDpOT_@Base 0.9
 _ZNSt6vectorIN5orcus7pstringESaIS1_EE19_M_emplace_back_auxIIRKS1_EEEvDpOT_@Base 0.9
 _ZNSt6vectorIN5orcus7pstringESaIS1_EE19_M_emplace_back_auxIIS1_EEEvDpOT_@Base 0.9
 _ZNSt6vectorIN5orcus7pstringESaIS1_EE19_M_emplace_back_auxIJRKS1_EEEvDpOT_@Base 0.9
 _ZNSt6vectorIN5orcus7pstringESaIS1_EE19_M_emplace_back_auxIJS1_EEEvDpOT_@Base 0.9
 _ZNSt6vectorIN5orcus8dom_tree4attrESaIS2_EE19_M_emplace_back_auxIIS2_EEEvDpOT_@Base 0.9
 _ZNSt6vectorIN5orcus8dom_tree4attrESaIS2_EE19_M_emplace_back_auxIJS2_EEEvDpOT_@Base 0.9
 _ZNSt6vectorIN5orcus8dom_tree4attrESaIS2_EEaSERKS4_@Base 0.9
 _ZNSt6vectorINSt7__cxx1112basic_stringIcSt11char_traitsIcESaIcEEESaIS5_EE12emplace_backIIS5_EEEvDpOT_@Base 0.9
 _ZNSt6vectorINSt7__cxx1112basic_stringIcSt11char_traitsIcESaIcEEESaIS5_EE12emplace_backIJS5_EEEvDpOT_@Base 0.9
 _ZNSt6vectorINSt7__cxx1112basic_stringIcSt11char_traitsIcESaIcEEESaIS5_EE19_M_emplace_back_auxIIRKS5_EEEvDpOT_@Base 0.9
 _ZNSt6vectorINSt7__cxx1112basic_stringIcSt11char_traitsIcESaIcEEESaIS5_EE19_M_emplace_back_auxIIS5_EEEvDpOT_@Base 0.9
 _ZNSt6vectorINSt7__cxx1112basic_stringIcSt11char_traitsIcESaIcEEESaIS5_EE19_M_emplace_back_auxIJRKS5_EEEvDpOT_@Base 0.9
 _ZNSt6vectorINSt7__cxx1112basic_stringIcSt11char_traitsIcESaIcEEESaIS5_EE19_M_emplace_back_auxIJS5_EEEvDpOT_@Base 0.9
 _ZNSt6vectorIPKN5orcus8dom_tree4nodeESaIS4_EE12emplace_backIIS4_EEEvDpOT_@Base 0.9
 _ZNSt6vectorIPKN5orcus8dom_tree4nodeESaIS4_EE12emplace_backIJS4_EEEvDpOT_@Base 0.9
 _ZNSt6vectorIPN5orcus8dom_tree7elementESaIS3_EE19_M_emplace_back_auxIIRKS3_EEEvDpOT_@Base 0.9
 _ZNSt6vectorIPN5orcus8dom_tree7elementESaIS3_EE19_M_emplace_back_auxIJRKS3_EEEvDpOT_@Base 0.9
 _ZNSt6vectorIPvSaIS0_EE12emplace_backIIS0_EEEvDpOT_@Base 0.9
 _ZNSt6vectorIPvSaIS0_EE12emplace_backIJS0_EEEvDpOT_@Base 0.9
 _ZNSt6vectorIPvSaIS0_EE19_M_emplace_back_auxIIS0_EEEvDpOT_@Base 0.9
 _ZNSt6vectorIPvSaIS0_EE19_M_emplace_back_auxIJS0_EEEvDpOT_@Base 0.9
 _ZNSt6vectorISt4pairIN5orcus7pstringEPKcESaIS5_EE12emplace_backIIS5_EEEvDpOT_@Base 0.9
 _ZNSt6vectorISt4pairIN5orcus7pstringEPKcESaIS5_EE12emplace_backIJS5_EEEvDpOT_@Base 0.9
 _ZNSt6vectorISt4pairIN5orcus7pstringEPKcESaIS5_EE19_M_emplace_back_auxIIS5_EEEvDpOT_@Base 0.9
 _ZNSt6vectorISt4pairIN5orcus7pstringEPKcESaIS5_EE19_M_emplace_back_auxIJS5_EEEvDpOT_@Base 0.9
 _ZNSt6vectorISt4pairIPKcmESaIS3_EE12emplace_backIIS3_EEEvDpOT_@Base 0.9
 _ZNSt6vectorISt4pairIPKcmESaIS3_EE12emplace_backIJS3_EEEvDpOT_@Base 0.9
 _ZNSt6vectorISt4pairIPKcmESaIS3_EE19_M_emplace_back_auxIIS3_EEEvDpOT_@Base 0.9
 _ZNSt6vectorISt4pairIPKcmESaIS3_EE19_M_emplace_back_auxIJS3_EEEvDpOT_@Base 0.9
 _ZNSt6vectorISt4pairIPKcmESaIS3_EE7reserveEm@Base 0.9
 _ZNSt6vectorIlSaIlEE19_M_emplace_back_auxIIlEEEvDpOT_@Base 0.9
 _ZNSt6vectorIlSaIlEE19_M_emplace_back_auxIJlEEEvDpOT_@Base 0.9
 _ZNSt7__cxx1115basic_stringbufIcSt11char_traitsIcESaIcEED0Ev@Base 0.9
 _ZNSt7__cxx1115basic_stringbufIcSt11char_traitsIcESaIcEED1Ev@Base 0.9
 _ZNSt7__cxx1115basic_stringbufIcSt11char_traitsIcESaIcEED2Ev@Base 0.9
 _ZNSt8_Rb_treeIN5orcus7pstringESt4pairIKS1_PvESt10_Select1stIS5_ESt4lessIS1_ESaIS5_EE4findERS3_@Base 0.9
 _ZNSt8_Rb_treeIN5orcus7pstringESt4pairIKS1_PvESt10_Select1stIS5_ESt4lessIS1_ESaIS5_EE8_M_eraseEPSt13_Rb_tree_nodeIS5_E@Base 0.9
 _ZNSt8_Rb_treeIiSt4pairIKiSt6vectorIN5orcus7pstringESaIS4_EEESt10_Select1stIS7_ESt4lessIiESaIS7_EE16_M_insert_uniqueIS7_EES0_ISt17_Rb_tree_iteratorIS7_EbEOT_@Base 0.9
 _ZNSt8_Rb_treeIiSt4pairIKiSt6vectorIN5orcus7pstringESaIS4_EEESt10_Select1stIS7_ESt4lessIiESaIS7_EE8_M_eraseEPSt13_Rb_tree_nodeIS7_E@Base 0.9
 _ZTIN5boost16exception_detail10clone_baseE@Base 0.9
 _ZTIN5boost16exception_detail19error_info_injectorINSt8ios_base7failureB5cxx11EEE@Base 0.9
 _ZTIN5boost16exception_detail19error_info_injectorISt11logic_errorEE@Base 0.9
 _ZTIN5boost9exceptionE@Base 0.9
 _ZTIN5orcus10orcus_xlsxE@Base 0.9
 _ZTIN5orcus11spreadsheet5iface12import_sheetE@Base 0.9
 _ZTIN5orcus11spreadsheet5iface12import_tableE@Base 0.9
 _ZTIN5orcus11spreadsheet5iface14import_factoryE@Base 0.9
 _ZTIN5orcus13orcus_xls_xmlE@Base 0.9
 _ZTIN5orcus14orcus_gnumericE@Base 0.9
 _ZTIN5orcus17css_document_tree15insertion_errorE@Base 0.9
 _ZTIN5orcus3css11parse_errorE@Base 0.9
 _ZTIN5orcus5iface13import_filterE@Base 0.9
 _ZTIN5orcus5iface15document_dumperE@Base 0.9
 _ZTIN5orcus8dom_tree4nodeE@Base 0.9
 _ZTIN5orcus8dom_tree7contentE@Base 0.9
 _ZTIN5orcus8dom_tree7elementE@Base 0.9
 _ZTIN5orcus9orcus_csvE@Base 0.9
 _ZTIN5orcus9orcus_odsE@Base 0.9
 _ZTSN5boost16exception_detail10clone_baseE@Base 0.9
 _ZTSN5boost16exception_detail19error_info_injectorINSt8ios_base7failureB5cxx11EEE@Base 0.9
 _ZTSN5boost16exception_detail19error_info_injectorISt11logic_errorEE@Base 0.9
 _ZTSN5boost9exceptionE@Base 0.9
 _ZTSN5orcus10orcus_xlsxE@Base 0.9
 _ZTSN5orcus11spreadsheet5iface12import_sheetE@Base 0.9
 _ZTSN5orcus11spreadsheet5iface12import_tableE@Base 0.9
 _ZTSN5orcus11spreadsheet5iface14import_factoryE@Base 0.9
 _ZTSN5orcus13orcus_xls_xmlE@Base 0.9
 _ZTSN5orcus14orcus_gnumericE@Base 0.9
 _ZTSN5orcus17css_document_tree15insertion_errorE@Base 0.9
 _ZTSN5orcus3css11parse_errorE@Base 0.9
 _ZTSN5orcus5iface13import_filterE@Base 0.9
 _ZTSN5orcus5iface15document_dumperE@Base 0.9
 _ZTSN5orcus8dom_tree4nodeE@Base 0.9
 _ZTSN5orcus8dom_tree7contentE@Base 0.9
 _ZTSN5orcus8dom_tree7elementE@Base 0.9
 _ZTSN5orcus9orcus_csvE@Base 0.9
 _ZTSN5orcus9orcus_odsE@Base 0.9
 _ZTVN5boost16exception_detail10clone_baseE@Base 0.9
 _ZTVN5boost16exception_detail19error_info_injectorINSt8ios_base7failureB5cxx11EEE@Base 0.9
 _ZTVN5boost16exception_detail19error_info_injectorISt11logic_errorEE@Base 0.9
 _ZTVN5boost9exceptionE@Base 0.9
 _ZTVN5orcus10orcus_xlsxE@Base 0.9
 _ZTVN5orcus11spreadsheet5iface12import_sheetE@Base 0.9
 _ZTVN5orcus11spreadsheet5iface12import_tableE@Base 0.9
 _ZTVN5orcus11spreadsheet5iface14import_factoryE@Base 0.9
 _ZTVN5orcus13orcus_xls_xmlE@Base 0.9
 _ZTVN5orcus14orcus_gnumericE@Base 0.9
 _ZTVN5orcus17css_document_tree15insertion_errorE@Base 0.9
 _ZTVN5orcus3css11parse_errorE@Base 0.9
 _ZTVN5orcus5iface13import_filterE@Base 0.9
 _ZTVN5orcus5iface15document_dumperE@Base 0.9
 _ZTVN5orcus8dom_tree7contentE@Base 0.9
 _ZTVN5orcus8dom_tree7elementE@Base 0.9
 _ZTVN5orcus9orcus_csvE@Base 0.9
 _ZTVN5orcus9orcus_odsE@Base 0.9
 _ZThn16_N5boost16exception_detail19error_info_injectorISt11logic_errorED0Ev@Base 0.9
 _ZThn16_N5boost16exception_detail19error_info_injectorISt11logic_errorED1Ev@Base 0.9
 _ZThn32_N5boost16exception_detail19error_info_injectorINSt8ios_base7failureB5cxx11EED0Ev@Base 0.9
 _ZThn32_N5boost16exception_detail19error_info_injectorINSt8ios_base7failureB5cxx11EED1Ev@Base 0.9
liborcus-mso-0.10.so.0 liborcus-0.10-0v5 #MINVER#
 _ZN5orcus3mso22encryption_info_reader4readEPKcm@Base 0.9.2-4ubuntu2
 _ZN5orcus3mso22encryption_info_readerC1Ev@Base 0.9.2-4ubuntu2
 _ZN5orcus3mso22encryption_info_readerC2Ev@Base 0.9.2-4ubuntu2
 _ZN5orcus3mso22encryption_info_readerD1Ev@Base 0.9.2-4ubuntu2
 _ZN5orcus3mso22encryption_info_readerD2Ev@Base 0.9.2-4ubuntu2
 _ZNKSt5ctypeIcE8do_widenEc@Base 0.9.2-4ubuntu2
 _ZNSt6vectorIPvSaIS0_EE19_M_emplace_back_auxIIS0_EEEvDpOT_@Base 0.9.2-4ubuntu2
 _ZNSt6vectorIPvSaIS0_EE19_M_emplace_back_auxIJS0_EEEvDpOT_@Base 0.9.2-4ubuntu2
liborcus-parser-0.10.so.0 liborcus-0.10-0v5 #MINVER#
 _ZN5boost6system12system_errorD0Ev@Base 0.9.2-4ubuntu2
 _ZN5boost6system12system_errorD1Ev@Base 0.9.2-4ubuntu2
 _ZN5boost6system12system_errorD2Ev@Base 0.9.2-4ubuntu2
 _ZN5orcus10is_numericEc@Base 0.9.2-4ubuntu2
 _ZN5orcus11cell_buffer5resetEv@Base 0.9.2-4ubuntu2
 _ZN5orcus11cell_buffer6appendEPKcm@Base 0.9.2-4ubuntu2
 _ZN5orcus11cell_bufferC1Ev@Base 0.9.2-4ubuntu2
 _ZN5orcus11cell_bufferC2Ev@Base 0.9.2-4ubuntu2
 _ZN5orcus11date_time_tC1Ev@Base 0.9.2-4ubuntu2
 _ZN5orcus11date_time_tC2Ev@Base 0.9.2-4ubuntu2
 _ZN5orcus11string_pool5clearEv@Base 0.9.2-4ubuntu2
 _ZN5orcus11string_pool6internEPKc@Base 0.9.2-4ubuntu2
 _ZN5orcus11string_pool6internEPKcm@Base 0.9.2-4ubuntu2
 _ZN5orcus11string_pool6internERKNS_7pstringE@Base 0.9.2-4ubuntu2
 _ZN5orcus11string_poolC1Ev@Base 0.9.2-4ubuntu2
 _ZN5orcus11string_poolC2Ev@Base 0.9.2-4ubuntu2
 _ZN5orcus11string_poolD1Ev@Base 0.9.2-4ubuntu2
 _ZN5orcus11string_poolD2Ev@Base 0.9.2-4ubuntu2
 _ZN5orcus11unspecifiedE@Base 0.9.2-4ubuntu2
 _ZN5orcus11zip_archive4loadEv@Base 0.9.2-4ubuntu2
 _ZN5orcus11zip_archiveC1EPNS_18zip_archive_streamE@Base 0.9.2-4ubuntu2
 _ZN5orcus11zip_archiveC2EPNS_18zip_archive_streamE@Base 0.9.2-4ubuntu2
 _ZN5orcus11zip_archiveD1Ev@Base 0.9.2-4ubuntu2
 _ZN5orcus11zip_archiveD2Ev@Base 0.9.2-4ubuntu2
 _ZN5orcus12is_name_charEc@Base 0.9.2-4ubuntu2
 _ZN5orcus13general_errorC1ERKNSt7__cxx1112basic_stringIcSt11char_traitsIcESaIcEEE@Base 0.9.2-4ubuntu2
 _ZN5orcus13general_errorC2ERKNSt7__cxx1112basic_stringIcSt11char_traitsIcESaIcEEE@Base 0.9.2-4ubuntu2
 _ZN5orcus13general_errorD0Ev@Base 0.9.2-4ubuntu2
 _ZN5orcus13general_errorD1Ev@Base 0.9.2-4ubuntu2
 _ZN5orcus13general_errorD2Ev@Base 0.9.2-4ubuntu2
 _ZN5orcus13parse_numericERPKcm@Base 0.9.2-4ubuntu2
 _ZN5orcus13xmlns_context3popERKNS_7pstringE@Base 0.9.2-4ubuntu2
 _ZN5orcus13xmlns_context4pushERKNS_7pstringES3_@Base 0.9.2-4ubuntu2
 _ZN5orcus13xmlns_contextC1ERKS0_@Base 0.9.2-4ubuntu2
 _ZN5orcus13xmlns_contextC1ERNS_16xmlns_repositoryE@Base 0.9.2-4ubuntu2
 _ZN5orcus13xmlns_contextC2ERKS0_@Base 0.9.2-4ubuntu2
 _ZN5orcus13xmlns_contextC2ERNS_16xmlns_repositoryE@Base 0.9.2-4ubuntu2
 _ZN5orcus13xmlns_contextD1Ev@Base 0.9.2-4ubuntu2
 _ZN5orcus13xmlns_contextD2Ev@Base 0.9.2-4ubuntu2
 _ZN5orcus15index_not_foundE@Base 0.9.2-4ubuntu2
 _ZN5orcus16XMLNS_UNKNOWN_IDE@Base 0.9.2-4ubuntu2
 _ZN5orcus16encode_to_base64ERKSt6vectorIcSaIcEERNSt7__cxx1112basic_stringIcSt11char_traitsIcES1_EE@Base 0.9.2-4ubuntu2
 _ZN5orcus16xml_token_attr_tC1EPKcmRKNS_7pstringES5_b@Base 0.9.2-4ubuntu2
 _ZN5orcus16xml_token_attr_tC1EPKcmRKNS_7pstringEb@Base 0.9.2-4ubuntu2
 _ZN5orcus16xml_token_attr_tC1Ev@Base 0.9.2-4ubuntu2
 _ZN5orcus16xml_token_attr_tC2EPKcmRKNS_7pstringES5_b@Base 0.9.2-4ubuntu2
 _ZN5orcus16xml_token_attr_tC2EPKcmRKNS_7pstringEb@Base 0.9.2-4ubuntu2
 _ZN5orcus16xml_token_attr_tC2Ev@Base 0.9.2-4ubuntu2
 _ZN5orcus16xmlns_repository14create_contextEv@Base 0.9.2-4ubuntu2
 _ZN5orcus16xmlns_repository21add_predefined_valuesEPKPKc@Base 0.9.2-4ubuntu2
 _ZN5orcus16xmlns_repositoryC1Ev@Base 0.9.2-4ubuntu2
 _ZN5orcus16xmlns_repositoryC2Ev@Base 0.9.2-4ubuntu2
 _ZN5orcus16xmlns_repositoryD1Ev@Base 0.9.2-4ubuntu2
 _ZN5orcus16xmlns_repositoryD2Ev@Base 0.9.2-4ubuntu2
 _ZN5orcus17XML_UNKNOWN_TOKENE@Base 0.9.2-4ubuntu2
 _ZN5orcus17load_file_contentEPKcRNSt7__cxx1112basic_stringIcSt11char_traitsIcESaIcEEE@Base 0.9.2-4ubuntu2
 _ZN5orcus18decode_from_base64EPKcmRSt6vectorIcSaIcEE@Base 0.9.2-4ubuntu2
 _ZN5orcus18zip_archive_streamD0Ev@Base 0.9.2-4ubuntu2
 _ZN5orcus18zip_archive_streamD1Ev@Base 0.9.2-4ubuntu2
 _ZN5orcus18zip_archive_streamD2Ev@Base 0.9.2-4ubuntu2
 _ZN5orcus19xml_structure_errorC1ERKNSt7__cxx1112basic_stringIcSt11char_traitsIcESaIcEEE@Base 0.9.2-4ubuntu2
 _ZN5orcus19xml_structure_errorC2ERKNSt7__cxx1112basic_stringIcSt11char_traitsIcESaIcEEE@Base 0.9.2-4ubuntu2
 _ZN5orcus19xml_structure_errorD0Ev@Base 0.9.2-4ubuntu2
 _ZN5orcus19xml_structure_errorD1Ev@Base 0.9.2-4ubuntu2
 _ZN5orcus19xml_structure_errorD2Ev@Base 0.9.2-4ubuntu2
 _ZN5orcus21zip_archive_stream_fd4seekEm@Base 0.9.2-4ubuntu2
 _ZN5orcus21zip_archive_stream_fdC1EPKc@Base 0.9.2-4ubuntu2
 _ZN5orcus21zip_archive_stream_fdC2EPKc@Base 0.9.2-4ubuntu2
 _ZN5orcus21zip_archive_stream_fdD0Ev@Base 0.9.2-4ubuntu2
 _ZN5orcus21zip_archive_stream_fdD1Ev@Base 0.9.2-4ubuntu2
 _ZN5orcus21zip_archive_stream_fdD2Ev@Base 0.9.2-4ubuntu2
 _ZN5orcus23zip_archive_stream_blob4seekEm@Base 0.9.2-4ubuntu2
 _ZN5orcus23zip_archive_stream_blobC1EPKhm@Base 0.9.2-4ubuntu2
 _ZN5orcus23zip_archive_stream_blobC2EPKhm@Base 0.9.2-4ubuntu2
 _ZN5orcus23zip_archive_stream_blobD0Ev@Base 0.9.2-4ubuntu2
 _ZN5orcus23zip_archive_stream_blobD1Ev@Base 0.9.2-4ubuntu2
 _ZN5orcus23zip_archive_stream_blobD2Ev@Base 0.9.2-4ubuntu2
 _ZN5orcus30sax_token_handler_wrapper_base11set_elementERKNS_21sax_ns_parser_elementE@Base 0.9.2-4ubuntu2
 _ZN5orcus30sax_token_handler_wrapper_base9attributeERKNS_23sax_ns_parser_attributeE@Base 0.9.2-4ubuntu2
 _ZN5orcus30sax_token_handler_wrapper_base9attributeERKNS_7pstringES3_@Base 0.9.2-4ubuntu2
 _ZN5orcus30sax_token_handler_wrapper_baseC1ERKNS_6tokensE@Base 0.9.2-4ubuntu2
 _ZN5orcus30sax_token_handler_wrapper_baseC2ERKNS_6tokensE@Base 0.9.2-4ubuntu2
 _ZN5orcus3css11parse_error10throw_withEPKcS3_mS3_@Base 0.9.2-4ubuntu2
 _ZN5orcus3css11parse_error10throw_withEPKccS3_@Base 0.9.2-4ubuntu2
 _ZN5orcus3css11parse_errorC1ERKNSt7__cxx1112basic_stringIcSt11char_traitsIcESaIcEEE@Base 0.9.2-4ubuntu2
 _ZN5orcus3css11parse_errorC2ERKNSt7__cxx1112basic_stringIcSt11char_traitsIcESaIcEEE@Base 0.9.2-4ubuntu2
 _ZN5orcus3css11parse_errorD0Ev@Base 0.9.2-4ubuntu2
 _ZN5orcus3css11parse_errorD1Ev@Base 0.9.2-4ubuntu2
 _ZN5orcus3css11parse_errorD2Ev@Base 0.9.2-4ubuntu2
 _ZN5orcus3css11parser_base10identifierERPKcRmS3_@Base 0.9.2-4ubuntu2
 _ZN5orcus3css11parser_base11parse_uint8Ev@Base 0.9.2-4ubuntu2
 _ZN5orcus3css11parser_base11skip_blanksEv@Base 0.9.2-4ubuntu2
 _ZN5orcus3css11parser_base12parse_doubleEv@Base 0.9.2-4ubuntu2
 _ZN5orcus3css11parser_base12skip_commentEv@Base 0.9.2-4ubuntu2
 _ZN5orcus3css11parser_base13parse_percentEv@Base 0.9.2-4ubuntu2
 _ZN5orcus3css11parser_base13shrink_streamEv@Base 0.9.2-4ubuntu2
 _ZN5orcus3css11parser_base14set_combinatorEcNS0_12combinator_tE@Base 0.9.2-4ubuntu2
 _ZN5orcus3css11parser_base16skip_to_or_blankERPKcRmS3_@Base 0.9.2-4ubuntu2
 _ZN5orcus3css11parser_base18reset_before_blockEv@Base 0.9.2-4ubuntu2
 _ZN5orcus3css11parser_base19skip_blanks_reverseEv@Base 0.9.2-4ubuntu2
 _ZN5orcus3css11parser_base24skip_comments_and_blanksEv@Base 0.9.2-4ubuntu2
 _ZN5orcus3css11parser_base4nextEv@Base 0.9.2-4ubuntu2
 _ZN5orcus3css11parser_base7commentEv@Base 0.9.2-4ubuntu2
 _ZN5orcus3css11parser_base7literalERPKcRmc@Base 0.9.2-4ubuntu2
 _ZN5orcus3css11parser_base7skip_toERPKcRmc@Base 0.9.2-4ubuntu2
 _ZN5orcus3css11parser_baseC1EPKcm@Base 0.9.2-4ubuntu2
 _ZN5orcus3css11parser_baseC2EPKcm@Base 0.9.2-4ubuntu2
 _ZN5orcus3css15to_pseudo_classEPKcm@Base 0.9.2-4ubuntu2
 _ZN5orcus3css16pseudo_class_dirE@Base 0.9.2-4ubuntu2
 _ZN5orcus3css16pseudo_class_notE@Base 0.9.2-4ubuntu2
 _ZN5orcus3css17pseudo_class_langE@Base 0.9.2-4ubuntu2
 _ZN5orcus3css17pseudo_class_leftE@Base 0.9.2-4ubuntu2
 _ZN5orcus3css17pseudo_class_linkE@Base 0.9.2-4ubuntu2
 _ZN5orcus3css17pseudo_class_rootE@Base 0.9.2-4ubuntu2
 _ZN5orcus3css17to_pseudo_elementEPKcm@Base 0.9.2-4ubuntu2
 _ZN5orcus3css18pseudo_class_emptyE@Base 0.9.2-4ubuntu2
 _ZN5orcus3css18pseudo_class_firstE@Base 0.9.2-4ubuntu2
 _ZN5orcus3css18pseudo_class_focusE@Base 0.9.2-4ubuntu2
 _ZN5orcus3css18pseudo_class_hoverE@Base 0.9.2-4ubuntu2
 _ZN5orcus3css18pseudo_class_rightE@Base 0.9.2-4ubuntu2
 _ZN5orcus3css18pseudo_class_scopeE@Base 0.9.2-4ubuntu2
 _ZN5orcus3css18pseudo_class_validE@Base 0.9.2-4ubuntu2
 _ZN5orcus3css19pseudo_class_activeE@Base 0.9.2-4ubuntu2
 _ZN5orcus3css19pseudo_class_targetE@Base 0.9.2-4ubuntu2
 _ZN5orcus3css20pseudo_class_checkedE@Base 0.9.2-4ubuntu2
 _ZN5orcus3css20pseudo_class_defaultE@Base 0.9.2-4ubuntu2
 _ZN5orcus3css20pseudo_class_enabledE@Base 0.9.2-4ubuntu2
 _ZN5orcus3css20pseudo_class_invalidE@Base 0.9.2-4ubuntu2
 _ZN5orcus3css20pseudo_class_visitedE@Base 0.9.2-4ubuntu2
 _ZN5orcus3css20pseudo_element_afterE@Base 0.9.2-4ubuntu2
 _ZN5orcus3css20to_property_functionEPKcm@Base 0.9.2-4ubuntu2
 _ZN5orcus3css21pseudo_class_disabledE@Base 0.9.2-4ubuntu2
 _ZN5orcus3css21pseudo_class_in_rangeE@Base 0.9.2-4ubuntu2
 _ZN5orcus3css21pseudo_class_optionalE@Base 0.9.2-4ubuntu2
 _ZN5orcus3css21pseudo_class_requiredE@Base 0.9.2-4ubuntu2
 _ZN5orcus3css21pseudo_element_beforeE@Base 0.9.2-4ubuntu2
 _ZN5orcus3css22pseudo_class_nth_childE@Base 0.9.2-4ubuntu2
 _ZN5orcus3css22pseudo_class_read_onlyE@Base 0.9.2-4ubuntu2
 _ZN5orcus3css22pseudo_class_to_stringB5cxx11Em@Base 0.9.2-4ubuntu2
 _ZN5orcus3css23pseudo_class_fullscreenE@Base 0.9.2-4ubuntu2
 _ZN5orcus3css23pseudo_class_last_childE@Base 0.9.2-4ubuntu2
 _ZN5orcus3css23pseudo_class_only_childE@Base 0.9.2-4ubuntu2
 _ZN5orcus3css23pseudo_class_read_writeE@Base 0.9.2-4ubuntu2
 _ZN5orcus3css23pseudo_element_backdropE@Base 0.9.2-4ubuntu2
 _ZN5orcus3css24pseudo_class_first_childE@Base 0.9.2-4ubuntu2
 _ZN5orcus3css24pseudo_class_nth_of_typeE@Base 0.9.2-4ubuntu2
 _ZN5orcus3css24pseudo_element_selectionE@Base 0.9.2-4ubuntu2
 _ZN5orcus3css25pseudo_class_last_of_typeE@Base 0.9.2-4ubuntu2
 _ZN5orcus3css25pseudo_class_only_of_typeE@Base 0.9.2-4ubuntu2
 _ZN5orcus3css25pseudo_class_out_of_rangeE@Base 0.9.2-4ubuntu2
 _ZN5orcus3css25pseudo_element_first_lineE@Base 0.9.2-4ubuntu2
 _ZN5orcus3css26pseudo_class_first_of_typeE@Base 0.9.2-4ubuntu2
 _ZN5orcus3css26pseudo_class_indeterminateE@Base 0.9.2-4ubuntu2
 _ZN5orcus3css27pseudo_class_nth_last_childE@Base 0.9.2-4ubuntu2
 _ZN5orcus3css27pseudo_element_first_letterE@Base 0.9.2-4ubuntu2
 _ZN5orcus3css29pseudo_class_nth_last_of_typeE@Base 0.9.2-4ubuntu2
 _ZN5orcus3csv11parse_errorC1ERKNSt7__cxx1112basic_stringIcSt11char_traitsIcESaIcEEE@Base 0.9.2-4ubuntu2
 _ZN5orcus3csv11parse_errorC2ERKNSt7__cxx1112basic_stringIcSt11char_traitsIcESaIcEEE@Base 0.9.2-4ubuntu2
 _ZN5orcus3csv11parse_errorD0Ev@Base 0.9.2-4ubuntu2
 _ZN5orcus3csv11parse_errorD1Ev@Base 0.9.2-4ubuntu2
 _ZN5orcus3csv11parse_errorD2Ev@Base 0.9.2-4ubuntu2
 _ZN5orcus3csv11parser_base11skip_blanksEv@Base 0.9.2-4ubuntu2
 _ZN5orcus3csv11parser_base4nextEv@Base 0.9.2-4ubuntu2
 _ZN5orcus3csv11parser_baseC1EPKcmRKNS0_13parser_configE@Base 0.9.2-4ubuntu2
 _ZN5orcus3csv11parser_baseC2EPKcmRKNS0_13parser_configE@Base 0.9.2-4ubuntu2
 _ZN5orcus3csv13parser_configC1Ev@Base 0.9.2-4ubuntu2
 _ZN5orcus3csv13parser_configC2Ev@Base 0.9.2-4ubuntu2
 _ZN5orcus3sax11parser_base12element_nameERNS0_14parser_elementEPKc@Base 0.9.2-4ubuntu2
 _ZN5orcus3sax11parser_base12expects_nextEPKcm@Base 0.9.2-4ubuntu2
 _ZN5orcus3sax11parser_base14attribute_nameERNS_7pstringES3_@Base 0.9.2-4ubuntu2
 _ZN5orcus3sax11parser_base14inc_buffer_posEv@Base 0.9.2-4ubuntu2
 _ZN5orcus3sax11parser_base15get_cell_bufferEv@Base 0.9.2-4ubuntu2
 _ZN5orcus3sax11parser_base18parse_encoded_charERNS_11cell_bufferE@Base 0.9.2-4ubuntu2
 _ZN5orcus3sax11parser_base23value_with_encoded_charERNS_11cell_bufferERNS_7pstringE@Base 0.9.2-4ubuntu2
 _ZN5orcus3sax11parser_base28characters_with_encoded_charERNS_11cell_bufferE@Base 0.9.2-4ubuntu2
 _ZN5orcus3sax11parser_base4nameERNS_7pstringE@Base 0.9.2-4ubuntu2
 _ZN5orcus3sax11parser_base5blankEv@Base 0.9.2-4ubuntu2
 _ZN5orcus3sax11parser_base5valueERNS_7pstringEb@Base 0.9.2-4ubuntu2
 _ZN5orcus3sax11parser_base7commentEv@Base 0.9.2-4ubuntu2
 _ZN5orcus3sax11parser_base8skip_bomEv@Base 0.9.2-4ubuntu2
 _ZN5orcus3sax11parser_baseC1EPKcm@Base 0.9.2-4ubuntu2
 _ZN5orcus3sax11parser_baseC2EPKcm@Base 0.9.2-4ubuntu2
 _ZN5orcus3sax19malformed_xml_errorC1ERKNSt7__cxx1112basic_stringIcSt11char_traitsIcESaIcEEE@Base 0.9.2-4ubuntu2
 _ZN5orcus3sax19malformed_xml_errorC2ERKNSt7__cxx1112basic_stringIcSt11char_traitsIcESaIcEEE@Base 0.9.2-4ubuntu2
 _ZN5orcus3sax19malformed_xml_errorD0Ev@Base 0.9.2-4ubuntu2
 _ZN5orcus3sax19malformed_xml_errorD1Ev@Base 0.9.2-4ubuntu2
 _ZN5orcus3sax19malformed_xml_errorD2Ev@Base 0.9.2-4ubuntu2
 _ZN5orcus3sax23decode_xml_encoded_charEPKcm@Base 0.9.2-4ubuntu2
 _ZN5orcus4clipEddd@Base 0.9.2-4ubuntu2
 _ZN5orcus5is_inEcPKc@Base 0.9.2-4ubuntu2
 _ZN5orcus6tokensC1EPPKcm@Base 0.9.2-4ubuntu2
 _ZN5orcus6tokensC2EPPKcm@Base 0.9.2-4ubuntu2
 _ZN5orcus8is_alphaEc@Base 0.9.2-4ubuntu2
 _ZN5orcus8is_blankEc@Base 0.9.2-4ubuntu2
 _ZN5orcus8write_toERNSt7__cxx1119basic_ostringstreamIcSt11char_traitsIcESaIcEEEPKcm@Base 0.9.2-4ubuntu2
 _ZN5orcus9zip_errorC1ERKNSt7__cxx1112basic_stringIcSt11char_traitsIcESaIcEEE@Base 0.9.2-4ubuntu2
 _ZN5orcus9zip_errorC1Ev@Base 0.9.2-4ubuntu2
 _ZN5orcus9zip_errorC2ERKNSt7__cxx1112basic_stringIcSt11char_traitsIcESaIcEEE@Base 0.9.2-4ubuntu2
 _ZN5orcus9zip_errorC2Ev@Base 0.9.2-4ubuntu2
 _ZN5orcus9zip_errorD0Ev@Base 0.9.2-4ubuntu2
 _ZN5orcus9zip_errorD1Ev@Base 0.9.2-4ubuntu2
 _ZN5orcus9zip_errorD2Ev@Base 0.9.2-4ubuntu2
 _ZN5orcuspLERNSt7__cxx1112basic_stringIcSt11char_traitsIcESaIcEEERKNS_7pstringE@Base 0.9.2-4ubuntu2
 _ZN5orcusplERKNSt7__cxx1112basic_stringIcSt11char_traitsIcESaIcEEERKNS_7pstringE@Base 0.9.2-4ubuntu2
 _ZNK5boost6system12system_error4whatEv@Base 0.9.2-4ubuntu2
 _ZNK5orcus11cell_buffer3getEv@Base 0.9.2-4ubuntu2
 _ZNK5orcus11cell_buffer4sizeEv@Base 0.9.2-4ubuntu2
 _ZNK5orcus11cell_buffer5emptyEv@Base 0.9.2-4ubuntu2
 _ZNK5orcus11date_time_t9to_stringB5cxx11Ev@Base 0.9.2-4ubuntu2
 _ZNK5orcus11string_pool11string_hashclEPKNSt7__cxx1112basic_stringIcSt11char_traitsIcESaIcEEE@Base 0.9.2-4ubuntu2
 _ZNK5orcus11string_pool15string_equal_toclEPKNSt7__cxx1112basic_stringIcSt11char_traitsIcESaIcEEES9_@Base 0.9.2-4ubuntu2
 _ZNK5orcus11string_pool4dumpEv@Base 0.9.2-4ubuntu2
 _ZNK5orcus11string_pool4sizeEv@Base 0.9.2-4ubuntu2
 _ZNK5orcus11zip_archive15dump_file_entryEPKc@Base 0.9.2-4ubuntu2
 _ZNK5orcus11zip_archive15dump_file_entryEm@Base 0.9.2-4ubuntu2
 _ZNK5orcus11zip_archive15read_file_entryERKNS_7pstringERSt6vectorIhSaIhEE@Base 0.9.2-4ubuntu2
 _ZNK5orcus11zip_archive19get_file_entry_nameEm@Base 0.9.2-4ubuntu2
 _ZNK5orcus11zip_archive20get_file_entry_countEv@Base 0.9.2-4ubuntu2
 _ZNK5orcus13general_error4whatEv@Base 0.9.2-4ubuntu2
 _ZNK5orcus13xmlns_context14get_short_nameB5cxx11EPKc@Base 0.9.2-4ubuntu2
 _ZNK5orcus13xmlns_context18get_all_namespacesERSt6vectorIPKcSaIS3_EE@Base 0.9.2-4ubuntu2
 _ZNK5orcus13xmlns_context3getERKNS_7pstringE@Base 0.9.2-4ubuntu2
 _ZNK5orcus13xmlns_context4dumpERSo@Base 0.9.2-4ubuntu2
 _ZNK5orcus13xmlns_context9get_aliasEPKc@Base 0.9.2-4ubuntu2
 _ZNK5orcus13xmlns_context9get_indexEPKc@Base 0.9.2-4ubuntu2
 _ZNK5orcus16xmlns_repository14get_identifierEm@Base 0.9.2-4ubuntu2
 _ZNK5orcus16xmlns_repository14get_short_nameB5cxx11EPKc@Base 0.9.2-4ubuntu2
 _ZNK5orcus16xmlns_repository14get_short_nameB5cxx11Em@Base 0.9.2-4ubuntu2
 _ZNK5orcus21zip_archive_stream_fd4readEPhm@Base 0.9.2-4ubuntu2
 _ZNK5orcus21zip_archive_stream_fd4sizeEv@Base 0.9.2-4ubuntu2
 _ZNK5orcus21zip_archive_stream_fd4tellEv@Base 0.9.2-4ubuntu2
 _ZNK5orcus23zip_archive_stream_blob4readEPhm@Base 0.9.2-4ubuntu2
 _ZNK5orcus23zip_archive_stream_blob4sizeEv@Base 0.9.2-4ubuntu2
 _ZNK5orcus23zip_archive_stream_blob4tellEv@Base 0.9.2-4ubuntu2
 _ZNK5orcus30sax_token_handler_wrapper_base8tokenizeERKNS_7pstringE@Base 0.9.2-4ubuntu2
 _ZNK5orcus3css11parser_base14remaining_sizeEv@Base 0.9.2-4ubuntu2
 _ZNK5orcus3css11parser_base8cur_charEv@Base 0.9.2-4ubuntu2
 _ZNK5orcus3css11parser_base8has_charEv@Base 0.9.2-4ubuntu2
 _ZNK5orcus3css11parser_base9next_charEv@Base 0.9.2-4ubuntu2
 _ZNK5orcus3csv11parse_error4whatEv@Base 0.9.2-4ubuntu2
 _ZNK5orcus3csv11parser_base17is_text_qualifierEc@Base 0.9.2-4ubuntu2
 _ZNK5orcus3csv11parser_base8cur_charEv@Base 0.9.2-4ubuntu2
 _ZNK5orcus3csv11parser_base8is_blankEc@Base 0.9.2-4ubuntu2
 _ZNK5orcus3csv11parser_base8is_delimEc@Base 0.9.2-4ubuntu2
 _ZNK5orcus3csv11parser_base9next_charEv@Base 0.9.2-4ubuntu2
 _ZNK5orcus3sax19malformed_xml_error4whatEv@Base 0.9.2-4ubuntu2
 _ZNK5orcus6tokens14get_token_nameEm@Base 0.9.2-4ubuntu2
 _ZNK5orcus6tokens14is_valid_tokenEm@Base 0.9.2-4ubuntu2
 _ZNK5orcus6tokens9get_tokenERKNS_7pstringE@Base 0.9.2-4ubuntu2
 _ZNK5orcus7pstring4hashclERKS0_@Base 0.9.2-4ubuntu2
 _ZNK5orcus7pstring4trimEv@Base 0.9.2-4ubuntu2
 _ZNK5orcus7pstringeqEPKc@Base 0.9.2-4ubuntu2
 _ZNK5orcus7pstringeqERKS0_@Base 0.9.2-4ubuntu2
 _ZNK5orcus7pstringltERKS0_@Base 0.9.2-4ubuntu2
 _ZNK5orcus9zip_error4whatEv@Base 0.9.2-4ubuntu2
 _ZNKSt5ctypeIcE8do_widenEc@Base 0.9.2-4ubuntu2
 _ZNSt6vectorIN5orcus16xml_token_attr_tESaIS1_EE19_M_emplace_back_auxIIS1_EEEvDpOT_@Base 0.9.2-4ubuntu2
 _ZNSt6vectorIN5orcus16xml_token_attr_tESaIS1_EE19_M_emplace_back_auxIJS1_EEEvDpOT_@Base 0.9.2-4ubuntu2
 _ZNSt6vectorIN5orcus7pstringESaIS1_EE19_M_emplace_back_auxIIRKS1_EEEvDpOT_@Base 0.9.2-4ubuntu2
 _ZNSt6vectorIN5orcus7pstringESaIS1_EE19_M_emplace_back_auxIJRKS1_EEEvDpOT_@Base 0.9.2-4ubuntu2
 _ZNSt6vectorIPKcSaIS1_EE12emplace_backIIS1_EEEvDpOT_@Base 0.9.2-4ubuntu2
 _ZNSt6vectorIPKcSaIS1_EE12emplace_backIJS1_EEEvDpOT_@Base 0.9.2-4ubuntu2
 _ZNSt6vectorIPKcSaIS1_EE13_M_assign_auxIN9__gnu_cxx17__normal_iteratorIPS1_S3_EEEEvT_S9_St20forward_iterator_tag@Base 0.9.2-4ubuntu2
 _ZNSt6vectorIPKcSaIS1_EE19_M_emplace_back_auxIIS1_EEEvDpOT_@Base 0.9.2-4ubuntu2
 _ZNSt6vectorIPKcSaIS1_EE19_M_emplace_back_auxIJS1_EEEvDpOT_@Base 0.9.2-4ubuntu2
 _ZNSt6vectorIPvSaIS0_EE19_M_emplace_back_auxIIS0_EEEvDpOT_@Base 0.9.2-4ubuntu2
 _ZNSt6vectorIPvSaIS0_EE19_M_emplace_back_auxIJS0_EEEvDpOT_@Base 0.9.2-4ubuntu2
 _ZNSt6vectorIcSaIcEE17_M_default_appendEm@Base 0.9.2-4ubuntu2
 _ZNSt7__cxx1112basic_stringIcSt11char_traitsIcESaIcEE12_M_constructIN5boost7archive9iterators18base64_from_binaryINS8_15transform_widthIN9__gnu_cxx17__normal_iteratorIPKcSt6vectorIcS3_EEELi6ELi8EcEEcEEEEvT_SK_St18input_iterator_tag@Base 0.9.2-4ubuntu2
 _ZNSt7__cxx1115basic_stringbufIcSt11char_traitsIcESaIcEED0Ev@Base 0.9.2-4ubuntu2
 _ZNSt7__cxx1115basic_stringbufIcSt11char_traitsIcESaIcEED1Ev@Base 0.9.2-4ubuntu2
 _ZNSt7__cxx1115basic_stringbufIcSt11char_traitsIcESaIcEED2Ev@Base 0.9.2-4ubuntu2
 _ZTIN5boost6system12system_errorE@Base 0.9.2-4ubuntu2
 _ZTIN5orcus13general_errorE@Base 0.9.2-4ubuntu2
 _ZTIN5orcus18zip_archive_streamE@Base 0.9.2-4ubuntu2
 _ZTIN5orcus19xml_structure_errorE@Base 0.9.2-4ubuntu2
 _ZTIN5orcus21zip_archive_stream_fdE@Base 0.9.2-4ubuntu2
 _ZTIN5orcus23zip_archive_stream_blobE@Base 0.9.2-4ubuntu2
 _ZTIN5orcus3css11parse_errorE@Base 0.9.2-4ubuntu2
 _ZTIN5orcus3csv11parse_errorE@Base 0.9.2-4ubuntu2
 _ZTIN5orcus3sax19malformed_xml_errorE@Base 0.9.2-4ubuntu2
 _ZTIN5orcus9zip_errorE@Base 0.9.2-4ubuntu2
 _ZTSN5boost6system12system_errorE@Base 0.9.2-4ubuntu2
 _ZTSN5orcus13general_errorE@Base 0.9.2-4ubuntu2
 _ZTSN5orcus18zip_archive_streamE@Base 0.9.2-4ubuntu2
 _ZTSN5orcus19xml_structure_errorE@Base 0.9.2-4ubuntu2
 _ZTSN5orcus21zip_archive_stream_fdE@Base 0.9.2-4ubuntu2
 _ZTSN5orcus23zip_archive_stream_blobE@Base 0.9.2-4ubuntu2
 _ZTSN5orcus3css11parse_errorE@Base 0.9.2-4ubuntu2
 _ZTSN5orcus3csv11parse_errorE@Base 0.9.2-4ubuntu2
 _ZTSN5orcus3sax19malformed_xml_errorE@Base 0.9.2-4ubuntu2
 _ZTSN5orcus9zip_errorE@Base 0.9.2-4ubuntu2
 _ZTVN5boost6system12system_errorE@Base 0.9.2-4ubuntu2
 _ZTVN5orcus13general_errorE@Base 0.9.2-4ubuntu2
 _ZTVN5orcus18zip_archive_streamE@Base 0.9.2-4ubuntu2
 _ZTVN5orcus19xml_structure_errorE@Base 0.9.2-4ubuntu2
 _ZTVN5orcus21zip_archive_stream_fdE@Base 0.9.2-4ubuntu2
 _ZTVN5orcus23zip_archive_stream_blobE@Base 0.9.2-4ubuntu2
 _ZTVN5orcus3css11parse_errorE@Base 0.9.2-4ubuntu2
 _ZTVN5orcus3csv11parse_errorE@Base 0.9.2-4ubuntu2
 _ZTVN5orcus3sax19malformed_xml_errorE@Base 0.9.2-4ubuntu2
 _ZTVN5orcus9zip_errorE@Base 0.9.2-4ubuntu2
