libprocesscore.so.7 libprocesscore7 #MINVER#
 _ZN9KSysGuard7Process10setChangesENS0_6ChangeE@Base 4:5.3.0
 _ZN9KSysGuard7Process10setCommandE7QString@Base 5.2.50+git
 _ZN9KSysGuard7Process10setSysTimeEx@Base 5.2.50+git
 _ZN9KSysGuard7Process11setSysUsageEi@Base 5.2.50+git
 _ZN9KSysGuard7Process11setUserTimeEx@Base 5.2.50+git
 _ZN9KSysGuard7Process12setNiceLevelEi@Base 5.2.50+git
 _ZN9KSysGuard7Process12setParentPidEl@Base 4:5.3.0
 _ZN9KSysGuard7Process12setSchedulerENS0_9SchedulerE@Base 4:5.3.0
 _ZN9KSysGuard7Process12setStartTimeEx@Base 4:5.3.0
 _ZN9KSysGuard7Process12setTracerpidEx@Base 5.2.50+git
 _ZN9KSysGuard7Process12setUserUsageEi@Base 5.2.50+git
 _ZN9KSysGuard7Process13setNumThreadsEi@Base 5.2.50+git
 _ZN9KSysGuard7Process14setIoniceLevelEi@Base 5.2.50+git
 _ZN9KSysGuard7Process16setTotalSysUsageEi@Base 5.2.50+git
 _ZN9KSysGuard7Process17setIoReadSyscallsEx@Base 5.2.50+git
 _ZN9KSysGuard7Process17setTotalUserUsageEi@Base 5.2.50+git
 _ZN9KSysGuard7Process18setIoPriorityClassENS0_15IoPriorityClassE@Base 5.2.50+git
 _ZN9KSysGuard7Process18setIoWriteSyscallsEx@Base 5.2.50+git
 _ZN9KSysGuard7Process19setIoCharactersReadEx@Base 5.2.50+git
 _ZN9KSysGuard7Process21setIoReadSyscallsRateEl@Base 5.2.50+git
 _ZN9KSysGuard7Process22setIoCharactersWrittenEx@Base 5.2.50+git
 _ZN9KSysGuard7Process22setIoWriteSyscallsRateEl@Base 5.2.50+git
 _ZN9KSysGuard7Process23setIoCharactersReadRateEl@Base 5.2.50+git
 _ZN9KSysGuard7Process26setElapsedTimeMilliSecondsEi@Base 4:5.3.0
 _ZN9KSysGuard7Process26setIoCharactersWrittenRateEl@Base 5.2.50+git
 _ZN9KSysGuard7Process27setIoCharactersActuallyReadEx@Base 5.2.50+git
 _ZN9KSysGuard7Process30setIoCharactersActuallyWrittenEx@Base 5.2.50+git
 _ZN9KSysGuard7Process31setIoCharactersActuallyReadRateEl@Base 5.2.50+git
 _ZN9KSysGuard7Process34setIoCharactersActuallyWrittenRateEl@Base 5.2.50+git
 _ZN9KSysGuard7Process5clearEv@Base 5.2.50+git
 _ZN9KSysGuard7Process6setGidEx@Base 5.2.50+git
 _ZN9KSysGuard7Process6setTtyE10QByteArray@Base 5.2.50+git
 _ZN9KSysGuard7Process6setUidEx@Base 5.2.50+git
 _ZN9KSysGuard7Process7setEgidEx@Base 5.2.50+git
 _ZN9KSysGuard7Process7setEuidEx@Base 5.2.50+git
 _ZN9KSysGuard7Process7setNameE7QString@Base 5.2.50+git
 _ZN9KSysGuard7Process7setSgidEx@Base 5.2.50+git
 _ZN9KSysGuard7Process7setSuidEx@Base 5.2.50+git
 _ZN9KSysGuard7Process8setFsgidEx@Base 5.2.50+git
 _ZN9KSysGuard7Process8setFsuidEx@Base 5.2.50+git
 _ZN9KSysGuard7Process8setIndexEi@Base 4:5.3.0
 _ZN9KSysGuard7Process8setLoginE7QString@Base 5.2.50+git
 _ZN9KSysGuard7Process8setVmRSSEx@Base 5.2.50+git
 _ZN9KSysGuard7Process9setParentEPS0_@Base 4:5.3.0
 _ZN9KSysGuard7Process9setStatusENS0_13ProcessStatusE@Base 5.2.50+git
 _ZN9KSysGuard7Process9setVmSizeEx@Base 5.2.50+git
 _ZN9KSysGuard7Process9setVmURSSEx@Base 5.2.50+git
 _ZN9KSysGuard7ProcessC1Ev@Base 5.2.50+git
 _ZN9KSysGuard7ProcessC1ExxPS0_@Base 5.2.50+git
 _ZN9KSysGuard7ProcessC2Ev@Base 5.2.50+git
 _ZN9KSysGuard7ProcessC2ExxPS0_@Base 5.2.50+git
 _ZN9KSysGuard7ProcessD0Ev@Base 4:5.3.0
 _ZN9KSysGuard7ProcessD1Ev@Base 4:5.3.0
 _ZN9KSysGuard7ProcessD2Ev@Base 4:5.3.0
 _ZN9KSysGuard9Processes10addProcessEll@Base 5.2.50+git
 _ZN9KSysGuard9Processes10runCommandERK7QStringi@Base 5.2.50+git
 _ZN9KSysGuard9Processes10sendSignalEli@Base 5.2.50+git
 _ZN9KSysGuard9Processes11killProcessEl@Base 5.2.50+git
 _ZN9KSysGuard9Processes11qt_metacallEN11QMetaObject4CallEiPPv@Base 5.2.50+git
 _ZN9KSysGuard9Processes11qt_metacastEPKc@Base 5.2.50+git
 _ZN9KSysGuard9Processes11setNicenessEli@Base 5.2.50+git
 _ZN9KSysGuard9Processes12setSchedulerElNS_7Process9SchedulerEi@Base 5.2.50+git
 _ZN9KSysGuard9Processes13endAddProcessEv@Base 5.2.50+git
 _ZN9KSysGuard9Processes13setIoNicenessElNS_7Process15IoPriorityClassEi@Base 5.2.50+git
 _ZN9KSysGuard9Processes13updateProcessEPNS_7ProcessEl@Base 5.2.50+git
 _ZN9KSysGuard9Processes14answerReceivedEiRK5QListI10QByteArrayE@Base 5.2.50+git
 _ZN9KSysGuard9Processes14endMoveProcessEv@Base 5.2.50+git
 _ZN9KSysGuard9Processes14processChangedEPNS_7ProcessEb@Base 5.2.50+git
 _ZN9KSysGuard9Processes14setViewingTimeERK9QDateTime@Base 5.2.50+git
 _ZN9KSysGuard9Processes14useCurrentDataEv@Base 5.2.50+git
 _ZN9KSysGuard9Processes15beginAddProcessEPNS_7ProcessE@Base 5.2.50+git
 _ZN9KSysGuard9Processes15loadHistoryFileERK7QString@Base 5.2.50+git
 _ZN9KSysGuard9Processes16beginMoveProcessEPNS_7ProcessES2_@Base 5.2.50+git
 _ZN9KSysGuard9Processes16endRemoveProcessEv@Base 5.2.50+git
 _ZN9KSysGuard9Processes16processesUpdatedEv@Base 5.2.50+git
 _ZN9KSysGuard9Processes16staticMetaObjectE@Base 5.2.50+git
 _ZN9KSysGuard9Processes17updateProcessInfoEPNS_7ProcessE@Base 5.2.50+git
 _ZN9KSysGuard9Processes18beginRemoveProcessEPNS_7ProcessE@Base 5.2.50+git
 _ZN9KSysGuard9Processes18supportsIoNicenessEv@Base 5.2.50+git
 _ZN9KSysGuard9Processes18updateAllProcessesEl6QFlagsINS0_10UpdateFlagEE@Base 5.2.50+git
 _ZN9KSysGuard9Processes18updateOrAddProcessEl@Base 5.2.50+git
 _ZN9KSysGuard9Processes19totalPhysicalMemoryEv@Base 5.2.50+git
 _ZN9KSysGuard9Processes20numberProcessorCoresEv@Base 5.2.50+git
 _ZN9KSysGuard9Processes7Private20markProcessesAsEndedEl@Base 5.2.50+git
 _ZN9KSysGuard9Processes7PrivateD1Ev@Base 5.2.50+git
 _ZN9KSysGuard9Processes7PrivateD2Ev@Base 5.2.50+git
 _ZN9KSysGuard9ProcessesC1ERK7QStringP7QObject@Base 5.2.50+git
 _ZN9KSysGuard9ProcessesC2ERK7QStringP7QObject@Base 5.2.50+git
 _ZN9KSysGuard9ProcessesD0Ev@Base 5.2.50+git
 _ZN9KSysGuard9ProcessesD1Ev@Base 5.2.50+git
 _ZN9KSysGuard9ProcessesD2Ev@Base 5.2.50+git
 _ZNK9KSysGuard7Process10numThreadsEv@Base 4:5.3.0
 _ZNK9KSysGuard7Process11ioniceLevelEv@Base 4:5.3.0
 _ZNK9KSysGuard7Process11numChildrenEv@Base 4:5.3.0
 _ZNK9KSysGuard7Process11pixmapBytesEv@Base 4:5.3.0
 _ZNK9KSysGuard7Process11vmRSSChangeEv@Base 4:5.3.0
 _ZNK9KSysGuard7Process12vmSizeChangeEv@Base 4:5.3.0
 _ZNK9KSysGuard7Process12vmURSSChangeEv@Base 4:5.3.0
 _ZNK9KSysGuard7Process13totalSysUsageEv@Base 4:5.3.0
 _ZNK9KSysGuard7Process14ioReadSyscallsEv@Base 4:5.3.0
 _ZNK9KSysGuard7Process14totalUserUsageEv@Base 4:5.3.0
 _ZNK9KSysGuard7Process15ioPriorityClassEv@Base 4:5.3.0
 _ZNK9KSysGuard7Process15ioWriteSyscallsEv@Base 4:5.3.0
 _ZNK9KSysGuard7Process15timeKillWasSentEv@Base 4:5.3.0
 _ZNK9KSysGuard7Process16ioCharactersReadEv@Base 4:5.3.0
 _ZNK9KSysGuard7Process16translatedStatusEv@Base 5.2.50+git
 _ZNK9KSysGuard7Process17niceLevelAsStringEv@Base 5.2.50+git
 _ZNK9KSysGuard7Process17schedulerAsStringEv@Base 5.2.50+git
 _ZNK9KSysGuard7Process18ioReadSyscallsRateEv@Base 4:5.3.0
 _ZNK9KSysGuard7Process19hasManagedGuiWindowEv@Base 4:5.3.0
 _ZNK9KSysGuard7Process19ioCharactersWrittenEv@Base 4:5.3.0
 _ZNK9KSysGuard7Process19ioWriteSyscallsRateEv@Base 4:5.3.0
 _ZNK9KSysGuard7Process19ioniceLevelAsStringEv@Base 5.2.50+git
 _ZNK9KSysGuard7Process20ioCharactersReadRateEv@Base 4:5.3.0
 _ZNK9KSysGuard7Process23elapsedTimeMilliSecondsEv@Base 4:5.3.0
 _ZNK9KSysGuard7Process23ioCharactersWrittenRateEv@Base 4:5.3.0
 _ZNK9KSysGuard7Process23ioPriorityClassAsStringEv@Base 5.2.50+git
 _ZNK9KSysGuard7Process24ioCharactersActuallyReadEv@Base 4:5.3.0
 _ZNK9KSysGuard7Process27ioCharactersActuallyWrittenEv@Base 4:5.3.0
 _ZNK9KSysGuard7Process28ioCharactersActuallyReadRateEv@Base 4:5.3.0
 _ZNK9KSysGuard7Process31ioCharactersActuallyWrittenRateEv@Base 4:5.3.0
 _ZNK9KSysGuard7Process3gidEv@Base 4:5.3.0
 _ZNK9KSysGuard7Process3pidEv@Base 4:5.3.0
 _ZNK9KSysGuard7Process3ttyEv@Base 4:5.3.0
 _ZNK9KSysGuard7Process3uidEv@Base 4:5.3.0
 _ZNK9KSysGuard7Process4egidEv@Base 4:5.3.0
 _ZNK9KSysGuard7Process4euidEv@Base 4:5.3.0
 _ZNK9KSysGuard7Process4nameEv@Base 4:5.3.0
 _ZNK9KSysGuard7Process4sgidEv@Base 4:5.3.0
 _ZNK9KSysGuard7Process4suidEv@Base 4:5.3.0
 _ZNK9KSysGuard7Process5fsgidEv@Base 4:5.3.0
 _ZNK9KSysGuard7Process5fsuidEv@Base 4:5.3.0
 _ZNK9KSysGuard7Process5indexEv@Base 4:5.3.0
 _ZNK9KSysGuard7Process5loginEv@Base 4:5.3.0
 _ZNK9KSysGuard7Process5vmRSSEv@Base 4:5.3.0
 _ZNK9KSysGuard7Process6parentEv@Base 4:5.3.0
 _ZNK9KSysGuard7Process6statusEv@Base 4:5.3.0
 _ZNK9KSysGuard7Process6vmSizeEv@Base 4:5.3.0
 _ZNK9KSysGuard7Process6vmURSSEv@Base 4:5.3.0
 _ZNK9KSysGuard7Process7changesEv@Base 4:5.3.0
 _ZNK9KSysGuard7Process7commandEv@Base 4:5.3.0
 _ZNK9KSysGuard7Process7sysTimeEv@Base 4:5.3.0
 _ZNK9KSysGuard7Process8childrenEv@Base 4:5.3.0
 _ZNK9KSysGuard7Process8sysUsageEv@Base 4:5.3.0
 _ZNK9KSysGuard7Process8userTimeEv@Base 4:5.3.0
 _ZNK9KSysGuard7Process9niceLevelEv@Base 4:5.3.0
 _ZNK9KSysGuard7Process9parentPidEv@Base 4:5.3.0
 _ZNK9KSysGuard7Process9schedulerEv@Base 4:5.3.0
 _ZNK9KSysGuard7Process9startTimeEv@Base 4:5.3.0
 _ZNK9KSysGuard7Process9tracerpidEv@Base 4:5.3.0
 _ZNK9KSysGuard7Process9userUsageEv@Base 4:5.3.0
 _ZNK9KSysGuard9Processes10getProcessEl@Base 5.2.50+git
 _ZNK9KSysGuard9Processes10metaObjectEv@Base 5.2.50+git
 _ZNK9KSysGuard9Processes11viewingTimeEv@Base 5.2.50+git
 _ZNK9KSysGuard9Processes12processCountEv@Base 5.2.50+git
 _ZNK9KSysGuard9Processes15getAllProcessesEv@Base 5.2.50+git
 _ZNK9KSysGuard9Processes15historyFileNameEv@Base 5.2.50+git
 _ZNK9KSysGuard9Processes18historiesAvailableEv@Base 5.2.50+git
 _ZNK9KSysGuard9Processes18isHistoryAvailableEv@Base 5.2.50+git
 _ZNK9KSysGuard9Processes9lastErrorEv@Base 5.2.50+git
 _ZTIN9KSysGuard7ProcessE@Base 4:5.3.0
 _ZTIN9KSysGuard9ProcessesE@Base 5.2.50+git
 _ZTSN9KSysGuard7ProcessE@Base 4:5.3.0
 _ZTSN9KSysGuard9ProcessesE@Base 5.2.50+git
 _ZTVN9KSysGuard7ProcessE@Base 4:5.3.0
 _ZTVN9KSysGuard9ProcessesE@Base 5.2.50+git
