libprocessui.so.7 libprocessui7 #MINVER#
 _ZN11KTextEditVT11qt_metacallEN11QMetaObject4CallEiPPv@Base 5.2.50+git
 _ZN11KTextEditVT11qt_metacastEPKc@Base 5.2.50+git
 _ZN11KTextEditVT12insertVTCharERK5QChar@Base 5.2.50+git
 _ZN11KTextEditVT12insertVTTextERK10QByteArray@Base 5.2.50+git
 _ZN11KTextEditVT12insertVTTextERK7QString@Base 5.2.50+git
 _ZN11KTextEditVT16staticMetaObjectE@Base 5.2.50+git
 _ZN11KTextEditVT23setParseAnsiEscapeCodesEb@Base 5.2.50+git
 _ZN11KTextEditVTC1EP7QWidget@Base 5.2.50+git
 _ZN11KTextEditVTC2EP7QWidget@Base 5.2.50+git
 _ZN12KConfigGroup10writeEntryIbEEvPKcRKT_6QFlagsIN11KConfigBase15WriteConfigFlagEE@Base 5.2.50+git
 _ZN12KConfigGroup10writeEntryIiEEvPKcRKT_6QFlagsIN11KConfigBase15WriteConfigFlagEE@Base 5.2.50+git
 _ZN12ProcessModel10getProcessEx@Base 5.2.50+git
 _ZN12ProcessModel10setIoUnitsENS_5UnitsE@Base 5.2.50+git
 _ZN12ProcessModel11qt_metacallEN11QMetaObject4CallEiPPv@Base 5.2.50+git
 _ZN12ProcessModel11qt_metacastEPKc@Base 5.2.50+git
 _ZN12ProcessModel11setupHeaderEv@Base 5.2.50+git
 _ZN12ProcessModel13retranslateUiEv@Base 5.2.50+git
 _ZN12ProcessModel13setShowTotalsEb@Base 5.2.50+git
 _ZN12ProcessModel13setSimpleModeEb@Base 5.2.50+git
 _ZN12ProcessModel16setIoInformationENS_13IoInformationE@Base 5.2.50+git
 _ZN12ProcessModel16staticMetaObjectE@Base 5.2.50+git
 _ZN12ProcessModel18setShowingTooltipsEb@Base 5.2.50+git
 _ZN12ProcessModel21setNormalizedCPUUsageEb@Base 5.2.50+git
 _ZN12ProcessModel25setShowCommandLineOptionsEb@Base 5.2.50+git
 _ZN12ProcessModel6updateEl6QFlagsIN9KSysGuard9Processes10UpdateFlagEE@Base 5.2.50+git
 _ZN12ProcessModel8setUnitsENS_5UnitsE@Base 5.2.50+git
 _ZN12ProcessModelC1EP7QObjectRK7QString@Base 5.2.50+git
 _ZN12ProcessModelC2EP7QObjectRK7QString@Base 5.2.50+git
 _ZN12ProcessModelD0Ev@Base 5.2.50+git
 _ZN12ProcessModelD1Ev@Base 5.2.50+git
 _ZN12ProcessModelD2Ev@Base 5.2.50+git
 _ZN13ProcessFilter11qt_metacallEN11QMetaObject4CallEiPPv@Base 5.2.50+git
 _ZN13ProcessFilter11qt_metacastEPKc@Base 5.2.50+git
 _ZN13ProcessFilter16staticMetaObjectE@Base 5.2.50+git
 _ZN13ProcessFilter9setFilterENS_5StateE@Base 5.2.50+git
 _ZN20KSysGuardProcessList10expandInitEv@Base 5.2.50+git
 _ZN20KSysGuardProcessList10updateListEv@Base 5.2.50+git
 _ZN20KSysGuardProcessList11changeEventEP6QEvent@Base 5.2.50+git
 _ZN20KSysGuardProcessList11eventFilterEP7QObjectP6QEvent@Base 5.2.50+git
 _ZN20KSysGuardProcessList11qt_metacallEN11QMetaObject4CallEiPPv@Base 5.2.50+git
 _ZN20KSysGuardProcessList11qt_metacastEPKc@Base 5.2.50+git
 _ZN20KSysGuardProcessList11setStateIntEi@Base 5.2.50+git
 _ZN20KSysGuardProcessList12loadSettingsERK12KConfigGroup@Base 5.2.50+git
 _ZN20KSysGuardProcessList12processModelEv@Base 5.2.50+git
 _ZN20KSysGuardProcessList12rowsInsertedERK11QModelIndexii@Base 5.2.50+git
 _ZN20KSysGuardProcessList12saveSettingsER12KConfigGroup@Base 5.2.50+git
 _ZN20KSysGuardProcessList13killProcessesERK5QListIxEi@Base 5.2.50+git
 _ZN20KSysGuardProcessList13retranslateUiEv@Base 5.2.50+git
 _ZN20KSysGuardProcessList13setShowTotalsEb@Base 5.2.50+git
 _ZN20KSysGuardProcessList15actionTriggeredEP7QObject@Base 5.2.50+git
 _ZN20KSysGuardProcessList15reniceProcessesERK5QListIxEi@Base 5.2.50+git
 _ZN20KSysGuardProcessList16selectionChangedEv@Base 5.2.50+git
 _ZN20KSysGuardProcessList16staticMetaObjectE@Base 5.2.50+git
 _ZN20KSysGuardProcessList17changeIoSchedulerERK5QListIxEN9KSysGuard7Process15IoPriorityClassEi@Base 5.2.50+git
 _ZN20KSysGuardProcessList17expandAllChildrenERK11QModelIndex@Base 5.2.50+git
 _ZN20KSysGuardProcessList17filterTextChangedERK7QString@Base 5.2.50+git
 _ZN20KSysGuardProcessList18changeCpuSchedulerERK5QListIxEN9KSysGuard7Process9SchedulerEi@Base 5.2.50+git
 _ZN20KSysGuardProcessList18processListChangedEv@Base 5.2.50+git
 _ZN20KSysGuardProcessList18restoreHeaderStateERK10QByteArray@Base 5.2.50+git
 _ZN20KSysGuardProcessList19setScriptingEnabledEb@Base 5.2.50+git
 _ZN20KSysGuardProcessList20setKillButtonVisibleEb@Base 5.2.50+git
 _ZN20KSysGuardProcessList21killSelectedProcessesEv@Base 5.2.50+git
 _ZN20KSysGuardProcessList21showColumnContextMenuERK6QPoint@Base 5.2.50+git
 _ZN20KSysGuardProcessList22selectAndJumpToProcessEi@Base 5.2.50+git
 _ZN20KSysGuardProcessList22setUpdateIntervalMSecsEi@Base 5.2.50+git
 _ZN20KSysGuardProcessList22showProcessContextMenuERK11QModelIndex@Base 5.2.50+git
 _ZN20KSysGuardProcessList22showProcessContextMenuERK6QPoint@Base 5.2.50+git
 _ZN20KSysGuardProcessList23reniceSelectedProcessesEv@Base 5.2.50+git
 _ZN20KSysGuardProcessList29sendSignalToSelectedProcessesEib@Base 5.2.50+git
 _ZN20KSysGuardProcessList7updatedEv@Base 5.2.50+git
 _ZN20KSysGuardProcessList8setStateEN13ProcessFilter5StateE@Base 5.2.50+git
 _ZN20KSysGuardProcessList8setUnitsEN12ProcessModel5UnitsE@Base 5.2.50+git
 _ZN20KSysGuardProcessList9hideEventEP10QHideEvent@Base 5.2.50+git
 _ZN20KSysGuardProcessList9showEventEP10QShowEvent@Base 5.2.50+git
 _ZN20KSysGuardProcessListC1EP7QWidgetRK7QString@Base 5.2.50+git
 _ZN20KSysGuardProcessListC2EP7QWidgetRK7QString@Base 5.2.50+git
 _ZN20KSysGuardProcessListD0Ev@Base 5.2.50+git
 _ZN20KSysGuardProcessListD1Ev@Base 5.2.50+git
 _ZN20KSysGuardProcessListD2Ev@Base 5.2.50+git
 _ZNK11KTextEditVT10metaObjectEv@Base 5.2.50+git
 _ZNK11KTextEditVT20parseAnsiEscapeCodesEv@Base 5.2.50+git
 _ZNK12KConfigGroup9readEntryI10QByteArrayEET_PKcRKS2_@Base 5.2.50+git
 _ZNK12KConfigGroup9readEntryIbEET_PKcRKS1_@Base 5.2.50+git
 _ZNK12KConfigGroup9readEntryIiEET_PKcRKS1_@Base 5.2.50+git
 _ZNK12ProcessModel10headerDataEiN2Qt11OrientationEi@Base 5.2.50+git
 _ZNK12ProcessModel10metaObjectEv@Base 5.2.50+git
 _ZNK12ProcessModel10showTotalsEv@Base 5.2.50+git
 _ZNK12ProcessModel11columnCountERK11QModelIndex@Base 5.2.50+git
 _ZNK12ProcessModel11hasChildrenERK11QModelIndex@Base 5.2.50+git
 _ZNK12ProcessModel11isLocalhostEv@Base 5.2.50+git
 _ZNK12ProcessModel11totalMemoryEv@Base 5.2.50+git
 _ZNK12ProcessModel12canUserLoginEl@Base 5.2.50+git
 _ZNK12ProcessModel12hasGUIWindowEx@Base 5.2.50+git
 _ZNK12ProcessModel12isSimpleModeEv@Base 5.2.50+git
 _ZNK12ProcessModel13ioInformationEv@Base 5.2.50+git
 _ZNK12ProcessModel14getQModelIndexEPN9KSysGuard7ProcessEi@Base 5.2.50+git
 _ZNK12ProcessModel16formatMemoryInfoExNS_5UnitsEb@Base 5.2.50+git
 _ZNK12ProcessModel17getProcessAtIndexEi@Base 5.2.50+git
 _ZNK12ProcessModel17isShowingTooltipsEv@Base 5.2.50+git
 _ZNK12ProcessModel17processControllerEv@Base 5.2.50+git
 _ZNK12ProcessModel19getStringForProcessEPN9KSysGuard7ProcessE@Base 5.2.50+git
 _ZNK12ProcessModel20isNormalizedCPUUsageEv@Base 5.2.50+git
 _ZNK12ProcessModel24isShowCommandLineOptionsEv@Base 5.2.50+git
 _ZNK12ProcessModel4dataERK11QModelIndexi@Base 5.2.50+git
 _ZNK12ProcessModel5flagsERK11QModelIndex@Base 5.2.50+git
 _ZNK12ProcessModel5indexEiiRK11QModelIndex@Base 5.2.50+git
 _ZNK12ProcessModel5unitsEv@Base 5.2.50+git
 _ZNK12ProcessModel6parentERK11QModelIndex@Base 5.2.50+git
 _ZNK12ProcessModel7ioUnitsEv@Base 5.2.50+git
 _ZNK12ProcessModel8hostNameEv@Base 5.2.50+git
 _ZNK12ProcessModel8lessThanERK11QModelIndexS2_@Base 5.2.50+git
 _ZNK12ProcessModel8mimeDataERK5QListI11QModelIndexE@Base 5.2.50+git
 _ZNK12ProcessModel8rowCountERK11QModelIndex@Base 5.2.50+git
 _ZNK12ProcessModel9mimeTypesEv@Base 5.2.50+git
 _ZNK13ProcessFilter10metaObjectEv@Base 5.2.50+git
 _ZNK13ProcessFilter16filterAcceptsRowEiRK11QModelIndex@Base 5.2.50+git
 _ZNK13ProcessFilter8lessThanERK11QModelIndexS2_@Base 5.2.50+git
 _ZNK20KSysGuardProcessList10metaObjectEv@Base 5.2.50+git
 _ZNK20KSysGuardProcessList10showTotalsEv@Base 5.2.50+git
 _ZNK20KSysGuardProcessList14filterLineEditEv@Base 5.2.50+git
 _ZNK20KSysGuardProcessList16scriptingEnabledEv@Base 5.2.50+git
 _ZNK20KSysGuardProcessList17selectedProcessesEv@Base 5.2.50+git
 _ZNK20KSysGuardProcessList19isKillButtonVisibleEv@Base 5.2.50+git
 _ZNK20KSysGuardProcessList19updateIntervalMSecsEv@Base 5.2.50+git
 _ZNK20KSysGuardProcessList21visibleProcessesCountEv@Base 5.2.50+git
 _ZNK20KSysGuardProcessList5stateEv@Base 5.2.50+git
 _ZNK20KSysGuardProcessList5unitsEv@Base 5.2.50+git
 _ZNK20KSysGuardProcessList8treeViewEv@Base 5.2.50+git
 _ZTI11KTextEditVT@Base 5.2.50+git
 _ZTI12ProcessModel@Base 5.2.50+git
 _ZTI13ProcessFilter@Base 5.2.50+git
 _ZTI20KSysGuardProcessList@Base 5.2.50+git
 _ZTS11KTextEditVT@Base 5.2.50+git
 _ZTS12ProcessModel@Base 5.2.50+git
 _ZTS13ProcessFilter@Base 5.2.50+git
 _ZTS20KSysGuardProcessList@Base 5.2.50+git
 _ZTV11KTextEditVT@Base 5.2.50+git
 _ZTV12ProcessModel@Base 5.2.50+git
 _ZTV13ProcessFilter@Base 5.2.50+git
 _ZTV20KSysGuardProcessList@Base 5.2.50+git
 _ZThn16_N20KSysGuardProcessListD0Ev@Base 5.2.50+git
 _ZThn16_N20KSysGuardProcessListD1Ev@Base 5.2.50+git
