libqqwing.so.2 libqqwing2v5 #MINVER#
 _ZN6qqwing10getVersionB5cxx11Ev@Base 1.3.4
 _ZN6qqwing11SudokuBoard11clearPuzzleEv@Base 1.3.2
 _ZN6qqwing11SudokuBoard11getSolutionEv@Base 1.3.2
 _ZN6qqwing11SudokuBoard11printPuzzleEv@Base 1.3.2
 _ZN6qqwing11SudokuBoard12isImpossibleEv@Base 1.3.2
 _ZN6qqwing11SudokuBoard12printHistoryEPSt6vectorIPNS_7LogItemESaIS3_EE@Base 1.3.2
 _ZN6qqwing11SudokuBoard13getDifficultyEv@Base 1.3.2
 _ZN6qqwing11SudokuBoard13getGivenCountEv@Base 1.3.2
 _ZN6qqwing11SudokuBoard13getGuessCountEv@Base 1.3.2
 _ZN6qqwing11SudokuBoard13printSolutionEv@Base 1.3.2
 _ZN6qqwing11SudokuBoard13rollbackRoundEi@Base 1.3.2
 _ZN6qqwing11SudokuBoard13setLogHistoryEb@Base 1.3.2
 _ZN6qqwing11SudokuBoard13setPrintStyleENS0_10PrintStyleE@Base 1.3.2
 _ZN6qqwing11SudokuBoard14addHistoryItemEPNS_7LogItemE@Base 1.3.2
 _ZN6qqwing11SudokuBoard14countSolutionsEb@Base 1.3.4
 _ZN6qqwing11SudokuBoard14countSolutionsEib@Base 1.3.2
 _ZN6qqwing11SudokuBoard14countSolutionsEv@Base 1.3.2
 _ZN6qqwing11SudokuBoard14generatePuzzleEv@Base 1.3.2
 _ZN6qqwing11SudokuBoard14getSingleCountEv@Base 1.3.2
 _ZN6qqwing11SudokuBoard14onlyValueInRowEi@Base 1.3.2
 _ZN6qqwing11SudokuBoard15colBoxReductionEi@Base 1.3.2
 _ZN6qqwing11SudokuBoard15hiddenPairInRowEi@Base 1.3.2
 _ZN6qqwing11SudokuBoard15rowBoxReductionEi@Base 1.3.2
 _ZN6qqwing11SudokuBoard15singleSolveMoveEi@Base 1.3.2
 _ZN6qqwing11SudokuBoard16handleNakedPairsEi@Base 1.3.2
 _ZN6qqwing11SudokuBoard16setRecordHistoryEb@Base 1.3.2
 _ZN6qqwing11SudokuBoard17getBacktrackCountEv@Base 1.3.2
 _ZN6qqwing11SudokuBoard17getNakedPairCountEv@Base 1.3.2
 _ZN6qqwing11SudokuBoard17hasUniqueSolutionEv@Base 1.3.4
 _ZN6qqwing11SudokuBoard17onlyValueInColumnEi@Base 1.3.2
 _ZN6qqwing11SudokuBoard17printSolveHistoryEv@Base 1.3.2
 _ZN6qqwing11SudokuBoard18countPossibilitiesEi@Base 1.3.2
 _ZN6qqwing11SudokuBoard18getHiddenPairCountEv@Base 1.3.2
 _ZN6qqwing11SudokuBoard18hiddenPairInColumnEi@Base 1.3.2
 _ZN6qqwing11SudokuBoard18onlyValueInSectionEi@Base 1.3.2
 _ZN6qqwing11SudokuBoard18rollbackNonGuessesEv@Base 1.3.2
 _ZN6qqwing11SudokuBoard19hiddenPairInSectionEi@Base 1.3.2
 _ZN6qqwing11SudokuBoard19shuffleRandomArraysEv@Base 1.3.2
 _ZN6qqwing11SudokuBoard20arePossibilitiesSameEii@Base 1.3.2
 _ZN6qqwing11SudokuBoard20getHiddenSingleCountEv@Base 1.3.2
 _ZN6qqwing11SudokuBoard20pointingRowReductionEi@Base 1.3.2
 _ZN6qqwing11SudokuBoard21countSolutionsLimitedEv@Base 1.3.4
 _ZN6qqwing11SudokuBoard21getDifficultyAsStringB5cxx11Ev@Base 1.3.4
 _ZN6qqwing11SudokuBoard22generatePuzzleSymmetryENS0_8SymmetryE@Base 1.3.2
 _ZN6qqwing11SudokuBoard22onlyPossibilityForCellEi@Base 1.3.2
 _ZN6qqwing11SudokuBoard22printSolveInstructionsEv@Base 1.3.2
 _ZN6qqwing11SudokuBoard23pointingColumnReductionEi@Base 1.3.2
 _ZN6qqwing11SudokuBoard24getBoxLineReductionCountEv@Base 1.3.2
 _ZN6qqwing11SudokuBoard26getPointingPairTripleCountEv@Base 1.3.2
 _ZN6qqwing11SudokuBoard31removePossibilitiesInOneFromTwoEiii@Base 1.3.2
 _ZN6qqwing11SudokuBoard35findPositionWithFewestPossibilitiesEv@Base 1.3.2
 _ZN6qqwing11SudokuBoard4markEiii@Base 1.3.2
 _ZN6qqwing11SudokuBoard5guessEii@Base 1.3.2
 _ZN6qqwing11SudokuBoard5printEPi@Base 1.3.2
 _ZN6qqwing11SudokuBoard5resetEv@Base 1.3.2
 _ZN6qqwing11SudokuBoard5solveEi@Base 1.3.2
 _ZN6qqwing11SudokuBoard5solveEv@Base 1.3.2
 _ZN6qqwing11SudokuBoard8isSolvedEv@Base 1.3.2
 _ZN6qqwing11SudokuBoard9getPuzzleEv@Base 1.3.2
 _ZN6qqwing11SudokuBoard9setPuzzleEPi@Base 1.3.2
 _ZN6qqwing11SudokuBoardC1Ev@Base 1.3.2
 _ZN6qqwing11SudokuBoardC2Ev@Base 1.3.2
 _ZN6qqwing11SudokuBoardD1Ev@Base 1.3.2
 _ZN6qqwing11SudokuBoardD2Ev@Base 1.3.2
 _ZN6qqwing11getLogCountEPSt6vectorIPNS_7LogItemESaIS2_EENS1_7LogTypeE@Base 1.3.2
 _ZN6qqwing12shuffleArrayEPii@Base 1.3.2
 _ZN6qqwing17getRandomSymmetryEv@Base 1.3.2
 _ZN6qqwing7LogItem4initEiNS0_7LogTypeEii@Base 1.3.2
 _ZN6qqwing7LogItem5printEv@Base 1.3.2
 _ZN6qqwing7LogItem7getTypeEv@Base 1.3.2
 _ZN6qqwing7LogItem8getRoundEv@Base 1.3.2
 _ZN6qqwing7LogItemC1EiNS0_7LogTypeE@Base 1.3.2
 _ZN6qqwing7LogItemC1EiNS0_7LogTypeEii@Base 1.3.2
 _ZN6qqwing7LogItemC2EiNS0_7LogTypeE@Base 1.3.2
 _ZN6qqwing7LogItemC2EiNS0_7LogTypeEii@Base 1.3.2
 _ZN6qqwing7LogItemD1Ev@Base 1.3.2
 _ZN6qqwing7LogItemD2Ev@Base 1.3.2
 _ZNKSt5ctypeIcE8do_widenEc@Base 1.3.2
 _ZNSt6vectorIPN6qqwing7LogItemESaIS2_EE13_M_insert_auxEN9__gnu_cxx17__normal_iteratorIPS2_S4_EERKS2_@Base 1.3.2
