(dp0
S'acc'
p1
(lp2
cnumpy.core.multiarray
scalar
p3
(cnumpy
dtype
p4
(S'f8'
p5
I0
I1
tp6
Rp7
(I3
S'<'
p8
NNNI-1
I-1
I0
tp9
bS'\x00\x00\x00\x00\x00\x00\xf0?'
p10
tp11
Rp12
asS'loss'
p13
(lp14
g3
(g7
S'\x12\x0e)wi\x03\xd0?'
p15
tp16
Rp17
as.